; ModuleID = '/Users/Jonas/CLionProjects/HackerRank/XtremeJonasScript/src/Lexer.cpp'
source_filename = "/Users/Jonas/CLionProjects/HackerRank/XtremeJonasScript/src/Lexer.cpp"
target datalayout = "e-m:o-i64:64-f80:128-n8:16:32:64-S128"
target triple = "x86_64-apple-macosx10.12.0"

%"class.std::__1::basic_string" = type { %"class.std::__1::__compressed_pair" }
%"class.std::__1::__compressed_pair" = type { %"class.std::__1::__libcpp_compressed_pair_imp" }
%"class.std::__1::__libcpp_compressed_pair_imp" = type { %"struct.std::__1::basic_string<char, std::__1::char_traits<char>, std::__1::allocator<char> >::__rep" }
%"struct.std::__1::basic_string<char, std::__1::char_traits<char>, std::__1::allocator<char> >::__rep" = type { %union.anon.0 }
%union.anon.0 = type { %"struct.std::__1::basic_string<char, std::__1::char_traits<char>, std::__1::allocator<char> >::__long" }
%"struct.std::__1::basic_string<char, std::__1::char_traits<char>, std::__1::allocator<char> >::__long" = type { i64, i64, i8* }
%"class.std::__1::vector" = type { %"class.std::__1::__vector_base" }
%"class.std::__1::__vector_base" = type { %"class.std::__1::basic_string"*, %"class.std::__1::basic_string"*, %"class.std::__1::__compressed_pair.16" }
%"class.std::__1::__compressed_pair.16" = type { %"class.std::__1::__libcpp_compressed_pair_imp.17" }
%"class.std::__1::__libcpp_compressed_pair_imp.17" = type { %"class.std::__1::basic_string"* }
%"class.std::__1::vector.47" = type { %"class.std::__1::__vector_base.48" }
%"class.std::__1::__vector_base.48" = type { i8*, i8*, %"class.std::__1::__compressed_pair.49" }
%"class.std::__1::__compressed_pair.49" = type { %"class.std::__1::__libcpp_compressed_pair_imp.50" }
%"class.std::__1::__libcpp_compressed_pair_imp.50" = type { i8* }
%"class.std::__1::unordered_map.51" = type { %"class.std::__1::__hash_table.52" }
%"class.std::__1::__hash_table.52" = type <{ %"class.std::__1::unique_ptr.53", %"class.std::__1::__compressed_pair.62", %"class.std::__1::__compressed_pair.66", %"class.std::__1::__compressed_pair.69", [4 x i8] }>
%"class.std::__1::unique_ptr.53" = type { %"class.std::__1::__compressed_pair.54" }
%"class.std::__1::__compressed_pair.54" = type { %"class.std::__1::__libcpp_compressed_pair_imp.55" }
%"class.std::__1::__libcpp_compressed_pair_imp.55" = type { %"struct.std::__1::__hash_node_base.56"**, %"class.std::__1::__bucket_list_deallocator.57" }
%"struct.std::__1::__hash_node_base.56" = type { %"struct.std::__1::__hash_node_base.56"* }
%"class.std::__1::__bucket_list_deallocator.57" = type { %"class.std::__1::__compressed_pair.58" }
%"class.std::__1::__compressed_pair.58" = type { %"class.std::__1::__libcpp_compressed_pair_imp.59" }
%"class.std::__1::__libcpp_compressed_pair_imp.59" = type { i64 }
%"class.std::__1::__compressed_pair.62" = type { %"class.std::__1::__libcpp_compressed_pair_imp.63" }
%"class.std::__1::__libcpp_compressed_pair_imp.63" = type { %"struct.std::__1::__hash_node_base.56" }
%"class.std::__1::__compressed_pair.66" = type { %"class.std::__1::__libcpp_compressed_pair_imp.67" }
%"class.std::__1::__libcpp_compressed_pair_imp.67" = type { i64 }
%"class.std::__1::__compressed_pair.69" = type { %"class.std::__1::__libcpp_compressed_pair_imp.70" }
%"class.std::__1::__libcpp_compressed_pair_imp.70" = type { float }
%class.Lexer = type { i32, i32, i32, i32, i32, [4 x i8], %class.Token, %"class.std::__1::vector.27", %"class.std::__1::basic_string" }
%class.Token = type { %struct.Variant, i32, i32, i32, i32, i32, i32 }
%struct.Variant = type <{ %union.anon, i8, [7 x i8], %"class.std::__1::basic_string", %struct.TypeSpecifier, i8, i8, i8, [5 x i8] }>
%union.anon = type { i64 }
%struct.TypeSpecifier = type { i32, %"class.std::__1::basic_string", %"class.std::__1::shared_ptr", i8, i8, i8, i8, i64, i32, i8, i8, %"class.std::__1::basic_string", i8, [7 x i8], %"class.std::__1::unordered_map", i8, i8, i8, i8, i8, i8, i8, i32, %"class.std::__1::vector", %"class.std::__1::vector.20", %union.anon.26 }
%"class.std::__1::shared_ptr" = type { %class.Expression*, %"class.std::__1::__shared_weak_count"* }
%class.Expression = type { %class.Statement.base, %"class.std::__1::shared_ptr", i8, %"class.std::__1::shared_ptr", i8, %"class.std::__1::unique_ptr.33", i8, %struct.TypeSpecifier }
%class.Statement.base = type { %class.AstNode.base }
%class.AstNode.base = type <{ i32 (...)**, i32, i32, i64, %class.AstNode*, %class.DeclStmt*, i8, [3 x i8], i32, %"class.std::__1::vector", %struct.TypeSpecifier, %struct.TypeSpecifier, i8, [7 x i8], %"class.std::__1::basic_string", i8, i8 }>
%class.AstNode = type <{ i32 (...)**, i32, i32, i64, %class.AstNode*, %class.DeclStmt*, i8, [3 x i8], i32, %"class.std::__1::vector", %struct.TypeSpecifier, %struct.TypeSpecifier, i8, [7 x i8], %"class.std::__1::basic_string", i8, i8, [6 x i8] }>
%class.DeclStmt = type <{ %class.Statement.base, [6 x i8], %"class.std::__1::vector", %"class.std::__1::vector.36", %"class.std::__1::vector", %"class.std::__1::vector.42", i8, i8, [6 x i8] }>
%"class.std::__1::vector.36" = type { %"class.std::__1::__vector_base.37" }
%"class.std::__1::__vector_base.37" = type { %"struct.std::__1::pair"*, %"struct.std::__1::pair"*, %"class.std::__1::__compressed_pair.38" }
%"struct.std::__1::pair" = type opaque
%"class.std::__1::__compressed_pair.38" = type { %"class.std::__1::__libcpp_compressed_pair_imp.39" }
%"class.std::__1::__libcpp_compressed_pair_imp.39" = type { %"struct.std::__1::pair"* }
%"class.std::__1::vector.42" = type { i64*, i64, %"class.std::__1::__compressed_pair.43" }
%"class.std::__1::__compressed_pair.43" = type { %"class.std::__1::__libcpp_compressed_pair_imp.44" }
%"class.std::__1::__libcpp_compressed_pair_imp.44" = type { i64 }
%"class.std::__1::unique_ptr.33" = type { %"class.std::__1::__compressed_pair.34" }
%"class.std::__1::__compressed_pair.34" = type { %"class.std::__1::__libcpp_compressed_pair_imp.35" }
%"class.std::__1::__libcpp_compressed_pair_imp.35" = type { %struct.Variant* }
%"class.std::__1::__shared_weak_count" = type { %"class.std::__1::__shared_count", i64 }
%"class.std::__1::__shared_count" = type { i32 (...)**, i64 }
%"class.std::__1::unordered_map" = type { %"class.std::__1::__hash_table" }
%"class.std::__1::__hash_table" = type <{ %"class.std::__1::unique_ptr", %"class.std::__1::__compressed_pair.8", %"class.std::__1::__compressed_pair.12", %"class.std::__1::__compressed_pair.14", [4 x i8] }>
%"class.std::__1::unique_ptr" = type { %"class.std::__1::__compressed_pair.2" }
%"class.std::__1::__compressed_pair.2" = type { %"class.std::__1::__libcpp_compressed_pair_imp.3" }
%"class.std::__1::__libcpp_compressed_pair_imp.3" = type { %"struct.std::__1::__hash_node_base"**, %"class.std::__1::__bucket_list_deallocator" }
%"struct.std::__1::__hash_node_base" = type { %"struct.std::__1::__hash_node_base"* }
%"class.std::__1::__bucket_list_deallocator" = type { %"class.std::__1::__compressed_pair.4" }
%"class.std::__1::__compressed_pair.4" = type { %"class.std::__1::__libcpp_compressed_pair_imp.5" }
%"class.std::__1::__libcpp_compressed_pair_imp.5" = type { i64 }
%"class.std::__1::__compressed_pair.8" = type { %"class.std::__1::__libcpp_compressed_pair_imp.9" }
%"class.std::__1::__libcpp_compressed_pair_imp.9" = type { %"struct.std::__1::__hash_node_base" }
%"class.std::__1::__compressed_pair.12" = type { %"class.std::__1::__libcpp_compressed_pair_imp.13" }
%"class.std::__1::__libcpp_compressed_pair_imp.13" = type { i64 }
%"class.std::__1::__compressed_pair.14" = type { %"class.std::__1::__libcpp_compressed_pair_imp.15" }
%"class.std::__1::__libcpp_compressed_pair_imp.15" = type { float }
%"class.std::__1::vector.20" = type { %"class.std::__1::__vector_base.21" }
%"class.std::__1::__vector_base.21" = type { %struct.TypeSpecifier*, %struct.TypeSpecifier*, %"class.std::__1::__compressed_pair.22" }
%"class.std::__1::__compressed_pair.22" = type { %"class.std::__1::__libcpp_compressed_pair_imp.23" }
%"class.std::__1::__libcpp_compressed_pair_imp.23" = type { %struct.TypeSpecifier* }
%union.anon.26 = type { %struct.TypeSpecifier* }
%"class.std::__1::vector.27" = type { %"class.std::__1::__vector_base.28" }
%"class.std::__1::__vector_base.28" = type { %class.Token*, %class.Token*, %"class.std::__1::__compressed_pair.29" }
%"class.std::__1::__compressed_pair.29" = type { %"class.std::__1::__libcpp_compressed_pair_imp.30" }
%"class.std::__1::__libcpp_compressed_pair_imp.30" = type { %class.Token* }
%"class.std::__1::allocator.31" = type { i8 }
%"struct.std::__1::integral_constant" = type { i8 }
%"struct.std::__1::__has_construct" = type { i8 }
%"struct.std::__1::vector<Token, std::__1::allocator<Token> >::__RAII_IncreaseAnnotator" = type { i8 }
%"class.std::__1::__vector_base_common" = type { i8 }
%"class.std::__1::allocator" = type { i8 }
%"struct.std::__1::basic_string<char, std::__1::char_traits<char>, std::__1::allocator<char> >::__short" = type { %union.anon.1, [23 x i8] }
%union.anon.1 = type { i8 }
%"class.std::__1::__basic_string_common" = type { i8 }
%"struct.std::__1::basic_string<char, std::__1::char_traits<char>, std::__1::allocator<char> >::__raw" = type { [3 x i64] }
%"struct.std::__1::pair.73" = type <{ %"class.std::__1::basic_string", i32, [4 x i8] }>
%"union.std::__1::__hash_value_type.82" = type { %"struct.std::__1::pair.73" }
%"class.std::__1::__hash_iterator" = type { %"struct.std::__1::__hash_node_base.56"* }
%"class.std::__1::__hash_map_iterator" = type { %"class.std::__1::__hash_iterator" }
%"struct.std::__1::__hash_node.85" = type { %"struct.std::__1::__hash_node_base.56", i64, %"union.std::__1::__hash_value_type.82" }
%"class.std::__1::allocator.24" = type { i8 }
%"struct.std::__1::__has_destroy" = type { i8 }
%"class.std::__1::allocator.18" = type { i8 }
%"struct.std::__1::__has_destroy.74" = type { i8 }
%"class.std::__1::allocator.6" = type { i8 }
%"class.std::__1::allocator.10" = type { i8 }
%"struct.std::__1::pair.75" = type { %"class.std::__1::basic_string", %struct.TypeSpecifier }
%"struct.std::__1::integral_constant.77" = type { i8 }
%"struct.std::__1::__has_destroy.78" = type { i8 }
%"struct.std::__1::__hash_node" = type { %"struct.std::__1::__hash_node_base", i64, %"union.std::__1::__hash_value_type" }
%"union.std::__1::__hash_value_type" = type { %"struct.std::__1::pair.75" }
%"struct.std::__1::__has_destroy.79" = type { i8 }
%"struct.std::__1::__less" = type { i8 }
%"struct.std::__1::__split_buffer" = type { %class.Token*, %class.Token*, %class.Token*, %"class.std::__1::__compressed_pair.80" }
%"class.std::__1::__compressed_pair.80" = type { %"class.std::__1::__libcpp_compressed_pair_imp.81" }
%"class.std::__1::__libcpp_compressed_pair_imp.81" = type { %class.Token*, %"class.std::__1::allocator.31"* }
%"struct.std::__1::__has_max_size" = type { i8 }
%"class.std::__1::__split_buffer_common" = type { i8 }

@_ZN4llvm24DisableABIBreakingChecksE = external global i32, align 4
@_ZN4llvm30VerifyDisableABIBreakingChecksE = weak hidden global i32* @_ZN4llvm24DisableABIBreakingChecksE, align 8
@.str = private unnamed_addr constant [7 x i8] c"String\00", align 1
@.str.1 = private unnamed_addr constant [18 x i8] c"Unexpected token \00", align 1
@_ZN4util11token_namesE = external global [0 x %"class.std::__1::basic_string"], align 8
@_ZN4util16binary_operatorsE = external global %"class.std::__1::vector", align 8
@_ZN4util15unary_operatorsE = external global %"class.std::__1::vector", align 8
@_ZN4util18tertiary_operatorsE = external global %"class.std::__1::vector", align 8
@_ZN4util14operator_charsE = external global %"class.std::__1::vector.47", align 8
@_ZN4util8keywordsE = external global %"class.std::__1::vector", align 8
@_ZN4util7typemapE = external global %"class.std::__1::unordered_map.51", align 8
@_ZN4util11punctuatorsE = external global %"class.std::__1::vector.47", align 8
@.str.2 = private unnamed_addr constant [5 x i8] c"true\00", align 1
@.str.3 = private unnamed_addr constant [6 x i8] c"false\00", align 1
@.str.4 = private unnamed_addr constant [1 x i8] zeroinitializer, align 1
@.str.5 = private unnamed_addr constant [37 x i8] c"Expected \22'\22 after character literal\00", align 1
@.str.6 = private unnamed_addr constant [3 x i8] c"0x\00", align 1
@.str.7 = private unnamed_addr constant [22 x i8] c"Invalid octal literal\00", align 1
@.str.8 = private unnamed_addr constant [7 x i8] c"typeof\00", align 1
@.str.9 = private unnamed_addr constant [4 x i8] c"new\00", align 1
@.str.10 = private unnamed_addr constant [5 x i8] c"null\00", align 1
@.str.11 = private unnamed_addr constant [2 x i8] c"_\00", align 1
@.str.12 = private unnamed_addr constant [29 x i8] c"'_' is a reserved identifier\00", align 1
@.str.13 = private unnamed_addr constant [2 x i8] c".\00", align 1
@.str.14 = private unnamed_addr constant [22 x i8] c"Unexpected character \00", align 1
@.str.15 = private unnamed_addr constant [10 x i8] c"Expected \00", align 1
@.str.16 = private unnamed_addr constant [10 x i8] c" but got \00", align 1

; Function Attrs: ssp uwtable
define void @_ZN5LexerC2ENSt3__112basic_stringIcNS0_11char_traitsIcEENS0_9allocatorIcEEEE(%class.Lexer*, %"class.std::__1::basic_string"*) unnamed_addr #0 align 2 personality i8* bitcast (i32 (...)* @__gxx_personality_v0 to i8*) {
  %3 = alloca %"class.std::__1::vector.27"*, align 8
  %4 = alloca %class.Token*, align 8
  %5 = alloca %"class.std::__1::allocator.31"*, align 8
  %6 = alloca %class.Token*, align 8
  %7 = alloca %class.Token*, align 8
  %8 = alloca %class.Token*, align 8
  %9 = alloca %"struct.std::__1::integral_constant", align 1
  %10 = alloca %"class.std::__1::allocator.31"*, align 8
  %11 = alloca %class.Token*, align 8
  %12 = alloca %class.Token*, align 8
  %13 = alloca %class.Token*, align 8
  %14 = alloca %"class.std::__1::allocator.31"*, align 8
  %15 = alloca %class.Token*, align 8
  %16 = alloca %class.Token*, align 8
  %17 = alloca %"struct.std::__1::integral_constant", align 1
  %18 = alloca %"struct.std::__1::__has_construct", align 1
  %19 = alloca %class.Token*, align 8
  %20 = alloca %"class.std::__1::__libcpp_compressed_pair_imp.30"*, align 8
  %21 = alloca %"class.std::__1::__compressed_pair.29"*, align 8
  %22 = alloca %"class.std::__1::__vector_base.28"*, align 8
  %23 = alloca %"class.std::__1::__libcpp_compressed_pair_imp.30"*, align 8
  %24 = alloca %"class.std::__1::__compressed_pair.29"*, align 8
  %25 = alloca %"class.std::__1::__vector_base.28"*, align 8
  %26 = alloca %"class.std::__1::vector.27"*, align 8
  %27 = alloca %class.Token*, align 8
  %28 = alloca %"struct.std::__1::vector<Token, std::__1::allocator<Token> >::__RAII_IncreaseAnnotator", align 1
  %29 = alloca %class.Token**, align 8
  %30 = alloca %"class.std::__1::allocator.31"*, align 8
  %31 = alloca %"class.std::__1::__libcpp_compressed_pair_imp.30"*, align 8
  %32 = alloca %class.Token*, align 8
  %33 = alloca %class.Token**, align 8
  %34 = alloca %"class.std::__1::__compressed_pair.29"*, align 8
  %35 = alloca %class.Token*, align 8
  %36 = alloca %"class.std::__1::__compressed_pair.29"*, align 8
  %37 = alloca %class.Token*, align 8
  %38 = alloca %"class.std::__1::__vector_base_common"*, align 8
  %39 = alloca %"class.std::__1::__vector_base.28"*, align 8
  %40 = alloca %"class.std::__1::vector.27"*, align 8
  %41 = alloca %"class.std::__1::vector.27"*, align 8
  %42 = alloca %class.Lexer*, align 8
  %43 = alloca %struct.Variant, align 8
  %44 = alloca i8*
  %45 = alloca i32
  %46 = alloca %class.Token, align 8
  store %class.Lexer* %0, %class.Lexer** %42, align 8
  %47 = load %class.Lexer*, %class.Lexer** %42, align 8
  %48 = getelementptr inbounds %class.Lexer, %class.Lexer* %47, i32 0, i32 0
  store i32 0, i32* %48, align 8
  %49 = getelementptr inbounds %class.Lexer, %class.Lexer* %47, i32 0, i32 1
  store i32 0, i32* %49, align 4
  %50 = getelementptr inbounds %class.Lexer, %class.Lexer* %47, i32 0, i32 2
  store i32 0, i32* %50, align 8
  %51 = getelementptr inbounds %class.Lexer, %class.Lexer* %47, i32 0, i32 4
  store i32 0, i32* %51, align 8
  %52 = getelementptr inbounds %class.Lexer, %class.Lexer* %47, i32 0, i32 6
  call void @_ZN7VariantC1Ev(%struct.Variant* %43)
  invoke void @_ZN5TokenC1E9TokenType7Variantiii(%class.Token* %52, i32 6, %struct.Variant* %43, i32 0, i32 0, i32 0)
          to label %53 unwind label %141

; <label>:53:                                     ; preds = %2
  call void @_ZN7VariantD1Ev(%struct.Variant* %43) #11
  %54 = getelementptr inbounds %class.Lexer, %class.Lexer* %47, i32 0, i32 7
  store %"class.std::__1::vector.27"* %54, %"class.std::__1::vector.27"** %41, align 8
  %55 = load %"class.std::__1::vector.27"*, %"class.std::__1::vector.27"** %41, align 8
  store %"class.std::__1::vector.27"* %55, %"class.std::__1::vector.27"** %40, align 8
  %56 = load %"class.std::__1::vector.27"*, %"class.std::__1::vector.27"** %40, align 8
  %57 = bitcast %"class.std::__1::vector.27"* %56 to %"class.std::__1::__vector_base.28"*
  store %"class.std::__1::__vector_base.28"* %57, %"class.std::__1::__vector_base.28"** %39, align 8
  %58 = load %"class.std::__1::__vector_base.28"*, %"class.std::__1::__vector_base.28"** %39, align 8
  %59 = bitcast %"class.std::__1::__vector_base.28"* %58 to %"class.std::__1::__vector_base_common"*
  store %"class.std::__1::__vector_base_common"* %59, %"class.std::__1::__vector_base_common"** %38, align 8
  %60 = load %"class.std::__1::__vector_base_common"*, %"class.std::__1::__vector_base_common"** %38, align 8
  %61 = getelementptr inbounds %"class.std::__1::__vector_base.28", %"class.std::__1::__vector_base.28"* %58, i32 0, i32 0
  store %class.Token* null, %class.Token** %61, align 8
  %62 = getelementptr inbounds %"class.std::__1::__vector_base.28", %"class.std::__1::__vector_base.28"* %58, i32 0, i32 1
  store %class.Token* null, %class.Token** %62, align 8
  %63 = getelementptr inbounds %"class.std::__1::__vector_base.28", %"class.std::__1::__vector_base.28"* %58, i32 0, i32 2
  store %"class.std::__1::__compressed_pair.29"* %63, %"class.std::__1::__compressed_pair.29"** %36, align 8
  store %class.Token* null, %class.Token** %37, align 8
  %64 = load %"class.std::__1::__compressed_pair.29"*, %"class.std::__1::__compressed_pair.29"** %36, align 8
  %65 = load %class.Token*, %class.Token** %37, align 8
  store %"class.std::__1::__compressed_pair.29"* %64, %"class.std::__1::__compressed_pair.29"** %34, align 8
  store %class.Token* %65, %class.Token** %35, align 8
  %66 = load %"class.std::__1::__compressed_pair.29"*, %"class.std::__1::__compressed_pair.29"** %34, align 8
  %67 = bitcast %"class.std::__1::__compressed_pair.29"* %66 to %"class.std::__1::__libcpp_compressed_pair_imp.30"*
  store %class.Token** %35, %class.Token*** %33, align 8
  %68 = load %class.Token**, %class.Token*** %33, align 8
  %69 = load %class.Token*, %class.Token** %68, align 8
  store %"class.std::__1::__libcpp_compressed_pair_imp.30"* %67, %"class.std::__1::__libcpp_compressed_pair_imp.30"** %31, align 8
  store %class.Token* %69, %class.Token** %32, align 8
  %70 = load %"class.std::__1::__libcpp_compressed_pair_imp.30"*, %"class.std::__1::__libcpp_compressed_pair_imp.30"** %31, align 8
  %71 = bitcast %"class.std::__1::__libcpp_compressed_pair_imp.30"* %70 to %"class.std::__1::allocator.31"*
  store %"class.std::__1::allocator.31"* %71, %"class.std::__1::allocator.31"** %30, align 8
  %72 = load %"class.std::__1::allocator.31"*, %"class.std::__1::allocator.31"** %30, align 8
  %73 = getelementptr inbounds %"class.std::__1::__libcpp_compressed_pair_imp.30", %"class.std::__1::__libcpp_compressed_pair_imp.30"* %70, i32 0, i32 0
  store %class.Token** %32, %class.Token*** %29, align 8
  %74 = load %class.Token**, %class.Token*** %29, align 8
  %75 = load %class.Token*, %class.Token** %74, align 8
  store %class.Token* %75, %class.Token** %73, align 8
  %76 = getelementptr inbounds %class.Lexer, %class.Lexer* %47, i32 0, i32 8
  invoke void @_ZNSt3__112basic_stringIcNS_11char_traitsIcEENS_9allocatorIcEEEC1ERKS5_(%"class.std::__1::basic_string"* %76, %"class.std::__1::basic_string"* dereferenceable(24) %1)
          to label %77 unwind label %145

; <label>:77:                                     ; preds = %53
  br label %78

; <label>:78:                                     ; preds = %140, %77
  %79 = getelementptr inbounds %class.Lexer, %class.Lexer* %47, i32 0, i32 6
  %80 = invoke i32 @_ZN5Token8get_typeEv(%class.Token* %79)
          to label %81 unwind label %149

; <label>:81:                                     ; preds = %78
  %82 = icmp ne i32 %80, 7
  br i1 %82, label %83, label %157

; <label>:83:                                     ; preds = %81
  %84 = getelementptr inbounds %class.Lexer, %class.Lexer* %47, i32 0, i32 6
  invoke void @_ZN5Lexer15_get_next_tokenEb(%class.Token* sret %46, %class.Lexer* %47, i1 zeroext false)
          to label %85 unwind label %149

; <label>:85:                                     ; preds = %83
  %86 = invoke dereferenceable(288) %class.Token* @_ZN5TokenaSEOS_(%class.Token* %84, %class.Token* dereferenceable(288) %46)
          to label %87 unwind label %153

; <label>:87:                                     ; preds = %85
  call void @_ZN5TokenD1Ev(%class.Token* %46) #11
  %88 = getelementptr inbounds %class.Lexer, %class.Lexer* %47, i32 0, i32 7
  %89 = getelementptr inbounds %class.Lexer, %class.Lexer* %47, i32 0, i32 6
  store %"class.std::__1::vector.27"* %88, %"class.std::__1::vector.27"** %26, align 8
  store %class.Token* %89, %class.Token** %27, align 8
  %90 = load %"class.std::__1::vector.27"*, %"class.std::__1::vector.27"** %26, align 8
  %91 = bitcast %"class.std::__1::vector.27"* %90 to %"class.std::__1::__vector_base.28"*
  %92 = getelementptr inbounds %"class.std::__1::__vector_base.28", %"class.std::__1::__vector_base.28"* %91, i32 0, i32 1
  %93 = load %class.Token*, %class.Token** %92, align 8
  %94 = bitcast %"class.std::__1::vector.27"* %90 to %"class.std::__1::__vector_base.28"*
  store %"class.std::__1::__vector_base.28"* %94, %"class.std::__1::__vector_base.28"** %25, align 8
  %95 = load %"class.std::__1::__vector_base.28"*, %"class.std::__1::__vector_base.28"** %25, align 8
  %96 = getelementptr inbounds %"class.std::__1::__vector_base.28", %"class.std::__1::__vector_base.28"* %95, i32 0, i32 2
  store %"class.std::__1::__compressed_pair.29"* %96, %"class.std::__1::__compressed_pair.29"** %24, align 8
  %97 = load %"class.std::__1::__compressed_pair.29"*, %"class.std::__1::__compressed_pair.29"** %24, align 8
  %98 = bitcast %"class.std::__1::__compressed_pair.29"* %97 to %"class.std::__1::__libcpp_compressed_pair_imp.30"*
  store %"class.std::__1::__libcpp_compressed_pair_imp.30"* %98, %"class.std::__1::__libcpp_compressed_pair_imp.30"** %23, align 8
  %99 = load %"class.std::__1::__libcpp_compressed_pair_imp.30"*, %"class.std::__1::__libcpp_compressed_pair_imp.30"** %23, align 8
  %100 = getelementptr inbounds %"class.std::__1::__libcpp_compressed_pair_imp.30", %"class.std::__1::__libcpp_compressed_pair_imp.30"* %99, i32 0, i32 0
  %101 = load %class.Token*, %class.Token** %100, align 8
  %102 = icmp ne %class.Token* %93, %101
  br i1 %102, label %103, label %136

; <label>:103:                                    ; preds = %87
  invoke void @_ZNSt3__16vectorI5TokenNS_9allocatorIS1_EEE24__RAII_IncreaseAnnotatorC1ERKS4_m(%"struct.std::__1::vector<Token, std::__1::allocator<Token> >::__RAII_IncreaseAnnotator"* %28, %"class.std::__1::vector.27"* dereferenceable(24) %90, i64 1)
          to label %104 unwind label %149

; <label>:104:                                    ; preds = %103
  %105 = bitcast %"class.std::__1::vector.27"* %90 to %"class.std::__1::__vector_base.28"*
  store %"class.std::__1::__vector_base.28"* %105, %"class.std::__1::__vector_base.28"** %22, align 8
  %106 = load %"class.std::__1::__vector_base.28"*, %"class.std::__1::__vector_base.28"** %22, align 8
  %107 = getelementptr inbounds %"class.std::__1::__vector_base.28", %"class.std::__1::__vector_base.28"* %106, i32 0, i32 2
  store %"class.std::__1::__compressed_pair.29"* %107, %"class.std::__1::__compressed_pair.29"** %21, align 8
  %108 = load %"class.std::__1::__compressed_pair.29"*, %"class.std::__1::__compressed_pair.29"** %21, align 8
  %109 = bitcast %"class.std::__1::__compressed_pair.29"* %108 to %"class.std::__1::__libcpp_compressed_pair_imp.30"*
  store %"class.std::__1::__libcpp_compressed_pair_imp.30"* %109, %"class.std::__1::__libcpp_compressed_pair_imp.30"** %20, align 8
  %110 = load %"class.std::__1::__libcpp_compressed_pair_imp.30"*, %"class.std::__1::__libcpp_compressed_pair_imp.30"** %20, align 8
  %111 = bitcast %"class.std::__1::__libcpp_compressed_pair_imp.30"* %110 to %"class.std::__1::allocator.31"*
  %112 = bitcast %"class.std::__1::vector.27"* %90 to %"class.std::__1::__vector_base.28"*
  %113 = getelementptr inbounds %"class.std::__1::__vector_base.28", %"class.std::__1::__vector_base.28"* %112, i32 0, i32 1
  %114 = load %class.Token*, %class.Token** %113, align 8
  store %class.Token* %114, %class.Token** %19, align 8
  %115 = load %class.Token*, %class.Token** %19, align 8
  %116 = load %class.Token*, %class.Token** %27, align 8
  store %"class.std::__1::allocator.31"* %111, %"class.std::__1::allocator.31"** %14, align 8
  store %class.Token* %115, %class.Token** %15, align 8
  store %class.Token* %116, %class.Token** %16, align 8
  %117 = bitcast %"struct.std::__1::__has_construct"* %18 to %"struct.std::__1::integral_constant"*
  %118 = load %"class.std::__1::allocator.31"*, %"class.std::__1::allocator.31"** %14, align 8
  %119 = load %class.Token*, %class.Token** %15, align 8
  %120 = load %class.Token*, %class.Token** %16, align 8
  store %class.Token* %120, %class.Token** %13, align 8
  %121 = load %class.Token*, %class.Token** %13, align 8
  store %"class.std::__1::allocator.31"* %118, %"class.std::__1::allocator.31"** %10, align 8
  store %class.Token* %119, %class.Token** %11, align 8
  store %class.Token* %121, %class.Token** %12, align 8
  %122 = load %"class.std::__1::allocator.31"*, %"class.std::__1::allocator.31"** %10, align 8
  %123 = load %class.Token*, %class.Token** %11, align 8
  %124 = load %class.Token*, %class.Token** %12, align 8
  store %class.Token* %124, %class.Token** %8, align 8
  %125 = load %class.Token*, %class.Token** %8, align 8
  store %"class.std::__1::allocator.31"* %122, %"class.std::__1::allocator.31"** %5, align 8
  store %class.Token* %123, %class.Token** %6, align 8
  store %class.Token* %125, %class.Token** %7, align 8
  %126 = load %"class.std::__1::allocator.31"*, %"class.std::__1::allocator.31"** %5, align 8
  %127 = load %class.Token*, %class.Token** %6, align 8
  %128 = bitcast %class.Token* %127 to i8*
  %129 = load %class.Token*, %class.Token** %7, align 8
  store %class.Token* %129, %class.Token** %4, align 8
  %130 = load %class.Token*, %class.Token** %4, align 8
  invoke void @_ZN5TokenC1ERKS_(%class.Token* %127, %class.Token* dereferenceable(288) %130)
          to label %131 unwind label %149

; <label>:131:                                    ; preds = %104
  call void @_ZNSt3__16vectorI5TokenNS_9allocatorIS1_EEE24__RAII_IncreaseAnnotator6__doneEv(%"struct.std::__1::vector<Token, std::__1::allocator<Token> >::__RAII_IncreaseAnnotator"* %28)
  %132 = bitcast %"class.std::__1::vector.27"* %90 to %"class.std::__1::__vector_base.28"*
  %133 = getelementptr inbounds %"class.std::__1::__vector_base.28", %"class.std::__1::__vector_base.28"* %132, i32 0, i32 1
  %134 = load %class.Token*, %class.Token** %133, align 8
  %135 = getelementptr inbounds %class.Token, %class.Token* %134, i32 1
  store %class.Token* %135, %class.Token** %133, align 8
  br label %139

; <label>:136:                                    ; preds = %87
  %137 = load %class.Token*, %class.Token** %27, align 8
  invoke void @_ZNSt3__16vectorI5TokenNS_9allocatorIS1_EEE21__push_back_slow_pathIRKS1_EEvOT_(%"class.std::__1::vector.27"* %90, %class.Token* dereferenceable(288) %137)
          to label %138 unwind label %149

; <label>:138:                                    ; preds = %136
  br label %139

; <label>:139:                                    ; preds = %131, %138
  br label %140

; <label>:140:                                    ; preds = %139
  br label %78

; <label>:141:                                    ; preds = %2
  %142 = landingpad { i8*, i32 }
          cleanup
  %143 = extractvalue { i8*, i32 } %142, 0
  store i8* %143, i8** %44, align 8
  %144 = extractvalue { i8*, i32 } %142, 1
  store i32 %144, i32* %45, align 4
  call void @_ZN7VariantD1Ev(%struct.Variant* %43) #11
  br label %175

; <label>:145:                                    ; preds = %53
  %146 = landingpad { i8*, i32 }
          cleanup
  %147 = extractvalue { i8*, i32 } %146, 0
  store i8* %147, i8** %44, align 8
  %148 = extractvalue { i8*, i32 } %146, 1
  store i32 %148, i32* %45, align 4
  br label %174

; <label>:149:                                    ; preds = %136, %104, %103, %167, %165, %83, %78
  %150 = landingpad { i8*, i32 }
          cleanup
  %151 = extractvalue { i8*, i32 } %150, 0
  store i8* %151, i8** %44, align 8
  %152 = extractvalue { i8*, i32 } %150, 1
  store i32 %152, i32* %45, align 4
  br label %173

; <label>:153:                                    ; preds = %85
  %154 = landingpad { i8*, i32 }
          cleanup
  %155 = extractvalue { i8*, i32 } %154, 0
  store i8* %155, i8** %44, align 8
  %156 = extractvalue { i8*, i32 } %154, 1
  store i32 %156, i32* %45, align 4
  call void @_ZN5TokenD1Ev(%class.Token* %46) #11
  br label %173

; <label>:157:                                    ; preds = %81
  %158 = getelementptr inbounds %class.Lexer, %class.Lexer* %47, i32 0, i32 4
  store i32 0, i32* %158, align 8
  %159 = getelementptr inbounds %class.Lexer, %class.Lexer* %47, i32 0, i32 6
  %160 = getelementptr inbounds %class.Lexer, %class.Lexer* %47, i32 0, i32 7
  store %"class.std::__1::vector.27"* %160, %"class.std::__1::vector.27"** %3, align 8
  %161 = load %"class.std::__1::vector.27"*, %"class.std::__1::vector.27"** %3, align 8
  %162 = bitcast %"class.std::__1::vector.27"* %161 to %"class.std::__1::__vector_base.28"*
  %163 = getelementptr inbounds %"class.std::__1::__vector_base.28", %"class.std::__1::__vector_base.28"* %162, i32 0, i32 0
  %164 = load %class.Token*, %class.Token** %163, align 8
  br label %165

; <label>:165:                                    ; preds = %157
  %166 = invoke dereferenceable(288) %class.Token* @_ZN5TokenaSERKS_(%class.Token* %159, %class.Token* dereferenceable(288) %164)
          to label %167 unwind label %149

; <label>:167:                                    ; preds = %165
  %168 = getelementptr inbounds %class.Lexer, %class.Lexer* %47, i32 0, i32 3
  store i32 0, i32* %168, align 4
  %169 = getelementptr inbounds %class.Lexer, %class.Lexer* %47, i32 0, i32 6
  %170 = invoke i32 @_ZNK5Token9get_startEv(%class.Token* %169)
          to label %171 unwind label %149

; <label>:171:                                    ; preds = %167
  %172 = getelementptr inbounds %class.Lexer, %class.Lexer* %47, i32 0, i32 0
  store i32 %170, i32* %172, align 8
  ret void

; <label>:173:                                    ; preds = %153, %149
  call void @_ZNSt3__112basic_stringIcNS_11char_traitsIcEENS_9allocatorIcEEED1Ev(%"class.std::__1::basic_string"* %76) #11
  br label %174

; <label>:174:                                    ; preds = %173, %145
  call void @_ZNSt3__16vectorI5TokenNS_9allocatorIS1_EEED1Ev(%"class.std::__1::vector.27"* %54) #11
  call void @_ZN5TokenD1Ev(%class.Token* %52) #11
  br label %175

; <label>:175:                                    ; preds = %174, %141
  %176 = load i8*, i8** %44, align 8
  %177 = load i32, i32* %45, align 4
  %178 = insertvalue { i8*, i32 } undef, i8* %176, 0
  %179 = insertvalue { i8*, i32 } %178, i32 %177, 1
  resume { i8*, i32 } %179
}

declare void @_ZN7VariantC1Ev(%struct.Variant*) unnamed_addr #1

declare void @_ZN5TokenC1E9TokenType7Variantiii(%class.Token*, i32, %struct.Variant*, i32, i32, i32) unnamed_addr #1

declare i32 @__gxx_personality_v0(...)

; Function Attrs: inlinehint nounwind ssp uwtable
define linkonce_odr void @_ZN7VariantD1Ev(%struct.Variant*) unnamed_addr #2 align 2 {
  %2 = alloca %struct.Variant*, align 8
  store %struct.Variant* %0, %struct.Variant** %2, align 8
  %3 = load %struct.Variant*, %struct.Variant** %2, align 8
  call void @_ZN7VariantD2Ev(%struct.Variant* %3) #11
  ret void
}

declare void @_ZNSt3__112basic_stringIcNS_11char_traitsIcEENS_9allocatorIcEEEC1ERKS5_(%"class.std::__1::basic_string"*, %"class.std::__1::basic_string"* dereferenceable(24)) unnamed_addr #1

declare i32 @_ZN5Token8get_typeEv(%class.Token*) #1

; Function Attrs: inlinehint ssp uwtable
define linkonce_odr dereferenceable(288) %class.Token* @_ZN5TokenaSEOS_(%class.Token*, %class.Token* dereferenceable(288)) #3 align 2 {
  %3 = alloca %class.Token*, align 8
  %4 = alloca %class.Token*, align 8
  store %class.Token* %0, %class.Token** %3, align 8
  store %class.Token* %1, %class.Token** %4, align 8
  %5 = load %class.Token*, %class.Token** %3, align 8
  %6 = getelementptr inbounds %class.Token, %class.Token* %5, i32 0, i32 0
  %7 = load %class.Token*, %class.Token** %4, align 8
  %8 = getelementptr inbounds %class.Token, %class.Token* %7, i32 0, i32 0
  %9 = call dereferenceable(264) %struct.Variant* @_ZN7VariantaSERKS_(%struct.Variant* %6, %struct.Variant* dereferenceable(264) %8)
  %10 = getelementptr inbounds %class.Token, %class.Token* %5, i32 0, i32 1
  %11 = load %class.Token*, %class.Token** %4, align 8
  %12 = getelementptr inbounds %class.Token, %class.Token* %11, i32 0, i32 1
  %13 = bitcast i32* %10 to i8*
  %14 = bitcast i32* %12 to i8*
  call void @llvm.memcpy.p0i8.p0i8.i64(i8* %13, i8* %14, i64 24, i32 8, i1 false)
  ret %class.Token* %5
}

; Function Attrs: ssp uwtable
define void @_ZN5Lexer15_get_next_tokenEb(%class.Token* noalias sret, %class.Lexer*, i1 zeroext) #0 align 2 personality i8* bitcast (i32 (...)* @__gxx_personality_v0 to i8*) {
  %4 = alloca %"class.std::__1::__libcpp_compressed_pair_imp"*, align 8
  %5 = alloca %"class.std::__1::__compressed_pair"*, align 8
  %6 = alloca %"class.std::__1::basic_string"*, align 8
  %7 = alloca [3 x i64]*, align 8
  %8 = alloca i32, align 4
  %9 = alloca %"class.std::__1::__compressed_pair"*, align 8
  %10 = alloca %"class.std::__1::basic_string"*, align 8
  %11 = alloca %"class.std::__1::basic_string"*, align 8
  %12 = alloca %"class.std::__1::basic_string"*, align 8
  %13 = alloca %"class.std::__1::basic_string"*, align 8
  %14 = alloca %"class.std::__1::basic_string"*, align 8
  %15 = alloca i8*, align 8
  %16 = alloca %"class.std::__1::basic_string"*, align 8
  %17 = alloca %"class.std::__1::allocator"*, align 8
  %18 = alloca %"class.std::__1::__libcpp_compressed_pair_imp"*, align 8
  %19 = alloca %"class.std::__1::__compressed_pair"*, align 8
  %20 = alloca %"class.std::__1::__compressed_pair"*, align 8
  %21 = alloca %"class.std::__1::basic_string"*, align 8
  %22 = alloca i64, align 8
  %23 = alloca i8, align 1
  %24 = alloca %"class.std::__1::basic_string"*, align 8
  %25 = alloca i64, align 8
  %26 = alloca i8, align 1
  %27 = alloca %"class.std::__1::__libcpp_compressed_pair_imp"*, align 8
  %28 = alloca %"class.std::__1::__compressed_pair"*, align 8
  %29 = alloca %"class.std::__1::basic_string"*, align 8
  %30 = alloca %"class.std::__1::__libcpp_compressed_pair_imp"*, align 8
  %31 = alloca %"class.std::__1::__compressed_pair"*, align 8
  %32 = alloca %"class.std::__1::basic_string"*, align 8
  %33 = alloca i64, align 8
  %34 = alloca %"class.std::__1::__libcpp_compressed_pair_imp"*, align 8
  %35 = alloca %"class.std::__1::__compressed_pair"*, align 8
  %36 = alloca %"class.std::__1::basic_string"*, align 8
  %37 = alloca %"class.std::__1::__libcpp_compressed_pair_imp"*, align 8
  %38 = alloca %"class.std::__1::__compressed_pair"*, align 8
  %39 = alloca %"class.std::__1::basic_string"*, align 8
  %40 = alloca i64, align 8
  %41 = alloca i8*, align 8
  %42 = alloca i8*, align 8
  %43 = alloca %"class.std::__1::__libcpp_compressed_pair_imp"*, align 8
  %44 = alloca %"class.std::__1::__compressed_pair"*, align 8
  %45 = alloca %"class.std::__1::basic_string"*, align 8
  %46 = alloca %"class.std::__1::__libcpp_compressed_pair_imp"*, align 8
  %47 = alloca %"class.std::__1::__compressed_pair"*, align 8
  %48 = alloca %"class.std::__1::basic_string"*, align 8
  %49 = alloca %"class.std::__1::basic_string"*, align 8
  %50 = alloca i64, align 8
  %51 = alloca %"class.std::__1::__libcpp_compressed_pair_imp"*, align 8
  %52 = alloca %"class.std::__1::__compressed_pair"*, align 8
  %53 = alloca %"class.std::__1::basic_string"*, align 8
  %54 = alloca %"class.std::__1::basic_string"*, align 8
  %55 = alloca i64, align 8
  %56 = alloca i8, align 1
  %57 = alloca i8, align 1
  %58 = alloca %"class.std::__1::__libcpp_compressed_pair_imp"*, align 8
  %59 = alloca %"class.std::__1::__compressed_pair"*, align 8
  %60 = alloca %"class.std::__1::basic_string"*, align 8
  %61 = alloca %"class.std::__1::__libcpp_compressed_pair_imp"*, align 8
  %62 = alloca %"class.std::__1::__compressed_pair"*, align 8
  %63 = alloca %"class.std::__1::basic_string"*, align 8
  %64 = alloca %"class.std::__1::__libcpp_compressed_pair_imp"*, align 8
  %65 = alloca %"class.std::__1::__compressed_pair"*, align 8
  %66 = alloca %"class.std::__1::basic_string"*, align 8
  %67 = alloca %"class.std::__1::basic_string"*, align 8
  %68 = alloca %"class.std::__1::basic_string"*, align 8
  %69 = alloca %"class.std::__1::basic_string"*, align 8
  %70 = alloca i8*, align 8
  %71 = alloca %"class.std::__1::basic_string"*, align 8
  %72 = alloca i8, align 1
  %73 = alloca %"class.std::__1::allocator"*, align 8
  %74 = alloca %"class.std::__1::__libcpp_compressed_pair_imp"*, align 8
  %75 = alloca %"class.std::__1::__compressed_pair"*, align 8
  %76 = alloca %"class.std::__1::__compressed_pair"*, align 8
  %77 = alloca %"class.std::__1::basic_string"*, align 8
  %78 = alloca i8*, align 8
  %79 = alloca %"class.std::__1::basic_string"*, align 8
  %80 = alloca i8*, align 8
  %81 = alloca %"class.std::__1::basic_string"*, align 8
  %82 = alloca i8*, align 8
  %83 = alloca %"class.std::__1::basic_string"*, align 8
  %84 = alloca i8*, align 8
  %85 = alloca %"class.std::__1::basic_string"*, align 8
  %86 = alloca i8*, align 8
  %87 = alloca %"class.std::__1::basic_string"*, align 8
  %88 = alloca i8*, align 8
  %89 = alloca %"class.std::__1::basic_string"*, align 8
  %90 = alloca i8*, align 8
  %91 = alloca %"class.std::__1::basic_string"*, align 8
  %92 = alloca i8, align 1
  %93 = alloca %"class.std::__1::basic_string"*, align 8
  %94 = alloca i8, align 1
  %95 = alloca %"class.std::__1::allocator"*, align 8
  %96 = alloca %"class.std::__1::__libcpp_compressed_pair_imp"*, align 8
  %97 = alloca %"class.std::__1::__compressed_pair"*, align 8
  %98 = alloca %"class.std::__1::__compressed_pair"*, align 8
  %99 = alloca %"class.std::__1::basic_string"*, align 8
  %100 = alloca i8*, align 8
  %101 = alloca %"class.std::__1::basic_string"*, align 8
  %102 = alloca i8*, align 8
  %103 = alloca %"class.std::__1::allocator"*, align 8
  %104 = alloca %"class.std::__1::__libcpp_compressed_pair_imp"*, align 8
  %105 = alloca %"class.std::__1::__compressed_pair"*, align 8
  %106 = alloca %"class.std::__1::__compressed_pair"*, align 8
  %107 = alloca %"class.std::__1::basic_string"*, align 8
  %108 = alloca i8*, align 8
  %109 = alloca %"class.std::__1::basic_string"*, align 8
  %110 = alloca i8*, align 8
  %111 = alloca %"class.std::__1::__libcpp_compressed_pair_imp"*, align 8
  %112 = alloca %"class.std::__1::__compressed_pair"*, align 8
  %113 = alloca %"class.std::__1::basic_string"*, align 8
  %114 = alloca %"class.std::__1::__libcpp_compressed_pair_imp"*, align 8
  %115 = alloca %"class.std::__1::__compressed_pair"*, align 8
  %116 = alloca %"class.std::__1::basic_string"*, align 8
  %117 = alloca %"class.std::__1::__libcpp_compressed_pair_imp"*, align 8
  %118 = alloca %"class.std::__1::__compressed_pair"*, align 8
  %119 = alloca %"class.std::__1::basic_string"*, align 8
  %120 = alloca %"class.std::__1::basic_string"*, align 8
  %121 = alloca %"class.std::__1::basic_string"*, align 8
  %122 = alloca %"class.std::__1::basic_string"*, align 8
  %123 = alloca i8, align 1
  %124 = alloca %"class.std::__1::basic_string"*, align 8
  %125 = alloca i8, align 1
  %126 = alloca %"class.std::__1::allocator"*, align 8
  %127 = alloca %"class.std::__1::__libcpp_compressed_pair_imp"*, align 8
  %128 = alloca %"class.std::__1::__compressed_pair"*, align 8
  %129 = alloca %"class.std::__1::__compressed_pair"*, align 8
  %130 = alloca %"class.std::__1::basic_string"*, align 8
  %131 = alloca i8*, align 8
  %132 = alloca %"class.std::__1::basic_string"*, align 8
  %133 = alloca i8*, align 8
  %134 = alloca %"class.std::__1::basic_string"*, align 8
  %135 = alloca i8, align 1
  %136 = alloca %"class.std::__1::allocator"*, align 8
  %137 = alloca %"class.std::__1::__libcpp_compressed_pair_imp"*, align 8
  %138 = alloca %"class.std::__1::__compressed_pair"*, align 8
  %139 = alloca %"class.std::__1::__compressed_pair"*, align 8
  %140 = alloca %"class.std::__1::basic_string"*, align 8
  %141 = alloca i8*, align 8
  %142 = alloca %"class.std::__1::basic_string"*, align 8
  %143 = alloca i8*, align 8
  %144 = alloca %"class.std::__1::basic_string"*, align 8
  %145 = alloca i8, align 1
  %146 = alloca %"class.std::__1::basic_string"*, align 8
  %147 = alloca i8, align 1
  %148 = alloca %"class.std::__1::__libcpp_compressed_pair_imp"*, align 8
  %149 = alloca %"class.std::__1::__compressed_pair"*, align 8
  %150 = alloca %"class.std::__1::basic_string"*, align 8
  %151 = alloca %"class.std::__1::__libcpp_compressed_pair_imp"*, align 8
  %152 = alloca %"class.std::__1::__compressed_pair"*, align 8
  %153 = alloca %"class.std::__1::basic_string"*, align 8
  %154 = alloca %"class.std::__1::__libcpp_compressed_pair_imp"*, align 8
  %155 = alloca %"class.std::__1::__compressed_pair"*, align 8
  %156 = alloca %"class.std::__1::basic_string"*, align 8
  %157 = alloca %"class.std::__1::basic_string"*, align 8
  %158 = alloca %"class.std::__1::basic_string"*, align 8
  %159 = alloca %"class.std::__1::allocator"*, align 8
  %160 = alloca %"class.std::__1::__libcpp_compressed_pair_imp"*, align 8
  %161 = alloca %"class.std::__1::__compressed_pair"*, align 8
  %162 = alloca %"class.std::__1::__compressed_pair"*, align 8
  %163 = alloca %"class.std::__1::basic_string"*, align 8
  %164 = alloca i8*, align 8
  %165 = alloca %"class.std::__1::basic_string"*, align 8
  %166 = alloca i8*, align 8
  %167 = alloca %"class.std::__1::__libcpp_compressed_pair_imp"*, align 8
  %168 = alloca %"class.std::__1::__compressed_pair"*, align 8
  %169 = alloca %"class.std::__1::basic_string"*, align 8
  %170 = alloca %"class.std::__1::__libcpp_compressed_pair_imp"*, align 8
  %171 = alloca %"class.std::__1::__compressed_pair"*, align 8
  %172 = alloca %"class.std::__1::basic_string"*, align 8
  %173 = alloca %"class.std::__1::__libcpp_compressed_pair_imp"*, align 8
  %174 = alloca %"class.std::__1::__compressed_pair"*, align 8
  %175 = alloca %"class.std::__1::basic_string"*, align 8
  %176 = alloca %"class.std::__1::basic_string"*, align 8
  %177 = alloca %"class.std::__1::basic_string"*, align 8
  %178 = alloca %"class.std::__1::allocator"*, align 8
  %179 = alloca %"class.std::__1::__libcpp_compressed_pair_imp"*, align 8
  %180 = alloca %"class.std::__1::__compressed_pair"*, align 8
  %181 = alloca %"class.std::__1::__compressed_pair"*, align 8
  %182 = alloca %"class.std::__1::basic_string"*, align 8
  %183 = alloca i8*, align 8
  %184 = alloca %"class.std::__1::basic_string"*, align 8
  %185 = alloca i8*, align 8
  %186 = alloca %"class.std::__1::__libcpp_compressed_pair_imp"*, align 8
  %187 = alloca %"class.std::__1::__compressed_pair"*, align 8
  %188 = alloca %"class.std::__1::basic_string"*, align 8
  %189 = alloca %"class.std::__1::__libcpp_compressed_pair_imp"*, align 8
  %190 = alloca %"class.std::__1::__compressed_pair"*, align 8
  %191 = alloca %"class.std::__1::basic_string"*, align 8
  %192 = alloca %"class.std::__1::__libcpp_compressed_pair_imp"*, align 8
  %193 = alloca %"class.std::__1::__compressed_pair"*, align 8
  %194 = alloca %"class.std::__1::basic_string"*, align 8
  %195 = alloca %"class.std::__1::basic_string"*, align 8
  %196 = alloca %"class.std::__1::basic_string"*, align 8
  %197 = alloca %class.Lexer*, align 8
  %198 = alloca i8, align 1
  %199 = alloca i32, align 4
  %200 = alloca %struct.Variant, align 8
  %201 = alloca i8*
  %202 = alloca i32
  %203 = alloca %"class.std::__1::basic_string", align 8
  %204 = alloca i32, align 4
  %205 = alloca i8, align 1
  %206 = alloca %struct.Variant, align 8
  %207 = alloca i32
  %208 = alloca i8, align 1
  %209 = alloca i8, align 1
  %210 = alloca %"class.std::__1::basic_string", align 8
  %211 = alloca %struct.Variant, align 8
  %212 = alloca %struct.Variant, align 8
  %213 = alloca %"class.std::__1::basic_string", align 8
  %214 = alloca i8, align 1
  %215 = alloca %"class.std::__1::basic_string", align 8
  %216 = alloca %struct.Variant, align 8
  %217 = alloca %"class.std::__1::basic_string", align 8
  %218 = alloca %struct.Variant, align 8
  %219 = alloca i8, align 1
  %220 = alloca %struct.Variant, align 8
  %221 = alloca %"class.std::__1::basic_string", align 8
  %222 = alloca %"class.std::__1::basic_string", align 8
  %223 = alloca double, align 8
  %224 = alloca double, align 8
  %225 = alloca %struct.Variant, align 8
  %226 = alloca %struct.Variant, align 8
  %227 = alloca %struct.Variant, align 8
  %228 = alloca %struct.Variant, align 8
  %229 = alloca %struct.Variant, align 8
  %230 = alloca %struct.Variant, align 8
  %231 = alloca %struct.Variant, align 8
  %232 = alloca %"class.std::__1::basic_string", align 8
  %233 = alloca %struct.Variant, align 8
  %234 = alloca %"class.std::__1::basic_string", align 8
  %235 = alloca %struct.Variant, align 8
  %236 = alloca %"class.std::__1::basic_string", align 8
  %237 = alloca %struct.Variant, align 8
  %238 = alloca %"class.std::__1::basic_string", align 8
  %239 = alloca %"class.std::__1::basic_string", align 8
  %240 = alloca %struct.Variant, align 8
  %241 = alloca %"class.std::__1::basic_string", align 8
  %242 = alloca %"class.std::__1::basic_string", align 8
  %243 = alloca %struct.Variant, align 8
  %244 = alloca %"class.std::__1::basic_string", align 8
  %245 = alloca %struct.Variant, align 8
  %246 = alloca %"class.std::__1::basic_string", align 8
  %247 = alloca %struct.Variant, align 8
  %248 = alloca %"class.std::__1::basic_string", align 8
  %249 = alloca %struct.Variant, align 8
  %250 = alloca %"class.std::__1::basic_string", align 8
  %251 = alloca %struct.Variant, align 8
  %252 = alloca %"class.std::__1::basic_string", align 8
  %253 = alloca %"class.std::__1::basic_string", align 8
  %254 = alloca %struct.Variant, align 8
  store %class.Lexer* %1, %class.Lexer** %197, align 8
  %255 = zext i1 %2 to i8
  store i8 %255, i8* %198, align 1
  %256 = load %class.Lexer*, %class.Lexer** %197, align 8
  %257 = getelementptr inbounds %class.Lexer, %class.Lexer* %256, i32 0, i32 6
  %258 = call i32 @_ZN5Token8get_typeEv(%class.Token* %257)
  %259 = icmp eq i32 %258, 7
  br i1 %259, label %260, label %262

; <label>:260:                                    ; preds = %3
  %261 = getelementptr inbounds %class.Lexer, %class.Lexer* %256, i32 0, i32 6
  call void @_ZN5TokenC1ERKS_(%class.Token* %0, %class.Token* dereferenceable(288) %261)
  br label %1622

; <label>:262:                                    ; preds = %3
  %263 = getelementptr inbounds %class.Lexer, %class.Lexer* %256, i32 0, i32 0
  %264 = load i32, i32* %263, align 8
  %265 = getelementptr inbounds %class.Lexer, %class.Lexer* %256, i32 0, i32 3
  store i32 %264, i32* %265, align 4
  %266 = getelementptr inbounds %class.Lexer, %class.Lexer* %256, i32 0, i32 1
  %267 = load i32, i32* %266, align 4
  store i32 %267, i32* %199, align 4
  %268 = getelementptr inbounds %class.Lexer, %class.Lexer* %256, i32 0, i32 0
  %269 = load i32, i32* %268, align 8
  %270 = sext i32 %269 to i64
  %271 = getelementptr inbounds %class.Lexer, %class.Lexer* %256, i32 0, i32 8
  store %"class.std::__1::basic_string"* %271, %"class.std::__1::basic_string"** %196, align 8
  %272 = load %"class.std::__1::basic_string"*, %"class.std::__1::basic_string"** %196, align 8
  store %"class.std::__1::basic_string"* %272, %"class.std::__1::basic_string"** %195, align 8
  %273 = load %"class.std::__1::basic_string"*, %"class.std::__1::basic_string"** %195, align 8
  store %"class.std::__1::basic_string"* %273, %"class.std::__1::basic_string"** %194, align 8
  %274 = load %"class.std::__1::basic_string"*, %"class.std::__1::basic_string"** %194, align 8
  %275 = getelementptr inbounds %"class.std::__1::basic_string", %"class.std::__1::basic_string"* %274, i32 0, i32 0
  store %"class.std::__1::__compressed_pair"* %275, %"class.std::__1::__compressed_pair"** %193, align 8
  %276 = load %"class.std::__1::__compressed_pair"*, %"class.std::__1::__compressed_pair"** %193, align 8
  %277 = bitcast %"class.std::__1::__compressed_pair"* %276 to %"class.std::__1::__libcpp_compressed_pair_imp"*
  store %"class.std::__1::__libcpp_compressed_pair_imp"* %277, %"class.std::__1::__libcpp_compressed_pair_imp"** %192, align 8
  %278 = load %"class.std::__1::__libcpp_compressed_pair_imp"*, %"class.std::__1::__libcpp_compressed_pair_imp"** %192, align 8
  %279 = getelementptr inbounds %"class.std::__1::__libcpp_compressed_pair_imp", %"class.std::__1::__libcpp_compressed_pair_imp"* %278, i32 0, i32 0
  %280 = getelementptr inbounds %"struct.std::__1::basic_string<char, std::__1::char_traits<char>, std::__1::allocator<char> >::__rep", %"struct.std::__1::basic_string<char, std::__1::char_traits<char>, std::__1::allocator<char> >::__rep"* %279, i32 0, i32 0
  %281 = bitcast %union.anon.0* %280 to %"struct.std::__1::basic_string<char, std::__1::char_traits<char>, std::__1::allocator<char> >::__short"*
  %282 = getelementptr inbounds %"struct.std::__1::basic_string<char, std::__1::char_traits<char>, std::__1::allocator<char> >::__short", %"struct.std::__1::basic_string<char, std::__1::char_traits<char>, std::__1::allocator<char> >::__short"* %281, i32 0, i32 0
  %283 = bitcast %union.anon.1* %282 to i8*
  %284 = load i8, i8* %283, align 8
  %285 = zext i8 %284 to i32
  %286 = and i32 %285, 1
  %287 = icmp ne i32 %286, 0
  br i1 %287, label %288, label %299

; <label>:288:                                    ; preds = %262
  store %"class.std::__1::basic_string"* %273, %"class.std::__1::basic_string"** %188, align 8
  %289 = load %"class.std::__1::basic_string"*, %"class.std::__1::basic_string"** %188, align 8
  %290 = getelementptr inbounds %"class.std::__1::basic_string", %"class.std::__1::basic_string"* %289, i32 0, i32 0
  store %"class.std::__1::__compressed_pair"* %290, %"class.std::__1::__compressed_pair"** %187, align 8
  %291 = load %"class.std::__1::__compressed_pair"*, %"class.std::__1::__compressed_pair"** %187, align 8
  %292 = bitcast %"class.std::__1::__compressed_pair"* %291 to %"class.std::__1::__libcpp_compressed_pair_imp"*
  store %"class.std::__1::__libcpp_compressed_pair_imp"* %292, %"class.std::__1::__libcpp_compressed_pair_imp"** %186, align 8
  %293 = load %"class.std::__1::__libcpp_compressed_pair_imp"*, %"class.std::__1::__libcpp_compressed_pair_imp"** %186, align 8
  %294 = getelementptr inbounds %"class.std::__1::__libcpp_compressed_pair_imp", %"class.std::__1::__libcpp_compressed_pair_imp"* %293, i32 0, i32 0
  %295 = getelementptr inbounds %"struct.std::__1::basic_string<char, std::__1::char_traits<char>, std::__1::allocator<char> >::__rep", %"struct.std::__1::basic_string<char, std::__1::char_traits<char>, std::__1::allocator<char> >::__rep"* %294, i32 0, i32 0
  %296 = bitcast %union.anon.0* %295 to %"struct.std::__1::basic_string<char, std::__1::char_traits<char>, std::__1::allocator<char> >::__long"*
  %297 = getelementptr inbounds %"struct.std::__1::basic_string<char, std::__1::char_traits<char>, std::__1::allocator<char> >::__long", %"struct.std::__1::basic_string<char, std::__1::char_traits<char>, std::__1::allocator<char> >::__long"* %296, i32 0, i32 1
  %298 = load i64, i64* %297, align 8
  br label %314

; <label>:299:                                    ; preds = %262
  store %"class.std::__1::basic_string"* %273, %"class.std::__1::basic_string"** %191, align 8
  %300 = load %"class.std::__1::basic_string"*, %"class.std::__1::basic_string"** %191, align 8
  %301 = getelementptr inbounds %"class.std::__1::basic_string", %"class.std::__1::basic_string"* %300, i32 0, i32 0
  store %"class.std::__1::__compressed_pair"* %301, %"class.std::__1::__compressed_pair"** %190, align 8
  %302 = load %"class.std::__1::__compressed_pair"*, %"class.std::__1::__compressed_pair"** %190, align 8
  %303 = bitcast %"class.std::__1::__compressed_pair"* %302 to %"class.std::__1::__libcpp_compressed_pair_imp"*
  store %"class.std::__1::__libcpp_compressed_pair_imp"* %303, %"class.std::__1::__libcpp_compressed_pair_imp"** %189, align 8
  %304 = load %"class.std::__1::__libcpp_compressed_pair_imp"*, %"class.std::__1::__libcpp_compressed_pair_imp"** %189, align 8
  %305 = getelementptr inbounds %"class.std::__1::__libcpp_compressed_pair_imp", %"class.std::__1::__libcpp_compressed_pair_imp"* %304, i32 0, i32 0
  %306 = getelementptr inbounds %"struct.std::__1::basic_string<char, std::__1::char_traits<char>, std::__1::allocator<char> >::__rep", %"struct.std::__1::basic_string<char, std::__1::char_traits<char>, std::__1::allocator<char> >::__rep"* %305, i32 0, i32 0
  %307 = bitcast %union.anon.0* %306 to %"struct.std::__1::basic_string<char, std::__1::char_traits<char>, std::__1::allocator<char> >::__short"*
  %308 = getelementptr inbounds %"struct.std::__1::basic_string<char, std::__1::char_traits<char>, std::__1::allocator<char> >::__short", %"struct.std::__1::basic_string<char, std::__1::char_traits<char>, std::__1::allocator<char> >::__short"* %307, i32 0, i32 0
  %309 = bitcast %union.anon.1* %308 to i8*
  %310 = load i8, i8* %309, align 8
  %311 = zext i8 %310 to i32
  %312 = ashr i32 %311, 1
  %313 = sext i32 %312 to i64
  br label %314

; <label>:314:                                    ; preds = %288, %299
  %315 = phi i64 [ %298, %288 ], [ %313, %299 ]
  %316 = icmp uge i64 %270, %315
  br i1 %316, label %317, label %328

; <label>:317:                                    ; preds = %314
  call void @_ZN7VariantC1Ev(%struct.Variant* %200)
  %318 = load i32, i32* %199, align 4
  %319 = getelementptr inbounds %class.Lexer, %class.Lexer* %256, i32 0, i32 0
  %320 = load i32, i32* %319, align 8
  %321 = getelementptr inbounds %class.Lexer, %class.Lexer* %256, i32 0, i32 0
  %322 = load i32, i32* %321, align 8
  invoke void @_ZN5TokenC1E9TokenType7Variantiii(%class.Token* %0, i32 7, %struct.Variant* %200, i32 %318, i32 %320, i32 %322)
          to label %323 unwind label %324

; <label>:323:                                    ; preds = %317
  call void @_ZN7VariantD1Ev(%struct.Variant* %200) #11
  br label %1622

; <label>:324:                                    ; preds = %317
  %325 = landingpad { i8*, i32 }
          cleanup
  %326 = extractvalue { i8*, i32 } %325, 0
  store i8* %326, i8** %201, align 8
  %327 = extractvalue { i8*, i32 } %325, 1
  store i32 %327, i32* %202, align 4
  call void @_ZN7VariantD1Ev(%struct.Variant* %200) #11
  br label %1623

; <label>:328:                                    ; preds = %314
  store %"class.std::__1::basic_string"* %203, %"class.std::__1::basic_string"** %184, align 8
  store i8* getelementptr inbounds ([1 x i8], [1 x i8]* @.str.4, i32 0, i32 0), i8** %185, align 8
  %329 = load %"class.std::__1::basic_string"*, %"class.std::__1::basic_string"** %184, align 8
  %330 = load i8*, i8** %185, align 8
  store %"class.std::__1::basic_string"* %329, %"class.std::__1::basic_string"** %182, align 8
  store i8* %330, i8** %183, align 8
  %331 = load %"class.std::__1::basic_string"*, %"class.std::__1::basic_string"** %182, align 8
  %332 = bitcast %"class.std::__1::basic_string"* %331 to %"class.std::__1::__basic_string_common"*
  %333 = getelementptr inbounds %"class.std::__1::basic_string", %"class.std::__1::basic_string"* %331, i32 0, i32 0
  store %"class.std::__1::__compressed_pair"* %333, %"class.std::__1::__compressed_pair"** %181, align 8
  %334 = load %"class.std::__1::__compressed_pair"*, %"class.std::__1::__compressed_pair"** %181, align 8
  store %"class.std::__1::__compressed_pair"* %334, %"class.std::__1::__compressed_pair"** %180, align 8
  %335 = load %"class.std::__1::__compressed_pair"*, %"class.std::__1::__compressed_pair"** %180, align 8
  %336 = bitcast %"class.std::__1::__compressed_pair"* %335 to %"class.std::__1::__libcpp_compressed_pair_imp"*
  store %"class.std::__1::__libcpp_compressed_pair_imp"* %336, %"class.std::__1::__libcpp_compressed_pair_imp"** %179, align 8
  %337 = load %"class.std::__1::__libcpp_compressed_pair_imp"*, %"class.std::__1::__libcpp_compressed_pair_imp"** %179, align 8
  %338 = bitcast %"class.std::__1::__libcpp_compressed_pair_imp"* %337 to %"class.std::__1::allocator"*
  store %"class.std::__1::allocator"* %338, %"class.std::__1::allocator"** %178, align 8
  %339 = load %"class.std::__1::allocator"*, %"class.std::__1::allocator"** %178, align 8
  %340 = getelementptr inbounds %"class.std::__1::__libcpp_compressed_pair_imp", %"class.std::__1::__libcpp_compressed_pair_imp"* %337, i32 0, i32 0
  %341 = bitcast %"struct.std::__1::basic_string<char, std::__1::char_traits<char>, std::__1::allocator<char> >::__rep"* %340 to i8*
  call void @llvm.memset.p0i8.i64(i8* %341, i8 0, i64 24, i32 8, i1 false) #11
  %342 = load i8*, i8** %183, align 8
  %343 = load i8*, i8** %183, align 8
  %344 = call i64 @_ZNSt3__111char_traitsIcE6lengthEPKc(i8* %343)
  call void @_ZNSt3__112basic_stringIcNS_11char_traitsIcEENS_9allocatorIcEEE6__initEPKcm(%"class.std::__1::basic_string"* %331, i8* %342, i64 %344)
  %345 = getelementptr inbounds %class.Lexer, %class.Lexer* %256, i32 0, i32 0
  %346 = load i32, i32* %345, align 8
  store i32 %346, i32* %204, align 4
  %347 = invoke signext i8 @_ZN5Lexer13get_next_charEv(%class.Lexer* %256)
          to label %348 unwind label %358

; <label>:348:                                    ; preds = %328
  store i8 %347, i8* %205, align 1
  br label %349

; <label>:349:                                    ; preds = %355, %348
  %350 = load i8, i8* %205, align 1
  %351 = sext i8 %350 to i32
  %352 = icmp eq i32 %351, 32
  br i1 %352, label %353, label %362

; <label>:353:                                    ; preds = %349
  %354 = invoke signext i8 @_ZN5Lexer13get_next_charEv(%class.Lexer* %256)
          to label %355 unwind label %358

; <label>:355:                                    ; preds = %353
  store i8 %354, i8* %205, align 1
  %356 = load i32, i32* %204, align 4
  %357 = add nsw i32 %356, 1
  store i32 %357, i32* %204, align 4
  br label %349

; <label>:358:                                    ; preds = %1536, %1321, %1280, %1263, %1116, %942, %925, %802, %716, %699, %651, %634, %590, %585, %493, %476, %1608, %1524, %1520, %1503, %1497, %1347, %1335, %1329, %1326, %1317, %1312, %1288, %1239, %1235, %1214, %1210, %1189, %1185, %1174, %1152, %1130, %1124, %1121, %1112, %1106, %1095, %1093, %1089, %1070, %1068, %1066, %1056, %1045, %1043, %1032, %1030, %1028, %1009, %1007, %1005, %995, %991, %904, %808, %791, %786, %758, %620, %616, %599, %596, %582, %580, %517, %501, %470, %467, %465, %459, %452, %448, %447, %441, %433, %432, %416, %353, %328
  %359 = landingpad { i8*, i32 }
          cleanup
  %360 = extractvalue { i8*, i32 } %359, 0
  store i8* %360, i8** %201, align 8
  %361 = extractvalue { i8*, i32 } %359, 1
  store i32 %361, i32* %202, align 4
  br label %1621

; <label>:362:                                    ; preds = %349
  %363 = load i8, i8* %205, align 1
  %364 = sext i8 %363 to i32
  %365 = icmp eq i32 %364, 0
  br i1 %365, label %366, label %428

; <label>:366:                                    ; preds = %362
  %367 = getelementptr inbounds %class.Lexer, %class.Lexer* %256, i32 0, i32 0
  %368 = load i32, i32* %367, align 8
  %369 = sext i32 %368 to i64
  %370 = getelementptr inbounds %class.Lexer, %class.Lexer* %256, i32 0, i32 8
  store %"class.std::__1::basic_string"* %370, %"class.std::__1::basic_string"** %177, align 8
  %371 = load %"class.std::__1::basic_string"*, %"class.std::__1::basic_string"** %177, align 8
  store %"class.std::__1::basic_string"* %371, %"class.std::__1::basic_string"** %176, align 8
  %372 = load %"class.std::__1::basic_string"*, %"class.std::__1::basic_string"** %176, align 8
  store %"class.std::__1::basic_string"* %372, %"class.std::__1::basic_string"** %175, align 8
  %373 = load %"class.std::__1::basic_string"*, %"class.std::__1::basic_string"** %175, align 8
  %374 = getelementptr inbounds %"class.std::__1::basic_string", %"class.std::__1::basic_string"* %373, i32 0, i32 0
  store %"class.std::__1::__compressed_pair"* %374, %"class.std::__1::__compressed_pair"** %174, align 8
  %375 = load %"class.std::__1::__compressed_pair"*, %"class.std::__1::__compressed_pair"** %174, align 8
  %376 = bitcast %"class.std::__1::__compressed_pair"* %375 to %"class.std::__1::__libcpp_compressed_pair_imp"*
  store %"class.std::__1::__libcpp_compressed_pair_imp"* %376, %"class.std::__1::__libcpp_compressed_pair_imp"** %173, align 8
  %377 = load %"class.std::__1::__libcpp_compressed_pair_imp"*, %"class.std::__1::__libcpp_compressed_pair_imp"** %173, align 8
  %378 = getelementptr inbounds %"class.std::__1::__libcpp_compressed_pair_imp", %"class.std::__1::__libcpp_compressed_pair_imp"* %377, i32 0, i32 0
  %379 = getelementptr inbounds %"struct.std::__1::basic_string<char, std::__1::char_traits<char>, std::__1::allocator<char> >::__rep", %"struct.std::__1::basic_string<char, std::__1::char_traits<char>, std::__1::allocator<char> >::__rep"* %378, i32 0, i32 0
  %380 = bitcast %union.anon.0* %379 to %"struct.std::__1::basic_string<char, std::__1::char_traits<char>, std::__1::allocator<char> >::__short"*
  %381 = getelementptr inbounds %"struct.std::__1::basic_string<char, std::__1::char_traits<char>, std::__1::allocator<char> >::__short", %"struct.std::__1::basic_string<char, std::__1::char_traits<char>, std::__1::allocator<char> >::__short"* %380, i32 0, i32 0
  %382 = bitcast %union.anon.1* %381 to i8*
  %383 = load i8, i8* %382, align 8
  %384 = zext i8 %383 to i32
  %385 = and i32 %384, 1
  %386 = icmp ne i32 %385, 0
  br i1 %386, label %387, label %398

; <label>:387:                                    ; preds = %366
  store %"class.std::__1::basic_string"* %372, %"class.std::__1::basic_string"** %169, align 8
  %388 = load %"class.std::__1::basic_string"*, %"class.std::__1::basic_string"** %169, align 8
  %389 = getelementptr inbounds %"class.std::__1::basic_string", %"class.std::__1::basic_string"* %388, i32 0, i32 0
  store %"class.std::__1::__compressed_pair"* %389, %"class.std::__1::__compressed_pair"** %168, align 8
  %390 = load %"class.std::__1::__compressed_pair"*, %"class.std::__1::__compressed_pair"** %168, align 8
  %391 = bitcast %"class.std::__1::__compressed_pair"* %390 to %"class.std::__1::__libcpp_compressed_pair_imp"*
  store %"class.std::__1::__libcpp_compressed_pair_imp"* %391, %"class.std::__1::__libcpp_compressed_pair_imp"** %167, align 8
  %392 = load %"class.std::__1::__libcpp_compressed_pair_imp"*, %"class.std::__1::__libcpp_compressed_pair_imp"** %167, align 8
  %393 = getelementptr inbounds %"class.std::__1::__libcpp_compressed_pair_imp", %"class.std::__1::__libcpp_compressed_pair_imp"* %392, i32 0, i32 0
  %394 = getelementptr inbounds %"struct.std::__1::basic_string<char, std::__1::char_traits<char>, std::__1::allocator<char> >::__rep", %"struct.std::__1::basic_string<char, std::__1::char_traits<char>, std::__1::allocator<char> >::__rep"* %393, i32 0, i32 0
  %395 = bitcast %union.anon.0* %394 to %"struct.std::__1::basic_string<char, std::__1::char_traits<char>, std::__1::allocator<char> >::__long"*
  %396 = getelementptr inbounds %"struct.std::__1::basic_string<char, std::__1::char_traits<char>, std::__1::allocator<char> >::__long", %"struct.std::__1::basic_string<char, std::__1::char_traits<char>, std::__1::allocator<char> >::__long"* %395, i32 0, i32 1
  %397 = load i64, i64* %396, align 8
  br label %413

; <label>:398:                                    ; preds = %366
  store %"class.std::__1::basic_string"* %372, %"class.std::__1::basic_string"** %172, align 8
  %399 = load %"class.std::__1::basic_string"*, %"class.std::__1::basic_string"** %172, align 8
  %400 = getelementptr inbounds %"class.std::__1::basic_string", %"class.std::__1::basic_string"* %399, i32 0, i32 0
  store %"class.std::__1::__compressed_pair"* %400, %"class.std::__1::__compressed_pair"** %171, align 8
  %401 = load %"class.std::__1::__compressed_pair"*, %"class.std::__1::__compressed_pair"** %171, align 8
  %402 = bitcast %"class.std::__1::__compressed_pair"* %401 to %"class.std::__1::__libcpp_compressed_pair_imp"*
  store %"class.std::__1::__libcpp_compressed_pair_imp"* %402, %"class.std::__1::__libcpp_compressed_pair_imp"** %170, align 8
  %403 = load %"class.std::__1::__libcpp_compressed_pair_imp"*, %"class.std::__1::__libcpp_compressed_pair_imp"** %170, align 8
  %404 = getelementptr inbounds %"class.std::__1::__libcpp_compressed_pair_imp", %"class.std::__1::__libcpp_compressed_pair_imp"* %403, i32 0, i32 0
  %405 = getelementptr inbounds %"struct.std::__1::basic_string<char, std::__1::char_traits<char>, std::__1::allocator<char> >::__rep", %"struct.std::__1::basic_string<char, std::__1::char_traits<char>, std::__1::allocator<char> >::__rep"* %404, i32 0, i32 0
  %406 = bitcast %union.anon.0* %405 to %"struct.std::__1::basic_string<char, std::__1::char_traits<char>, std::__1::allocator<char> >::__short"*
  %407 = getelementptr inbounds %"struct.std::__1::basic_string<char, std::__1::char_traits<char>, std::__1::allocator<char> >::__short", %"struct.std::__1::basic_string<char, std::__1::char_traits<char>, std::__1::allocator<char> >::__short"* %406, i32 0, i32 0
  %408 = bitcast %union.anon.1* %407 to i8*
  %409 = load i8, i8* %408, align 8
  %410 = zext i8 %409 to i32
  %411 = ashr i32 %410, 1
  %412 = sext i32 %411 to i64
  br label %413

; <label>:413:                                    ; preds = %387, %398
  %414 = phi i64 [ %397, %387 ], [ %412, %398 ]
  %415 = icmp uge i64 %369, %414
  br i1 %415, label %416, label %428

; <label>:416:                                    ; preds = %413
  invoke void @_ZN7VariantC1Ev(%struct.Variant* %206)
          to label %417 unwind label %358

; <label>:417:                                    ; preds = %416
  %418 = load i32, i32* %199, align 4
  %419 = getelementptr inbounds %class.Lexer, %class.Lexer* %256, i32 0, i32 0
  %420 = load i32, i32* %419, align 8
  %421 = getelementptr inbounds %class.Lexer, %class.Lexer* %256, i32 0, i32 0
  %422 = load i32, i32* %421, align 8
  invoke void @_ZN5TokenC1E9TokenType7Variantiii(%class.Token* %0, i32 7, %struct.Variant* %206, i32 %418, i32 %420, i32 %422)
          to label %423 unwind label %424

; <label>:423:                                    ; preds = %417
  call void @_ZN7VariantD1Ev(%struct.Variant* %206) #11
  store i32 1, i32* %207, align 4
  br label %1620

; <label>:424:                                    ; preds = %417
  %425 = landingpad { i8*, i32 }
          cleanup
  %426 = extractvalue { i8*, i32 } %425, 0
  store i8* %426, i8** %201, align 8
  %427 = extractvalue { i8*, i32 } %425, 1
  store i32 %427, i32* %202, align 4
  call void @_ZN7VariantD1Ev(%struct.Variant* %206) #11
  br label %1621

; <label>:428:                                    ; preds = %413, %362
  %429 = load i8, i8* %205, align 1
  %430 = sext i8 %429 to i32
  %431 = icmp eq i32 %430, 35
  br i1 %431, label %432, label %437

; <label>:432:                                    ; preds = %428
  invoke void @_ZN5Lexer14ignore_commentEv(%class.Lexer* %256)
          to label %433 unwind label %358

; <label>:433:                                    ; preds = %432
  %434 = load i8, i8* %198, align 1
  %435 = trunc i8 %434 to i1
  invoke void @_ZN5Lexer15_get_next_tokenEb(%class.Token* sret %0, %class.Lexer* %256, i1 zeroext %435)
          to label %436 unwind label %358

; <label>:436:                                    ; preds = %433
  store i32 1, i32* %207, align 4
  br label %1620

; <label>:437:                                    ; preds = %428
  %438 = load i8, i8* %205, align 1
  %439 = sext i8 %438 to i32
  %440 = icmp eq i32 %439, 47
  br i1 %440, label %441, label %455

; <label>:441:                                    ; preds = %437
  %442 = invoke signext i8 @_ZN5Lexer13get_next_charEv(%class.Lexer* %256)
          to label %443 unwind label %358

; <label>:443:                                    ; preds = %441
  store i8 %442, i8* %208, align 1
  %444 = load i8, i8* %208, align 1
  %445 = sext i8 %444 to i32
  %446 = icmp eq i32 %445, 42
  br i1 %446, label %447, label %452

; <label>:447:                                    ; preds = %443
  invoke void @_ZN5Lexer17ignore_ml_commentEv(%class.Lexer* %256)
          to label %448 unwind label %358

; <label>:448:                                    ; preds = %447
  %449 = load i8, i8* %198, align 1
  %450 = trunc i8 %449 to i1
  invoke void @_ZN5Lexer15_get_next_tokenEb(%class.Token* sret %0, %class.Lexer* %256, i1 zeroext %450)
          to label %451 unwind label %358

; <label>:451:                                    ; preds = %448
  store i32 1, i32* %207, align 4
  br label %1620

; <label>:452:                                    ; preds = %443
  invoke void @_ZN5Lexer11backtrack_cEi(%class.Lexer* %256, i32 1)
          to label %453 unwind label %358

; <label>:453:                                    ; preds = %452
  br label %454

; <label>:454:                                    ; preds = %453
  br label %455

; <label>:455:                                    ; preds = %454, %437
  %456 = load i8, i8* %205, align 1
  %457 = sext i8 %456 to i32
  %458 = icmp eq i32 %457, 39
  br i1 %458, label %459, label %513

; <label>:459:                                    ; preds = %455
  %460 = invoke signext i8 @_ZN5Lexer13get_next_charEv(%class.Lexer* %256)
          to label %461 unwind label %358

; <label>:461:                                    ; preds = %459
  store i8 %460, i8* %208, align 1
  %462 = load i8, i8* %208, align 1
  %463 = sext i8 %462 to i32
  %464 = icmp eq i32 %463, 92
  br i1 %464, label %465, label %470

; <label>:465:                                    ; preds = %461
  %466 = invoke signext i8 @_ZN5Lexer13get_next_charEv(%class.Lexer* %256)
          to label %467 unwind label %358

; <label>:467:                                    ; preds = %465
  %468 = invoke signext i8 @_ZN5Lexer11escape_charEc(%class.Lexer* %256, i8 signext %466)
          to label %469 unwind label %358

; <label>:469:                                    ; preds = %467
  store i8 %468, i8* %208, align 1
  br label %470

; <label>:470:                                    ; preds = %469, %461
  %471 = invoke signext i8 @_ZN5Lexer13get_next_charEv(%class.Lexer* %256)
          to label %472 unwind label %358

; <label>:472:                                    ; preds = %470
  store i8 %471, i8* %209, align 1
  %473 = load i8, i8* %209, align 1
  %474 = sext i8 %473 to i32
  %475 = icmp ne i32 %474, 39
  br i1 %475, label %476, label %501

; <label>:476:                                    ; preds = %472
  store %"class.std::__1::basic_string"* %210, %"class.std::__1::basic_string"** %165, align 8
  store i8* getelementptr inbounds ([37 x i8], [37 x i8]* @.str.5, i32 0, i32 0), i8** %166, align 8
  %477 = load %"class.std::__1::basic_string"*, %"class.std::__1::basic_string"** %165, align 8
  %478 = load i8*, i8** %166, align 8
  store %"class.std::__1::basic_string"* %477, %"class.std::__1::basic_string"** %163, align 8
  store i8* %478, i8** %164, align 8
  %479 = load %"class.std::__1::basic_string"*, %"class.std::__1::basic_string"** %163, align 8
  %480 = bitcast %"class.std::__1::basic_string"* %479 to %"class.std::__1::__basic_string_common"*
  %481 = getelementptr inbounds %"class.std::__1::basic_string", %"class.std::__1::basic_string"* %479, i32 0, i32 0
  store %"class.std::__1::__compressed_pair"* %481, %"class.std::__1::__compressed_pair"** %162, align 8
  %482 = load %"class.std::__1::__compressed_pair"*, %"class.std::__1::__compressed_pair"** %162, align 8
  store %"class.std::__1::__compressed_pair"* %482, %"class.std::__1::__compressed_pair"** %161, align 8
  %483 = load %"class.std::__1::__compressed_pair"*, %"class.std::__1::__compressed_pair"** %161, align 8
  %484 = bitcast %"class.std::__1::__compressed_pair"* %483 to %"class.std::__1::__libcpp_compressed_pair_imp"*
  store %"class.std::__1::__libcpp_compressed_pair_imp"* %484, %"class.std::__1::__libcpp_compressed_pair_imp"** %160, align 8
  %485 = load %"class.std::__1::__libcpp_compressed_pair_imp"*, %"class.std::__1::__libcpp_compressed_pair_imp"** %160, align 8
  %486 = bitcast %"class.std::__1::__libcpp_compressed_pair_imp"* %485 to %"class.std::__1::allocator"*
  store %"class.std::__1::allocator"* %486, %"class.std::__1::allocator"** %159, align 8
  %487 = load %"class.std::__1::allocator"*, %"class.std::__1::allocator"** %159, align 8
  %488 = getelementptr inbounds %"class.std::__1::__libcpp_compressed_pair_imp", %"class.std::__1::__libcpp_compressed_pair_imp"* %485, i32 0, i32 0
  %489 = bitcast %"struct.std::__1::basic_string<char, std::__1::char_traits<char>, std::__1::allocator<char> >::__rep"* %488 to i8*
  call void @llvm.memset.p0i8.i64(i8* %489, i8 0, i64 24, i32 8, i1 false) #11
  %490 = load i8*, i8** %164, align 8
  %491 = load i8*, i8** %164, align 8
  %492 = invoke i64 @_ZNSt3__111char_traitsIcE6lengthEPKc(i8* %491)
          to label %493 unwind label %358

; <label>:493:                                    ; preds = %476
  invoke void @_ZNSt3__112basic_stringIcNS_11char_traitsIcEENS_9allocatorIcEEE6__initEPKcm(%"class.std::__1::basic_string"* %479, i8* %490, i64 %492)
          to label %494 unwind label %358

; <label>:494:                                    ; preds = %493
  br label %495

; <label>:495:                                    ; preds = %494
  invoke void @_ZN10ParseError5raiseE11ParseErrorsNSt3__112basic_stringIcNS1_11char_traitsIcEENS1_9allocatorIcEEEEP5Lexer(i32 1, %"class.std::__1::basic_string"* %210, %class.Lexer* %256)
          to label %496 unwind label %497

; <label>:496:                                    ; preds = %495
  call void @_ZNSt3__112basic_stringIcNS_11char_traitsIcEENS_9allocatorIcEEED1Ev(%"class.std::__1::basic_string"* %210) #11
  br label %501

; <label>:497:                                    ; preds = %495
  %498 = landingpad { i8*, i32 }
          cleanup
  %499 = extractvalue { i8*, i32 } %498, 0
  store i8* %499, i8** %201, align 8
  %500 = extractvalue { i8*, i32 } %498, 1
  store i32 %500, i32* %202, align 4
  call void @_ZNSt3__112basic_stringIcNS_11char_traitsIcEENS_9allocatorIcEEED1Ev(%"class.std::__1::basic_string"* %210) #11
  br label %1621

; <label>:501:                                    ; preds = %496, %472
  %502 = load i8, i8* %208, align 1
  invoke void @_ZN7VariantC1Ec(%struct.Variant* %211, i8 signext %502)
          to label %503 unwind label %358

; <label>:503:                                    ; preds = %501
  %504 = load i32, i32* %199, align 4
  %505 = load i32, i32* %204, align 4
  %506 = getelementptr inbounds %class.Lexer, %class.Lexer* %256, i32 0, i32 0
  %507 = load i32, i32* %506, align 8
  invoke void @_ZN5TokenC1E9TokenType7Variantiii(%class.Token* %0, i32 5, %struct.Variant* %211, i32 %504, i32 %505, i32 %507)
          to label %508 unwind label %509

; <label>:508:                                    ; preds = %503
  call void @_ZN7VariantD1Ev(%struct.Variant* %211) #11
  store i32 1, i32* %207, align 4
  br label %1620

; <label>:509:                                    ; preds = %503
  %510 = landingpad { i8*, i32 }
          cleanup
  %511 = extractvalue { i8*, i32 } %510, 0
  store i8* %511, i8** %201, align 8
  %512 = extractvalue { i8*, i32 } %510, 1
  store i32 %512, i32* %202, align 4
  call void @_ZN7VariantD1Ev(%struct.Variant* %211) #11
  br label %1621

; <label>:513:                                    ; preds = %455
  %514 = load i8, i8* %205, align 1
  %515 = sext i8 %514 to i32
  %516 = icmp eq i32 %515, 34
  br i1 %516, label %517, label %616

; <label>:517:                                    ; preds = %513
  %518 = invoke signext i8 @_ZN5Lexer13get_next_charEv(%class.Lexer* %256)
          to label %519 unwind label %358

; <label>:519:                                    ; preds = %517
  store i8 %518, i8* %208, align 1
  br label %520

; <label>:520:                                    ; preds = %598, %519
  %521 = load i8, i8* %208, align 1
  %522 = sext i8 %521 to i32
  %523 = icmp ne i32 %522, 34
  br i1 %523, label %524, label %574

; <label>:524:                                    ; preds = %520
  %525 = getelementptr inbounds %class.Lexer, %class.Lexer* %256, i32 0, i32 0
  %526 = load i32, i32* %525, align 8
  %527 = sext i32 %526 to i64
  %528 = getelementptr inbounds %class.Lexer, %class.Lexer* %256, i32 0, i32 8
  store %"class.std::__1::basic_string"* %528, %"class.std::__1::basic_string"** %158, align 8
  %529 = load %"class.std::__1::basic_string"*, %"class.std::__1::basic_string"** %158, align 8
  store %"class.std::__1::basic_string"* %529, %"class.std::__1::basic_string"** %157, align 8
  %530 = load %"class.std::__1::basic_string"*, %"class.std::__1::basic_string"** %157, align 8
  store %"class.std::__1::basic_string"* %530, %"class.std::__1::basic_string"** %156, align 8
  %531 = load %"class.std::__1::basic_string"*, %"class.std::__1::basic_string"** %156, align 8
  %532 = getelementptr inbounds %"class.std::__1::basic_string", %"class.std::__1::basic_string"* %531, i32 0, i32 0
  store %"class.std::__1::__compressed_pair"* %532, %"class.std::__1::__compressed_pair"** %155, align 8
  %533 = load %"class.std::__1::__compressed_pair"*, %"class.std::__1::__compressed_pair"** %155, align 8
  %534 = bitcast %"class.std::__1::__compressed_pair"* %533 to %"class.std::__1::__libcpp_compressed_pair_imp"*
  store %"class.std::__1::__libcpp_compressed_pair_imp"* %534, %"class.std::__1::__libcpp_compressed_pair_imp"** %154, align 8
  %535 = load %"class.std::__1::__libcpp_compressed_pair_imp"*, %"class.std::__1::__libcpp_compressed_pair_imp"** %154, align 8
  %536 = getelementptr inbounds %"class.std::__1::__libcpp_compressed_pair_imp", %"class.std::__1::__libcpp_compressed_pair_imp"* %535, i32 0, i32 0
  %537 = getelementptr inbounds %"struct.std::__1::basic_string<char, std::__1::char_traits<char>, std::__1::allocator<char> >::__rep", %"struct.std::__1::basic_string<char, std::__1::char_traits<char>, std::__1::allocator<char> >::__rep"* %536, i32 0, i32 0
  %538 = bitcast %union.anon.0* %537 to %"struct.std::__1::basic_string<char, std::__1::char_traits<char>, std::__1::allocator<char> >::__short"*
  %539 = getelementptr inbounds %"struct.std::__1::basic_string<char, std::__1::char_traits<char>, std::__1::allocator<char> >::__short", %"struct.std::__1::basic_string<char, std::__1::char_traits<char>, std::__1::allocator<char> >::__short"* %538, i32 0, i32 0
  %540 = bitcast %union.anon.1* %539 to i8*
  %541 = load i8, i8* %540, align 8
  %542 = zext i8 %541 to i32
  %543 = and i32 %542, 1
  %544 = icmp ne i32 %543, 0
  br i1 %544, label %545, label %556

; <label>:545:                                    ; preds = %524
  store %"class.std::__1::basic_string"* %530, %"class.std::__1::basic_string"** %150, align 8
  %546 = load %"class.std::__1::basic_string"*, %"class.std::__1::basic_string"** %150, align 8
  %547 = getelementptr inbounds %"class.std::__1::basic_string", %"class.std::__1::basic_string"* %546, i32 0, i32 0
  store %"class.std::__1::__compressed_pair"* %547, %"class.std::__1::__compressed_pair"** %149, align 8
  %548 = load %"class.std::__1::__compressed_pair"*, %"class.std::__1::__compressed_pair"** %149, align 8
  %549 = bitcast %"class.std::__1::__compressed_pair"* %548 to %"class.std::__1::__libcpp_compressed_pair_imp"*
  store %"class.std::__1::__libcpp_compressed_pair_imp"* %549, %"class.std::__1::__libcpp_compressed_pair_imp"** %148, align 8
  %550 = load %"class.std::__1::__libcpp_compressed_pair_imp"*, %"class.std::__1::__libcpp_compressed_pair_imp"** %148, align 8
  %551 = getelementptr inbounds %"class.std::__1::__libcpp_compressed_pair_imp", %"class.std::__1::__libcpp_compressed_pair_imp"* %550, i32 0, i32 0
  %552 = getelementptr inbounds %"struct.std::__1::basic_string<char, std::__1::char_traits<char>, std::__1::allocator<char> >::__rep", %"struct.std::__1::basic_string<char, std::__1::char_traits<char>, std::__1::allocator<char> >::__rep"* %551, i32 0, i32 0
  %553 = bitcast %union.anon.0* %552 to %"struct.std::__1::basic_string<char, std::__1::char_traits<char>, std::__1::allocator<char> >::__long"*
  %554 = getelementptr inbounds %"struct.std::__1::basic_string<char, std::__1::char_traits<char>, std::__1::allocator<char> >::__long", %"struct.std::__1::basic_string<char, std::__1::char_traits<char>, std::__1::allocator<char> >::__long"* %553, i32 0, i32 1
  %555 = load i64, i64* %554, align 8
  br label %571

; <label>:556:                                    ; preds = %524
  store %"class.std::__1::basic_string"* %530, %"class.std::__1::basic_string"** %153, align 8
  %557 = load %"class.std::__1::basic_string"*, %"class.std::__1::basic_string"** %153, align 8
  %558 = getelementptr inbounds %"class.std::__1::basic_string", %"class.std::__1::basic_string"* %557, i32 0, i32 0
  store %"class.std::__1::__compressed_pair"* %558, %"class.std::__1::__compressed_pair"** %152, align 8
  %559 = load %"class.std::__1::__compressed_pair"*, %"class.std::__1::__compressed_pair"** %152, align 8
  %560 = bitcast %"class.std::__1::__compressed_pair"* %559 to %"class.std::__1::__libcpp_compressed_pair_imp"*
  store %"class.std::__1::__libcpp_compressed_pair_imp"* %560, %"class.std::__1::__libcpp_compressed_pair_imp"** %151, align 8
  %561 = load %"class.std::__1::__libcpp_compressed_pair_imp"*, %"class.std::__1::__libcpp_compressed_pair_imp"** %151, align 8
  %562 = getelementptr inbounds %"class.std::__1::__libcpp_compressed_pair_imp", %"class.std::__1::__libcpp_compressed_pair_imp"* %561, i32 0, i32 0
  %563 = getelementptr inbounds %"struct.std::__1::basic_string<char, std::__1::char_traits<char>, std::__1::allocator<char> >::__rep", %"struct.std::__1::basic_string<char, std::__1::char_traits<char>, std::__1::allocator<char> >::__rep"* %562, i32 0, i32 0
  %564 = bitcast %union.anon.0* %563 to %"struct.std::__1::basic_string<char, std::__1::char_traits<char>, std::__1::allocator<char> >::__short"*
  %565 = getelementptr inbounds %"struct.std::__1::basic_string<char, std::__1::char_traits<char>, std::__1::allocator<char> >::__short", %"struct.std::__1::basic_string<char, std::__1::char_traits<char>, std::__1::allocator<char> >::__short"* %564, i32 0, i32 0
  %566 = bitcast %union.anon.1* %565 to i8*
  %567 = load i8, i8* %566, align 8
  %568 = zext i8 %567 to i32
  %569 = ashr i32 %568, 1
  %570 = sext i32 %569 to i64
  br label %571

; <label>:571:                                    ; preds = %545, %556
  %572 = phi i64 [ %555, %545 ], [ %570, %556 ]
  %573 = icmp ult i64 %527, %572
  br label %574

; <label>:574:                                    ; preds = %571, %520
  %575 = phi i1 [ false, %520 ], [ %573, %571 ]
  br i1 %575, label %576, label %599

; <label>:576:                                    ; preds = %574
  %577 = load i8, i8* %208, align 1
  %578 = sext i8 %577 to i32
  %579 = icmp eq i32 %578, 92
  br i1 %579, label %580, label %590

; <label>:580:                                    ; preds = %576
  %581 = invoke signext i8 @_ZN5Lexer13get_next_charEv(%class.Lexer* %256)
          to label %582 unwind label %358

; <label>:582:                                    ; preds = %580
  store i8 %581, i8* %208, align 1
  %583 = load i8, i8* %208, align 1
  %584 = invoke signext i8 @_ZN5Lexer11escape_charEc(%class.Lexer* %256, i8 signext %583)
          to label %585 unwind label %358

; <label>:585:                                    ; preds = %582
  store %"class.std::__1::basic_string"* %203, %"class.std::__1::basic_string"** %146, align 8
  store i8 %584, i8* %147, align 1
  %586 = load %"class.std::__1::basic_string"*, %"class.std::__1::basic_string"** %146, align 8
  %587 = load i8, i8* %147, align 1
  invoke void @_ZNSt3__112basic_stringIcNS_11char_traitsIcEENS_9allocatorIcEEE9push_backEc(%"class.std::__1::basic_string"* %586, i8 signext %587)
          to label %588 unwind label %358

; <label>:588:                                    ; preds = %585
  br label %589

; <label>:589:                                    ; preds = %588
  br label %596

; <label>:590:                                    ; preds = %576
  %591 = load i8, i8* %208, align 1
  store %"class.std::__1::basic_string"* %203, %"class.std::__1::basic_string"** %144, align 8
  store i8 %591, i8* %145, align 1
  %592 = load %"class.std::__1::basic_string"*, %"class.std::__1::basic_string"** %144, align 8
  %593 = load i8, i8* %145, align 1
  invoke void @_ZNSt3__112basic_stringIcNS_11char_traitsIcEENS_9allocatorIcEEE9push_backEc(%"class.std::__1::basic_string"* %592, i8 signext %593)
          to label %594 unwind label %358

; <label>:594:                                    ; preds = %590
  br label %595

; <label>:595:                                    ; preds = %594
  br label %596

; <label>:596:                                    ; preds = %595, %589
  %597 = invoke signext i8 @_ZN5Lexer13get_next_charEv(%class.Lexer* %256)
          to label %598 unwind label %358

; <label>:598:                                    ; preds = %596
  store i8 %597, i8* %208, align 1
  br label %520

; <label>:599:                                    ; preds = %574
  invoke void @_ZNSt3__112basic_stringIcNS_11char_traitsIcEENS_9allocatorIcEEEC1ERKS5_(%"class.std::__1::basic_string"* %213, %"class.std::__1::basic_string"* dereferenceable(24) %203)
          to label %600 unwind label %358

; <label>:600:                                    ; preds = %599
  invoke void @_ZN7VariantC1ENSt3__112basic_stringIcNS0_11char_traitsIcEENS0_9allocatorIcEEEE(%struct.Variant* %212, %"class.std::__1::basic_string"* %213)
          to label %601 unwind label %607

; <label>:601:                                    ; preds = %600
  %602 = load i32, i32* %199, align 4
  %603 = load i32, i32* %204, align 4
  %604 = getelementptr inbounds %class.Lexer, %class.Lexer* %256, i32 0, i32 0
  %605 = load i32, i32* %604, align 8
  invoke void @_ZN5TokenC1E9TokenType7Variantiii(%class.Token* %0, i32 5, %struct.Variant* %212, i32 %602, i32 %603, i32 %605)
          to label %606 unwind label %611

; <label>:606:                                    ; preds = %601
  call void @_ZN7VariantD1Ev(%struct.Variant* %212) #11
  call void @_ZNSt3__112basic_stringIcNS_11char_traitsIcEENS_9allocatorIcEEED1Ev(%"class.std::__1::basic_string"* %213) #11
  store i32 1, i32* %207, align 4
  br label %1620

; <label>:607:                                    ; preds = %600
  %608 = landingpad { i8*, i32 }
          cleanup
  %609 = extractvalue { i8*, i32 } %608, 0
  store i8* %609, i8** %201, align 8
  %610 = extractvalue { i8*, i32 } %608, 1
  store i32 %610, i32* %202, align 4
  br label %615

; <label>:611:                                    ; preds = %601
  %612 = landingpad { i8*, i32 }
          cleanup
  %613 = extractvalue { i8*, i32 } %612, 0
  store i8* %613, i8** %201, align 8
  %614 = extractvalue { i8*, i32 } %612, 1
  store i32 %614, i32* %202, align 4
  call void @_ZN7VariantD1Ev(%struct.Variant* %212) #11
  br label %615

; <label>:615:                                    ; preds = %611, %607
  call void @_ZNSt3__112basic_stringIcNS_11char_traitsIcEENS_9allocatorIcEEED1Ev(%"class.std::__1::basic_string"* %213) #11
  br label %1621

; <label>:616:                                    ; preds = %513
  %617 = load i8, i8* %205, align 1
  %618 = invoke zeroext i1 @_ZN5Lexer9is_numberEcb(%class.Lexer* %256, i8 signext %617, i1 zeroext false)
          to label %619 unwind label %358

; <label>:619:                                    ; preds = %616
  br i1 %618, label %620, label %1106

; <label>:620:                                    ; preds = %619
  %621 = invoke signext i8 @_ZN5Lexer13get_next_charEv(%class.Lexer* %256)
          to label %622 unwind label %358

; <label>:622:                                    ; preds = %620
  store i8 %621, i8* %214, align 1
  %623 = load i8, i8* %205, align 1
  %624 = sext i8 %623 to i32
  %625 = icmp eq i32 %624, 48
  br i1 %625, label %626, label %687

; <label>:626:                                    ; preds = %622
  %627 = load i8, i8* %214, align 1
  %628 = sext i8 %627 to i32
  %629 = icmp eq i32 %628, 120
  br i1 %629, label %634, label %630

; <label>:630:                                    ; preds = %626
  %631 = load i8, i8* %214, align 1
  %632 = sext i8 %631 to i32
  %633 = icmp eq i32 %632, 88
  br i1 %633, label %634, label %687

; <label>:634:                                    ; preds = %630, %626
  store %"class.std::__1::basic_string"* %215, %"class.std::__1::basic_string"** %142, align 8
  store i8* getelementptr inbounds ([3 x i8], [3 x i8]* @.str.6, i32 0, i32 0), i8** %143, align 8
  %635 = load %"class.std::__1::basic_string"*, %"class.std::__1::basic_string"** %142, align 8
  %636 = load i8*, i8** %143, align 8
  store %"class.std::__1::basic_string"* %635, %"class.std::__1::basic_string"** %140, align 8
  store i8* %636, i8** %141, align 8
  %637 = load %"class.std::__1::basic_string"*, %"class.std::__1::basic_string"** %140, align 8
  %638 = bitcast %"class.std::__1::basic_string"* %637 to %"class.std::__1::__basic_string_common"*
  %639 = getelementptr inbounds %"class.std::__1::basic_string", %"class.std::__1::basic_string"* %637, i32 0, i32 0
  store %"class.std::__1::__compressed_pair"* %639, %"class.std::__1::__compressed_pair"** %139, align 8
  %640 = load %"class.std::__1::__compressed_pair"*, %"class.std::__1::__compressed_pair"** %139, align 8
  store %"class.std::__1::__compressed_pair"* %640, %"class.std::__1::__compressed_pair"** %138, align 8
  %641 = load %"class.std::__1::__compressed_pair"*, %"class.std::__1::__compressed_pair"** %138, align 8
  %642 = bitcast %"class.std::__1::__compressed_pair"* %641 to %"class.std::__1::__libcpp_compressed_pair_imp"*
  store %"class.std::__1::__libcpp_compressed_pair_imp"* %642, %"class.std::__1::__libcpp_compressed_pair_imp"** %137, align 8
  %643 = load %"class.std::__1::__libcpp_compressed_pair_imp"*, %"class.std::__1::__libcpp_compressed_pair_imp"** %137, align 8
  %644 = bitcast %"class.std::__1::__libcpp_compressed_pair_imp"* %643 to %"class.std::__1::allocator"*
  store %"class.std::__1::allocator"* %644, %"class.std::__1::allocator"** %136, align 8
  %645 = load %"class.std::__1::allocator"*, %"class.std::__1::allocator"** %136, align 8
  %646 = getelementptr inbounds %"class.std::__1::__libcpp_compressed_pair_imp", %"class.std::__1::__libcpp_compressed_pair_imp"* %643, i32 0, i32 0
  %647 = bitcast %"struct.std::__1::basic_string<char, std::__1::char_traits<char>, std::__1::allocator<char> >::__rep"* %646 to i8*
  call void @llvm.memset.p0i8.i64(i8* %647, i8 0, i64 24, i32 8, i1 false) #11
  %648 = load i8*, i8** %141, align 8
  %649 = load i8*, i8** %141, align 8
  %650 = invoke i64 @_ZNSt3__111char_traitsIcE6lengthEPKc(i8* %649)
          to label %651 unwind label %358

; <label>:651:                                    ; preds = %634
  invoke void @_ZNSt3__112basic_stringIcNS_11char_traitsIcEENS_9allocatorIcEEE6__initEPKcm(%"class.std::__1::basic_string"* %637, i8* %648, i64 %650)
          to label %652 unwind label %358

; <label>:652:                                    ; preds = %651
  br label %653

; <label>:653:                                    ; preds = %652
  %654 = invoke signext i8 @_ZN5Lexer13get_next_charEv(%class.Lexer* %256)
          to label %655 unwind label %668

; <label>:655:                                    ; preds = %653
  store i8 %654, i8* %208, align 1
  br label %656

; <label>:656:                                    ; preds = %667, %655
  %657 = load i8, i8* %208, align 1
  %658 = invoke zeroext i1 @_ZN5Lexer6is_hexEc(%class.Lexer* %256, i8 signext %657)
          to label %659 unwind label %668

; <label>:659:                                    ; preds = %656
  br i1 %658, label %660, label %672

; <label>:660:                                    ; preds = %659
  %661 = load i8, i8* %208, align 1
  store %"class.std::__1::basic_string"* %215, %"class.std::__1::basic_string"** %134, align 8
  store i8 %661, i8* %135, align 1
  %662 = load %"class.std::__1::basic_string"*, %"class.std::__1::basic_string"** %134, align 8
  %663 = load i8, i8* %135, align 1
  invoke void @_ZNSt3__112basic_stringIcNS_11char_traitsIcEENS_9allocatorIcEEE9push_backEc(%"class.std::__1::basic_string"* %662, i8 signext %663)
          to label %664 unwind label %668

; <label>:664:                                    ; preds = %660
  br label %665

; <label>:665:                                    ; preds = %664
  %666 = invoke signext i8 @_ZN5Lexer13get_next_charEv(%class.Lexer* %256)
          to label %667 unwind label %668

; <label>:667:                                    ; preds = %665
  store i8 %666, i8* %208, align 1
  br label %656

; <label>:668:                                    ; preds = %660, %675, %673, %672, %665, %656, %653
  %669 = landingpad { i8*, i32 }
          cleanup
  %670 = extractvalue { i8*, i32 } %669, 0
  store i8* %670, i8** %201, align 8
  %671 = extractvalue { i8*, i32 } %669, 1
  store i32 %671, i32* %202, align 4
  br label %686

; <label>:672:                                    ; preds = %659
  invoke void @_ZN5Lexer11backtrack_cEi(%class.Lexer* %256, i32 1)
          to label %673 unwind label %668

; <label>:673:                                    ; preds = %672
  %674 = invoke i64 @_ZNSt3__15stoulERKNS_12basic_stringIcNS_11char_traitsIcEENS_9allocatorIcEEEEPmi(%"class.std::__1::basic_string"* dereferenceable(24) %215, i64* null, i32 16)
          to label %675 unwind label %668

; <label>:675:                                    ; preds = %673
  invoke void @_ZN7VariantC1El(%struct.Variant* %216, i64 %674)
          to label %676 unwind label %668

; <label>:676:                                    ; preds = %675
  %677 = load i32, i32* %199, align 4
  %678 = load i32, i32* %204, align 4
  %679 = getelementptr inbounds %class.Lexer, %class.Lexer* %256, i32 0, i32 0
  %680 = load i32, i32* %679, align 8
  invoke void @_ZN5TokenC1E9TokenType7Variantiii(%class.Token* %0, i32 5, %struct.Variant* %216, i32 %677, i32 %678, i32 %680)
          to label %681 unwind label %682

; <label>:681:                                    ; preds = %676
  call void @_ZN7VariantD1Ev(%struct.Variant* %216) #11
  store i32 1, i32* %207, align 4
  call void @_ZNSt3__112basic_stringIcNS_11char_traitsIcEENS_9allocatorIcEEED1Ev(%"class.std::__1::basic_string"* %215) #11
  br label %1620

; <label>:682:                                    ; preds = %676
  %683 = landingpad { i8*, i32 }
          cleanup
  %684 = extractvalue { i8*, i32 } %683, 0
  store i8* %684, i8** %201, align 8
  %685 = extractvalue { i8*, i32 } %683, 1
  store i32 %685, i32* %202, align 4
  call void @_ZN7VariantD1Ev(%struct.Variant* %216) #11
  br label %686

; <label>:686:                                    ; preds = %682, %668
  call void @_ZNSt3__112basic_stringIcNS_11char_traitsIcEENS_9allocatorIcEEED1Ev(%"class.std::__1::basic_string"* %215) #11
  br label %1621

; <label>:687:                                    ; preds = %630, %622
  %688 = load i8, i8* %205, align 1
  %689 = sext i8 %688 to i32
  %690 = icmp eq i32 %689, 48
  br i1 %690, label %691, label %758

; <label>:691:                                    ; preds = %687
  %692 = load i8, i8* %214, align 1
  %693 = sext i8 %692 to i32
  %694 = icmp eq i32 %693, 98
  br i1 %694, label %699, label %695

; <label>:695:                                    ; preds = %691
  %696 = load i8, i8* %214, align 1
  %697 = sext i8 %696 to i32
  %698 = icmp eq i32 %697, 66
  br i1 %698, label %699, label %758

; <label>:699:                                    ; preds = %695, %691
  store %"class.std::__1::basic_string"* %217, %"class.std::__1::basic_string"** %132, align 8
  store i8* getelementptr inbounds ([1 x i8], [1 x i8]* @.str.4, i32 0, i32 0), i8** %133, align 8
  %700 = load %"class.std::__1::basic_string"*, %"class.std::__1::basic_string"** %132, align 8
  %701 = load i8*, i8** %133, align 8
  store %"class.std::__1::basic_string"* %700, %"class.std::__1::basic_string"** %130, align 8
  store i8* %701, i8** %131, align 8
  %702 = load %"class.std::__1::basic_string"*, %"class.std::__1::basic_string"** %130, align 8
  %703 = bitcast %"class.std::__1::basic_string"* %702 to %"class.std::__1::__basic_string_common"*
  %704 = getelementptr inbounds %"class.std::__1::basic_string", %"class.std::__1::basic_string"* %702, i32 0, i32 0
  store %"class.std::__1::__compressed_pair"* %704, %"class.std::__1::__compressed_pair"** %129, align 8
  %705 = load %"class.std::__1::__compressed_pair"*, %"class.std::__1::__compressed_pair"** %129, align 8
  store %"class.std::__1::__compressed_pair"* %705, %"class.std::__1::__compressed_pair"** %128, align 8
  %706 = load %"class.std::__1::__compressed_pair"*, %"class.std::__1::__compressed_pair"** %128, align 8
  %707 = bitcast %"class.std::__1::__compressed_pair"* %706 to %"class.std::__1::__libcpp_compressed_pair_imp"*
  store %"class.std::__1::__libcpp_compressed_pair_imp"* %707, %"class.std::__1::__libcpp_compressed_pair_imp"** %127, align 8
  %708 = load %"class.std::__1::__libcpp_compressed_pair_imp"*, %"class.std::__1::__libcpp_compressed_pair_imp"** %127, align 8
  %709 = bitcast %"class.std::__1::__libcpp_compressed_pair_imp"* %708 to %"class.std::__1::allocator"*
  store %"class.std::__1::allocator"* %709, %"class.std::__1::allocator"** %126, align 8
  %710 = load %"class.std::__1::allocator"*, %"class.std::__1::allocator"** %126, align 8
  %711 = getelementptr inbounds %"class.std::__1::__libcpp_compressed_pair_imp", %"class.std::__1::__libcpp_compressed_pair_imp"* %708, i32 0, i32 0
  %712 = bitcast %"struct.std::__1::basic_string<char, std::__1::char_traits<char>, std::__1::allocator<char> >::__rep"* %711 to i8*
  call void @llvm.memset.p0i8.i64(i8* %712, i8 0, i64 24, i32 8, i1 false) #11
  %713 = load i8*, i8** %131, align 8
  %714 = load i8*, i8** %131, align 8
  %715 = invoke i64 @_ZNSt3__111char_traitsIcE6lengthEPKc(i8* %714)
          to label %716 unwind label %358

; <label>:716:                                    ; preds = %699
  invoke void @_ZNSt3__112basic_stringIcNS_11char_traitsIcEENS_9allocatorIcEEE6__initEPKcm(%"class.std::__1::basic_string"* %702, i8* %713, i64 %715)
          to label %717 unwind label %358

; <label>:717:                                    ; preds = %716
  br label %718

; <label>:718:                                    ; preds = %717
  %719 = invoke signext i8 @_ZN5Lexer13get_next_charEv(%class.Lexer* %256)
          to label %720 unwind label %739

; <label>:720:                                    ; preds = %718
  store i8 %719, i8* %208, align 1
  br label %721

; <label>:721:                                    ; preds = %738, %720
  %722 = load i8, i8* %208, align 1
  %723 = sext i8 %722 to i32
  %724 = icmp eq i32 %723, 48
  br i1 %724, label %729, label %725

; <label>:725:                                    ; preds = %721
  %726 = load i8, i8* %208, align 1
  %727 = sext i8 %726 to i32
  %728 = icmp eq i32 %727, 49
  br label %729

; <label>:729:                                    ; preds = %725, %721
  %730 = phi i1 [ true, %721 ], [ %728, %725 ]
  br i1 %730, label %731, label %743

; <label>:731:                                    ; preds = %729
  %732 = load i8, i8* %208, align 1
  store %"class.std::__1::basic_string"* %217, %"class.std::__1::basic_string"** %124, align 8
  store i8 %732, i8* %125, align 1
  %733 = load %"class.std::__1::basic_string"*, %"class.std::__1::basic_string"** %124, align 8
  %734 = load i8, i8* %125, align 1
  invoke void @_ZNSt3__112basic_stringIcNS_11char_traitsIcEENS_9allocatorIcEEE9push_backEc(%"class.std::__1::basic_string"* %733, i8 signext %734)
          to label %735 unwind label %739

; <label>:735:                                    ; preds = %731
  br label %736

; <label>:736:                                    ; preds = %735
  %737 = invoke signext i8 @_ZN5Lexer13get_next_charEv(%class.Lexer* %256)
          to label %738 unwind label %739

; <label>:738:                                    ; preds = %736
  store i8 %737, i8* %208, align 1
  br label %721

; <label>:739:                                    ; preds = %731, %746, %744, %743, %736, %718
  %740 = landingpad { i8*, i32 }
          cleanup
  %741 = extractvalue { i8*, i32 } %740, 0
  store i8* %741, i8** %201, align 8
  %742 = extractvalue { i8*, i32 } %740, 1
  store i32 %742, i32* %202, align 4
  br label %757

; <label>:743:                                    ; preds = %729
  invoke void @_ZN5Lexer11backtrack_cEi(%class.Lexer* %256, i32 1)
          to label %744 unwind label %739

; <label>:744:                                    ; preds = %743
  %745 = invoke i64 @_ZNSt3__15stoulERKNS_12basic_stringIcNS_11char_traitsIcEENS_9allocatorIcEEEEPmi(%"class.std::__1::basic_string"* dereferenceable(24) %217, i64* null, i32 2)
          to label %746 unwind label %739

; <label>:746:                                    ; preds = %744
  invoke void @_ZN7VariantC1El(%struct.Variant* %218, i64 %745)
          to label %747 unwind label %739

; <label>:747:                                    ; preds = %746
  %748 = load i32, i32* %199, align 4
  %749 = load i32, i32* %204, align 4
  %750 = getelementptr inbounds %class.Lexer, %class.Lexer* %256, i32 0, i32 0
  %751 = load i32, i32* %750, align 8
  invoke void @_ZN5TokenC1E9TokenType7Variantiii(%class.Token* %0, i32 5, %struct.Variant* %218, i32 %748, i32 %749, i32 %751)
          to label %752 unwind label %753

; <label>:752:                                    ; preds = %747
  call void @_ZN7VariantD1Ev(%struct.Variant* %218) #11
  store i32 1, i32* %207, align 4
  call void @_ZNSt3__112basic_stringIcNS_11char_traitsIcEENS_9allocatorIcEEED1Ev(%"class.std::__1::basic_string"* %217) #11
  br label %1620

; <label>:753:                                    ; preds = %747
  %754 = landingpad { i8*, i32 }
          cleanup
  %755 = extractvalue { i8*, i32 } %754, 0
  store i8* %755, i8** %201, align 8
  %756 = extractvalue { i8*, i32 } %754, 1
  store i32 %756, i32* %202, align 4
  call void @_ZN7VariantD1Ev(%struct.Variant* %218) #11
  br label %757

; <label>:757:                                    ; preds = %753, %739
  call void @_ZNSt3__112basic_stringIcNS_11char_traitsIcEENS_9allocatorIcEEED1Ev(%"class.std::__1::basic_string"* %217) #11
  br label %1621

; <label>:758:                                    ; preds = %695, %687
  invoke void @_ZN5Lexer11backtrack_cEi(%class.Lexer* %256, i32 1)
          to label %759 unwind label %358

; <label>:759:                                    ; preds = %758
  %760 = load i8, i8* %205, align 1
  store i8 %760, i8* %208, align 1
  store i8 0, i8* %219, align 1
  br label %761

; <label>:761:                                    ; preds = %810, %759
  %762 = load i8, i8* %208, align 1
  %763 = sext i8 %762 to i32
  %764 = icmp sge i32 %763, 48
  br i1 %764, label %765, label %769

; <label>:765:                                    ; preds = %761
  %766 = load i8, i8* %208, align 1
  %767 = sext i8 %766 to i32
  %768 = icmp sle i32 %767, 57
  br i1 %768, label %777, label %769

; <label>:769:                                    ; preds = %765, %761
  %770 = load i8, i8* %208, align 1
  %771 = sext i8 %770 to i32
  %772 = icmp eq i32 %771, 95
  br i1 %772, label %777, label %773

; <label>:773:                                    ; preds = %769
  %774 = load i8, i8* %208, align 1
  %775 = sext i8 %774 to i32
  %776 = icmp eq i32 %775, 46
  br label %777

; <label>:777:                                    ; preds = %773, %769, %765
  %778 = phi i1 [ true, %769 ], [ true, %765 ], [ %776, %773 ]
  br i1 %778, label %779, label %811

; <label>:779:                                    ; preds = %777
  %780 = load i8, i8* %208, align 1
  %781 = sext i8 %780 to i32
  %782 = icmp eq i32 %781, 46
  br i1 %782, label %783, label %798

; <label>:783:                                    ; preds = %779
  %784 = load i8, i8* %219, align 1
  %785 = trunc i8 %784 to i1
  br i1 %785, label %798, label %786

; <label>:786:                                    ; preds = %783
  %787 = invoke signext i8 @_ZN5Lexer14char_lookaheadEv(%class.Lexer* %256)
          to label %788 unwind label %358

; <label>:788:                                    ; preds = %786
  %789 = sext i8 %787 to i32
  %790 = icmp slt i32 %789, 48
  br i1 %790, label %796, label %791

; <label>:791:                                    ; preds = %788
  %792 = invoke signext i8 @_ZN5Lexer14char_lookaheadEv(%class.Lexer* %256)
          to label %793 unwind label %358

; <label>:793:                                    ; preds = %791
  %794 = sext i8 %792 to i32
  %795 = icmp sgt i32 %794, 57
  br i1 %795, label %796, label %797

; <label>:796:                                    ; preds = %793, %788
  br label %811

; <label>:797:                                    ; preds = %793
  store i8 1, i8* %219, align 1
  br label %798

; <label>:798:                                    ; preds = %797, %783, %779
  %799 = load i8, i8* %208, align 1
  %800 = sext i8 %799 to i32
  %801 = icmp ne i32 %800, 95
  br i1 %801, label %802, label %808

; <label>:802:                                    ; preds = %798
  %803 = load i8, i8* %208, align 1
  store %"class.std::__1::basic_string"* %203, %"class.std::__1::basic_string"** %122, align 8
  store i8 %803, i8* %123, align 1
  %804 = load %"class.std::__1::basic_string"*, %"class.std::__1::basic_string"** %122, align 8
  %805 = load i8, i8* %123, align 1
  invoke void @_ZNSt3__112basic_stringIcNS_11char_traitsIcEENS_9allocatorIcEEE9push_backEc(%"class.std::__1::basic_string"* %804, i8 signext %805)
          to label %806 unwind label %358

; <label>:806:                                    ; preds = %802
  br label %807

; <label>:807:                                    ; preds = %806
  br label %808

; <label>:808:                                    ; preds = %807, %798
  %809 = invoke signext i8 @_ZN5Lexer13get_next_charEv(%class.Lexer* %256)
          to label %810 unwind label %358

; <label>:810:                                    ; preds = %808
  store i8 %809, i8* %208, align 1
  br label %761

; <label>:811:                                    ; preds = %796, %777
  %812 = load i8, i8* %205, align 1
  %813 = sext i8 %812 to i32
  %814 = icmp eq i32 %813, 48
  br i1 %814, label %815, label %917

; <label>:815:                                    ; preds = %811
  store %"class.std::__1::basic_string"* %203, %"class.std::__1::basic_string"** %121, align 8
  %816 = load %"class.std::__1::basic_string"*, %"class.std::__1::basic_string"** %121, align 8
  store %"class.std::__1::basic_string"* %816, %"class.std::__1::basic_string"** %120, align 8
  %817 = load %"class.std::__1::basic_string"*, %"class.std::__1::basic_string"** %120, align 8
  store %"class.std::__1::basic_string"* %817, %"class.std::__1::basic_string"** %119, align 8
  %818 = load %"class.std::__1::basic_string"*, %"class.std::__1::basic_string"** %119, align 8
  %819 = getelementptr inbounds %"class.std::__1::basic_string", %"class.std::__1::basic_string"* %818, i32 0, i32 0
  store %"class.std::__1::__compressed_pair"* %819, %"class.std::__1::__compressed_pair"** %118, align 8
  %820 = load %"class.std::__1::__compressed_pair"*, %"class.std::__1::__compressed_pair"** %118, align 8
  %821 = bitcast %"class.std::__1::__compressed_pair"* %820 to %"class.std::__1::__libcpp_compressed_pair_imp"*
  store %"class.std::__1::__libcpp_compressed_pair_imp"* %821, %"class.std::__1::__libcpp_compressed_pair_imp"** %117, align 8
  %822 = load %"class.std::__1::__libcpp_compressed_pair_imp"*, %"class.std::__1::__libcpp_compressed_pair_imp"** %117, align 8
  %823 = getelementptr inbounds %"class.std::__1::__libcpp_compressed_pair_imp", %"class.std::__1::__libcpp_compressed_pair_imp"* %822, i32 0, i32 0
  %824 = getelementptr inbounds %"struct.std::__1::basic_string<char, std::__1::char_traits<char>, std::__1::allocator<char> >::__rep", %"struct.std::__1::basic_string<char, std::__1::char_traits<char>, std::__1::allocator<char> >::__rep"* %823, i32 0, i32 0
  %825 = bitcast %union.anon.0* %824 to %"struct.std::__1::basic_string<char, std::__1::char_traits<char>, std::__1::allocator<char> >::__short"*
  %826 = getelementptr inbounds %"struct.std::__1::basic_string<char, std::__1::char_traits<char>, std::__1::allocator<char> >::__short", %"struct.std::__1::basic_string<char, std::__1::char_traits<char>, std::__1::allocator<char> >::__short"* %825, i32 0, i32 0
  %827 = bitcast %union.anon.1* %826 to i8*
  %828 = load i8, i8* %827, align 8
  %829 = zext i8 %828 to i32
  %830 = and i32 %829, 1
  %831 = icmp ne i32 %830, 0
  br i1 %831, label %832, label %843

; <label>:832:                                    ; preds = %815
  store %"class.std::__1::basic_string"* %817, %"class.std::__1::basic_string"** %113, align 8
  %833 = load %"class.std::__1::basic_string"*, %"class.std::__1::basic_string"** %113, align 8
  %834 = getelementptr inbounds %"class.std::__1::basic_string", %"class.std::__1::basic_string"* %833, i32 0, i32 0
  store %"class.std::__1::__compressed_pair"* %834, %"class.std::__1::__compressed_pair"** %112, align 8
  %835 = load %"class.std::__1::__compressed_pair"*, %"class.std::__1::__compressed_pair"** %112, align 8
  %836 = bitcast %"class.std::__1::__compressed_pair"* %835 to %"class.std::__1::__libcpp_compressed_pair_imp"*
  store %"class.std::__1::__libcpp_compressed_pair_imp"* %836, %"class.std::__1::__libcpp_compressed_pair_imp"** %111, align 8
  %837 = load %"class.std::__1::__libcpp_compressed_pair_imp"*, %"class.std::__1::__libcpp_compressed_pair_imp"** %111, align 8
  %838 = getelementptr inbounds %"class.std::__1::__libcpp_compressed_pair_imp", %"class.std::__1::__libcpp_compressed_pair_imp"* %837, i32 0, i32 0
  %839 = getelementptr inbounds %"struct.std::__1::basic_string<char, std::__1::char_traits<char>, std::__1::allocator<char> >::__rep", %"struct.std::__1::basic_string<char, std::__1::char_traits<char>, std::__1::allocator<char> >::__rep"* %838, i32 0, i32 0
  %840 = bitcast %union.anon.0* %839 to %"struct.std::__1::basic_string<char, std::__1::char_traits<char>, std::__1::allocator<char> >::__long"*
  %841 = getelementptr inbounds %"struct.std::__1::basic_string<char, std::__1::char_traits<char>, std::__1::allocator<char> >::__long", %"struct.std::__1::basic_string<char, std::__1::char_traits<char>, std::__1::allocator<char> >::__long"* %840, i32 0, i32 1
  %842 = load i64, i64* %841, align 8
  br label %858

; <label>:843:                                    ; preds = %815
  store %"class.std::__1::basic_string"* %817, %"class.std::__1::basic_string"** %116, align 8
  %844 = load %"class.std::__1::basic_string"*, %"class.std::__1::basic_string"** %116, align 8
  %845 = getelementptr inbounds %"class.std::__1::basic_string", %"class.std::__1::basic_string"* %844, i32 0, i32 0
  store %"class.std::__1::__compressed_pair"* %845, %"class.std::__1::__compressed_pair"** %115, align 8
  %846 = load %"class.std::__1::__compressed_pair"*, %"class.std::__1::__compressed_pair"** %115, align 8
  %847 = bitcast %"class.std::__1::__compressed_pair"* %846 to %"class.std::__1::__libcpp_compressed_pair_imp"*
  store %"class.std::__1::__libcpp_compressed_pair_imp"* %847, %"class.std::__1::__libcpp_compressed_pair_imp"** %114, align 8
  %848 = load %"class.std::__1::__libcpp_compressed_pair_imp"*, %"class.std::__1::__libcpp_compressed_pair_imp"** %114, align 8
  %849 = getelementptr inbounds %"class.std::__1::__libcpp_compressed_pair_imp", %"class.std::__1::__libcpp_compressed_pair_imp"* %848, i32 0, i32 0
  %850 = getelementptr inbounds %"struct.std::__1::basic_string<char, std::__1::char_traits<char>, std::__1::allocator<char> >::__rep", %"struct.std::__1::basic_string<char, std::__1::char_traits<char>, std::__1::allocator<char> >::__rep"* %849, i32 0, i32 0
  %851 = bitcast %union.anon.0* %850 to %"struct.std::__1::basic_string<char, std::__1::char_traits<char>, std::__1::allocator<char> >::__short"*
  %852 = getelementptr inbounds %"struct.std::__1::basic_string<char, std::__1::char_traits<char>, std::__1::allocator<char> >::__short", %"struct.std::__1::basic_string<char, std::__1::char_traits<char>, std::__1::allocator<char> >::__short"* %851, i32 0, i32 0
  %853 = bitcast %union.anon.1* %852 to i8*
  %854 = load i8, i8* %853, align 8
  %855 = zext i8 %854 to i32
  %856 = ashr i32 %855, 1
  %857 = sext i32 %856 to i64
  br label %858

; <label>:858:                                    ; preds = %832, %843
  %859 = phi i64 [ %842, %832 ], [ %857, %843 ]
  %860 = icmp ne i64 %859, 1
  br i1 %860, label %861, label %917

; <label>:861:                                    ; preds = %858
  %862 = load i8, i8* %219, align 1
  %863 = trunc i8 %862 to i1
  br i1 %863, label %917, label %864

; <label>:864:                                    ; preds = %861
  invoke void @_ZN5Lexer11backtrack_cEi(%class.Lexer* %256, i32 1)
          to label %865 unwind label %874

; <label>:865:                                    ; preds = %864
  %866 = invoke i32 @_ZNSt3__14stoiERKNS_12basic_stringIcNS_11char_traitsIcEENS_9allocatorIcEEEEPmi(%"class.std::__1::basic_string"* dereferenceable(24) %203, i64* null, i32 8)
          to label %867 unwind label %874

; <label>:867:                                    ; preds = %865
  invoke void @_ZN7VariantC1Ei(%struct.Variant* %220, i32 %866)
          to label %868 unwind label %874

; <label>:868:                                    ; preds = %867
  %869 = load i32, i32* %199, align 4
  %870 = load i32, i32* %204, align 4
  %871 = getelementptr inbounds %class.Lexer, %class.Lexer* %256, i32 0, i32 0
  %872 = load i32, i32* %871, align 8
  invoke void @_ZN5TokenC1E9TokenType7Variantiii(%class.Token* %0, i32 5, %struct.Variant* %220, i32 %869, i32 %870, i32 %872)
          to label %873 unwind label %878

; <label>:873:                                    ; preds = %868
  call void @_ZN7VariantD1Ev(%struct.Variant* %220) #11
  store i32 1, i32* %207, align 4
  br label %1620

; <label>:874:                                    ; preds = %867, %865, %864
  %875 = landingpad { i8*, i32 }
          catch i8* null
  %876 = extractvalue { i8*, i32 } %875, 0
  store i8* %876, i8** %201, align 8
  %877 = extractvalue { i8*, i32 } %875, 1
  store i32 %877, i32* %202, align 4
  br label %882

; <label>:878:                                    ; preds = %868
  %879 = landingpad { i8*, i32 }
          catch i8* null
  %880 = extractvalue { i8*, i32 } %879, 0
  store i8* %880, i8** %201, align 8
  %881 = extractvalue { i8*, i32 } %879, 1
  store i32 %881, i32* %202, align 4
  call void @_ZN7VariantD1Ev(%struct.Variant* %220) #11
  br label %882

; <label>:882:                                    ; preds = %878, %874
  %883 = load i8*, i8** %201, align 8
  %884 = call i8* @__cxa_begin_catch(i8* %883) #11
  store %"class.std::__1::basic_string"* %221, %"class.std::__1::basic_string"** %109, align 8
  store i8* getelementptr inbounds ([22 x i8], [22 x i8]* @.str.7, i32 0, i32 0), i8** %110, align 8
  %885 = load %"class.std::__1::basic_string"*, %"class.std::__1::basic_string"** %109, align 8
  %886 = load i8*, i8** %110, align 8
  store %"class.std::__1::basic_string"* %885, %"class.std::__1::basic_string"** %107, align 8
  store i8* %886, i8** %108, align 8
  %887 = load %"class.std::__1::basic_string"*, %"class.std::__1::basic_string"** %107, align 8
  %888 = bitcast %"class.std::__1::basic_string"* %887 to %"class.std::__1::__basic_string_common"*
  %889 = getelementptr inbounds %"class.std::__1::basic_string", %"class.std::__1::basic_string"* %887, i32 0, i32 0
  store %"class.std::__1::__compressed_pair"* %889, %"class.std::__1::__compressed_pair"** %106, align 8
  %890 = load %"class.std::__1::__compressed_pair"*, %"class.std::__1::__compressed_pair"** %106, align 8
  store %"class.std::__1::__compressed_pair"* %890, %"class.std::__1::__compressed_pair"** %105, align 8
  %891 = load %"class.std::__1::__compressed_pair"*, %"class.std::__1::__compressed_pair"** %105, align 8
  %892 = bitcast %"class.std::__1::__compressed_pair"* %891 to %"class.std::__1::__libcpp_compressed_pair_imp"*
  store %"class.std::__1::__libcpp_compressed_pair_imp"* %892, %"class.std::__1::__libcpp_compressed_pair_imp"** %104, align 8
  %893 = load %"class.std::__1::__libcpp_compressed_pair_imp"*, %"class.std::__1::__libcpp_compressed_pair_imp"** %104, align 8
  %894 = bitcast %"class.std::__1::__libcpp_compressed_pair_imp"* %893 to %"class.std::__1::allocator"*
  store %"class.std::__1::allocator"* %894, %"class.std::__1::allocator"** %103, align 8
  %895 = load %"class.std::__1::allocator"*, %"class.std::__1::allocator"** %103, align 8
  %896 = getelementptr inbounds %"class.std::__1::__libcpp_compressed_pair_imp", %"class.std::__1::__libcpp_compressed_pair_imp"* %893, i32 0, i32 0
  %897 = bitcast %"struct.std::__1::basic_string<char, std::__1::char_traits<char>, std::__1::allocator<char> >::__rep"* %896 to i8*
  call void @llvm.memset.p0i8.i64(i8* %897, i8 0, i64 24, i32 8, i1 false) #11
  %898 = load i8*, i8** %108, align 8
  %899 = load i8*, i8** %108, align 8
  %900 = invoke i64 @_ZNSt3__111char_traitsIcE6lengthEPKc(i8* %899)
          to label %901 unwind label %907

; <label>:901:                                    ; preds = %882
  invoke void @_ZNSt3__112basic_stringIcNS_11char_traitsIcEENS_9allocatorIcEEE6__initEPKcm(%"class.std::__1::basic_string"* %887, i8* %898, i64 %900)
          to label %902 unwind label %907

; <label>:902:                                    ; preds = %901
  br label %903

; <label>:903:                                    ; preds = %902
  invoke void @_ZN10ParseError5raiseE11ParseErrorsNSt3__112basic_stringIcNS1_11char_traitsIcEENS1_9allocatorIcEEEEP5Lexer(i32 1, %"class.std::__1::basic_string"* %221, %class.Lexer* %256)
          to label %904 unwind label %911

; <label>:904:                                    ; preds = %903
  call void @_ZNSt3__112basic_stringIcNS_11char_traitsIcEENS_9allocatorIcEEED1Ev(%"class.std::__1::basic_string"* %221) #11
  invoke void @__cxa_end_catch()
          to label %905 unwind label %358

; <label>:905:                                    ; preds = %904
  br label %906

; <label>:906:                                    ; preds = %905
  br label %917

; <label>:907:                                    ; preds = %901, %882
  %908 = landingpad { i8*, i32 }
          cleanup
  %909 = extractvalue { i8*, i32 } %908, 0
  store i8* %909, i8** %201, align 8
  %910 = extractvalue { i8*, i32 } %908, 1
  store i32 %910, i32* %202, align 4
  br label %915

; <label>:911:                                    ; preds = %903
  %912 = landingpad { i8*, i32 }
          cleanup
  %913 = extractvalue { i8*, i32 } %912, 0
  store i8* %913, i8** %201, align 8
  %914 = extractvalue { i8*, i32 } %912, 1
  store i32 %914, i32* %202, align 4
  call void @_ZNSt3__112basic_stringIcNS_11char_traitsIcEENS_9allocatorIcEEED1Ev(%"class.std::__1::basic_string"* %221) #11
  br label %915

; <label>:915:                                    ; preds = %911, %907
  invoke void @__cxa_end_catch()
          to label %916 unwind label %1628

; <label>:916:                                    ; preds = %915
  br label %1621

; <label>:917:                                    ; preds = %906, %861, %858, %811
  %918 = load i8, i8* %208, align 1
  %919 = sext i8 %918 to i32
  %920 = icmp eq i32 %919, 101
  br i1 %920, label %925, label %921

; <label>:921:                                    ; preds = %917
  %922 = load i8, i8* %208, align 1
  %923 = sext i8 %922 to i32
  %924 = icmp eq i32 %923, 69
  br i1 %924, label %925, label %991

; <label>:925:                                    ; preds = %921, %917
  store %"class.std::__1::basic_string"* %222, %"class.std::__1::basic_string"** %101, align 8
  store i8* getelementptr inbounds ([1 x i8], [1 x i8]* @.str.4, i32 0, i32 0), i8** %102, align 8
  %926 = load %"class.std::__1::basic_string"*, %"class.std::__1::basic_string"** %101, align 8
  %927 = load i8*, i8** %102, align 8
  store %"class.std::__1::basic_string"* %926, %"class.std::__1::basic_string"** %99, align 8
  store i8* %927, i8** %100, align 8
  %928 = load %"class.std::__1::basic_string"*, %"class.std::__1::basic_string"** %99, align 8
  %929 = bitcast %"class.std::__1::basic_string"* %928 to %"class.std::__1::__basic_string_common"*
  %930 = getelementptr inbounds %"class.std::__1::basic_string", %"class.std::__1::basic_string"* %928, i32 0, i32 0
  store %"class.std::__1::__compressed_pair"* %930, %"class.std::__1::__compressed_pair"** %98, align 8
  %931 = load %"class.std::__1::__compressed_pair"*, %"class.std::__1::__compressed_pair"** %98, align 8
  store %"class.std::__1::__compressed_pair"* %931, %"class.std::__1::__compressed_pair"** %97, align 8
  %932 = load %"class.std::__1::__compressed_pair"*, %"class.std::__1::__compressed_pair"** %97, align 8
  %933 = bitcast %"class.std::__1::__compressed_pair"* %932 to %"class.std::__1::__libcpp_compressed_pair_imp"*
  store %"class.std::__1::__libcpp_compressed_pair_imp"* %933, %"class.std::__1::__libcpp_compressed_pair_imp"** %96, align 8
  %934 = load %"class.std::__1::__libcpp_compressed_pair_imp"*, %"class.std::__1::__libcpp_compressed_pair_imp"** %96, align 8
  %935 = bitcast %"class.std::__1::__libcpp_compressed_pair_imp"* %934 to %"class.std::__1::allocator"*
  store %"class.std::__1::allocator"* %935, %"class.std::__1::allocator"** %95, align 8
  %936 = load %"class.std::__1::allocator"*, %"class.std::__1::allocator"** %95, align 8
  %937 = getelementptr inbounds %"class.std::__1::__libcpp_compressed_pair_imp", %"class.std::__1::__libcpp_compressed_pair_imp"* %934, i32 0, i32 0
  %938 = bitcast %"struct.std::__1::basic_string<char, std::__1::char_traits<char>, std::__1::allocator<char> >::__rep"* %937 to i8*
  call void @llvm.memset.p0i8.i64(i8* %938, i8 0, i64 24, i32 8, i1 false) #11
  %939 = load i8*, i8** %100, align 8
  %940 = load i8*, i8** %100, align 8
  %941 = invoke i64 @_ZNSt3__111char_traitsIcE6lengthEPKc(i8* %940)
          to label %942 unwind label %358

; <label>:942:                                    ; preds = %925
  invoke void @_ZNSt3__112basic_stringIcNS_11char_traitsIcEENS_9allocatorIcEEE6__initEPKcm(%"class.std::__1::basic_string"* %928, i8* %939, i64 %941)
          to label %943 unwind label %358

; <label>:943:                                    ; preds = %942
  br label %944

; <label>:944:                                    ; preds = %943
  %945 = invoke signext i8 @_ZN5Lexer13get_next_charEv(%class.Lexer* %256)
          to label %946 unwind label %965

; <label>:946:                                    ; preds = %944
  store i8 %945, i8* %208, align 1
  br label %947

; <label>:947:                                    ; preds = %964, %946
  %948 = load i8, i8* %208, align 1
  %949 = sext i8 %948 to i32
  %950 = icmp eq i32 %949, 45
  br i1 %950, label %955, label %951

; <label>:951:                                    ; preds = %947
  %952 = load i8, i8* %208, align 1
  %953 = invoke zeroext i1 @_ZN5Lexer9is_numberEcb(%class.Lexer* %256, i8 signext %952, i1 zeroext false)
          to label %954 unwind label %965

; <label>:954:                                    ; preds = %951
  br label %955

; <label>:955:                                    ; preds = %954, %947
  %956 = phi i1 [ true, %947 ], [ %953, %954 ]
  br i1 %956, label %957, label %969

; <label>:957:                                    ; preds = %955
  %958 = load i8, i8* %208, align 1
  store %"class.std::__1::basic_string"* %222, %"class.std::__1::basic_string"** %93, align 8
  store i8 %958, i8* %94, align 1
  %959 = load %"class.std::__1::basic_string"*, %"class.std::__1::basic_string"** %93, align 8
  %960 = load i8, i8* %94, align 1
  invoke void @_ZNSt3__112basic_stringIcNS_11char_traitsIcEENS_9allocatorIcEEE9push_backEc(%"class.std::__1::basic_string"* %959, i8 signext %960)
          to label %961 unwind label %965

; <label>:961:                                    ; preds = %957
  br label %962

; <label>:962:                                    ; preds = %961
  %963 = invoke signext i8 @_ZN5Lexer13get_next_charEv(%class.Lexer* %256)
          to label %964 unwind label %965

; <label>:964:                                    ; preds = %962
  store i8 %963, i8* %208, align 1
  br label %947

; <label>:965:                                    ; preds = %957, %974, %972, %970, %969, %962, %951, %944
  %966 = landingpad { i8*, i32 }
          cleanup
  %967 = extractvalue { i8*, i32 } %966, 0
  store i8* %967, i8** %201, align 8
  %968 = extractvalue { i8*, i32 } %966, 1
  store i32 %968, i32* %202, align 4
  br label %990

; <label>:969:                                    ; preds = %955
  invoke void @_ZN5Lexer11backtrack_cEi(%class.Lexer* %256, i32 1)
          to label %970 unwind label %965

; <label>:970:                                    ; preds = %969
  %971 = invoke double @_ZNSt3__14stodERKNS_12basic_stringIcNS_11char_traitsIcEENS_9allocatorIcEEEEPm(%"class.std::__1::basic_string"* dereferenceable(24) %203, i64* null)
          to label %972 unwind label %965

; <label>:972:                                    ; preds = %970
  store double %971, double* %223, align 8
  %973 = invoke i32 @_ZNSt3__14stoiERKNS_12basic_stringIcNS_11char_traitsIcEENS_9allocatorIcEEEEPmi(%"class.std::__1::basic_string"* dereferenceable(24) %222, i64* null, i32 10)
          to label %974 unwind label %965

; <label>:974:                                    ; preds = %972
  %975 = sitofp i32 %973 to double
  %976 = call double @llvm.pow.f64(double 1.000000e+01, double %975)
  store double %976, double* %224, align 8
  %977 = load double, double* %223, align 8
  %978 = load double, double* %224, align 8
  %979 = fmul double %977, %978
  invoke void @_ZN7VariantC1Ed(%struct.Variant* %225, double %979)
          to label %980 unwind label %965

; <label>:980:                                    ; preds = %974
  %981 = load i32, i32* %199, align 4
  %982 = load i32, i32* %204, align 4
  %983 = getelementptr inbounds %class.Lexer, %class.Lexer* %256, i32 0, i32 0
  %984 = load i32, i32* %983, align 8
  invoke void @_ZN5TokenC1E9TokenType7Variantiii(%class.Token* %0, i32 5, %struct.Variant* %225, i32 %981, i32 %982, i32 %984)
          to label %985 unwind label %986

; <label>:985:                                    ; preds = %980
  call void @_ZN7VariantD1Ev(%struct.Variant* %225) #11
  store i32 1, i32* %207, align 4
  call void @_ZNSt3__112basic_stringIcNS_11char_traitsIcEENS_9allocatorIcEEED1Ev(%"class.std::__1::basic_string"* %222) #11
  br label %1620

; <label>:986:                                    ; preds = %980
  %987 = landingpad { i8*, i32 }
          cleanup
  %988 = extractvalue { i8*, i32 } %987, 0
  store i8* %988, i8** %201, align 8
  %989 = extractvalue { i8*, i32 } %987, 1
  store i32 %989, i32* %202, align 4
  call void @_ZN7VariantD1Ev(%struct.Variant* %225) #11
  br label %990

; <label>:990:                                    ; preds = %986, %965
  call void @_ZNSt3__112basic_stringIcNS_11char_traitsIcEENS_9allocatorIcEEED1Ev(%"class.std::__1::basic_string"* %222) #11
  br label %1621

; <label>:991:                                    ; preds = %921
  invoke void @_ZN5Lexer11backtrack_cEi(%class.Lexer* %256, i32 1)
          to label %992 unwind label %358

; <label>:992:                                    ; preds = %991
  %993 = load i8, i8* %219, align 1
  %994 = trunc i8 %993 to i1
  br i1 %994, label %1056, label %995

; <label>:995:                                    ; preds = %992
  %996 = invoke signext i8 @_ZN5Lexer14char_lookaheadEv(%class.Lexer* %256)
          to label %997 unwind label %358

; <label>:997:                                    ; preds = %995
  store i8 %996, i8* %208, align 1
  %998 = load i8, i8* %208, align 1
  %999 = sext i8 %998 to i32
  %1000 = icmp eq i32 %999, 108
  br i1 %1000, label %1005, label %1001

; <label>:1001:                                   ; preds = %997
  %1002 = load i8, i8* %208, align 1
  %1003 = sext i8 %1002 to i32
  %1004 = icmp eq i32 %1003, 76
  br i1 %1004, label %1005, label %1020

; <label>:1005:                                   ; preds = %1001, %997
  %1006 = invoke signext i8 @_ZN5Lexer13get_next_charEv(%class.Lexer* %256)
          to label %1007 unwind label %358

; <label>:1007:                                   ; preds = %1005
  %1008 = invoke i64 @_ZNSt3__14stolERKNS_12basic_stringIcNS_11char_traitsIcEENS_9allocatorIcEEEEPmi(%"class.std::__1::basic_string"* dereferenceable(24) %203, i64* null, i32 10)
          to label %1009 unwind label %358

; <label>:1009:                                   ; preds = %1007
  invoke void @_ZN7VariantC1El(%struct.Variant* %226, i64 %1008)
          to label %1010 unwind label %358

; <label>:1010:                                   ; preds = %1009
  %1011 = load i32, i32* %199, align 4
  %1012 = load i32, i32* %204, align 4
  %1013 = getelementptr inbounds %class.Lexer, %class.Lexer* %256, i32 0, i32 0
  %1014 = load i32, i32* %1013, align 8
  invoke void @_ZN5TokenC1E9TokenType7Variantiii(%class.Token* %0, i32 5, %struct.Variant* %226, i32 %1011, i32 %1012, i32 %1014)
          to label %1015 unwind label %1016

; <label>:1015:                                   ; preds = %1010
  call void @_ZN7VariantD1Ev(%struct.Variant* %226) #11
  store i32 1, i32* %207, align 4
  br label %1620

; <label>:1016:                                   ; preds = %1010
  %1017 = landingpad { i8*, i32 }
          cleanup
  %1018 = extractvalue { i8*, i32 } %1017, 0
  store i8* %1018, i8** %201, align 8
  %1019 = extractvalue { i8*, i32 } %1017, 1
  store i32 %1019, i32* %202, align 4
  call void @_ZN7VariantD1Ev(%struct.Variant* %226) #11
  br label %1621

; <label>:1020:                                   ; preds = %1001
  %1021 = load i8, i8* %208, align 1
  %1022 = sext i8 %1021 to i32
  %1023 = icmp eq i32 %1022, 100
  br i1 %1023, label %1028, label %1024

; <label>:1024:                                   ; preds = %1020
  %1025 = load i8, i8* %208, align 1
  %1026 = sext i8 %1025 to i32
  %1027 = icmp eq i32 %1026, 68
  br i1 %1027, label %1028, label %1043

; <label>:1028:                                   ; preds = %1024, %1020
  %1029 = invoke signext i8 @_ZN5Lexer13get_next_charEv(%class.Lexer* %256)
          to label %1030 unwind label %358

; <label>:1030:                                   ; preds = %1028
  %1031 = invoke double @_ZNSt3__14stodERKNS_12basic_stringIcNS_11char_traitsIcEENS_9allocatorIcEEEEPm(%"class.std::__1::basic_string"* dereferenceable(24) %203, i64* null)
          to label %1032 unwind label %358

; <label>:1032:                                   ; preds = %1030
  invoke void @_ZN7VariantC1Ed(%struct.Variant* %227, double %1031)
          to label %1033 unwind label %358

; <label>:1033:                                   ; preds = %1032
  %1034 = load i32, i32* %199, align 4
  %1035 = load i32, i32* %204, align 4
  %1036 = getelementptr inbounds %class.Lexer, %class.Lexer* %256, i32 0, i32 0
  %1037 = load i32, i32* %1036, align 8
  invoke void @_ZN5TokenC1E9TokenType7Variantiii(%class.Token* %0, i32 5, %struct.Variant* %227, i32 %1034, i32 %1035, i32 %1037)
          to label %1038 unwind label %1039

; <label>:1038:                                   ; preds = %1033
  call void @_ZN7VariantD1Ev(%struct.Variant* %227) #11
  store i32 1, i32* %207, align 4
  br label %1620

; <label>:1039:                                   ; preds = %1033
  %1040 = landingpad { i8*, i32 }
          cleanup
  %1041 = extractvalue { i8*, i32 } %1040, 0
  store i8* %1041, i8** %201, align 8
  %1042 = extractvalue { i8*, i32 } %1040, 1
  store i32 %1042, i32* %202, align 4
  call void @_ZN7VariantD1Ev(%struct.Variant* %227) #11
  br label %1621

; <label>:1043:                                   ; preds = %1024
  %1044 = invoke i32 @_ZNSt3__14stoiERKNS_12basic_stringIcNS_11char_traitsIcEENS_9allocatorIcEEEEPmi(%"class.std::__1::basic_string"* dereferenceable(24) %203, i64* null, i32 10)
          to label %1045 unwind label %358

; <label>:1045:                                   ; preds = %1043
  invoke void @_ZN7VariantC1Ei(%struct.Variant* %228, i32 %1044)
          to label %1046 unwind label %358

; <label>:1046:                                   ; preds = %1045
  %1047 = load i32, i32* %199, align 4
  %1048 = load i32, i32* %204, align 4
  %1049 = getelementptr inbounds %class.Lexer, %class.Lexer* %256, i32 0, i32 0
  %1050 = load i32, i32* %1049, align 8
  invoke void @_ZN5TokenC1E9TokenType7Variantiii(%class.Token* %0, i32 5, %struct.Variant* %228, i32 %1047, i32 %1048, i32 %1050)
          to label %1051 unwind label %1052

; <label>:1051:                                   ; preds = %1046
  call void @_ZN7VariantD1Ev(%struct.Variant* %228) #11
  store i32 1, i32* %207, align 4
  br label %1620

; <label>:1052:                                   ; preds = %1046
  %1053 = landingpad { i8*, i32 }
          cleanup
  %1054 = extractvalue { i8*, i32 } %1053, 0
  store i8* %1054, i8** %201, align 8
  %1055 = extractvalue { i8*, i32 } %1053, 1
  store i32 %1055, i32* %202, align 4
  call void @_ZN7VariantD1Ev(%struct.Variant* %228) #11
  br label %1621

; <label>:1056:                                   ; preds = %992
  %1057 = invoke signext i8 @_ZN5Lexer14char_lookaheadEv(%class.Lexer* %256)
          to label %1058 unwind label %358

; <label>:1058:                                   ; preds = %1056
  store i8 %1057, i8* %208, align 1
  %1059 = load i8, i8* %208, align 1
  %1060 = sext i8 %1059 to i32
  %1061 = icmp eq i32 %1060, 102
  br i1 %1061, label %1066, label %1062

; <label>:1062:                                   ; preds = %1058
  %1063 = load i8, i8* %208, align 1
  %1064 = sext i8 %1063 to i32
  %1065 = icmp eq i32 %1064, 70
  br i1 %1065, label %1066, label %1081

; <label>:1066:                                   ; preds = %1062, %1058
  %1067 = invoke signext i8 @_ZN5Lexer13get_next_charEv(%class.Lexer* %256)
          to label %1068 unwind label %358

; <label>:1068:                                   ; preds = %1066
  %1069 = invoke float @_ZNSt3__14stofERKNS_12basic_stringIcNS_11char_traitsIcEENS_9allocatorIcEEEEPm(%"class.std::__1::basic_string"* dereferenceable(24) %203, i64* null)
          to label %1070 unwind label %358

; <label>:1070:                                   ; preds = %1068
  invoke void @_ZN7VariantC1Ef(%struct.Variant* %229, float %1069)
          to label %1071 unwind label %358

; <label>:1071:                                   ; preds = %1070
  %1072 = load i32, i32* %199, align 4
  %1073 = load i32, i32* %204, align 4
  %1074 = getelementptr inbounds %class.Lexer, %class.Lexer* %256, i32 0, i32 0
  %1075 = load i32, i32* %1074, align 8
  invoke void @_ZN5TokenC1E9TokenType7Variantiii(%class.Token* %0, i32 5, %struct.Variant* %229, i32 %1072, i32 %1073, i32 %1075)
          to label %1076 unwind label %1077

; <label>:1076:                                   ; preds = %1071
  call void @_ZN7VariantD1Ev(%struct.Variant* %229) #11
  store i32 1, i32* %207, align 4
  br label %1620

; <label>:1077:                                   ; preds = %1071
  %1078 = landingpad { i8*, i32 }
          cleanup
  %1079 = extractvalue { i8*, i32 } %1078, 0
  store i8* %1079, i8** %201, align 8
  %1080 = extractvalue { i8*, i32 } %1078, 1
  store i32 %1080, i32* %202, align 4
  call void @_ZN7VariantD1Ev(%struct.Variant* %229) #11
  br label %1621

; <label>:1081:                                   ; preds = %1062
  %1082 = load i8, i8* %208, align 1
  %1083 = sext i8 %1082 to i32
  %1084 = icmp eq i32 %1083, 100
  br i1 %1084, label %1089, label %1085

; <label>:1085:                                   ; preds = %1081
  %1086 = load i8, i8* %208, align 1
  %1087 = sext i8 %1086 to i32
  %1088 = icmp eq i32 %1087, 68
  br i1 %1088, label %1089, label %1092

; <label>:1089:                                   ; preds = %1085, %1081
  %1090 = invoke signext i8 @_ZN5Lexer13get_next_charEv(%class.Lexer* %256)
          to label %1091 unwind label %358

; <label>:1091:                                   ; preds = %1089
  br label %1092

; <label>:1092:                                   ; preds = %1091, %1085
  br label %1093

; <label>:1093:                                   ; preds = %1092
  %1094 = invoke double @_ZNSt3__14stodERKNS_12basic_stringIcNS_11char_traitsIcEENS_9allocatorIcEEEEPm(%"class.std::__1::basic_string"* dereferenceable(24) %203, i64* null)
          to label %1095 unwind label %358

; <label>:1095:                                   ; preds = %1093
  invoke void @_ZN7VariantC1Ed(%struct.Variant* %230, double %1094)
          to label %1096 unwind label %358

; <label>:1096:                                   ; preds = %1095
  %1097 = load i32, i32* %199, align 4
  %1098 = load i32, i32* %204, align 4
  %1099 = getelementptr inbounds %class.Lexer, %class.Lexer* %256, i32 0, i32 0
  %1100 = load i32, i32* %1099, align 8
  invoke void @_ZN5TokenC1E9TokenType7Variantiii(%class.Token* %0, i32 5, %struct.Variant* %230, i32 %1097, i32 %1098, i32 %1100)
          to label %1101 unwind label %1102

; <label>:1101:                                   ; preds = %1096
  call void @_ZN7VariantD1Ev(%struct.Variant* %230) #11
  store i32 1, i32* %207, align 4
  br label %1620

; <label>:1102:                                   ; preds = %1096
  %1103 = landingpad { i8*, i32 }
          cleanup
  %1104 = extractvalue { i8*, i32 } %1103, 0
  store i8* %1104, i8** %201, align 8
  %1105 = extractvalue { i8*, i32 } %1103, 1
  store i32 %1105, i32* %202, align 4
  call void @_ZN7VariantD1Ev(%struct.Variant* %230) #11
  br label %1621

; <label>:1106:                                   ; preds = %619
  %1107 = load i8, i8* %205, align 1
  %1108 = invoke zeroext i1 @_ZN5Lexer18is_identifier_charEc(%class.Lexer* %256, i8 signext %1107)
          to label %1109 unwind label %358

; <label>:1109:                                   ; preds = %1106
  br i1 %1108, label %1110, label %1312

; <label>:1110:                                   ; preds = %1109
  %1111 = load i8, i8* %205, align 1
  store i8 %1111, i8* %208, align 1
  br label %1112

; <label>:1112:                                   ; preds = %1123, %1110
  %1113 = load i8, i8* %208, align 1
  %1114 = invoke zeroext i1 @_ZN5Lexer18is_identifier_charEc(%class.Lexer* %256, i8 signext %1113)
          to label %1115 unwind label %358

; <label>:1115:                                   ; preds = %1112
  br i1 %1114, label %1116, label %1124

; <label>:1116:                                   ; preds = %1115
  %1117 = load i8, i8* %208, align 1
  store %"class.std::__1::basic_string"* %203, %"class.std::__1::basic_string"** %91, align 8
  store i8 %1117, i8* %92, align 1
  %1118 = load %"class.std::__1::basic_string"*, %"class.std::__1::basic_string"** %91, align 8
  %1119 = load i8, i8* %92, align 1
  invoke void @_ZNSt3__112basic_stringIcNS_11char_traitsIcEENS_9allocatorIcEEE9push_backEc(%"class.std::__1::basic_string"* %1118, i8 signext %1119)
          to label %1120 unwind label %358

; <label>:1120:                                   ; preds = %1116
  br label %1121

; <label>:1121:                                   ; preds = %1120
  %1122 = invoke signext i8 @_ZN5Lexer13get_next_charEv(%class.Lexer* %256)
          to label %1123 unwind label %358

; <label>:1123:                                   ; preds = %1121
  store i8 %1122, i8* %208, align 1
  br label %1112

; <label>:1124:                                   ; preds = %1115
  invoke void @_ZN5Lexer11backtrack_cEi(%class.Lexer* %256, i32 1)
          to label %1125 unwind label %358

; <label>:1125:                                   ; preds = %1124
  store %"class.std::__1::basic_string"* %203, %"class.std::__1::basic_string"** %89, align 8
  store i8* getelementptr inbounds ([7 x i8], [7 x i8]* @.str.8, i32 0, i32 0), i8** %90, align 8
  %1126 = load %"class.std::__1::basic_string"*, %"class.std::__1::basic_string"** %89, align 8
  %1127 = load i8*, i8** %90, align 8
  %1128 = call i32 @_ZNKSt3__112basic_stringIcNS_11char_traitsIcEENS_9allocatorIcEEE7compareEPKc(%"class.std::__1::basic_string"* %1126, i8* %1127) #11
  %1129 = icmp eq i32 %1128, 0
  br i1 %1129, label %1130, label %1147

; <label>:1130:                                   ; preds = %1125
  invoke void @_ZNSt3__112basic_stringIcNS_11char_traitsIcEENS_9allocatorIcEEEC1ERKS5_(%"class.std::__1::basic_string"* %232, %"class.std::__1::basic_string"* dereferenceable(24) %203)
          to label %1131 unwind label %358

; <label>:1131:                                   ; preds = %1130
  invoke void @_ZN7VariantC1ENSt3__112basic_stringIcNS0_11char_traitsIcEENS0_9allocatorIcEEEE(%struct.Variant* %231, %"class.std::__1::basic_string"* %232)
          to label %1132 unwind label %1138

; <label>:1132:                                   ; preds = %1131
  %1133 = load i32, i32* %199, align 4
  %1134 = load i32, i32* %204, align 4
  %1135 = getelementptr inbounds %class.Lexer, %class.Lexer* %256, i32 0, i32 0
  %1136 = load i32, i32* %1135, align 8
  invoke void @_ZN5TokenC1E9TokenType7Variantiii(%class.Token* %0, i32 4, %struct.Variant* %231, i32 %1133, i32 %1134, i32 %1136)
          to label %1137 unwind label %1142

; <label>:1137:                                   ; preds = %1132
  call void @_ZN7VariantD1Ev(%struct.Variant* %231) #11
  call void @_ZNSt3__112basic_stringIcNS_11char_traitsIcEENS_9allocatorIcEEED1Ev(%"class.std::__1::basic_string"* %232) #11
  store i32 1, i32* %207, align 4
  br label %1620

; <label>:1138:                                   ; preds = %1131
  %1139 = landingpad { i8*, i32 }
          cleanup
  %1140 = extractvalue { i8*, i32 } %1139, 0
  store i8* %1140, i8** %201, align 8
  %1141 = extractvalue { i8*, i32 } %1139, 1
  store i32 %1141, i32* %202, align 4
  br label %1146

; <label>:1142:                                   ; preds = %1132
  %1143 = landingpad { i8*, i32 }
          cleanup
  %1144 = extractvalue { i8*, i32 } %1143, 0
  store i8* %1144, i8** %201, align 8
  %1145 = extractvalue { i8*, i32 } %1143, 1
  store i32 %1145, i32* %202, align 4
  call void @_ZN7VariantD1Ev(%struct.Variant* %231) #11
  br label %1146

; <label>:1146:                                   ; preds = %1142, %1138
  call void @_ZNSt3__112basic_stringIcNS_11char_traitsIcEENS_9allocatorIcEEED1Ev(%"class.std::__1::basic_string"* %232) #11
  br label %1621

; <label>:1147:                                   ; preds = %1125
  store %"class.std::__1::basic_string"* %203, %"class.std::__1::basic_string"** %87, align 8
  store i8* getelementptr inbounds ([4 x i8], [4 x i8]* @.str.9, i32 0, i32 0), i8** %88, align 8
  %1148 = load %"class.std::__1::basic_string"*, %"class.std::__1::basic_string"** %87, align 8
  %1149 = load i8*, i8** %88, align 8
  %1150 = call i32 @_ZNKSt3__112basic_stringIcNS_11char_traitsIcEENS_9allocatorIcEEE7compareEPKc(%"class.std::__1::basic_string"* %1148, i8* %1149) #11
  %1151 = icmp eq i32 %1150, 0
  br i1 %1151, label %1152, label %1169

; <label>:1152:                                   ; preds = %1147
  invoke void @_ZNSt3__112basic_stringIcNS_11char_traitsIcEENS_9allocatorIcEEEC1ERKS5_(%"class.std::__1::basic_string"* %234, %"class.std::__1::basic_string"* dereferenceable(24) %203)
          to label %1153 unwind label %358

; <label>:1153:                                   ; preds = %1152
  invoke void @_ZN7VariantC1ENSt3__112basic_stringIcNS0_11char_traitsIcEENS0_9allocatorIcEEEE(%struct.Variant* %233, %"class.std::__1::basic_string"* %234)
          to label %1154 unwind label %1160

; <label>:1154:                                   ; preds = %1153
  %1155 = load i32, i32* %199, align 4
  %1156 = load i32, i32* %204, align 4
  %1157 = getelementptr inbounds %class.Lexer, %class.Lexer* %256, i32 0, i32 0
  %1158 = load i32, i32* %1157, align 8
  invoke void @_ZN5TokenC1E9TokenType7Variantiii(%class.Token* %0, i32 4, %struct.Variant* %233, i32 %1155, i32 %1156, i32 %1158)
          to label %1159 unwind label %1164

; <label>:1159:                                   ; preds = %1154
  call void @_ZN7VariantD1Ev(%struct.Variant* %233) #11
  call void @_ZNSt3__112basic_stringIcNS_11char_traitsIcEENS_9allocatorIcEEED1Ev(%"class.std::__1::basic_string"* %234) #11
  store i32 1, i32* %207, align 4
  br label %1620

; <label>:1160:                                   ; preds = %1153
  %1161 = landingpad { i8*, i32 }
          cleanup
  %1162 = extractvalue { i8*, i32 } %1161, 0
  store i8* %1162, i8** %201, align 8
  %1163 = extractvalue { i8*, i32 } %1161, 1
  store i32 %1163, i32* %202, align 4
  br label %1168

; <label>:1164:                                   ; preds = %1154
  %1165 = landingpad { i8*, i32 }
          cleanup
  %1166 = extractvalue { i8*, i32 } %1165, 0
  store i8* %1166, i8** %201, align 8
  %1167 = extractvalue { i8*, i32 } %1165, 1
  store i32 %1167, i32* %202, align 4
  call void @_ZN7VariantD1Ev(%struct.Variant* %233) #11
  br label %1168

; <label>:1168:                                   ; preds = %1164, %1160
  call void @_ZNSt3__112basic_stringIcNS_11char_traitsIcEENS_9allocatorIcEEED1Ev(%"class.std::__1::basic_string"* %234) #11
  br label %1621

; <label>:1169:                                   ; preds = %1147
  store %"class.std::__1::basic_string"* %203, %"class.std::__1::basic_string"** %85, align 8
  store i8* getelementptr inbounds ([5 x i8], [5 x i8]* @.str.10, i32 0, i32 0), i8** %86, align 8
  %1170 = load %"class.std::__1::basic_string"*, %"class.std::__1::basic_string"** %85, align 8
  %1171 = load i8*, i8** %86, align 8
  %1172 = call i32 @_ZNKSt3__112basic_stringIcNS_11char_traitsIcEENS_9allocatorIcEEE7compareEPKc(%"class.std::__1::basic_string"* %1170, i8* %1171) #11
  %1173 = icmp eq i32 %1172, 0
  br i1 %1173, label %1174, label %1185

; <label>:1174:                                   ; preds = %1169
  invoke void @_ZN7VariantC1Ev(%struct.Variant* %235)
          to label %1175 unwind label %358

; <label>:1175:                                   ; preds = %1174
  %1176 = load i32, i32* %199, align 4
  %1177 = load i32, i32* %204, align 4
  %1178 = getelementptr inbounds %class.Lexer, %class.Lexer* %256, i32 0, i32 0
  %1179 = load i32, i32* %1178, align 8
  invoke void @_ZN5TokenC1E9TokenType7Variantiii(%class.Token* %0, i32 5, %struct.Variant* %235, i32 %1176, i32 %1177, i32 %1179)
          to label %1180 unwind label %1181

; <label>:1180:                                   ; preds = %1175
  call void @_ZN7VariantD1Ev(%struct.Variant* %235) #11
  store i32 1, i32* %207, align 4
  br label %1620

; <label>:1181:                                   ; preds = %1175
  %1182 = landingpad { i8*, i32 }
          cleanup
  %1183 = extractvalue { i8*, i32 } %1182, 0
  store i8* %1183, i8** %201, align 8
  %1184 = extractvalue { i8*, i32 } %1182, 1
  store i32 %1184, i32* %202, align 4
  call void @_ZN7VariantD1Ev(%struct.Variant* %235) #11
  br label %1621

; <label>:1185:                                   ; preds = %1169
  invoke void @_ZNSt3__112basic_stringIcNS_11char_traitsIcEENS_9allocatorIcEEEC1ERKS5_(%"class.std::__1::basic_string"* %236, %"class.std::__1::basic_string"* dereferenceable(24) %203)
          to label %1186 unwind label %358

; <label>:1186:                                   ; preds = %1185
  %1187 = invoke zeroext i1 @_ZN5Lexer10is_keywordENSt3__112basic_stringIcNS0_11char_traitsIcEENS0_9allocatorIcEEEE(%class.Lexer* %256, %"class.std::__1::basic_string"* %236)
          to label %1188 unwind label %1197

; <label>:1188:                                   ; preds = %1186
  call void @_ZNSt3__112basic_stringIcNS_11char_traitsIcEENS_9allocatorIcEEED1Ev(%"class.std::__1::basic_string"* %236) #11
  br i1 %1187, label %1189, label %1210

; <label>:1189:                                   ; preds = %1188
  invoke void @_ZNSt3__112basic_stringIcNS_11char_traitsIcEENS_9allocatorIcEEEC1ERKS5_(%"class.std::__1::basic_string"* %238, %"class.std::__1::basic_string"* dereferenceable(24) %203)
          to label %1190 unwind label %358

; <label>:1190:                                   ; preds = %1189
  invoke void @_ZN7VariantC1ENSt3__112basic_stringIcNS0_11char_traitsIcEENS0_9allocatorIcEEEE(%struct.Variant* %237, %"class.std::__1::basic_string"* %238)
          to label %1191 unwind label %1201

; <label>:1191:                                   ; preds = %1190
  %1192 = load i32, i32* %199, align 4
  %1193 = load i32, i32* %204, align 4
  %1194 = getelementptr inbounds %class.Lexer, %class.Lexer* %256, i32 0, i32 0
  %1195 = load i32, i32* %1194, align 8
  invoke void @_ZN5TokenC1E9TokenType7Variantiii(%class.Token* %0, i32 0, %struct.Variant* %237, i32 %1192, i32 %1193, i32 %1195)
          to label %1196 unwind label %1205

; <label>:1196:                                   ; preds = %1191
  call void @_ZN7VariantD1Ev(%struct.Variant* %237) #11
  call void @_ZNSt3__112basic_stringIcNS_11char_traitsIcEENS_9allocatorIcEEED1Ev(%"class.std::__1::basic_string"* %238) #11
  store i32 1, i32* %207, align 4
  br label %1620

; <label>:1197:                                   ; preds = %1186
  %1198 = landingpad { i8*, i32 }
          cleanup
  %1199 = extractvalue { i8*, i32 } %1198, 0
  store i8* %1199, i8** %201, align 8
  %1200 = extractvalue { i8*, i32 } %1198, 1
  store i32 %1200, i32* %202, align 4
  call void @_ZNSt3__112basic_stringIcNS_11char_traitsIcEENS_9allocatorIcEEED1Ev(%"class.std::__1::basic_string"* %236) #11
  br label %1621

; <label>:1201:                                   ; preds = %1190
  %1202 = landingpad { i8*, i32 }
          cleanup
  %1203 = extractvalue { i8*, i32 } %1202, 0
  store i8* %1203, i8** %201, align 8
  %1204 = extractvalue { i8*, i32 } %1202, 1
  store i32 %1204, i32* %202, align 4
  br label %1209

; <label>:1205:                                   ; preds = %1191
  %1206 = landingpad { i8*, i32 }
          cleanup
  %1207 = extractvalue { i8*, i32 } %1206, 0
  store i8* %1207, i8** %201, align 8
  %1208 = extractvalue { i8*, i32 } %1206, 1
  store i32 %1208, i32* %202, align 4
  call void @_ZN7VariantD1Ev(%struct.Variant* %237) #11
  br label %1209

; <label>:1209:                                   ; preds = %1205, %1201
  call void @_ZNSt3__112basic_stringIcNS_11char_traitsIcEENS_9allocatorIcEEED1Ev(%"class.std::__1::basic_string"* %238) #11
  br label %1621

; <label>:1210:                                   ; preds = %1188
  invoke void @_ZNSt3__112basic_stringIcNS_11char_traitsIcEENS_9allocatorIcEEEC1ERKS5_(%"class.std::__1::basic_string"* %239, %"class.std::__1::basic_string"* dereferenceable(24) %203)
          to label %1211 unwind label %358

; <label>:1211:                                   ; preds = %1210
  %1212 = invoke zeroext i1 @_ZN5Lexer15is_type_keywordENSt3__112basic_stringIcNS0_11char_traitsIcEENS0_9allocatorIcEEEE(%class.Lexer* %256, %"class.std::__1::basic_string"* %239)
          to label %1213 unwind label %1222

; <label>:1213:                                   ; preds = %1211
  call void @_ZNSt3__112basic_stringIcNS_11char_traitsIcEENS_9allocatorIcEEED1Ev(%"class.std::__1::basic_string"* %239) #11
  br i1 %1212, label %1214, label %1235

; <label>:1214:                                   ; preds = %1213
  invoke void @_ZNSt3__112basic_stringIcNS_11char_traitsIcEENS_9allocatorIcEEEC1ERKS5_(%"class.std::__1::basic_string"* %241, %"class.std::__1::basic_string"* dereferenceable(24) %203)
          to label %1215 unwind label %358

; <label>:1215:                                   ; preds = %1214
  invoke void @_ZN7VariantC1ENSt3__112basic_stringIcNS0_11char_traitsIcEENS0_9allocatorIcEEEE(%struct.Variant* %240, %"class.std::__1::basic_string"* %241)
          to label %1216 unwind label %1226

; <label>:1216:                                   ; preds = %1215
  %1217 = load i32, i32* %199, align 4
  %1218 = load i32, i32* %204, align 4
  %1219 = getelementptr inbounds %class.Lexer, %class.Lexer* %256, i32 0, i32 0
  %1220 = load i32, i32* %1219, align 8
  invoke void @_ZN5TokenC1E9TokenType7Variantiii(%class.Token* %0, i32 2, %struct.Variant* %240, i32 %1217, i32 %1218, i32 %1220)
          to label %1221 unwind label %1230

; <label>:1221:                                   ; preds = %1216
  call void @_ZN7VariantD1Ev(%struct.Variant* %240) #11
  call void @_ZNSt3__112basic_stringIcNS_11char_traitsIcEENS_9allocatorIcEEED1Ev(%"class.std::__1::basic_string"* %241) #11
  store i32 1, i32* %207, align 4
  br label %1620

; <label>:1222:                                   ; preds = %1211
  %1223 = landingpad { i8*, i32 }
          cleanup
  %1224 = extractvalue { i8*, i32 } %1223, 0
  store i8* %1224, i8** %201, align 8
  %1225 = extractvalue { i8*, i32 } %1223, 1
  store i32 %1225, i32* %202, align 4
  call void @_ZNSt3__112basic_stringIcNS_11char_traitsIcEENS_9allocatorIcEEED1Ev(%"class.std::__1::basic_string"* %239) #11
  br label %1621

; <label>:1226:                                   ; preds = %1215
  %1227 = landingpad { i8*, i32 }
          cleanup
  %1228 = extractvalue { i8*, i32 } %1227, 0
  store i8* %1228, i8** %201, align 8
  %1229 = extractvalue { i8*, i32 } %1227, 1
  store i32 %1229, i32* %202, align 4
  br label %1234

; <label>:1230:                                   ; preds = %1216
  %1231 = landingpad { i8*, i32 }
          cleanup
  %1232 = extractvalue { i8*, i32 } %1231, 0
  store i8* %1232, i8** %201, align 8
  %1233 = extractvalue { i8*, i32 } %1231, 1
  store i32 %1233, i32* %202, align 4
  call void @_ZN7VariantD1Ev(%struct.Variant* %240) #11
  br label %1234

; <label>:1234:                                   ; preds = %1230, %1226
  call void @_ZNSt3__112basic_stringIcNS_11char_traitsIcEENS_9allocatorIcEEED1Ev(%"class.std::__1::basic_string"* %241) #11
  br label %1621

; <label>:1235:                                   ; preds = %1213
  invoke void @_ZNSt3__112basic_stringIcNS_11char_traitsIcEENS_9allocatorIcEEEC1ERKS5_(%"class.std::__1::basic_string"* %242, %"class.std::__1::basic_string"* dereferenceable(24) %203)
          to label %1236 unwind label %358

; <label>:1236:                                   ; preds = %1235
  %1237 = invoke zeroext i1 @_ZN5Lexer15is_bool_literalENSt3__112basic_stringIcNS0_11char_traitsIcEENS0_9allocatorIcEEEE(%class.Lexer* %256, %"class.std::__1::basic_string"* %242)
          to label %1238 unwind label %1250

; <label>:1238:                                   ; preds = %1236
  call void @_ZNSt3__112basic_stringIcNS_11char_traitsIcEENS_9allocatorIcEEED1Ev(%"class.std::__1::basic_string"* %242) #11
  br i1 %1237, label %1239, label %1258

; <label>:1239:                                   ; preds = %1238
  store %"class.std::__1::basic_string"* %203, %"class.std::__1::basic_string"** %83, align 8
  store i8* getelementptr inbounds ([5 x i8], [5 x i8]* @.str.2, i32 0, i32 0), i8** %84, align 8
  %1240 = load %"class.std::__1::basic_string"*, %"class.std::__1::basic_string"** %83, align 8
  %1241 = load i8*, i8** %84, align 8
  %1242 = call i32 @_ZNKSt3__112basic_stringIcNS_11char_traitsIcEENS_9allocatorIcEEE7compareEPKc(%"class.std::__1::basic_string"* %1240, i8* %1241) #11
  %1243 = icmp eq i32 %1242, 0
  invoke void @_ZN7VariantC1Eb(%struct.Variant* %243, i1 zeroext %1243)
          to label %1244 unwind label %358

; <label>:1244:                                   ; preds = %1239
  %1245 = load i32, i32* %199, align 4
  %1246 = load i32, i32* %204, align 4
  %1247 = getelementptr inbounds %class.Lexer, %class.Lexer* %256, i32 0, i32 0
  %1248 = load i32, i32* %1247, align 8
  invoke void @_ZN5TokenC1E9TokenType7Variantiii(%class.Token* %0, i32 5, %struct.Variant* %243, i32 %1245, i32 %1246, i32 %1248)
          to label %1249 unwind label %1254

; <label>:1249:                                   ; preds = %1244
  call void @_ZN7VariantD1Ev(%struct.Variant* %243) #11
  store i32 1, i32* %207, align 4
  br label %1620

; <label>:1250:                                   ; preds = %1236
  %1251 = landingpad { i8*, i32 }
          cleanup
  %1252 = extractvalue { i8*, i32 } %1251, 0
  store i8* %1252, i8** %201, align 8
  %1253 = extractvalue { i8*, i32 } %1251, 1
  store i32 %1253, i32* %202, align 4
  call void @_ZNSt3__112basic_stringIcNS_11char_traitsIcEENS_9allocatorIcEEED1Ev(%"class.std::__1::basic_string"* %242) #11
  br label %1621

; <label>:1254:                                   ; preds = %1244
  %1255 = landingpad { i8*, i32 }
          cleanup
  %1256 = extractvalue { i8*, i32 } %1255, 0
  store i8* %1256, i8** %201, align 8
  %1257 = extractvalue { i8*, i32 } %1255, 1
  store i32 %1257, i32* %202, align 4
  call void @_ZN7VariantD1Ev(%struct.Variant* %243) #11
  br label %1621

; <label>:1258:                                   ; preds = %1238
  store %"class.std::__1::basic_string"* %203, %"class.std::__1::basic_string"** %81, align 8
  store i8* getelementptr inbounds ([2 x i8], [2 x i8]* @.str.11, i32 0, i32 0), i8** %82, align 8
  %1259 = load %"class.std::__1::basic_string"*, %"class.std::__1::basic_string"** %81, align 8
  %1260 = load i8*, i8** %82, align 8
  %1261 = call i32 @_ZNKSt3__112basic_stringIcNS_11char_traitsIcEENS_9allocatorIcEEE7compareEPKc(%"class.std::__1::basic_string"* %1259, i8* %1260) #11
  %1262 = icmp eq i32 %1261, 0
  br i1 %1262, label %1263, label %1288

; <label>:1263:                                   ; preds = %1258
  store %"class.std::__1::basic_string"* %244, %"class.std::__1::basic_string"** %79, align 8
  store i8* getelementptr inbounds ([29 x i8], [29 x i8]* @.str.12, i32 0, i32 0), i8** %80, align 8
  %1264 = load %"class.std::__1::basic_string"*, %"class.std::__1::basic_string"** %79, align 8
  %1265 = load i8*, i8** %80, align 8
  store %"class.std::__1::basic_string"* %1264, %"class.std::__1::basic_string"** %77, align 8
  store i8* %1265, i8** %78, align 8
  %1266 = load %"class.std::__1::basic_string"*, %"class.std::__1::basic_string"** %77, align 8
  %1267 = bitcast %"class.std::__1::basic_string"* %1266 to %"class.std::__1::__basic_string_common"*
  %1268 = getelementptr inbounds %"class.std::__1::basic_string", %"class.std::__1::basic_string"* %1266, i32 0, i32 0
  store %"class.std::__1::__compressed_pair"* %1268, %"class.std::__1::__compressed_pair"** %76, align 8
  %1269 = load %"class.std::__1::__compressed_pair"*, %"class.std::__1::__compressed_pair"** %76, align 8
  store %"class.std::__1::__compressed_pair"* %1269, %"class.std::__1::__compressed_pair"** %75, align 8
  %1270 = load %"class.std::__1::__compressed_pair"*, %"class.std::__1::__compressed_pair"** %75, align 8
  %1271 = bitcast %"class.std::__1::__compressed_pair"* %1270 to %"class.std::__1::__libcpp_compressed_pair_imp"*
  store %"class.std::__1::__libcpp_compressed_pair_imp"* %1271, %"class.std::__1::__libcpp_compressed_pair_imp"** %74, align 8
  %1272 = load %"class.std::__1::__libcpp_compressed_pair_imp"*, %"class.std::__1::__libcpp_compressed_pair_imp"** %74, align 8
  %1273 = bitcast %"class.std::__1::__libcpp_compressed_pair_imp"* %1272 to %"class.std::__1::allocator"*
  store %"class.std::__1::allocator"* %1273, %"class.std::__1::allocator"** %73, align 8
  %1274 = load %"class.std::__1::allocator"*, %"class.std::__1::allocator"** %73, align 8
  %1275 = getelementptr inbounds %"class.std::__1::__libcpp_compressed_pair_imp", %"class.std::__1::__libcpp_compressed_pair_imp"* %1272, i32 0, i32 0
  %1276 = bitcast %"struct.std::__1::basic_string<char, std::__1::char_traits<char>, std::__1::allocator<char> >::__rep"* %1275 to i8*
  call void @llvm.memset.p0i8.i64(i8* %1276, i8 0, i64 24, i32 8, i1 false) #11
  %1277 = load i8*, i8** %78, align 8
  %1278 = load i8*, i8** %78, align 8
  %1279 = invoke i64 @_ZNSt3__111char_traitsIcE6lengthEPKc(i8* %1278)
          to label %1280 unwind label %358

; <label>:1280:                                   ; preds = %1263
  invoke void @_ZNSt3__112basic_stringIcNS_11char_traitsIcEENS_9allocatorIcEEE6__initEPKcm(%"class.std::__1::basic_string"* %1266, i8* %1277, i64 %1279)
          to label %1281 unwind label %358

; <label>:1281:                                   ; preds = %1280
  br label %1282

; <label>:1282:                                   ; preds = %1281
  invoke void @_ZN10ParseError5raiseE11ParseErrorsNSt3__112basic_stringIcNS1_11char_traitsIcEENS1_9allocatorIcEEEEP5Lexer(i32 0, %"class.std::__1::basic_string"* %244, %class.Lexer* %256)
          to label %1283 unwind label %1284

; <label>:1283:                                   ; preds = %1282
  call void @_ZNSt3__112basic_stringIcNS_11char_traitsIcEENS_9allocatorIcEEED1Ev(%"class.std::__1::basic_string"* %244) #11
  br label %1305

; <label>:1284:                                   ; preds = %1282
  %1285 = landingpad { i8*, i32 }
          cleanup
  %1286 = extractvalue { i8*, i32 } %1285, 0
  store i8* %1286, i8** %201, align 8
  %1287 = extractvalue { i8*, i32 } %1285, 1
  store i32 %1287, i32* %202, align 4
  call void @_ZNSt3__112basic_stringIcNS_11char_traitsIcEENS_9allocatorIcEEED1Ev(%"class.std::__1::basic_string"* %244) #11
  br label %1621

; <label>:1288:                                   ; preds = %1258
  invoke void @_ZNSt3__112basic_stringIcNS_11char_traitsIcEENS_9allocatorIcEEEC1ERKS5_(%"class.std::__1::basic_string"* %246, %"class.std::__1::basic_string"* dereferenceable(24) %203)
          to label %1289 unwind label %358

; <label>:1289:                                   ; preds = %1288
  invoke void @_ZN7VariantC1ENSt3__112basic_stringIcNS0_11char_traitsIcEENS0_9allocatorIcEEEE(%struct.Variant* %245, %"class.std::__1::basic_string"* %246)
          to label %1290 unwind label %1296

; <label>:1290:                                   ; preds = %1289
  %1291 = load i32, i32* %199, align 4
  %1292 = load i32, i32* %204, align 4
  %1293 = getelementptr inbounds %class.Lexer, %class.Lexer* %256, i32 0, i32 0
  %1294 = load i32, i32* %1293, align 8
  invoke void @_ZN5TokenC1E9TokenType7Variantiii(%class.Token* %0, i32 2, %struct.Variant* %245, i32 %1291, i32 %1292, i32 %1294)
          to label %1295 unwind label %1300

; <label>:1295:                                   ; preds = %1290
  call void @_ZN7VariantD1Ev(%struct.Variant* %245) #11
  call void @_ZNSt3__112basic_stringIcNS_11char_traitsIcEENS_9allocatorIcEEED1Ev(%"class.std::__1::basic_string"* %246) #11
  store i32 1, i32* %207, align 4
  br label %1620

; <label>:1296:                                   ; preds = %1289
  %1297 = landingpad { i8*, i32 }
          cleanup
  %1298 = extractvalue { i8*, i32 } %1297, 0
  store i8* %1298, i8** %201, align 8
  %1299 = extractvalue { i8*, i32 } %1297, 1
  store i32 %1299, i32* %202, align 4
  br label %1304

; <label>:1300:                                   ; preds = %1290
  %1301 = landingpad { i8*, i32 }
          cleanup
  %1302 = extractvalue { i8*, i32 } %1301, 0
  store i8* %1302, i8** %201, align 8
  %1303 = extractvalue { i8*, i32 } %1301, 1
  store i32 %1303, i32* %202, align 4
  call void @_ZN7VariantD1Ev(%struct.Variant* %245) #11
  br label %1304

; <label>:1304:                                   ; preds = %1300, %1296
  call void @_ZNSt3__112basic_stringIcNS_11char_traitsIcEENS_9allocatorIcEEED1Ev(%"class.std::__1::basic_string"* %246) #11
  br label %1621

; <label>:1305:                                   ; preds = %1283
  br label %1306

; <label>:1306:                                   ; preds = %1305
  br label %1307

; <label>:1307:                                   ; preds = %1306
  br label %1308

; <label>:1308:                                   ; preds = %1307
  br label %1309

; <label>:1309:                                   ; preds = %1308
  br label %1310

; <label>:1310:                                   ; preds = %1309
  br label %1311

; <label>:1311:                                   ; preds = %1310
  br label %1605

; <label>:1312:                                   ; preds = %1109
  %1313 = load i8, i8* %205, align 1
  %1314 = invoke zeroext i1 @_ZN5Lexer16is_operator_charEc(%class.Lexer* %256, i8 signext %1313)
          to label %1315 unwind label %358

; <label>:1315:                                   ; preds = %1312
  br i1 %1314, label %1316, label %1520

; <label>:1316:                                   ; preds = %1315
  br label %1317

; <label>:1317:                                   ; preds = %1328, %1316
  %1318 = load i8, i8* %205, align 1
  %1319 = invoke zeroext i1 @_ZN5Lexer16is_operator_charEc(%class.Lexer* %256, i8 signext %1318)
          to label %1320 unwind label %358

; <label>:1320:                                   ; preds = %1317
  br i1 %1319, label %1321, label %1329

; <label>:1321:                                   ; preds = %1320
  %1322 = load i8, i8* %205, align 1
  store %"class.std::__1::basic_string"* %203, %"class.std::__1::basic_string"** %71, align 8
  store i8 %1322, i8* %72, align 1
  %1323 = load %"class.std::__1::basic_string"*, %"class.std::__1::basic_string"** %71, align 8
  %1324 = load i8, i8* %72, align 1
  invoke void @_ZNSt3__112basic_stringIcNS_11char_traitsIcEENS_9allocatorIcEEE9push_backEc(%"class.std::__1::basic_string"* %1323, i8 signext %1324)
          to label %1325 unwind label %358

; <label>:1325:                                   ; preds = %1321
  br label %1326

; <label>:1326:                                   ; preds = %1325
  %1327 = invoke signext i8 @_ZN5Lexer13get_next_charEv(%class.Lexer* %256)
          to label %1328 unwind label %358

; <label>:1328:                                   ; preds = %1326
  store i8 %1327, i8* %205, align 1
  br label %1317

; <label>:1329:                                   ; preds = %1320
  invoke void @_ZN5Lexer11backtrack_cEi(%class.Lexer* %256, i32 1)
          to label %1330 unwind label %358

; <label>:1330:                                   ; preds = %1329
  store %"class.std::__1::basic_string"* %203, %"class.std::__1::basic_string"** %69, align 8
  store i8* getelementptr inbounds ([2 x i8], [2 x i8]* @.str.13, i32 0, i32 0), i8** %70, align 8
  %1331 = load %"class.std::__1::basic_string"*, %"class.std::__1::basic_string"** %69, align 8
  %1332 = load i8*, i8** %70, align 8
  %1333 = call i32 @_ZNKSt3__112basic_stringIcNS_11char_traitsIcEENS_9allocatorIcEEE7compareEPKc(%"class.std::__1::basic_string"* %1331, i8* %1332) #11
  %1334 = icmp eq i32 %1333, 0
  br i1 %1334, label %1335, label %1346

; <label>:1335:                                   ; preds = %1330
  invoke void @_ZN7VariantC1Ec(%struct.Variant* %247, i8 signext 46)
          to label %1336 unwind label %358

; <label>:1336:                                   ; preds = %1335
  %1337 = load i32, i32* %199, align 4
  %1338 = load i32, i32* %204, align 4
  %1339 = getelementptr inbounds %class.Lexer, %class.Lexer* %256, i32 0, i32 0
  %1340 = load i32, i32* %1339, align 8
  invoke void @_ZN5TokenC1E9TokenType7Variantiii(%class.Token* %0, i32 3, %struct.Variant* %247, i32 %1337, i32 %1338, i32 %1340)
          to label %1341 unwind label %1342

; <label>:1341:                                   ; preds = %1336
  call void @_ZN7VariantD1Ev(%struct.Variant* %247) #11
  store i32 1, i32* %207, align 4
  br label %1620

; <label>:1342:                                   ; preds = %1336
  %1343 = landingpad { i8*, i32 }
          cleanup
  %1344 = extractvalue { i8*, i32 } %1343, 0
  store i8* %1344, i8** %201, align 8
  %1345 = extractvalue { i8*, i32 } %1343, 1
  store i32 %1345, i32* %202, align 4
  call void @_ZN7VariantD1Ev(%struct.Variant* %247) #11
  br label %1621

; <label>:1346:                                   ; preds = %1330
  br label %1347

; <label>:1347:                                   ; preds = %1498, %1346
  invoke void @_ZNSt3__112basic_stringIcNS_11char_traitsIcEENS_9allocatorIcEEEC1ERKS5_(%"class.std::__1::basic_string"* %248, %"class.std::__1::basic_string"* dereferenceable(24) %203)
          to label %1348 unwind label %358

; <label>:1348:                                   ; preds = %1347
  %1349 = invoke zeroext i1 @_ZN5Lexer11is_operatorENSt3__112basic_stringIcNS0_11char_traitsIcEENS0_9allocatorIcEEEE(%class.Lexer* %256, %"class.std::__1::basic_string"* %248)
          to label %1350 unwind label %1499

; <label>:1350:                                   ; preds = %1348
  br i1 %1349, label %1397, label %1351

; <label>:1351:                                   ; preds = %1350
  store %"class.std::__1::basic_string"* %203, %"class.std::__1::basic_string"** %68, align 8
  %1352 = load %"class.std::__1::basic_string"*, %"class.std::__1::basic_string"** %68, align 8
  store %"class.std::__1::basic_string"* %1352, %"class.std::__1::basic_string"** %67, align 8
  %1353 = load %"class.std::__1::basic_string"*, %"class.std::__1::basic_string"** %67, align 8
  store %"class.std::__1::basic_string"* %1353, %"class.std::__1::basic_string"** %66, align 8
  %1354 = load %"class.std::__1::basic_string"*, %"class.std::__1::basic_string"** %66, align 8
  %1355 = getelementptr inbounds %"class.std::__1::basic_string", %"class.std::__1::basic_string"* %1354, i32 0, i32 0
  store %"class.std::__1::__compressed_pair"* %1355, %"class.std::__1::__compressed_pair"** %65, align 8
  %1356 = load %"class.std::__1::__compressed_pair"*, %"class.std::__1::__compressed_pair"** %65, align 8
  %1357 = bitcast %"class.std::__1::__compressed_pair"* %1356 to %"class.std::__1::__libcpp_compressed_pair_imp"*
  store %"class.std::__1::__libcpp_compressed_pair_imp"* %1357, %"class.std::__1::__libcpp_compressed_pair_imp"** %64, align 8
  %1358 = load %"class.std::__1::__libcpp_compressed_pair_imp"*, %"class.std::__1::__libcpp_compressed_pair_imp"** %64, align 8
  %1359 = getelementptr inbounds %"class.std::__1::__libcpp_compressed_pair_imp", %"class.std::__1::__libcpp_compressed_pair_imp"* %1358, i32 0, i32 0
  %1360 = getelementptr inbounds %"struct.std::__1::basic_string<char, std::__1::char_traits<char>, std::__1::allocator<char> >::__rep", %"struct.std::__1::basic_string<char, std::__1::char_traits<char>, std::__1::allocator<char> >::__rep"* %1359, i32 0, i32 0
  %1361 = bitcast %union.anon.0* %1360 to %"struct.std::__1::basic_string<char, std::__1::char_traits<char>, std::__1::allocator<char> >::__short"*
  %1362 = getelementptr inbounds %"struct.std::__1::basic_string<char, std::__1::char_traits<char>, std::__1::allocator<char> >::__short", %"struct.std::__1::basic_string<char, std::__1::char_traits<char>, std::__1::allocator<char> >::__short"* %1361, i32 0, i32 0
  %1363 = bitcast %union.anon.1* %1362 to i8*
  %1364 = load i8, i8* %1363, align 8
  %1365 = zext i8 %1364 to i32
  %1366 = and i32 %1365, 1
  %1367 = icmp ne i32 %1366, 0
  br i1 %1367, label %1368, label %1379

; <label>:1368:                                   ; preds = %1351
  store %"class.std::__1::basic_string"* %1353, %"class.std::__1::basic_string"** %60, align 8
  %1369 = load %"class.std::__1::basic_string"*, %"class.std::__1::basic_string"** %60, align 8
  %1370 = getelementptr inbounds %"class.std::__1::basic_string", %"class.std::__1::basic_string"* %1369, i32 0, i32 0
  store %"class.std::__1::__compressed_pair"* %1370, %"class.std::__1::__compressed_pair"** %59, align 8
  %1371 = load %"class.std::__1::__compressed_pair"*, %"class.std::__1::__compressed_pair"** %59, align 8
  %1372 = bitcast %"class.std::__1::__compressed_pair"* %1371 to %"class.std::__1::__libcpp_compressed_pair_imp"*
  store %"class.std::__1::__libcpp_compressed_pair_imp"* %1372, %"class.std::__1::__libcpp_compressed_pair_imp"** %58, align 8
  %1373 = load %"class.std::__1::__libcpp_compressed_pair_imp"*, %"class.std::__1::__libcpp_compressed_pair_imp"** %58, align 8
  %1374 = getelementptr inbounds %"class.std::__1::__libcpp_compressed_pair_imp", %"class.std::__1::__libcpp_compressed_pair_imp"* %1373, i32 0, i32 0
  %1375 = getelementptr inbounds %"struct.std::__1::basic_string<char, std::__1::char_traits<char>, std::__1::allocator<char> >::__rep", %"struct.std::__1::basic_string<char, std::__1::char_traits<char>, std::__1::allocator<char> >::__rep"* %1374, i32 0, i32 0
  %1376 = bitcast %union.anon.0* %1375 to %"struct.std::__1::basic_string<char, std::__1::char_traits<char>, std::__1::allocator<char> >::__long"*
  %1377 = getelementptr inbounds %"struct.std::__1::basic_string<char, std::__1::char_traits<char>, std::__1::allocator<char> >::__long", %"struct.std::__1::basic_string<char, std::__1::char_traits<char>, std::__1::allocator<char> >::__long"* %1376, i32 0, i32 1
  %1378 = load i64, i64* %1377, align 8
  br label %1394

; <label>:1379:                                   ; preds = %1351
  store %"class.std::__1::basic_string"* %1353, %"class.std::__1::basic_string"** %63, align 8
  %1380 = load %"class.std::__1::basic_string"*, %"class.std::__1::basic_string"** %63, align 8
  %1381 = getelementptr inbounds %"class.std::__1::basic_string", %"class.std::__1::basic_string"* %1380, i32 0, i32 0
  store %"class.std::__1::__compressed_pair"* %1381, %"class.std::__1::__compressed_pair"** %62, align 8
  %1382 = load %"class.std::__1::__compressed_pair"*, %"class.std::__1::__compressed_pair"** %62, align 8
  %1383 = bitcast %"class.std::__1::__compressed_pair"* %1382 to %"class.std::__1::__libcpp_compressed_pair_imp"*
  store %"class.std::__1::__libcpp_compressed_pair_imp"* %1383, %"class.std::__1::__libcpp_compressed_pair_imp"** %61, align 8
  %1384 = load %"class.std::__1::__libcpp_compressed_pair_imp"*, %"class.std::__1::__libcpp_compressed_pair_imp"** %61, align 8
  %1385 = getelementptr inbounds %"class.std::__1::__libcpp_compressed_pair_imp", %"class.std::__1::__libcpp_compressed_pair_imp"* %1384, i32 0, i32 0
  %1386 = getelementptr inbounds %"struct.std::__1::basic_string<char, std::__1::char_traits<char>, std::__1::allocator<char> >::__rep", %"struct.std::__1::basic_string<char, std::__1::char_traits<char>, std::__1::allocator<char> >::__rep"* %1385, i32 0, i32 0
  %1387 = bitcast %union.anon.0* %1386 to %"struct.std::__1::basic_string<char, std::__1::char_traits<char>, std::__1::allocator<char> >::__short"*
  %1388 = getelementptr inbounds %"struct.std::__1::basic_string<char, std::__1::char_traits<char>, std::__1::allocator<char> >::__short", %"struct.std::__1::basic_string<char, std::__1::char_traits<char>, std::__1::allocator<char> >::__short"* %1387, i32 0, i32 0
  %1389 = bitcast %union.anon.1* %1388 to i8*
  %1390 = load i8, i8* %1389, align 8
  %1391 = zext i8 %1390 to i32
  %1392 = ashr i32 %1391, 1
  %1393 = sext i32 %1392 to i64
  br label %1394

; <label>:1394:                                   ; preds = %1368, %1379
  %1395 = phi i64 [ %1378, %1368 ], [ %1393, %1379 ]
  %1396 = icmp ugt i64 %1395, 0
  br label %1397

; <label>:1397:                                   ; preds = %1394, %1350
  %1398 = phi i1 [ false, %1350 ], [ %1396, %1394 ]
  call void @_ZNSt3__112basic_stringIcNS_11char_traitsIcEENS_9allocatorIcEEED1Ev(%"class.std::__1::basic_string"* %248) #11
  br i1 %1398, label %1399, label %1503

; <label>:1399:                                   ; preds = %1397
  store %"class.std::__1::basic_string"* %203, %"class.std::__1::basic_string"** %54, align 8
  %1400 = load %"class.std::__1::basic_string"*, %"class.std::__1::basic_string"** %54, align 8
  store %"class.std::__1::basic_string"* %1400, %"class.std::__1::basic_string"** %53, align 8
  %1401 = load %"class.std::__1::basic_string"*, %"class.std::__1::basic_string"** %53, align 8
  %1402 = getelementptr inbounds %"class.std::__1::basic_string", %"class.std::__1::basic_string"* %1401, i32 0, i32 0
  store %"class.std::__1::__compressed_pair"* %1402, %"class.std::__1::__compressed_pair"** %52, align 8
  %1403 = load %"class.std::__1::__compressed_pair"*, %"class.std::__1::__compressed_pair"** %52, align 8
  %1404 = bitcast %"class.std::__1::__compressed_pair"* %1403 to %"class.std::__1::__libcpp_compressed_pair_imp"*
  store %"class.std::__1::__libcpp_compressed_pair_imp"* %1404, %"class.std::__1::__libcpp_compressed_pair_imp"** %51, align 8
  %1405 = load %"class.std::__1::__libcpp_compressed_pair_imp"*, %"class.std::__1::__libcpp_compressed_pair_imp"** %51, align 8
  %1406 = getelementptr inbounds %"class.std::__1::__libcpp_compressed_pair_imp", %"class.std::__1::__libcpp_compressed_pair_imp"* %1405, i32 0, i32 0
  %1407 = getelementptr inbounds %"struct.std::__1::basic_string<char, std::__1::char_traits<char>, std::__1::allocator<char> >::__rep", %"struct.std::__1::basic_string<char, std::__1::char_traits<char>, std::__1::allocator<char> >::__rep"* %1406, i32 0, i32 0
  %1408 = bitcast %union.anon.0* %1407 to %"struct.std::__1::basic_string<char, std::__1::char_traits<char>, std::__1::allocator<char> >::__short"*
  %1409 = getelementptr inbounds %"struct.std::__1::basic_string<char, std::__1::char_traits<char>, std::__1::allocator<char> >::__short", %"struct.std::__1::basic_string<char, std::__1::char_traits<char>, std::__1::allocator<char> >::__short"* %1408, i32 0, i32 0
  %1410 = bitcast %union.anon.1* %1409 to i8*
  %1411 = load i8, i8* %1410, align 8
  %1412 = zext i8 %1411 to i32
  %1413 = and i32 %1412, 1
  %1414 = icmp ne i32 %1413, 0
  br i1 %1414, label %1415, label %1450

; <label>:1415:                                   ; preds = %1399
  store %"class.std::__1::basic_string"* %1400, %"class.std::__1::basic_string"** %48, align 8
  %1416 = load %"class.std::__1::basic_string"*, %"class.std::__1::basic_string"** %48, align 8
  %1417 = getelementptr inbounds %"class.std::__1::basic_string", %"class.std::__1::basic_string"* %1416, i32 0, i32 0
  store %"class.std::__1::__compressed_pair"* %1417, %"class.std::__1::__compressed_pair"** %47, align 8
  %1418 = load %"class.std::__1::__compressed_pair"*, %"class.std::__1::__compressed_pair"** %47, align 8
  %1419 = bitcast %"class.std::__1::__compressed_pair"* %1418 to %"class.std::__1::__libcpp_compressed_pair_imp"*
  store %"class.std::__1::__libcpp_compressed_pair_imp"* %1419, %"class.std::__1::__libcpp_compressed_pair_imp"** %46, align 8
  %1420 = load %"class.std::__1::__libcpp_compressed_pair_imp"*, %"class.std::__1::__libcpp_compressed_pair_imp"** %46, align 8
  %1421 = getelementptr inbounds %"class.std::__1::__libcpp_compressed_pair_imp", %"class.std::__1::__libcpp_compressed_pair_imp"* %1420, i32 0, i32 0
  %1422 = getelementptr inbounds %"struct.std::__1::basic_string<char, std::__1::char_traits<char>, std::__1::allocator<char> >::__rep", %"struct.std::__1::basic_string<char, std::__1::char_traits<char>, std::__1::allocator<char> >::__rep"* %1421, i32 0, i32 0
  %1423 = bitcast %union.anon.0* %1422 to %"struct.std::__1::basic_string<char, std::__1::char_traits<char>, std::__1::allocator<char> >::__long"*
  %1424 = getelementptr inbounds %"struct.std::__1::basic_string<char, std::__1::char_traits<char>, std::__1::allocator<char> >::__long", %"struct.std::__1::basic_string<char, std::__1::char_traits<char>, std::__1::allocator<char> >::__long"* %1423, i32 0, i32 1
  %1425 = load i64, i64* %1424, align 8
  %1426 = sub i64 %1425, 1
  store i64 %1426, i64* %55, align 8
  %1427 = load i64, i64* %55, align 8
  store %"class.std::__1::basic_string"* %1400, %"class.std::__1::basic_string"** %32, align 8
  store i64 %1427, i64* %33, align 8
  %1428 = load %"class.std::__1::basic_string"*, %"class.std::__1::basic_string"** %32, align 8
  %1429 = load i64, i64* %33, align 8
  %1430 = getelementptr inbounds %"class.std::__1::basic_string", %"class.std::__1::basic_string"* %1428, i32 0, i32 0
  store %"class.std::__1::__compressed_pair"* %1430, %"class.std::__1::__compressed_pair"** %31, align 8
  %1431 = load %"class.std::__1::__compressed_pair"*, %"class.std::__1::__compressed_pair"** %31, align 8
  %1432 = bitcast %"class.std::__1::__compressed_pair"* %1431 to %"class.std::__1::__libcpp_compressed_pair_imp"*
  store %"class.std::__1::__libcpp_compressed_pair_imp"* %1432, %"class.std::__1::__libcpp_compressed_pair_imp"** %30, align 8
  %1433 = load %"class.std::__1::__libcpp_compressed_pair_imp"*, %"class.std::__1::__libcpp_compressed_pair_imp"** %30, align 8
  %1434 = getelementptr inbounds %"class.std::__1::__libcpp_compressed_pair_imp", %"class.std::__1::__libcpp_compressed_pair_imp"* %1433, i32 0, i32 0
  %1435 = getelementptr inbounds %"struct.std::__1::basic_string<char, std::__1::char_traits<char>, std::__1::allocator<char> >::__rep", %"struct.std::__1::basic_string<char, std::__1::char_traits<char>, std::__1::allocator<char> >::__rep"* %1434, i32 0, i32 0
  %1436 = bitcast %union.anon.0* %1435 to %"struct.std::__1::basic_string<char, std::__1::char_traits<char>, std::__1::allocator<char> >::__long"*
  %1437 = getelementptr inbounds %"struct.std::__1::basic_string<char, std::__1::char_traits<char>, std::__1::allocator<char> >::__long", %"struct.std::__1::basic_string<char, std::__1::char_traits<char>, std::__1::allocator<char> >::__long"* %1436, i32 0, i32 1
  store i64 %1429, i64* %1437, align 8
  store %"class.std::__1::basic_string"* %1400, %"class.std::__1::basic_string"** %29, align 8
  %1438 = load %"class.std::__1::basic_string"*, %"class.std::__1::basic_string"** %29, align 8
  %1439 = getelementptr inbounds %"class.std::__1::basic_string", %"class.std::__1::basic_string"* %1438, i32 0, i32 0
  store %"class.std::__1::__compressed_pair"* %1439, %"class.std::__1::__compressed_pair"** %28, align 8
  %1440 = load %"class.std::__1::__compressed_pair"*, %"class.std::__1::__compressed_pair"** %28, align 8
  %1441 = bitcast %"class.std::__1::__compressed_pair"* %1440 to %"class.std::__1::__libcpp_compressed_pair_imp"*
  store %"class.std::__1::__libcpp_compressed_pair_imp"* %1441, %"class.std::__1::__libcpp_compressed_pair_imp"** %27, align 8
  %1442 = load %"class.std::__1::__libcpp_compressed_pair_imp"*, %"class.std::__1::__libcpp_compressed_pair_imp"** %27, align 8
  %1443 = getelementptr inbounds %"class.std::__1::__libcpp_compressed_pair_imp", %"class.std::__1::__libcpp_compressed_pair_imp"* %1442, i32 0, i32 0
  %1444 = getelementptr inbounds %"struct.std::__1::basic_string<char, std::__1::char_traits<char>, std::__1::allocator<char> >::__rep", %"struct.std::__1::basic_string<char, std::__1::char_traits<char>, std::__1::allocator<char> >::__rep"* %1443, i32 0, i32 0
  %1445 = bitcast %union.anon.0* %1444 to %"struct.std::__1::basic_string<char, std::__1::char_traits<char>, std::__1::allocator<char> >::__long"*
  %1446 = getelementptr inbounds %"struct.std::__1::basic_string<char, std::__1::char_traits<char>, std::__1::allocator<char> >::__long", %"struct.std::__1::basic_string<char, std::__1::char_traits<char>, std::__1::allocator<char> >::__long"* %1445, i32 0, i32 2
  %1447 = load i8*, i8** %1446, align 8
  %1448 = load i64, i64* %55, align 8
  %1449 = getelementptr inbounds i8, i8* %1447, i64 %1448
  store i8 0, i8* %56, align 1
  call void @_ZNSt3__111char_traitsIcE6assignERcRKc(i8* dereferenceable(1) %1449, i8* dereferenceable(1) %56) #11
  br label %1494

; <label>:1450:                                   ; preds = %1399
  store %"class.std::__1::basic_string"* %1400, %"class.std::__1::basic_string"** %36, align 8
  %1451 = load %"class.std::__1::basic_string"*, %"class.std::__1::basic_string"** %36, align 8
  %1452 = getelementptr inbounds %"class.std::__1::basic_string", %"class.std::__1::basic_string"* %1451, i32 0, i32 0
  store %"class.std::__1::__compressed_pair"* %1452, %"class.std::__1::__compressed_pair"** %35, align 8
  %1453 = load %"class.std::__1::__compressed_pair"*, %"class.std::__1::__compressed_pair"** %35, align 8
  %1454 = bitcast %"class.std::__1::__compressed_pair"* %1453 to %"class.std::__1::__libcpp_compressed_pair_imp"*
  store %"class.std::__1::__libcpp_compressed_pair_imp"* %1454, %"class.std::__1::__libcpp_compressed_pair_imp"** %34, align 8
  %1455 = load %"class.std::__1::__libcpp_compressed_pair_imp"*, %"class.std::__1::__libcpp_compressed_pair_imp"** %34, align 8
  %1456 = getelementptr inbounds %"class.std::__1::__libcpp_compressed_pair_imp", %"class.std::__1::__libcpp_compressed_pair_imp"* %1455, i32 0, i32 0
  %1457 = getelementptr inbounds %"struct.std::__1::basic_string<char, std::__1::char_traits<char>, std::__1::allocator<char> >::__rep", %"struct.std::__1::basic_string<char, std::__1::char_traits<char>, std::__1::allocator<char> >::__rep"* %1456, i32 0, i32 0
  %1458 = bitcast %union.anon.0* %1457 to %"struct.std::__1::basic_string<char, std::__1::char_traits<char>, std::__1::allocator<char> >::__short"*
  %1459 = getelementptr inbounds %"struct.std::__1::basic_string<char, std::__1::char_traits<char>, std::__1::allocator<char> >::__short", %"struct.std::__1::basic_string<char, std::__1::char_traits<char>, std::__1::allocator<char> >::__short"* %1458, i32 0, i32 0
  %1460 = bitcast %union.anon.1* %1459 to i8*
  %1461 = load i8, i8* %1460, align 8
  %1462 = zext i8 %1461 to i32
  %1463 = ashr i32 %1462, 1
  %1464 = sext i32 %1463 to i64
  %1465 = sub i64 %1464, 1
  store i64 %1465, i64* %55, align 8
  %1466 = load i64, i64* %55, align 8
  store %"class.std::__1::basic_string"* %1400, %"class.std::__1::basic_string"** %39, align 8
  store i64 %1466, i64* %40, align 8
  %1467 = load %"class.std::__1::basic_string"*, %"class.std::__1::basic_string"** %39, align 8
  %1468 = load i64, i64* %40, align 8
  %1469 = shl i64 %1468, 1
  %1470 = trunc i64 %1469 to i8
  %1471 = getelementptr inbounds %"class.std::__1::basic_string", %"class.std::__1::basic_string"* %1467, i32 0, i32 0
  store %"class.std::__1::__compressed_pair"* %1471, %"class.std::__1::__compressed_pair"** %38, align 8
  %1472 = load %"class.std::__1::__compressed_pair"*, %"class.std::__1::__compressed_pair"** %38, align 8
  %1473 = bitcast %"class.std::__1::__compressed_pair"* %1472 to %"class.std::__1::__libcpp_compressed_pair_imp"*
  store %"class.std::__1::__libcpp_compressed_pair_imp"* %1473, %"class.std::__1::__libcpp_compressed_pair_imp"** %37, align 8
  %1474 = load %"class.std::__1::__libcpp_compressed_pair_imp"*, %"class.std::__1::__libcpp_compressed_pair_imp"** %37, align 8
  %1475 = getelementptr inbounds %"class.std::__1::__libcpp_compressed_pair_imp", %"class.std::__1::__libcpp_compressed_pair_imp"* %1474, i32 0, i32 0
  %1476 = getelementptr inbounds %"struct.std::__1::basic_string<char, std::__1::char_traits<char>, std::__1::allocator<char> >::__rep", %"struct.std::__1::basic_string<char, std::__1::char_traits<char>, std::__1::allocator<char> >::__rep"* %1475, i32 0, i32 0
  %1477 = bitcast %union.anon.0* %1476 to %"struct.std::__1::basic_string<char, std::__1::char_traits<char>, std::__1::allocator<char> >::__short"*
  %1478 = getelementptr inbounds %"struct.std::__1::basic_string<char, std::__1::char_traits<char>, std::__1::allocator<char> >::__short", %"struct.std::__1::basic_string<char, std::__1::char_traits<char>, std::__1::allocator<char> >::__short"* %1477, i32 0, i32 0
  %1479 = bitcast %union.anon.1* %1478 to i8*
  store i8 %1470, i8* %1479, align 8
  store %"class.std::__1::basic_string"* %1400, %"class.std::__1::basic_string"** %45, align 8
  %1480 = load %"class.std::__1::basic_string"*, %"class.std::__1::basic_string"** %45, align 8
  %1481 = getelementptr inbounds %"class.std::__1::basic_string", %"class.std::__1::basic_string"* %1480, i32 0, i32 0
  store %"class.std::__1::__compressed_pair"* %1481, %"class.std::__1::__compressed_pair"** %44, align 8
  %1482 = load %"class.std::__1::__compressed_pair"*, %"class.std::__1::__compressed_pair"** %44, align 8
  %1483 = bitcast %"class.std::__1::__compressed_pair"* %1482 to %"class.std::__1::__libcpp_compressed_pair_imp"*
  store %"class.std::__1::__libcpp_compressed_pair_imp"* %1483, %"class.std::__1::__libcpp_compressed_pair_imp"** %43, align 8
  %1484 = load %"class.std::__1::__libcpp_compressed_pair_imp"*, %"class.std::__1::__libcpp_compressed_pair_imp"** %43, align 8
  %1485 = getelementptr inbounds %"class.std::__1::__libcpp_compressed_pair_imp", %"class.std::__1::__libcpp_compressed_pair_imp"* %1484, i32 0, i32 0
  %1486 = getelementptr inbounds %"struct.std::__1::basic_string<char, std::__1::char_traits<char>, std::__1::allocator<char> >::__rep", %"struct.std::__1::basic_string<char, std::__1::char_traits<char>, std::__1::allocator<char> >::__rep"* %1485, i32 0, i32 0
  %1487 = bitcast %union.anon.0* %1486 to %"struct.std::__1::basic_string<char, std::__1::char_traits<char>, std::__1::allocator<char> >::__short"*
  %1488 = getelementptr inbounds %"struct.std::__1::basic_string<char, std::__1::char_traits<char>, std::__1::allocator<char> >::__short", %"struct.std::__1::basic_string<char, std::__1::char_traits<char>, std::__1::allocator<char> >::__short"* %1487, i32 0, i32 1
  %1489 = getelementptr inbounds [23 x i8], [23 x i8]* %1488, i64 0, i64 0
  store i8* %1489, i8** %42, align 8
  %1490 = load i8*, i8** %42, align 8
  store i8* %1490, i8** %41, align 8
  %1491 = load i8*, i8** %41, align 8
  %1492 = load i64, i64* %55, align 8
  %1493 = getelementptr inbounds i8, i8* %1491, i64 %1492
  store i8 0, i8* %57, align 1
  call void @_ZNSt3__111char_traitsIcE6assignERcRKc(i8* dereferenceable(1) %1493, i8* dereferenceable(1) %57) #11
  br label %1494

; <label>:1494:                                   ; preds = %1415, %1450
  %1495 = load i64, i64* %55, align 8
  store %"class.std::__1::basic_string"* %1400, %"class.std::__1::basic_string"** %49, align 8
  store i64 %1495, i64* %50, align 8
  %1496 = load %"class.std::__1::basic_string"*, %"class.std::__1::basic_string"** %49, align 8
  br label %1497

; <label>:1497:                                   ; preds = %1494
  invoke void @_ZN5Lexer11backtrack_cEi(%class.Lexer* %256, i32 1)
          to label %1498 unwind label %358

; <label>:1498:                                   ; preds = %1497
  br label %1347

; <label>:1499:                                   ; preds = %1348
  %1500 = landingpad { i8*, i32 }
          cleanup
  %1501 = extractvalue { i8*, i32 } %1500, 0
  store i8* %1501, i8** %201, align 8
  %1502 = extractvalue { i8*, i32 } %1500, 1
  store i32 %1502, i32* %202, align 4
  call void @_ZNSt3__112basic_stringIcNS_11char_traitsIcEENS_9allocatorIcEEED1Ev(%"class.std::__1::basic_string"* %248) #11
  br label %1621

; <label>:1503:                                   ; preds = %1397
  invoke void @_ZNSt3__112basic_stringIcNS_11char_traitsIcEENS_9allocatorIcEEEC1ERKS5_(%"class.std::__1::basic_string"* %250, %"class.std::__1::basic_string"* dereferenceable(24) %203)
          to label %1504 unwind label %358

; <label>:1504:                                   ; preds = %1503
  invoke void @_ZN7VariantC1ENSt3__112basic_stringIcNS0_11char_traitsIcEENS0_9allocatorIcEEEE(%struct.Variant* %249, %"class.std::__1::basic_string"* %250)
          to label %1505 unwind label %1511

; <label>:1505:                                   ; preds = %1504
  %1506 = load i32, i32* %199, align 4
  %1507 = load i32, i32* %204, align 4
  %1508 = getelementptr inbounds %class.Lexer, %class.Lexer* %256, i32 0, i32 0
  %1509 = load i32, i32* %1508, align 8
  invoke void @_ZN5TokenC1E9TokenType7Variantiii(%class.Token* %0, i32 4, %struct.Variant* %249, i32 %1506, i32 %1507, i32 %1509)
          to label %1510 unwind label %1515

; <label>:1510:                                   ; preds = %1505
  call void @_ZN7VariantD1Ev(%struct.Variant* %249) #11
  call void @_ZNSt3__112basic_stringIcNS_11char_traitsIcEENS_9allocatorIcEEED1Ev(%"class.std::__1::basic_string"* %250) #11
  store i32 1, i32* %207, align 4
  br label %1620

; <label>:1511:                                   ; preds = %1504
  %1512 = landingpad { i8*, i32 }
          cleanup
  %1513 = extractvalue { i8*, i32 } %1512, 0
  store i8* %1513, i8** %201, align 8
  %1514 = extractvalue { i8*, i32 } %1512, 1
  store i32 %1514, i32* %202, align 4
  br label %1519

; <label>:1515:                                   ; preds = %1505
  %1516 = landingpad { i8*, i32 }
          cleanup
  %1517 = extractvalue { i8*, i32 } %1516, 0
  store i8* %1517, i8** %201, align 8
  %1518 = extractvalue { i8*, i32 } %1516, 1
  store i32 %1518, i32* %202, align 4
  call void @_ZN7VariantD1Ev(%struct.Variant* %249) #11
  br label %1519

; <label>:1519:                                   ; preds = %1515, %1511
  call void @_ZNSt3__112basic_stringIcNS_11char_traitsIcEENS_9allocatorIcEEED1Ev(%"class.std::__1::basic_string"* %250) #11
  br label %1621

; <label>:1520:                                   ; preds = %1315
  %1521 = load i8, i8* %205, align 1
  %1522 = invoke zeroext i1 @_ZN5Lexer13is_punctuatorEc(%class.Lexer* %256, i8 signext %1521)
          to label %1523 unwind label %358

; <label>:1523:                                   ; preds = %1520
  br i1 %1522, label %1524, label %1536

; <label>:1524:                                   ; preds = %1523
  %1525 = load i8, i8* %205, align 1
  invoke void @_ZN7VariantC1Ec(%struct.Variant* %251, i8 signext %1525)
          to label %1526 unwind label %358

; <label>:1526:                                   ; preds = %1524
  %1527 = load i32, i32* %199, align 4
  %1528 = load i32, i32* %204, align 4
  %1529 = getelementptr inbounds %class.Lexer, %class.Lexer* %256, i32 0, i32 0
  %1530 = load i32, i32* %1529, align 8
  invoke void @_ZN5TokenC1E9TokenType7Variantiii(%class.Token* %0, i32 3, %struct.Variant* %251, i32 %1527, i32 %1528, i32 %1530)
          to label %1531 unwind label %1532

; <label>:1531:                                   ; preds = %1526
  call void @_ZN7VariantD1Ev(%struct.Variant* %251) #11
  store i32 1, i32* %207, align 4
  br label %1620

; <label>:1532:                                   ; preds = %1526
  %1533 = landingpad { i8*, i32 }
          cleanup
  %1534 = extractvalue { i8*, i32 } %1533, 0
  store i8* %1534, i8** %201, align 8
  %1535 = extractvalue { i8*, i32 } %1533, 1
  store i32 %1535, i32* %202, align 4
  call void @_ZN7VariantD1Ev(%struct.Variant* %251) #11
  br label %1621

; <label>:1536:                                   ; preds = %1523
  %1537 = load i8, i8* %205, align 1
  store %"class.std::__1::basic_string"* %253, %"class.std::__1::basic_string"** %24, align 8
  store i64 1, i64* %25, align 8
  store i8 %1537, i8* %26, align 1
  %1538 = load %"class.std::__1::basic_string"*, %"class.std::__1::basic_string"** %24, align 8
  %1539 = load i64, i64* %25, align 8
  %1540 = load i8, i8* %26, align 1
  store %"class.std::__1::basic_string"* %1538, %"class.std::__1::basic_string"** %21, align 8
  store i64 %1539, i64* %22, align 8
  store i8 %1540, i8* %23, align 1
  %1541 = load %"class.std::__1::basic_string"*, %"class.std::__1::basic_string"** %21, align 8
  %1542 = bitcast %"class.std::__1::basic_string"* %1541 to %"class.std::__1::__basic_string_common"*
  %1543 = getelementptr inbounds %"class.std::__1::basic_string", %"class.std::__1::basic_string"* %1541, i32 0, i32 0
  store %"class.std::__1::__compressed_pair"* %1543, %"class.std::__1::__compressed_pair"** %20, align 8
  %1544 = load %"class.std::__1::__compressed_pair"*, %"class.std::__1::__compressed_pair"** %20, align 8
  store %"class.std::__1::__compressed_pair"* %1544, %"class.std::__1::__compressed_pair"** %19, align 8
  %1545 = load %"class.std::__1::__compressed_pair"*, %"class.std::__1::__compressed_pair"** %19, align 8
  %1546 = bitcast %"class.std::__1::__compressed_pair"* %1545 to %"class.std::__1::__libcpp_compressed_pair_imp"*
  store %"class.std::__1::__libcpp_compressed_pair_imp"* %1546, %"class.std::__1::__libcpp_compressed_pair_imp"** %18, align 8
  %1547 = load %"class.std::__1::__libcpp_compressed_pair_imp"*, %"class.std::__1::__libcpp_compressed_pair_imp"** %18, align 8
  %1548 = bitcast %"class.std::__1::__libcpp_compressed_pair_imp"* %1547 to %"class.std::__1::allocator"*
  store %"class.std::__1::allocator"* %1548, %"class.std::__1::allocator"** %17, align 8
  %1549 = load %"class.std::__1::allocator"*, %"class.std::__1::allocator"** %17, align 8
  %1550 = getelementptr inbounds %"class.std::__1::__libcpp_compressed_pair_imp", %"class.std::__1::__libcpp_compressed_pair_imp"* %1547, i32 0, i32 0
  %1551 = bitcast %"struct.std::__1::basic_string<char, std::__1::char_traits<char>, std::__1::allocator<char> >::__rep"* %1550 to i8*
  call void @llvm.memset.p0i8.i64(i8* %1551, i8 0, i64 24, i32 8, i1 false) #11
  %1552 = load i64, i64* %22, align 8
  %1553 = load i8, i8* %23, align 1
  invoke void @_ZNSt3__112basic_stringIcNS_11char_traitsIcEENS_9allocatorIcEEE6__initEmc(%"class.std::__1::basic_string"* %1541, i64 %1552, i8 signext %1553)
          to label %1554 unwind label %358

; <label>:1554:                                   ; preds = %1536
  br label %1555

; <label>:1555:                                   ; preds = %1554
  store i8* getelementptr inbounds ([22 x i8], [22 x i8]* @.str.14, i32 0, i32 0), i8** %15, align 8, !noalias !2
  store %"class.std::__1::basic_string"* %253, %"class.std::__1::basic_string"** %16, align 8, !noalias !2
  %1556 = load %"class.std::__1::basic_string"*, %"class.std::__1::basic_string"** %16, align 8, !noalias !2
  %1557 = load i8*, i8** %15, align 8, !noalias !2
  %1558 = invoke dereferenceable(24) %"class.std::__1::basic_string"* @_ZNSt3__112basic_stringIcNS_11char_traitsIcEENS_9allocatorIcEEE6insertEmPKc(%"class.std::__1::basic_string"* %1556, i64 0, i8* %1557)
          to label %1559 unwind label %1594

; <label>:1559:                                   ; preds = %1555
  store %"class.std::__1::basic_string"* %1558, %"class.std::__1::basic_string"** %14, align 8, !noalias !2
  %1560 = load %"class.std::__1::basic_string"*, %"class.std::__1::basic_string"** %14, align 8, !noalias !2
  store %"class.std::__1::basic_string"* %252, %"class.std::__1::basic_string"** %12, align 8, !noalias !2
  store %"class.std::__1::basic_string"* %1560, %"class.std::__1::basic_string"** %13, align 8, !noalias !2
  %1561 = load %"class.std::__1::basic_string"*, %"class.std::__1::basic_string"** %12, align 8, !noalias !2
  %1562 = load %"class.std::__1::basic_string"*, %"class.std::__1::basic_string"** %13, align 8, !noalias !2
  store %"class.std::__1::basic_string"* %1561, %"class.std::__1::basic_string"** %10, align 8, !noalias !2
  store %"class.std::__1::basic_string"* %1562, %"class.std::__1::basic_string"** %11, align 8, !noalias !2
  %1563 = load %"class.std::__1::basic_string"*, %"class.std::__1::basic_string"** %10, align 8, !noalias !2
  %1564 = bitcast %"class.std::__1::basic_string"* %1563 to %"class.std::__1::__basic_string_common"*
  %1565 = getelementptr inbounds %"class.std::__1::basic_string", %"class.std::__1::basic_string"* %1563, i32 0, i32 0
  %1566 = load %"class.std::__1::basic_string"*, %"class.std::__1::basic_string"** %11, align 8, !noalias !2
  %1567 = getelementptr inbounds %"class.std::__1::basic_string", %"class.std::__1::basic_string"* %1566, i32 0, i32 0
  store %"class.std::__1::__compressed_pair"* %1567, %"class.std::__1::__compressed_pair"** %9, align 8, !noalias !2
  %1568 = load %"class.std::__1::__compressed_pair"*, %"class.std::__1::__compressed_pair"** %9, align 8, !noalias !2
  %1569 = bitcast %"class.std::__1::__compressed_pair"* %1565 to i8*
  %1570 = bitcast %"class.std::__1::__compressed_pair"* %1568 to i8*
  call void @llvm.memcpy.p0i8.p0i8.i64(i8* %1569, i8* %1570, i64 24, i32 8, i1 false) #11
  %1571 = load %"class.std::__1::basic_string"*, %"class.std::__1::basic_string"** %11, align 8, !noalias !2
  store %"class.std::__1::basic_string"* %1571, %"class.std::__1::basic_string"** %6, align 8, !noalias !2
  %1572 = load %"class.std::__1::basic_string"*, %"class.std::__1::basic_string"** %6, align 8, !noalias !2
  %1573 = getelementptr inbounds %"class.std::__1::basic_string", %"class.std::__1::basic_string"* %1572, i32 0, i32 0
  store %"class.std::__1::__compressed_pair"* %1573, %"class.std::__1::__compressed_pair"** %5, align 8, !noalias !2
  %1574 = load %"class.std::__1::__compressed_pair"*, %"class.std::__1::__compressed_pair"** %5, align 8, !noalias !2
  %1575 = bitcast %"class.std::__1::__compressed_pair"* %1574 to %"class.std::__1::__libcpp_compressed_pair_imp"*
  store %"class.std::__1::__libcpp_compressed_pair_imp"* %1575, %"class.std::__1::__libcpp_compressed_pair_imp"** %4, align 8, !noalias !2
  %1576 = load %"class.std::__1::__libcpp_compressed_pair_imp"*, %"class.std::__1::__libcpp_compressed_pair_imp"** %4, align 8, !noalias !2
  %1577 = getelementptr inbounds %"class.std::__1::__libcpp_compressed_pair_imp", %"class.std::__1::__libcpp_compressed_pair_imp"* %1576, i32 0, i32 0
  %1578 = getelementptr inbounds %"struct.std::__1::basic_string<char, std::__1::char_traits<char>, std::__1::allocator<char> >::__rep", %"struct.std::__1::basic_string<char, std::__1::char_traits<char>, std::__1::allocator<char> >::__rep"* %1577, i32 0, i32 0
  %1579 = bitcast %union.anon.0* %1578 to %"struct.std::__1::basic_string<char, std::__1::char_traits<char>, std::__1::allocator<char> >::__raw"*
  %1580 = getelementptr inbounds %"struct.std::__1::basic_string<char, std::__1::char_traits<char>, std::__1::allocator<char> >::__raw", %"struct.std::__1::basic_string<char, std::__1::char_traits<char>, std::__1::allocator<char> >::__raw"* %1579, i32 0, i32 0
  store [3 x i64]* %1580, [3 x i64]** %7, align 8, !noalias !2
  store i32 0, i32* %8, align 4, !noalias !2
  br label %1581

; <label>:1581:                                   ; preds = %1584, %1559
  %1582 = load i32, i32* %8, align 4, !noalias !2
  %1583 = icmp ult i32 %1582, 3
  br i1 %1583, label %1584, label %1591

; <label>:1584:                                   ; preds = %1581
  %1585 = load i32, i32* %8, align 4, !noalias !2
  %1586 = zext i32 %1585 to i64
  %1587 = load [3 x i64]*, [3 x i64]** %7, align 8, !noalias !2
  %1588 = getelementptr inbounds [3 x i64], [3 x i64]* %1587, i64 0, i64 %1586
  store i64 0, i64* %1588, align 8
  %1589 = load i32, i32* %8, align 4, !noalias !2
  %1590 = add i32 %1589, 1
  store i32 %1590, i32* %8, align 4, !noalias !2
  br label %1581

; <label>:1591:                                   ; preds = %1581
  br label %1592

; <label>:1592:                                   ; preds = %1591
  invoke void @_ZN10ParseError5raiseE11ParseErrorsNSt3__112basic_stringIcNS1_11char_traitsIcEENS1_9allocatorIcEEEEP5Lexer(i32 1, %"class.std::__1::basic_string"* %252, %class.Lexer* %256)
          to label %1593 unwind label %1598

; <label>:1593:                                   ; preds = %1592
  call void @_ZNSt3__112basic_stringIcNS_11char_traitsIcEENS_9allocatorIcEEED1Ev(%"class.std::__1::basic_string"* %252) #11
  call void @_ZNSt3__112basic_stringIcNS_11char_traitsIcEENS_9allocatorIcEEED1Ev(%"class.std::__1::basic_string"* %253) #11
  br label %1603

; <label>:1594:                                   ; preds = %1555
  %1595 = landingpad { i8*, i32 }
          cleanup
  %1596 = extractvalue { i8*, i32 } %1595, 0
  store i8* %1596, i8** %201, align 8
  %1597 = extractvalue { i8*, i32 } %1595, 1
  store i32 %1597, i32* %202, align 4
  br label %1602

; <label>:1598:                                   ; preds = %1592
  %1599 = landingpad { i8*, i32 }
          cleanup
  %1600 = extractvalue { i8*, i32 } %1599, 0
  store i8* %1600, i8** %201, align 8
  %1601 = extractvalue { i8*, i32 } %1599, 1
  store i32 %1601, i32* %202, align 4
  call void @_ZNSt3__112basic_stringIcNS_11char_traitsIcEENS_9allocatorIcEEED1Ev(%"class.std::__1::basic_string"* %252) #11
  br label %1602

; <label>:1602:                                   ; preds = %1598, %1594
  call void @_ZNSt3__112basic_stringIcNS_11char_traitsIcEENS_9allocatorIcEEED1Ev(%"class.std::__1::basic_string"* %253) #11
  br label %1621

; <label>:1603:                                   ; preds = %1593
  br label %1604

; <label>:1604:                                   ; preds = %1603
  br label %1605

; <label>:1605:                                   ; preds = %1604, %1311
  br label %1606

; <label>:1606:                                   ; preds = %1605
  br label %1607

; <label>:1607:                                   ; preds = %1606
  br label %1608

; <label>:1608:                                   ; preds = %1607
  invoke void @_ZN7VariantC1Ev(%struct.Variant* %254)
          to label %1609 unwind label %358

; <label>:1609:                                   ; preds = %1608
  %1610 = load i32, i32* %199, align 4
  %1611 = getelementptr inbounds %class.Lexer, %class.Lexer* %256, i32 0, i32 0
  %1612 = load i32, i32* %1611, align 8
  %1613 = getelementptr inbounds %class.Lexer, %class.Lexer* %256, i32 0, i32 0
  %1614 = load i32, i32* %1613, align 8
  invoke void @_ZN5TokenC1E9TokenType7Variantiii(%class.Token* %0, i32 7, %struct.Variant* %254, i32 %1610, i32 %1612, i32 %1614)
          to label %1615 unwind label %1616

; <label>:1615:                                   ; preds = %1609
  call void @_ZN7VariantD1Ev(%struct.Variant* %254) #11
  store i32 1, i32* %207, align 4
  br label %1620

; <label>:1616:                                   ; preds = %1609
  %1617 = landingpad { i8*, i32 }
          cleanup
  %1618 = extractvalue { i8*, i32 } %1617, 0
  store i8* %1618, i8** %201, align 8
  %1619 = extractvalue { i8*, i32 } %1617, 1
  store i32 %1619, i32* %202, align 4
  call void @_ZN7VariantD1Ev(%struct.Variant* %254) #11
  br label %1621

; <label>:1620:                                   ; preds = %1615, %1531, %1510, %1341, %1295, %1249, %1221, %1196, %1180, %1159, %1137, %1101, %1076, %1051, %1038, %1015, %985, %873, %752, %681, %606, %508, %451, %436, %423
  call void @_ZNSt3__112basic_stringIcNS_11char_traitsIcEENS_9allocatorIcEEED1Ev(%"class.std::__1::basic_string"* %203) #11
  br label %1622

; <label>:1621:                                   ; preds = %1616, %1602, %1532, %1519, %1499, %1342, %1304, %1284, %1254, %1250, %1234, %1222, %1209, %1197, %1181, %1168, %1146, %1102, %1077, %1052, %1039, %1016, %990, %916, %757, %686, %615, %509, %497, %424, %358
  call void @_ZNSt3__112basic_stringIcNS_11char_traitsIcEENS_9allocatorIcEEED1Ev(%"class.std::__1::basic_string"* %203) #11
  br label %1623

; <label>:1622:                                   ; preds = %1620, %323, %260
  ret void

; <label>:1623:                                   ; preds = %1621, %324
  %1624 = load i8*, i8** %201, align 8
  %1625 = load i32, i32* %202, align 4
  %1626 = insertvalue { i8*, i32 } undef, i8* %1624, 0
  %1627 = insertvalue { i8*, i32 } %1626, i32 %1625, 1
  resume { i8*, i32 } %1627

; <label>:1628:                                   ; preds = %915
  %1629 = landingpad { i8*, i32 }
          catch i8* null
  %1630 = extractvalue { i8*, i32 } %1629, 0
  call void @__clang_call_terminate(i8* %1630) #12
  unreachable
}

; Function Attrs: inlinehint nounwind ssp uwtable
define linkonce_odr void @_ZN5TokenD1Ev(%class.Token*) unnamed_addr #2 align 2 {
  %2 = alloca %class.Token*, align 8
  store %class.Token* %0, %class.Token** %2, align 8
  %3 = load %class.Token*, %class.Token** %2, align 8
  call void @_ZN5TokenD2Ev(%class.Token* %3) #11
  ret void
}

; Function Attrs: inlinehint ssp uwtable
define linkonce_odr dereferenceable(288) %class.Token* @_ZN5TokenaSERKS_(%class.Token*, %class.Token* dereferenceable(288)) #3 align 2 {
  %3 = alloca %class.Token*, align 8
  %4 = alloca %class.Token*, align 8
  store %class.Token* %0, %class.Token** %3, align 8
  store %class.Token* %1, %class.Token** %4, align 8
  %5 = load %class.Token*, %class.Token** %3, align 8
  %6 = getelementptr inbounds %class.Token, %class.Token* %5, i32 0, i32 0
  %7 = load %class.Token*, %class.Token** %4, align 8
  %8 = getelementptr inbounds %class.Token, %class.Token* %7, i32 0, i32 0
  %9 = call dereferenceable(264) %struct.Variant* @_ZN7VariantaSERKS_(%struct.Variant* %6, %struct.Variant* dereferenceable(264) %8)
  %10 = getelementptr inbounds %class.Token, %class.Token* %5, i32 0, i32 1
  %11 = load %class.Token*, %class.Token** %4, align 8
  %12 = getelementptr inbounds %class.Token, %class.Token* %11, i32 0, i32 1
  %13 = bitcast i32* %10 to i8*
  %14 = bitcast i32* %12 to i8*
  call void @llvm.memcpy.p0i8.p0i8.i64(i8* %13, i8* %14, i64 24, i32 8, i1 false)
  ret %class.Token* %5
}

; Function Attrs: inlinehint nounwind ssp uwtable
define linkonce_odr i32 @_ZNK5Token9get_startEv(%class.Token*) #2 align 2 {
  %2 = alloca %class.Token*, align 8
  store %class.Token* %0, %class.Token** %2, align 8
  %3 = load %class.Token*, %class.Token** %2, align 8
  %4 = getelementptr inbounds %class.Token, %class.Token* %3, i32 0, i32 3
  %5 = load i32, i32* %4, align 8
  ret i32 %5
}

; Function Attrs: nounwind
declare void @_ZNSt3__112basic_stringIcNS_11char_traitsIcEENS_9allocatorIcEEED1Ev(%"class.std::__1::basic_string"*) unnamed_addr #4

; Function Attrs: inlinehint nounwind ssp uwtable
define linkonce_odr void @_ZNSt3__16vectorI5TokenNS_9allocatorIS1_EEED1Ev(%"class.std::__1::vector.27"*) unnamed_addr #2 align 2 {
  %2 = alloca %"class.std::__1::vector.27"*, align 8
  store %"class.std::__1::vector.27"* %0, %"class.std::__1::vector.27"** %2, align 8
  %3 = load %"class.std::__1::vector.27"*, %"class.std::__1::vector.27"** %2, align 8
  call void @_ZNSt3__16vectorI5TokenNS_9allocatorIS1_EEED2Ev(%"class.std::__1::vector.27"* %3) #11
  ret void
}

; Function Attrs: ssp uwtable
define void @_ZN5LexerC1ENSt3__112basic_stringIcNS0_11char_traitsIcEENS0_9allocatorIcEEEE(%class.Lexer*, %"class.std::__1::basic_string"*) unnamed_addr #0 align 2 {
  %3 = alloca %class.Lexer*, align 8
  store %class.Lexer* %0, %class.Lexer** %3, align 8
  %4 = load %class.Lexer*, %class.Lexer** %3, align 8
  call void @_ZN5LexerC2ENSt3__112basic_stringIcNS0_11char_traitsIcEENS0_9allocatorIcEEEE(%class.Lexer* %4, %"class.std::__1::basic_string"* %1)
  ret void
}

; Function Attrs: ssp uwtable
define void @_ZN5Lexer5s_valEv(%"class.std::__1::basic_string"* noalias sret, %class.Lexer*) #0 align 2 personality i8* bitcast (i32 (...)* @__gxx_personality_v0 to i8*) {
  %3 = alloca %"class.std::__1::basic_string"*, align 8
  %4 = alloca i8*, align 8
  %5 = alloca %"class.std::__1::basic_string"*, align 8
  %6 = alloca i8*, align 8
  %7 = alloca %class.Lexer*, align 8
  %8 = alloca %struct.Variant, align 8
  %9 = alloca i8*
  %10 = alloca i32
  %11 = alloca %"class.std::__1::basic_string", align 8
  %12 = alloca %struct.Variant, align 8
  store %class.Lexer* %1, %class.Lexer** %7, align 8
  %13 = load %class.Lexer*, %class.Lexer** %7, align 8
  %14 = getelementptr inbounds %class.Lexer, %class.Lexer* %13, i32 0, i32 6
  call void @_ZN5Token9get_valueEv(%struct.Variant* sret %8, %class.Token* %14)
  %15 = invoke dereferenceable(216) %struct.TypeSpecifier* @_ZN7Variant8get_typeEv(%struct.Variant* %8)
          to label %16 unwind label %31

; <label>:16:                                     ; preds = %2
  %17 = getelementptr inbounds %struct.TypeSpecifier, %struct.TypeSpecifier* %15, i32 0, i32 1
  store %"class.std::__1::basic_string"* %17, %"class.std::__1::basic_string"** %5, align 8
  store i8* getelementptr inbounds ([7 x i8], [7 x i8]* @.str, i32 0, i32 0), i8** %6, align 8
  %18 = load %"class.std::__1::basic_string"*, %"class.std::__1::basic_string"** %5, align 8
  %19 = load i8*, i8** %6, align 8
  store %"class.std::__1::basic_string"* %18, %"class.std::__1::basic_string"** %3, align 8
  store i8* %19, i8** %4, align 8
  %20 = load %"class.std::__1::basic_string"*, %"class.std::__1::basic_string"** %3, align 8
  %21 = load i8*, i8** %4, align 8
  %22 = call i32 @_ZNKSt3__112basic_stringIcNS_11char_traitsIcEENS_9allocatorIcEEE7compareEPKc(%"class.std::__1::basic_string"* %20, i8* %21) #11
  %23 = icmp eq i32 %22, 0
  %24 = xor i1 %23, true
  call void @_ZN7VariantD1Ev(%struct.Variant* %8) #11
  br i1 %24, label %25, label %39

; <label>:25:                                     ; preds = %16
  %26 = getelementptr inbounds %class.Lexer, %class.Lexer* %13, i32 0, i32 6
  %27 = call i32 @_ZN5Token8get_typeEv(%class.Token* %26)
  %28 = zext i32 %27 to i64
  %29 = getelementptr inbounds [0 x %"class.std::__1::basic_string"], [0 x %"class.std::__1::basic_string"]* @_ZN4util11token_namesE, i64 0, i64 %28
  call void @_ZNSt3__1plIcNS_11char_traitsIcEENS_9allocatorIcEEEENS_12basic_stringIT_T0_T1_EEPKS6_RKS9_(%"class.std::__1::basic_string"* sret %11, i8* getelementptr inbounds ([18 x i8], [18 x i8]* @.str.1, i32 0, i32 0), %"class.std::__1::basic_string"* dereferenceable(24) %29)
  invoke void @_ZN10ParseError5raiseE11ParseErrorsNSt3__112basic_stringIcNS1_11char_traitsIcEENS1_9allocatorIcEEEEP5Lexer(i32 0, %"class.std::__1::basic_string"* %11, %class.Lexer* %13)
          to label %30 unwind label %35

; <label>:30:                                     ; preds = %25
  call void @_ZNSt3__112basic_stringIcNS_11char_traitsIcEENS_9allocatorIcEEED1Ev(%"class.std::__1::basic_string"* %11) #11
  br label %39

; <label>:31:                                     ; preds = %2
  %32 = landingpad { i8*, i32 }
          cleanup
  %33 = extractvalue { i8*, i32 } %32, 0
  store i8* %33, i8** %9, align 8
  %34 = extractvalue { i8*, i32 } %32, 1
  store i32 %34, i32* %10, align 4
  call void @_ZN7VariantD1Ev(%struct.Variant* %8) #11
  br label %46

; <label>:35:                                     ; preds = %25
  %36 = landingpad { i8*, i32 }
          cleanup
  %37 = extractvalue { i8*, i32 } %36, 0
  store i8* %37, i8** %9, align 8
  %38 = extractvalue { i8*, i32 } %36, 1
  store i32 %38, i32* %10, align 4
  call void @_ZNSt3__112basic_stringIcNS_11char_traitsIcEENS_9allocatorIcEEED1Ev(%"class.std::__1::basic_string"* %11) #11
  br label %46

; <label>:39:                                     ; preds = %30, %16
  %40 = getelementptr inbounds %class.Lexer, %class.Lexer* %13, i32 0, i32 6
  call void @_ZN5Token9get_valueEv(%struct.Variant* sret %12, %class.Token* %40)
  invoke void @_ZN7Variant3getINSt3__112basic_stringIcNS1_11char_traitsIcEENS1_9allocatorIcEEEEEET_v(%"class.std::__1::basic_string"* sret %0, %struct.Variant* %12)
          to label %41 unwind label %42

; <label>:41:                                     ; preds = %39
  call void @_ZN7VariantD1Ev(%struct.Variant* %12) #11
  ret void

; <label>:42:                                     ; preds = %39
  %43 = landingpad { i8*, i32 }
          cleanup
  %44 = extractvalue { i8*, i32 } %43, 0
  store i8* %44, i8** %9, align 8
  %45 = extractvalue { i8*, i32 } %43, 1
  store i32 %45, i32* %10, align 4
  call void @_ZN7VariantD1Ev(%struct.Variant* %12) #11
  br label %46

; <label>:46:                                     ; preds = %42, %35, %31
  %47 = load i8*, i8** %9, align 8
  %48 = load i32, i32* %10, align 4
  %49 = insertvalue { i8*, i32 } undef, i8* %47, 0
  %50 = insertvalue { i8*, i32 } %49, i32 %48, 1
  resume { i8*, i32 } %50
}

declare void @_ZN5Token9get_valueEv(%struct.Variant* sret, %class.Token*) #1

declare dereferenceable(216) %struct.TypeSpecifier* @_ZN7Variant8get_typeEv(%struct.Variant*) #1

declare void @_ZN10ParseError5raiseE11ParseErrorsNSt3__112basic_stringIcNS1_11char_traitsIcEENS1_9allocatorIcEEEEP5Lexer(i32, %"class.std::__1::basic_string"*, %class.Lexer*) #1

; Function Attrs: ssp uwtable
define linkonce_odr void @_ZNSt3__1plIcNS_11char_traitsIcEENS_9allocatorIcEEEENS_12basic_stringIT_T0_T1_EEPKS6_RKS9_(%"class.std::__1::basic_string"* noalias sret, i8*, %"class.std::__1::basic_string"* dereferenceable(24)) #0 personality i8* bitcast (i32 (...)* @__gxx_personality_v0 to i8*) {
  %4 = alloca %"class.std::__1::__libcpp_compressed_pair_imp"*, align 8
  %5 = alloca %"class.std::__1::__compressed_pair"*, align 8
  %6 = alloca %"class.std::__1::basic_string"*, align 8
  %7 = alloca [3 x i64]*, align 8
  %8 = alloca i32, align 4
  %9 = alloca %"class.std::__1::allocator"*, align 8
  %10 = alloca %"class.std::__1::allocator", align 1
  %11 = alloca %"class.std::__1::__libcpp_compressed_pair_imp"*, align 8
  %12 = alloca %"class.std::__1::allocator"*, align 8
  %13 = alloca %"class.std::__1::allocator", align 1
  %14 = alloca %"class.std::__1::__compressed_pair"*, align 8
  %15 = alloca %"class.std::__1::allocator", align 1
  %16 = alloca %"class.std::__1::allocator", align 1
  %17 = alloca %"class.std::__1::__compressed_pair"*, align 8
  %18 = alloca %"class.std::__1::basic_string"*, align 8
  %19 = alloca %"class.std::__1::allocator"*, align 8
  %20 = alloca %"class.std::__1::allocator", align 1
  %21 = alloca %"class.std::__1::basic_string"*, align 8
  %22 = alloca %"class.std::__1::allocator"*, align 8
  %23 = alloca %"class.std::__1::__libcpp_compressed_pair_imp"*, align 8
  %24 = alloca %"class.std::__1::__compressed_pair"*, align 8
  %25 = alloca %"class.std::__1::basic_string"*, align 8
  %26 = alloca %"class.std::__1::__libcpp_compressed_pair_imp"*, align 8
  %27 = alloca %"class.std::__1::__compressed_pair"*, align 8
  %28 = alloca %"class.std::__1::basic_string"*, align 8
  %29 = alloca %"class.std::__1::__libcpp_compressed_pair_imp"*, align 8
  %30 = alloca %"class.std::__1::__compressed_pair"*, align 8
  %31 = alloca %"class.std::__1::basic_string"*, align 8
  %32 = alloca %"class.std::__1::basic_string"*, align 8
  %33 = alloca i8*, align 8
  %34 = alloca %"class.std::__1::__libcpp_compressed_pair_imp"*, align 8
  %35 = alloca %"class.std::__1::__compressed_pair"*, align 8
  %36 = alloca %"class.std::__1::basic_string"*, align 8
  %37 = alloca i8*, align 8
  %38 = alloca i8*, align 8
  %39 = alloca %"class.std::__1::__libcpp_compressed_pair_imp"*, align 8
  %40 = alloca %"class.std::__1::__compressed_pair"*, align 8
  %41 = alloca %"class.std::__1::basic_string"*, align 8
  %42 = alloca %"class.std::__1::__libcpp_compressed_pair_imp"*, align 8
  %43 = alloca %"class.std::__1::__compressed_pair"*, align 8
  %44 = alloca %"class.std::__1::basic_string"*, align 8
  %45 = alloca %"class.std::__1::basic_string"*, align 8
  %46 = alloca %"class.std::__1::basic_string"*, align 8
  %47 = alloca %"class.std::__1::__libcpp_compressed_pair_imp"*, align 8
  %48 = alloca %"class.std::__1::__compressed_pair"*, align 8
  %49 = alloca %"class.std::__1::basic_string"*, align 8
  %50 = alloca %"class.std::__1::allocator", align 1
  %51 = alloca %"class.std::__1::basic_string"*, align 8
  %52 = alloca i8*, align 8
  %53 = alloca %"class.std::__1::basic_string"*, align 8
  %54 = alloca i1, align 1
  %55 = alloca %"class.std::__1::allocator", align 1
  %56 = alloca %"class.std::__1::allocator", align 1
  %57 = alloca i64, align 8
  %58 = alloca i8*
  %59 = alloca i32
  %60 = alloca i64, align 8
  store i8* %1, i8** %52, align 8
  store %"class.std::__1::basic_string"* %2, %"class.std::__1::basic_string"** %53, align 8
  store i1 false, i1* %54, align 1
  %61 = load %"class.std::__1::basic_string"*, %"class.std::__1::basic_string"** %53, align 8
  store %"class.std::__1::basic_string"* %61, %"class.std::__1::basic_string"** %51, align 8
  %62 = load %"class.std::__1::basic_string"*, %"class.std::__1::basic_string"** %51, align 8
  store %"class.std::__1::basic_string"* %62, %"class.std::__1::basic_string"** %49, align 8
  %63 = load %"class.std::__1::basic_string"*, %"class.std::__1::basic_string"** %49, align 8
  %64 = getelementptr inbounds %"class.std::__1::basic_string", %"class.std::__1::basic_string"* %63, i32 0, i32 0
  store %"class.std::__1::__compressed_pair"* %64, %"class.std::__1::__compressed_pair"** %48, align 8
  %65 = load %"class.std::__1::__compressed_pair"*, %"class.std::__1::__compressed_pair"** %48, align 8
  %66 = bitcast %"class.std::__1::__compressed_pair"* %65 to %"class.std::__1::__libcpp_compressed_pair_imp"*
  store %"class.std::__1::__libcpp_compressed_pair_imp"* %66, %"class.std::__1::__libcpp_compressed_pair_imp"** %47, align 8
  %67 = load %"class.std::__1::__libcpp_compressed_pair_imp"*, %"class.std::__1::__libcpp_compressed_pair_imp"** %47, align 8
  %68 = bitcast %"class.std::__1::__libcpp_compressed_pair_imp"* %67 to %"class.std::__1::allocator"*
  store %"class.std::__1::basic_string"* %0, %"class.std::__1::basic_string"** %21, align 8
  store %"class.std::__1::allocator"* %55, %"class.std::__1::allocator"** %22, align 8
  %69 = load %"class.std::__1::basic_string"*, %"class.std::__1::basic_string"** %21, align 8
  %70 = load %"class.std::__1::allocator"*, %"class.std::__1::allocator"** %22, align 8
  store %"class.std::__1::basic_string"* %69, %"class.std::__1::basic_string"** %18, align 8
  store %"class.std::__1::allocator"* %70, %"class.std::__1::allocator"** %19, align 8
  %71 = load %"class.std::__1::basic_string"*, %"class.std::__1::basic_string"** %18, align 8
  %72 = bitcast %"class.std::__1::basic_string"* %71 to %"class.std::__1::__basic_string_common"*
  %73 = getelementptr inbounds %"class.std::__1::basic_string", %"class.std::__1::basic_string"* %71, i32 0, i32 0
  %74 = load %"class.std::__1::allocator"*, %"class.std::__1::allocator"** %19, align 8
  store %"class.std::__1::__compressed_pair"* %73, %"class.std::__1::__compressed_pair"** %17, align 8
  %75 = load %"class.std::__1::__compressed_pair"*, %"class.std::__1::__compressed_pair"** %17, align 8
  store %"class.std::__1::__compressed_pair"* %75, %"class.std::__1::__compressed_pair"** %14, align 8
  %76 = load %"class.std::__1::__compressed_pair"*, %"class.std::__1::__compressed_pair"** %14, align 8
  %77 = bitcast %"class.std::__1::__compressed_pair"* %76 to %"class.std::__1::__libcpp_compressed_pair_imp"*
  store %"class.std::__1::allocator"* %13, %"class.std::__1::allocator"** %12, align 8
  %78 = load %"class.std::__1::allocator"*, %"class.std::__1::allocator"** %12, align 8
  store %"class.std::__1::__libcpp_compressed_pair_imp"* %77, %"class.std::__1::__libcpp_compressed_pair_imp"** %11, align 8
  %79 = load %"class.std::__1::__libcpp_compressed_pair_imp"*, %"class.std::__1::__libcpp_compressed_pair_imp"** %11, align 8
  %80 = bitcast %"class.std::__1::__libcpp_compressed_pair_imp"* %79 to %"class.std::__1::allocator"*
  store %"class.std::__1::allocator"* %10, %"class.std::__1::allocator"** %9, align 8
  %81 = load %"class.std::__1::allocator"*, %"class.std::__1::allocator"** %9, align 8
  %82 = getelementptr inbounds %"class.std::__1::__libcpp_compressed_pair_imp", %"class.std::__1::__libcpp_compressed_pair_imp"* %79, i32 0, i32 0
  %83 = bitcast %"struct.std::__1::basic_string<char, std::__1::char_traits<char>, std::__1::allocator<char> >::__rep"* %82 to i8*
  call void @llvm.memset.p0i8.i64(i8* %83, i8 0, i64 24, i32 8, i1 false) #11
  store %"class.std::__1::basic_string"* %71, %"class.std::__1::basic_string"** %6, align 8
  %84 = load %"class.std::__1::basic_string"*, %"class.std::__1::basic_string"** %6, align 8
  %85 = getelementptr inbounds %"class.std::__1::basic_string", %"class.std::__1::basic_string"* %84, i32 0, i32 0
  store %"class.std::__1::__compressed_pair"* %85, %"class.std::__1::__compressed_pair"** %5, align 8
  %86 = load %"class.std::__1::__compressed_pair"*, %"class.std::__1::__compressed_pair"** %5, align 8
  %87 = bitcast %"class.std::__1::__compressed_pair"* %86 to %"class.std::__1::__libcpp_compressed_pair_imp"*
  store %"class.std::__1::__libcpp_compressed_pair_imp"* %87, %"class.std::__1::__libcpp_compressed_pair_imp"** %4, align 8
  %88 = load %"class.std::__1::__libcpp_compressed_pair_imp"*, %"class.std::__1::__libcpp_compressed_pair_imp"** %4, align 8
  %89 = getelementptr inbounds %"class.std::__1::__libcpp_compressed_pair_imp", %"class.std::__1::__libcpp_compressed_pair_imp"* %88, i32 0, i32 0
  %90 = getelementptr inbounds %"struct.std::__1::basic_string<char, std::__1::char_traits<char>, std::__1::allocator<char> >::__rep", %"struct.std::__1::basic_string<char, std::__1::char_traits<char>, std::__1::allocator<char> >::__rep"* %89, i32 0, i32 0
  %91 = bitcast %union.anon.0* %90 to %"struct.std::__1::basic_string<char, std::__1::char_traits<char>, std::__1::allocator<char> >::__raw"*
  %92 = getelementptr inbounds %"struct.std::__1::basic_string<char, std::__1::char_traits<char>, std::__1::allocator<char> >::__raw", %"struct.std::__1::basic_string<char, std::__1::char_traits<char>, std::__1::allocator<char> >::__raw"* %91, i32 0, i32 0
  store [3 x i64]* %92, [3 x i64]** %7, align 8
  store i32 0, i32* %8, align 4
  br label %93

; <label>:93:                                     ; preds = %96, %3
  %94 = load i32, i32* %8, align 4
  %95 = icmp ult i32 %94, 3
  br i1 %95, label %96, label %103

; <label>:96:                                     ; preds = %93
  %97 = load i32, i32* %8, align 4
  %98 = zext i32 %97 to i64
  %99 = load [3 x i64]*, [3 x i64]** %7, align 8
  %100 = getelementptr inbounds [3 x i64], [3 x i64]* %99, i64 0, i64 %98
  store i64 0, i64* %100, align 8
  %101 = load i32, i32* %8, align 4
  %102 = add i32 %101, 1
  store i32 %102, i32* %8, align 4
  br label %93

; <label>:103:                                    ; preds = %93
  %104 = load i8*, i8** %52, align 8
  %105 = invoke i64 @_ZNSt3__111char_traitsIcE6lengthEPKc(i8* %104)
          to label %106 unwind label %205

; <label>:106:                                    ; preds = %103
  store i64 %105, i64* %57, align 8
  %107 = load %"class.std::__1::basic_string"*, %"class.std::__1::basic_string"** %53, align 8
  store %"class.std::__1::basic_string"* %107, %"class.std::__1::basic_string"** %32, align 8
  %108 = load %"class.std::__1::basic_string"*, %"class.std::__1::basic_string"** %32, align 8
  store %"class.std::__1::basic_string"* %108, %"class.std::__1::basic_string"** %31, align 8
  %109 = load %"class.std::__1::basic_string"*, %"class.std::__1::basic_string"** %31, align 8
  %110 = getelementptr inbounds %"class.std::__1::basic_string", %"class.std::__1::basic_string"* %109, i32 0, i32 0
  store %"class.std::__1::__compressed_pair"* %110, %"class.std::__1::__compressed_pair"** %30, align 8
  %111 = load %"class.std::__1::__compressed_pair"*, %"class.std::__1::__compressed_pair"** %30, align 8
  %112 = bitcast %"class.std::__1::__compressed_pair"* %111 to %"class.std::__1::__libcpp_compressed_pair_imp"*
  store %"class.std::__1::__libcpp_compressed_pair_imp"* %112, %"class.std::__1::__libcpp_compressed_pair_imp"** %29, align 8
  %113 = load %"class.std::__1::__libcpp_compressed_pair_imp"*, %"class.std::__1::__libcpp_compressed_pair_imp"** %29, align 8
  %114 = getelementptr inbounds %"class.std::__1::__libcpp_compressed_pair_imp", %"class.std::__1::__libcpp_compressed_pair_imp"* %113, i32 0, i32 0
  %115 = getelementptr inbounds %"struct.std::__1::basic_string<char, std::__1::char_traits<char>, std::__1::allocator<char> >::__rep", %"struct.std::__1::basic_string<char, std::__1::char_traits<char>, std::__1::allocator<char> >::__rep"* %114, i32 0, i32 0
  %116 = bitcast %union.anon.0* %115 to %"struct.std::__1::basic_string<char, std::__1::char_traits<char>, std::__1::allocator<char> >::__short"*
  %117 = getelementptr inbounds %"struct.std::__1::basic_string<char, std::__1::char_traits<char>, std::__1::allocator<char> >::__short", %"struct.std::__1::basic_string<char, std::__1::char_traits<char>, std::__1::allocator<char> >::__short"* %116, i32 0, i32 0
  %118 = bitcast %union.anon.1* %117 to i8*
  %119 = load i8, i8* %118, align 8
  %120 = zext i8 %119 to i32
  %121 = and i32 %120, 1
  %122 = icmp ne i32 %121, 0
  br i1 %122, label %123, label %134

; <label>:123:                                    ; preds = %106
  store %"class.std::__1::basic_string"* %108, %"class.std::__1::basic_string"** %25, align 8
  %124 = load %"class.std::__1::basic_string"*, %"class.std::__1::basic_string"** %25, align 8
  %125 = getelementptr inbounds %"class.std::__1::basic_string", %"class.std::__1::basic_string"* %124, i32 0, i32 0
  store %"class.std::__1::__compressed_pair"* %125, %"class.std::__1::__compressed_pair"** %24, align 8
  %126 = load %"class.std::__1::__compressed_pair"*, %"class.std::__1::__compressed_pair"** %24, align 8
  %127 = bitcast %"class.std::__1::__compressed_pair"* %126 to %"class.std::__1::__libcpp_compressed_pair_imp"*
  store %"class.std::__1::__libcpp_compressed_pair_imp"* %127, %"class.std::__1::__libcpp_compressed_pair_imp"** %23, align 8
  %128 = load %"class.std::__1::__libcpp_compressed_pair_imp"*, %"class.std::__1::__libcpp_compressed_pair_imp"** %23, align 8
  %129 = getelementptr inbounds %"class.std::__1::__libcpp_compressed_pair_imp", %"class.std::__1::__libcpp_compressed_pair_imp"* %128, i32 0, i32 0
  %130 = getelementptr inbounds %"struct.std::__1::basic_string<char, std::__1::char_traits<char>, std::__1::allocator<char> >::__rep", %"struct.std::__1::basic_string<char, std::__1::char_traits<char>, std::__1::allocator<char> >::__rep"* %129, i32 0, i32 0
  %131 = bitcast %union.anon.0* %130 to %"struct.std::__1::basic_string<char, std::__1::char_traits<char>, std::__1::allocator<char> >::__long"*
  %132 = getelementptr inbounds %"struct.std::__1::basic_string<char, std::__1::char_traits<char>, std::__1::allocator<char> >::__long", %"struct.std::__1::basic_string<char, std::__1::char_traits<char>, std::__1::allocator<char> >::__long"* %131, i32 0, i32 1
  %133 = load i64, i64* %132, align 8
  br label %149

; <label>:134:                                    ; preds = %106
  store %"class.std::__1::basic_string"* %108, %"class.std::__1::basic_string"** %28, align 8
  %135 = load %"class.std::__1::basic_string"*, %"class.std::__1::basic_string"** %28, align 8
  %136 = getelementptr inbounds %"class.std::__1::basic_string", %"class.std::__1::basic_string"* %135, i32 0, i32 0
  store %"class.std::__1::__compressed_pair"* %136, %"class.std::__1::__compressed_pair"** %27, align 8
  %137 = load %"class.std::__1::__compressed_pair"*, %"class.std::__1::__compressed_pair"** %27, align 8
  %138 = bitcast %"class.std::__1::__compressed_pair"* %137 to %"class.std::__1::__libcpp_compressed_pair_imp"*
  store %"class.std::__1::__libcpp_compressed_pair_imp"* %138, %"class.std::__1::__libcpp_compressed_pair_imp"** %26, align 8
  %139 = load %"class.std::__1::__libcpp_compressed_pair_imp"*, %"class.std::__1::__libcpp_compressed_pair_imp"** %26, align 8
  %140 = getelementptr inbounds %"class.std::__1::__libcpp_compressed_pair_imp", %"class.std::__1::__libcpp_compressed_pair_imp"* %139, i32 0, i32 0
  %141 = getelementptr inbounds %"struct.std::__1::basic_string<char, std::__1::char_traits<char>, std::__1::allocator<char> >::__rep", %"struct.std::__1::basic_string<char, std::__1::char_traits<char>, std::__1::allocator<char> >::__rep"* %140, i32 0, i32 0
  %142 = bitcast %union.anon.0* %141 to %"struct.std::__1::basic_string<char, std::__1::char_traits<char>, std::__1::allocator<char> >::__short"*
  %143 = getelementptr inbounds %"struct.std::__1::basic_string<char, std::__1::char_traits<char>, std::__1::allocator<char> >::__short", %"struct.std::__1::basic_string<char, std::__1::char_traits<char>, std::__1::allocator<char> >::__short"* %142, i32 0, i32 0
  %144 = bitcast %union.anon.1* %143 to i8*
  %145 = load i8, i8* %144, align 8
  %146 = zext i8 %145 to i32
  %147 = ashr i32 %146, 1
  %148 = sext i32 %147 to i64
  br label %149

; <label>:149:                                    ; preds = %123, %134
  %150 = phi i64 [ %133, %123 ], [ %148, %134 ]
  store i64 %150, i64* %60, align 8
  %151 = load i8*, i8** %52, align 8
  %152 = load i64, i64* %57, align 8
  %153 = load i64, i64* %57, align 8
  %154 = load i64, i64* %60, align 8
  %155 = add i64 %153, %154
  invoke void @_ZNSt3__112basic_stringIcNS_11char_traitsIcEENS_9allocatorIcEEE6__initEPKcmm(%"class.std::__1::basic_string"* %0, i8* %151, i64 %152, i64 %155)
          to label %156 unwind label %205

; <label>:156:                                    ; preds = %149
  %157 = load %"class.std::__1::basic_string"*, %"class.std::__1::basic_string"** %53, align 8
  store %"class.std::__1::basic_string"* %157, %"class.std::__1::basic_string"** %46, align 8
  %158 = load %"class.std::__1::basic_string"*, %"class.std::__1::basic_string"** %46, align 8
  store %"class.std::__1::basic_string"* %158, %"class.std::__1::basic_string"** %45, align 8
  %159 = load %"class.std::__1::basic_string"*, %"class.std::__1::basic_string"** %45, align 8
  store %"class.std::__1::basic_string"* %159, %"class.std::__1::basic_string"** %44, align 8
  %160 = load %"class.std::__1::basic_string"*, %"class.std::__1::basic_string"** %44, align 8
  %161 = getelementptr inbounds %"class.std::__1::basic_string", %"class.std::__1::basic_string"* %160, i32 0, i32 0
  store %"class.std::__1::__compressed_pair"* %161, %"class.std::__1::__compressed_pair"** %43, align 8
  %162 = load %"class.std::__1::__compressed_pair"*, %"class.std::__1::__compressed_pair"** %43, align 8
  %163 = bitcast %"class.std::__1::__compressed_pair"* %162 to %"class.std::__1::__libcpp_compressed_pair_imp"*
  store %"class.std::__1::__libcpp_compressed_pair_imp"* %163, %"class.std::__1::__libcpp_compressed_pair_imp"** %42, align 8
  %164 = load %"class.std::__1::__libcpp_compressed_pair_imp"*, %"class.std::__1::__libcpp_compressed_pair_imp"** %42, align 8
  %165 = getelementptr inbounds %"class.std::__1::__libcpp_compressed_pair_imp", %"class.std::__1::__libcpp_compressed_pair_imp"* %164, i32 0, i32 0
  %166 = getelementptr inbounds %"struct.std::__1::basic_string<char, std::__1::char_traits<char>, std::__1::allocator<char> >::__rep", %"struct.std::__1::basic_string<char, std::__1::char_traits<char>, std::__1::allocator<char> >::__rep"* %165, i32 0, i32 0
  %167 = bitcast %union.anon.0* %166 to %"struct.std::__1::basic_string<char, std::__1::char_traits<char>, std::__1::allocator<char> >::__short"*
  %168 = getelementptr inbounds %"struct.std::__1::basic_string<char, std::__1::char_traits<char>, std::__1::allocator<char> >::__short", %"struct.std::__1::basic_string<char, std::__1::char_traits<char>, std::__1::allocator<char> >::__short"* %167, i32 0, i32 0
  %169 = bitcast %union.anon.1* %168 to i8*
  %170 = load i8, i8* %169, align 8
  %171 = zext i8 %170 to i32
  %172 = and i32 %171, 1
  %173 = icmp ne i32 %172, 0
  br i1 %173, label %174, label %185

; <label>:174:                                    ; preds = %156
  store %"class.std::__1::basic_string"* %159, %"class.std::__1::basic_string"** %36, align 8
  %175 = load %"class.std::__1::basic_string"*, %"class.std::__1::basic_string"** %36, align 8
  %176 = getelementptr inbounds %"class.std::__1::basic_string", %"class.std::__1::basic_string"* %175, i32 0, i32 0
  store %"class.std::__1::__compressed_pair"* %176, %"class.std::__1::__compressed_pair"** %35, align 8
  %177 = load %"class.std::__1::__compressed_pair"*, %"class.std::__1::__compressed_pair"** %35, align 8
  %178 = bitcast %"class.std::__1::__compressed_pair"* %177 to %"class.std::__1::__libcpp_compressed_pair_imp"*
  store %"class.std::__1::__libcpp_compressed_pair_imp"* %178, %"class.std::__1::__libcpp_compressed_pair_imp"** %34, align 8
  %179 = load %"class.std::__1::__libcpp_compressed_pair_imp"*, %"class.std::__1::__libcpp_compressed_pair_imp"** %34, align 8
  %180 = getelementptr inbounds %"class.std::__1::__libcpp_compressed_pair_imp", %"class.std::__1::__libcpp_compressed_pair_imp"* %179, i32 0, i32 0
  %181 = getelementptr inbounds %"struct.std::__1::basic_string<char, std::__1::char_traits<char>, std::__1::allocator<char> >::__rep", %"struct.std::__1::basic_string<char, std::__1::char_traits<char>, std::__1::allocator<char> >::__rep"* %180, i32 0, i32 0
  %182 = bitcast %union.anon.0* %181 to %"struct.std::__1::basic_string<char, std::__1::char_traits<char>, std::__1::allocator<char> >::__long"*
  %183 = getelementptr inbounds %"struct.std::__1::basic_string<char, std::__1::char_traits<char>, std::__1::allocator<char> >::__long", %"struct.std::__1::basic_string<char, std::__1::char_traits<char>, std::__1::allocator<char> >::__long"* %182, i32 0, i32 2
  %184 = load i8*, i8** %183, align 8
  br label %198

; <label>:185:                                    ; preds = %156
  store %"class.std::__1::basic_string"* %159, %"class.std::__1::basic_string"** %41, align 8
  %186 = load %"class.std::__1::basic_string"*, %"class.std::__1::basic_string"** %41, align 8
  %187 = getelementptr inbounds %"class.std::__1::basic_string", %"class.std::__1::basic_string"* %186, i32 0, i32 0
  store %"class.std::__1::__compressed_pair"* %187, %"class.std::__1::__compressed_pair"** %40, align 8
  %188 = load %"class.std::__1::__compressed_pair"*, %"class.std::__1::__compressed_pair"** %40, align 8
  %189 = bitcast %"class.std::__1::__compressed_pair"* %188 to %"class.std::__1::__libcpp_compressed_pair_imp"*
  store %"class.std::__1::__libcpp_compressed_pair_imp"* %189, %"class.std::__1::__libcpp_compressed_pair_imp"** %39, align 8
  %190 = load %"class.std::__1::__libcpp_compressed_pair_imp"*, %"class.std::__1::__libcpp_compressed_pair_imp"** %39, align 8
  %191 = getelementptr inbounds %"class.std::__1::__libcpp_compressed_pair_imp", %"class.std::__1::__libcpp_compressed_pair_imp"* %190, i32 0, i32 0
  %192 = getelementptr inbounds %"struct.std::__1::basic_string<char, std::__1::char_traits<char>, std::__1::allocator<char> >::__rep", %"struct.std::__1::basic_string<char, std::__1::char_traits<char>, std::__1::allocator<char> >::__rep"* %191, i32 0, i32 0
  %193 = bitcast %union.anon.0* %192 to %"struct.std::__1::basic_string<char, std::__1::char_traits<char>, std::__1::allocator<char> >::__short"*
  %194 = getelementptr inbounds %"struct.std::__1::basic_string<char, std::__1::char_traits<char>, std::__1::allocator<char> >::__short", %"struct.std::__1::basic_string<char, std::__1::char_traits<char>, std::__1::allocator<char> >::__short"* %193, i32 0, i32 1
  %195 = getelementptr inbounds [23 x i8], [23 x i8]* %194, i64 0, i64 0
  store i8* %195, i8** %38, align 8
  %196 = load i8*, i8** %38, align 8
  store i8* %196, i8** %37, align 8
  %197 = load i8*, i8** %37, align 8
  br label %198

; <label>:198:                                    ; preds = %174, %185
  %199 = phi i8* [ %184, %174 ], [ %197, %185 ]
  store i8* %199, i8** %33, align 8
  %200 = load i8*, i8** %33, align 8
  %201 = load i64, i64* %60, align 8
  %202 = invoke dereferenceable(24) %"class.std::__1::basic_string"* @_ZNSt3__112basic_stringIcNS_11char_traitsIcEENS_9allocatorIcEEE6appendEPKcm(%"class.std::__1::basic_string"* %0, i8* %200, i64 %201)
          to label %203 unwind label %205

; <label>:203:                                    ; preds = %198
  store i1 true, i1* %54, align 1
  %204 = load i1, i1* %54, align 1
  br i1 %204, label %210, label %209

; <label>:205:                                    ; preds = %198, %149, %103
  %206 = landingpad { i8*, i32 }
          cleanup
  %207 = extractvalue { i8*, i32 } %206, 0
  store i8* %207, i8** %58, align 8
  %208 = extractvalue { i8*, i32 } %206, 1
  store i32 %208, i32* %59, align 4
  call void @_ZNSt3__112basic_stringIcNS_11char_traitsIcEENS_9allocatorIcEEED1Ev(%"class.std::__1::basic_string"* %0) #11
  br label %211

; <label>:209:                                    ; preds = %203
  call void @_ZNSt3__112basic_stringIcNS_11char_traitsIcEENS_9allocatorIcEEED1Ev(%"class.std::__1::basic_string"* %0) #11
  br label %210

; <label>:210:                                    ; preds = %209, %203
  ret void

; <label>:211:                                    ; preds = %205
  %212 = load i8*, i8** %58, align 8
  %213 = load i32, i32* %59, align 4
  %214 = insertvalue { i8*, i32 } undef, i8* %212, 0
  %215 = insertvalue { i8*, i32 } %214, i32 %213, 1
  resume { i8*, i32 } %215
}

declare void @_ZN7Variant3getINSt3__112basic_stringIcNS1_11char_traitsIcEENS1_9allocatorIcEEEEEET_v(%"class.std::__1::basic_string"* sret, %struct.Variant*) #1

; Function Attrs: nounwind ssp uwtable
define zeroext i1 @_ZN5Lexer9is_numberEcb(%class.Lexer*, i8 signext, i1 zeroext) #5 align 2 {
  %4 = alloca %class.Lexer*, align 8
  %5 = alloca i8, align 1
  %6 = alloca i8, align 1
  %7 = alloca i32, align 4
  store %class.Lexer* %0, %class.Lexer** %4, align 8
  store i8 %1, i8* %5, align 1
  %8 = zext i1 %2 to i8
  store i8 %8, i8* %6, align 1
  %9 = load %class.Lexer*, %class.Lexer** %4, align 8
  %10 = load i8, i8* %5, align 1
  %11 = sext i8 %10 to i32
  store i32 %11, i32* %7, align 4
  %12 = load i32, i32* %7, align 4
  %13 = icmp sge i32 %12, 48
  br i1 %13, label %14, label %17

; <label>:14:                                     ; preds = %3
  %15 = load i32, i32* %7, align 4
  %16 = icmp sle i32 %15, 57
  br i1 %16, label %25, label %17

; <label>:17:                                     ; preds = %14, %3
  %18 = load i8, i8* %6, align 1
  %19 = trunc i8 %18 to i1
  br i1 %19, label %20, label %23

; <label>:20:                                     ; preds = %17
  %21 = load i32, i32* %7, align 4
  %22 = icmp eq i32 %21, 46
  br label %23

; <label>:23:                                     ; preds = %20, %17
  %24 = phi i1 [ false, %17 ], [ %22, %20 ]
  br label %25

; <label>:25:                                     ; preds = %23, %14
  %26 = phi i1 [ true, %14 ], [ %24, %23 ]
  ret i1 %26
}

; Function Attrs: nounwind ssp uwtable
define zeroext i1 @_ZN5Lexer6is_hexEc(%class.Lexer*, i8 signext) #5 align 2 {
  %3 = alloca %class.Lexer*, align 8
  %4 = alloca i8, align 1
  %5 = alloca i32, align 4
  store %class.Lexer* %0, %class.Lexer** %3, align 8
  store i8 %1, i8* %4, align 1
  %6 = load %class.Lexer*, %class.Lexer** %3, align 8
  %7 = load i8, i8* %4, align 1
  %8 = sext i8 %7 to i32
  store i32 %8, i32* %5, align 4
  %9 = load i32, i32* %5, align 4
  %10 = icmp sge i32 %9, 65
  br i1 %10, label %11, label %14

; <label>:11:                                     ; preds = %2
  %12 = load i32, i32* %5, align 4
  %13 = icmp sle i32 %12, 70
  br i1 %13, label %28, label %14

; <label>:14:                                     ; preds = %11, %2
  %15 = load i32, i32* %5, align 4
  %16 = icmp sge i32 %15, 97
  br i1 %16, label %17, label %20

; <label>:17:                                     ; preds = %14
  %18 = load i32, i32* %5, align 4
  %19 = icmp sle i32 %18, 102
  br i1 %19, label %28, label %20

; <label>:20:                                     ; preds = %17, %14
  %21 = load i32, i32* %5, align 4
  %22 = icmp sge i32 %21, 48
  br i1 %22, label %23, label %26

; <label>:23:                                     ; preds = %20
  %24 = load i32, i32* %5, align 4
  %25 = icmp sle i32 %24, 57
  br label %26

; <label>:26:                                     ; preds = %23, %20
  %27 = phi i1 [ false, %20 ], [ %25, %23 ]
  br label %28

; <label>:28:                                     ; preds = %26, %17, %11
  %29 = phi i1 [ true, %17 ], [ true, %11 ], [ %27, %26 ]
  ret i1 %29
}

; Function Attrs: ssp uwtable
define zeroext i1 @_ZN5Lexer18is_identifier_charEc(%class.Lexer*, i8 signext) #0 align 2 {
  %3 = alloca %class.Lexer*, align 8
  %4 = alloca i8, align 1
  %5 = alloca i32, align 4
  store %class.Lexer* %0, %class.Lexer** %3, align 8
  store i8 %1, i8* %4, align 1
  %6 = load %class.Lexer*, %class.Lexer** %3, align 8
  %7 = load i8, i8* %4, align 1
  %8 = sext i8 %7 to i32
  store i32 %8, i32* %5, align 4
  %9 = load i32, i32* %5, align 4
  %10 = trunc i32 %9 to i8
  %11 = call zeroext i1 @_ZN5Lexer16is_operator_charEc(%class.Lexer* %6, i8 signext %10)
  br i1 %11, label %22, label %12

; <label>:12:                                     ; preds = %2
  %13 = load i32, i32* %5, align 4
  %14 = trunc i32 %13 to i8
  %15 = call zeroext i1 @_ZN5Lexer13is_punctuatorEc(%class.Lexer* %6, i8 signext %14)
  br i1 %15, label %22, label %16

; <label>:16:                                     ; preds = %12
  %17 = load i32, i32* %5, align 4
  %18 = icmp ne i32 %17, 32
  br i1 %18, label %19, label %22

; <label>:19:                                     ; preds = %16
  %20 = load i32, i32* %5, align 4
  %21 = icmp ne i32 %20, 0
  br label %22

; <label>:22:                                     ; preds = %19, %16, %12, %2
  %23 = phi i1 [ false, %16 ], [ false, %12 ], [ false, %2 ], [ %21, %19 ]
  ret i1 %23
}

; Function Attrs: ssp uwtable
define zeroext i1 @_ZN5Lexer16is_operator_charEc(%class.Lexer*, i8 signext) #0 align 2 {
  %3 = alloca %"class.std::__1::vector.47"*, align 8
  %4 = alloca i64, align 8
  %5 = alloca %"class.std::__1::vector.47"*, align 8
  %6 = alloca i1, align 1
  %7 = alloca %class.Lexer*, align 8
  %8 = alloca i8, align 1
  %9 = alloca i32, align 4
  store %class.Lexer* %0, %class.Lexer** %7, align 8
  store i8 %1, i8* %8, align 1
  %10 = load %class.Lexer*, %class.Lexer** %7, align 8
  store i32 0, i32* %9, align 4
  br label %11

; <label>:11:                                     ; preds = %41, %2
  %12 = load i32, i32* %9, align 4
  %13 = sext i32 %12 to i64
  store %"class.std::__1::vector.47"* @_ZN4util14operator_charsE, %"class.std::__1::vector.47"** %5, align 8
  %14 = load %"class.std::__1::vector.47"*, %"class.std::__1::vector.47"** %5, align 8
  %15 = bitcast %"class.std::__1::vector.47"* %14 to %"class.std::__1::__vector_base.48"*
  %16 = getelementptr inbounds %"class.std::__1::__vector_base.48", %"class.std::__1::__vector_base.48"* %15, i32 0, i32 1
  %17 = load i8*, i8** %16, align 8
  %18 = bitcast %"class.std::__1::vector.47"* %14 to %"class.std::__1::__vector_base.48"*
  %19 = getelementptr inbounds %"class.std::__1::__vector_base.48", %"class.std::__1::__vector_base.48"* %18, i32 0, i32 0
  %20 = load i8*, i8** %19, align 8
  %21 = ptrtoint i8* %17 to i64
  %22 = ptrtoint i8* %20 to i64
  %23 = sub i64 %21, %22
  %24 = icmp ult i64 %13, %23
  br i1 %24, label %25, label %44

; <label>:25:                                     ; preds = %11
  %26 = load i8, i8* %8, align 1
  %27 = sext i8 %26 to i32
  %28 = load i32, i32* %9, align 4
  %29 = sext i32 %28 to i64
  store %"class.std::__1::vector.47"* @_ZN4util14operator_charsE, %"class.std::__1::vector.47"** %3, align 8
  store i64 %29, i64* %4, align 8
  %30 = load %"class.std::__1::vector.47"*, %"class.std::__1::vector.47"** %3, align 8
  %31 = load i64, i64* %4, align 8
  %32 = bitcast %"class.std::__1::vector.47"* %30 to %"class.std::__1::__vector_base.48"*
  %33 = getelementptr inbounds %"class.std::__1::__vector_base.48", %"class.std::__1::__vector_base.48"* %32, i32 0, i32 0
  %34 = load i8*, i8** %33, align 8
  %35 = getelementptr inbounds i8, i8* %34, i64 %31
  %36 = load i8, i8* %35, align 1
  %37 = sext i8 %36 to i32
  %38 = icmp eq i32 %27, %37
  br i1 %38, label %39, label %40

; <label>:39:                                     ; preds = %25
  store i1 true, i1* %6, align 1
  br label %45

; <label>:40:                                     ; preds = %25
  br label %41

; <label>:41:                                     ; preds = %40
  %42 = load i32, i32* %9, align 4
  %43 = add nsw i32 %42, 1
  store i32 %43, i32* %9, align 4
  br label %11

; <label>:44:                                     ; preds = %11
  store i1 false, i1* %6, align 1
  br label %45

; <label>:45:                                     ; preds = %44, %39
  %46 = load i1, i1* %6, align 1
  ret i1 %46
}

; Function Attrs: ssp uwtable
define zeroext i1 @_ZN5Lexer13is_punctuatorEc(%class.Lexer*, i8 signext) #0 align 2 {
  %3 = alloca %"class.std::__1::vector.47"*, align 8
  %4 = alloca i64, align 8
  %5 = alloca %"class.std::__1::vector.47"*, align 8
  %6 = alloca i1, align 1
  %7 = alloca %class.Lexer*, align 8
  %8 = alloca i8, align 1
  %9 = alloca i32, align 4
  store %class.Lexer* %0, %class.Lexer** %7, align 8
  store i8 %1, i8* %8, align 1
  %10 = load %class.Lexer*, %class.Lexer** %7, align 8
  store i32 0, i32* %9, align 4
  br label %11

; <label>:11:                                     ; preds = %41, %2
  %12 = load i32, i32* %9, align 4
  %13 = sext i32 %12 to i64
  store %"class.std::__1::vector.47"* @_ZN4util11punctuatorsE, %"class.std::__1::vector.47"** %5, align 8
  %14 = load %"class.std::__1::vector.47"*, %"class.std::__1::vector.47"** %5, align 8
  %15 = bitcast %"class.std::__1::vector.47"* %14 to %"class.std::__1::__vector_base.48"*
  %16 = getelementptr inbounds %"class.std::__1::__vector_base.48", %"class.std::__1::__vector_base.48"* %15, i32 0, i32 1
  %17 = load i8*, i8** %16, align 8
  %18 = bitcast %"class.std::__1::vector.47"* %14 to %"class.std::__1::__vector_base.48"*
  %19 = getelementptr inbounds %"class.std::__1::__vector_base.48", %"class.std::__1::__vector_base.48"* %18, i32 0, i32 0
  %20 = load i8*, i8** %19, align 8
  %21 = ptrtoint i8* %17 to i64
  %22 = ptrtoint i8* %20 to i64
  %23 = sub i64 %21, %22
  %24 = icmp ult i64 %13, %23
  br i1 %24, label %25, label %44

