; ModuleID = '/Users/Jonas/CLionProjects/HackerRank/XtremeJonasScript/src/Token.cpp'
source_filename = "/Users/Jonas/CLionProjects/HackerRank/XtremeJonasScript/src/Token.cpp"
target datalayout = "e-m:o-i64:64-f80:128-n8:16:32:64-S128"
target triple = "x86_64-apple-macosx10.12.0"

%"class.std::__1::map" = type { %"class.std::__1::__tree" }
%"class.std::__1::__tree" = type { %"class.std::__1::__tree_end_node"*, %"class.std::__1::__compressed_pair", %"class.std::__1::__compressed_pair.0" }
%"class.std::__1::__tree_end_node" = type { %"class.std::__1::__tree_node_base"* }
%"class.std::__1::__tree_node_base" = type <{ %"class.std::__1::__tree_end_node", %"class.std::__1::__tree_node_base"*, %"class.std::__1::__tree_end_node"*, i8, [7 x i8] }>
%"class.std::__1::__compressed_pair" = type { %"class.std::__1::__libcpp_compressed_pair_imp" }
%"class.std::__1::__libcpp_compressed_pair_imp" = type { %"class.std::__1::__tree_end_node" }
%"class.std::__1::__compressed_pair.0" = type { %"class.std::__1::__libcpp_compressed_pair_imp.1" }
%"class.std::__1::__libcpp_compressed_pair_imp.1" = type { i64 }
%"class.std::initializer_list" = type { %"struct.std::__1::pair"*, i64 }
%"struct.std::__1::pair" = type { i32, %"class.std::__1::basic_string" }
%"class.std::__1::basic_string" = type { %"class.std::__1::__compressed_pair.2" }
%"class.std::__1::__compressed_pair.2" = type { %"class.std::__1::__libcpp_compressed_pair_imp.3" }
%"class.std::__1::__libcpp_compressed_pair_imp.3" = type { %"struct.std::__1::basic_string<char, std::__1::char_traits<char>, std::__1::allocator<char> >::__rep" }
%"struct.std::__1::basic_string<char, std::__1::char_traits<char>, std::__1::allocator<char> >::__rep" = type { %union.anon }
%union.anon = type { %"struct.std::__1::basic_string<char, std::__1::char_traits<char>, std::__1::allocator<char> >::__long" }
%"struct.std::__1::basic_string<char, std::__1::char_traits<char>, std::__1::allocator<char> >::__long" = type { i64, i64, i8* }
%"class.std::__1::__tree_const_iterator" = type { %"class.std::__1::__tree_end_node"* }
%"class.std::__1::__map_const_iterator" = type { %"class.std::__1::__tree_const_iterator" }
%"class.std::__1::__tree_iterator" = type { %"class.std::__1::__tree_end_node"* }
%"class.std::__1::__map_iterator" = type { %"class.std::__1::__tree_iterator" }
%"class.std::__1::__map_value_compare" = type { i8 }
%"struct.std::__1::less" = type { i8 }
%"class.std::__1::allocator.4" = type { i8 }
%"class.std::__1::__basic_string_common" = type { i8 }
%class.Token = type { %struct.Variant, i32, i32, i32, i32, i32, i32 }
%struct.Variant = type <{ %union.anon.7, i8, [7 x i8], %"class.std::__1::basic_string", %struct.TypeSpecifier, i8, i8, i8, [5 x i8] }>
%union.anon.7 = type { i64 }
%struct.TypeSpecifier = type { i32, %"class.std::__1::basic_string", %"class.std::__1::shared_ptr", i8, i8, i8, i8, i64, i32, i8, i8, %"class.std::__1::basic_string", i8, [7 x i8], %"class.std::__1::unordered_map", i8, i8, i8, i8, i8, i8, i8, i32, %"class.std::__1::vector", %"class.std::__1::vector.27", %union.anon.33 }
%"class.std::__1::shared_ptr" = type { %class.Expression*, %"class.std::__1::__shared_weak_count"* }
%class.Expression = type opaque
%"class.std::__1::__shared_weak_count" = type { %"class.std::__1::__shared_count", i64 }
%"class.std::__1::__shared_count" = type { i32 (...)**, i64 }
%"class.std::__1::unordered_map" = type { %"class.std::__1::__hash_table" }
%"class.std::__1::__hash_table" = type <{ %"class.std::__1::unique_ptr", %"class.std::__1::__compressed_pair.14", %"class.std::__1::__compressed_pair.18", %"class.std::__1::__compressed_pair.20", [4 x i8] }>
%"class.std::__1::unique_ptr" = type { %"class.std::__1::__compressed_pair.8" }
%"class.std::__1::__compressed_pair.8" = type { %"class.std::__1::__libcpp_compressed_pair_imp.9" }
%"class.std::__1::__libcpp_compressed_pair_imp.9" = type { %"struct.std::__1::__hash_node_base"**, %"class.std::__1::__bucket_list_deallocator" }
%"struct.std::__1::__hash_node_base" = type { %"struct.std::__1::__hash_node_base"* }
%"class.std::__1::__bucket_list_deallocator" = type { %"class.std::__1::__compressed_pair.10" }
%"class.std::__1::__compressed_pair.10" = type { %"class.std::__1::__libcpp_compressed_pair_imp.11" }
%"class.std::__1::__libcpp_compressed_pair_imp.11" = type { i64 }
%"class.std::__1::__compressed_pair.14" = type { %"class.std::__1::__libcpp_compressed_pair_imp.15" }
%"class.std::__1::__libcpp_compressed_pair_imp.15" = type { %"struct.std::__1::__hash_node_base" }
%"class.std::__1::__compressed_pair.18" = type { %"class.std::__1::__libcpp_compressed_pair_imp.19" }
%"class.std::__1::__libcpp_compressed_pair_imp.19" = type { i64 }
%"class.std::__1::__compressed_pair.20" = type { %"class.std::__1::__libcpp_compressed_pair_imp.21" }
%"class.std::__1::__libcpp_compressed_pair_imp.21" = type { float }
%"class.std::__1::vector" = type { %"class.std::__1::__vector_base" }
%"class.std::__1::__vector_base" = type { %"class.std::__1::basic_string"*, %"class.std::__1::basic_string"*, %"class.std::__1::__compressed_pair.23" }
%"class.std::__1::__compressed_pair.23" = type { %"class.std::__1::__libcpp_compressed_pair_imp.24" }
%"class.std::__1::__libcpp_compressed_pair_imp.24" = type { %"class.std::__1::basic_string"* }
%"class.std::__1::vector.27" = type { %"class.std::__1::__vector_base.28" }
%"class.std::__1::__vector_base.28" = type { %struct.TypeSpecifier*, %struct.TypeSpecifier*, %"class.std::__1::__compressed_pair.29" }
%"class.std::__1::__compressed_pair.29" = type { %"class.std::__1::__libcpp_compressed_pair_imp.30" }
%"class.std::__1::__libcpp_compressed_pair_imp.30" = type { %struct.TypeSpecifier* }
%union.anon.33 = type { %struct.TypeSpecifier* }
%"struct.std::__1::basic_string<char, std::__1::char_traits<char>, std::__1::allocator<char> >::__short" = type { %union.anon.6, [23 x i8] }
%union.anon.6 = type { i8 }
%"class.std::__1::__tree_node" = type { %"class.std::__1::__tree_node_base.base", %"union.std::__1::__value_type" }
%"class.std::__1::__tree_node_base.base" = type <{ %"class.std::__1::__tree_end_node", %"class.std::__1::__tree_node_base"*, %"class.std::__1::__tree_end_node"*, i8 }>
%"union.std::__1::__value_type" = type { %"struct.std::__1::pair" }
%"class.std::__1::allocator" = type { i8 }
%"struct.std::__1::integral_constant" = type { i8 }
%"struct.std::__1::__has_destroy" = type { i8 }
%"class.std::__1::allocator.31" = type { i8 }
%"struct.std::__1::integral_constant.35" = type { i8 }
%"struct.std::__1::__has_destroy.36" = type { i8 }
%"class.std::__1::allocator.25" = type { i8 }
%"struct.std::__1::__has_destroy.37" = type { i8 }
%"class.std::__1::allocator.12" = type { i8 }
%"class.std::__1::allocator.16" = type { i8 }
%"struct.std::__1::pair.38" = type { %"class.std::__1::basic_string", %struct.TypeSpecifier }
%"struct.std::__1::__has_destroy.40" = type { i8 }
%"struct.std::__1::__hash_node" = type { %"struct.std::__1::__hash_node_base", i64, %"union.std::__1::__hash_value_type" }
%"union.std::__1::__hash_value_type" = type { %"struct.std::__1::pair.38" }
%"class.std::__1::__libcpp_compressed_pair_imp.43" = type { %"class.std::__1::__tree_node"*, %"class.std::__1::__tree_node_destructor" }
%"class.std::__1::__tree_node_destructor" = type <{ %"class.std::__1::allocator"*, i8, [7 x i8] }>
%"class.std::__1::__compressed_pair.42" = type { %"class.std::__1::__libcpp_compressed_pair_imp.43" }
%"class.std::__1::unique_ptr.41" = type { %"class.std::__1::__compressed_pair.42" }
%"struct.std::__1::bidirectional_iterator_tag" = type { i8 }
%"struct.std::__1::__has_construct" = type { i8 }

@_ZN4llvm24DisableABIBreakingChecksE = external global i32, align 4
@_ZN4llvm30VerifyDisableABIBreakingChecksE = weak hidden global i32* @_ZN4llvm24DisableABIBreakingChecksE, align 8
@_literal_names = global %"class.std::__1::map" zeroinitializer, align 8
@.str = private unnamed_addr constant [14 x i8] c"NumberLiteral\00", align 1
@.str.1 = private unnamed_addr constant [17 x i8] c"CharacterLiteral\00", align 1
@.str.2 = private unnamed_addr constant [15 x i8] c"BooleanLiteral\00", align 1
@.str.3 = private unnamed_addr constant [14 x i8] c"StringLiteral\00", align 1
@.str.4 = private unnamed_addr constant [14 x i8] c"ObjectLiteral\00", align 1
@__dso_handle = external global i8
@llvm.global_ctors = appending global [1 x { i32, void ()*, i8* }] [{ i32, void ()*, i8* } { i32 65535, void ()* @_GLOBAL__sub_I_Token.cpp, i8* null }]

; Function Attrs: ssp uwtable
define internal void @__cxx_global_var_init() #0 section "__TEXT,__StaticInit,regular,pure_instructions" personality i8* bitcast (i32 (...)* @__gxx_personality_v0 to i8*) {
  %1 = alloca %"class.std::initializer_list"*, align 8
  %2 = alloca %"class.std::__1::__tree_const_iterator", align 8
  %3 = alloca %"class.std::__1::__map_const_iterator"*, align 8
  %4 = alloca %"class.std::__1::__tree_const_iterator", align 8
  %5 = alloca %"class.std::__1::__map_const_iterator"*, align 8
  %6 = alloca %"class.std::__1::__tree_iterator", align 8
  %7 = alloca %"class.std::__1::__map_iterator"*, align 8
  %8 = alloca %"class.std::__1::__tree_iterator", align 8
  %9 = alloca %"class.std::__1::__map_iterator"*, align 8
  %10 = alloca %"struct.std::__1::pair"*, align 8
  %11 = alloca %"class.std::__1::__tree_iterator", align 8
  %12 = alloca %"class.std::__1::__tree_const_iterator", align 8
  %13 = alloca %"class.std::__1::__tree"*, align 8
  %14 = alloca %"struct.std::__1::pair"*, align 8
  %15 = alloca %"class.std::__1::__tree_const_iterator", align 8
  %16 = alloca %"class.std::__1::__map_iterator", align 8
  %17 = alloca %"class.std::__1::__map_const_iterator", align 8
  %18 = alloca %"class.std::__1::map"*, align 8
  %19 = alloca %"struct.std::__1::pair"*, align 8
  %20 = alloca %"class.std::__1::__tree_iterator", align 8
  %21 = alloca %"class.std::__1::__tree_const_iterator", align 8
  %22 = alloca %"class.std::__1::__tree_const_iterator", align 8
  %23 = alloca %"class.std::__1::__map_const_iterator"*, align 8
  %24 = alloca %"class.std::__1::__tree_const_iterator", align 8
  %25 = alloca %"class.std::__1::__map_const_iterator"*, align 8
  %26 = alloca %"class.std::__1::__tree_const_iterator"*, align 8
  %27 = alloca %"class.std::__1::__tree_end_node"*, align 8
  %28 = alloca %"class.std::__1::__tree_const_iterator"*, align 8
  %29 = alloca %"class.std::__1::__tree_end_node"*, align 8
  %30 = alloca %"class.std::__1::__tree_end_node"*, align 8
  %31 = alloca %"class.std::__1::__tree_end_node"*, align 8
  %32 = alloca %"class.std::__1::__libcpp_compressed_pair_imp"*, align 8
  %33 = alloca %"class.std::__1::__compressed_pair"*, align 8
  %34 = alloca %"class.std::__1::__tree"*, align 8
  %35 = alloca %"class.std::__1::__tree_const_iterator", align 8
  %36 = alloca %"class.std::__1::__tree"*, align 8
  %37 = alloca %"class.std::__1::__map_const_iterator", align 8
  %38 = alloca %"class.std::__1::map"*, align 8
  %39 = alloca %"class.std::__1::__tree_const_iterator", align 8
  %40 = alloca %"class.std::__1::__map_const_iterator", align 8
  %41 = alloca %"class.std::__1::map"*, align 8
  %42 = alloca %"class.std::__1::map"*, align 8
  %43 = alloca %"struct.std::__1::pair"*, align 8
  %44 = alloca %"struct.std::__1::pair"*, align 8
  %45 = alloca %"class.std::__1::__map_const_iterator", align 8
  %46 = alloca %"class.std::__1::__map_const_iterator", align 8
  %47 = alloca %"class.std::__1::__tree_const_iterator", align 8
  %48 = alloca %"class.std::__1::__map_iterator", align 8
  %49 = alloca %"class.std::initializer_list"*, align 8
  %50 = alloca %"class.std::__1::__map_value_compare"*, align 8
  %51 = alloca %"struct.std::__1::less", align 1
  %52 = alloca %"class.std::__1::__map_value_compare"*, align 8
  %53 = alloca %"class.std::initializer_list", align 8
  %54 = alloca %"class.std::__1::map"*, align 8
  %55 = alloca %"struct.std::__1::less"*, align 8
  %56 = alloca %"class.std::__1::__map_value_compare", align 1
  %57 = alloca %"struct.std::__1::less", align 1
  %58 = alloca i8*
  %59 = alloca i32
  %60 = alloca %"class.std::initializer_list", align 8
  %61 = alloca %"class.std::__1::map"*, align 8
  %62 = alloca %"struct.std::__1::less"*, align 8
  %63 = alloca [14 x i8]*, align 8
  %64 = alloca %"class.std::__1::allocator.4"*, align 8
  %65 = alloca %"class.std::__1::__libcpp_compressed_pair_imp.3"*, align 8
  %66 = alloca %"class.std::__1::__compressed_pair.2"*, align 8
  %67 = alloca %"class.std::__1::__compressed_pair.2"*, align 8
  %68 = alloca %"class.std::__1::basic_string"*, align 8
  %69 = alloca i8*, align 8
  %70 = alloca %"class.std::__1::basic_string"*, align 8
  %71 = alloca i8*, align 8
  %72 = alloca i32*, align 8
  %73 = alloca %"struct.std::__1::pair"*, align 8
  %74 = alloca i32*, align 8
  %75 = alloca [14 x i8]*, align 8
  %76 = alloca %"struct.std::__1::pair"*, align 8
  %77 = alloca i32*, align 8
  %78 = alloca [14 x i8]*, align 8
  %79 = alloca [14 x i8]*, align 8
  %80 = alloca %"class.std::__1::allocator.4"*, align 8
  %81 = alloca %"class.std::__1::__libcpp_compressed_pair_imp.3"*, align 8
  %82 = alloca %"class.std::__1::__compressed_pair.2"*, align 8
  %83 = alloca %"class.std::__1::__compressed_pair.2"*, align 8
  %84 = alloca %"class.std::__1::basic_string"*, align 8
  %85 = alloca i8*, align 8
  %86 = alloca %"class.std::__1::basic_string"*, align 8
  %87 = alloca i8*, align 8
  %88 = alloca i32*, align 8
  %89 = alloca %"struct.std::__1::pair"*, align 8
  %90 = alloca i32*, align 8
  %91 = alloca [14 x i8]*, align 8
  %92 = alloca %"struct.std::__1::pair"*, align 8
  %93 = alloca i32*, align 8
  %94 = alloca [14 x i8]*, align 8
  %95 = alloca [15 x i8]*, align 8
  %96 = alloca %"class.std::__1::allocator.4"*, align 8
  %97 = alloca %"class.std::__1::__libcpp_compressed_pair_imp.3"*, align 8
  %98 = alloca %"class.std::__1::__compressed_pair.2"*, align 8
  %99 = alloca %"class.std::__1::__compressed_pair.2"*, align 8
  %100 = alloca %"class.std::__1::basic_string"*, align 8
  %101 = alloca i8*, align 8
  %102 = alloca %"class.std::__1::basic_string"*, align 8
  %103 = alloca i8*, align 8
  %104 = alloca i32*, align 8
  %105 = alloca %"struct.std::__1::pair"*, align 8
  %106 = alloca i32*, align 8
  %107 = alloca [15 x i8]*, align 8
  %108 = alloca %"struct.std::__1::pair"*, align 8
  %109 = alloca i32*, align 8
  %110 = alloca [15 x i8]*, align 8
  %111 = alloca [17 x i8]*, align 8
  %112 = alloca %"class.std::__1::allocator.4"*, align 8
  %113 = alloca %"class.std::__1::__libcpp_compressed_pair_imp.3"*, align 8
  %114 = alloca %"class.std::__1::__compressed_pair.2"*, align 8
  %115 = alloca %"class.std::__1::__compressed_pair.2"*, align 8
  %116 = alloca %"class.std::__1::basic_string"*, align 8
  %117 = alloca i8*, align 8
  %118 = alloca %"class.std::__1::basic_string"*, align 8
  %119 = alloca i8*, align 8
  %120 = alloca i32*, align 8
  %121 = alloca %"struct.std::__1::pair"*, align 8
  %122 = alloca i32*, align 8
  %123 = alloca [17 x i8]*, align 8
  %124 = alloca %"struct.std::__1::pair"*, align 8
  %125 = alloca i32*, align 8
  %126 = alloca [17 x i8]*, align 8
  %127 = alloca [14 x i8]*, align 8
  %128 = alloca %"class.std::__1::allocator.4"*, align 8
  %129 = alloca %"class.std::__1::__libcpp_compressed_pair_imp.3"*, align 8
  %130 = alloca %"class.std::__1::__compressed_pair.2"*, align 8
  %131 = alloca %"class.std::__1::__compressed_pair.2"*, align 8
  %132 = alloca %"class.std::__1::basic_string"*, align 8
  %133 = alloca i8*, align 8
  %134 = alloca %"class.std::__1::basic_string"*, align 8
  %135 = alloca i8*, align 8
  %136 = alloca i32*, align 8
  %137 = alloca %"struct.std::__1::pair"*, align 8
  %138 = alloca i32*, align 8
  %139 = alloca [14 x i8]*, align 8
  %140 = alloca %"struct.std::__1::pair"*, align 8
  %141 = alloca i32*, align 8
  %142 = alloca [14 x i8]*, align 8
  %143 = alloca %"class.std::initializer_list", align 8
  %144 = alloca [5 x %"struct.std::__1::pair"], align 8
  %145 = alloca %"struct.std::__1::pair"*, align 8
  %146 = alloca i32, align 4
  %147 = alloca i8*
  %148 = alloca i32
  %149 = alloca i32, align 4
  %150 = alloca i32, align 4
  %151 = alloca i32, align 4
  %152 = alloca i32, align 4
  %153 = alloca %"struct.std::__1::less", align 1
  %154 = getelementptr inbounds [5 x %"struct.std::__1::pair"], [5 x %"struct.std::__1::pair"]* %144, i64 0, i64 0
  store %"struct.std::__1::pair"* %154, %"struct.std::__1::pair"** %145, align 8
  store i32 1, i32* %146, align 4
  store %"struct.std::__1::pair"* %154, %"struct.std::__1::pair"** %140, align 8
  store i32* %146, i32** %141, align 8
  store [14 x i8]* @.str, [14 x i8]** %142, align 8
  %155 = load %"struct.std::__1::pair"*, %"struct.std::__1::pair"** %140, align 8
  %156 = load i32*, i32** %141, align 8
  %157 = load [14 x i8]*, [14 x i8]** %142, align 8
  store %"struct.std::__1::pair"* %155, %"struct.std::__1::pair"** %137, align 8
  store i32* %156, i32** %138, align 8
  store [14 x i8]* %157, [14 x i8]** %139, align 8
  %158 = load %"struct.std::__1::pair"*, %"struct.std::__1::pair"** %137, align 8
  %159 = getelementptr inbounds %"struct.std::__1::pair", %"struct.std::__1::pair"* %158, i32 0, i32 0
  %160 = load i32*, i32** %138, align 8
  store i32* %160, i32** %136, align 8
  %161 = load i32*, i32** %136, align 8
  %162 = load i32, i32* %161, align 4
  store i32 %162, i32* %159, align 8
  %163 = getelementptr inbounds %"struct.std::__1::pair", %"struct.std::__1::pair"* %158, i32 0, i32 1
  %164 = load [14 x i8]*, [14 x i8]** %139, align 8
  store [14 x i8]* %164, [14 x i8]** %127, align 8
  %165 = load [14 x i8]*, [14 x i8]** %127, align 8
  %166 = getelementptr inbounds [14 x i8], [14 x i8]* %165, i32 0, i32 0
  store %"class.std::__1::basic_string"* %163, %"class.std::__1::basic_string"** %134, align 8
  store i8* %166, i8** %135, align 8
  %167 = load %"class.std::__1::basic_string"*, %"class.std::__1::basic_string"** %134, align 8
  %168 = load i8*, i8** %135, align 8
  store %"class.std::__1::basic_string"* %167, %"class.std::__1::basic_string"** %132, align 8
  store i8* %168, i8** %133, align 8
  %169 = load %"class.std::__1::basic_string"*, %"class.std::__1::basic_string"** %132, align 8
  %170 = bitcast %"class.std::__1::basic_string"* %169 to %"class.std::__1::__basic_string_common"*
  %171 = getelementptr inbounds %"class.std::__1::basic_string", %"class.std::__1::basic_string"* %169, i32 0, i32 0
  store %"class.std::__1::__compressed_pair.2"* %171, %"class.std::__1::__compressed_pair.2"** %131, align 8
  %172 = load %"class.std::__1::__compressed_pair.2"*, %"class.std::__1::__compressed_pair.2"** %131, align 8
  store %"class.std::__1::__compressed_pair.2"* %172, %"class.std::__1::__compressed_pair.2"** %130, align 8
  %173 = load %"class.std::__1::__compressed_pair.2"*, %"class.std::__1::__compressed_pair.2"** %130, align 8
  %174 = bitcast %"class.std::__1::__compressed_pair.2"* %173 to %"class.std::__1::__libcpp_compressed_pair_imp.3"*
  store %"class.std::__1::__libcpp_compressed_pair_imp.3"* %174, %"class.std::__1::__libcpp_compressed_pair_imp.3"** %129, align 8
  %175 = load %"class.std::__1::__libcpp_compressed_pair_imp.3"*, %"class.std::__1::__libcpp_compressed_pair_imp.3"** %129, align 8
  %176 = bitcast %"class.std::__1::__libcpp_compressed_pair_imp.3"* %175 to %"class.std::__1::allocator.4"*
  store %"class.std::__1::allocator.4"* %176, %"class.std::__1::allocator.4"** %128, align 8
  %177 = load %"class.std::__1::allocator.4"*, %"class.std::__1::allocator.4"** %128, align 8
  %178 = getelementptr inbounds %"class.std::__1::__libcpp_compressed_pair_imp.3", %"class.std::__1::__libcpp_compressed_pair_imp.3"* %175, i32 0, i32 0
  %179 = bitcast %"struct.std::__1::basic_string<char, std::__1::char_traits<char>, std::__1::allocator<char> >::__rep"* %178 to i8*
  call void @llvm.memset.p0i8.i64(i8* %179, i8 0, i64 24, i32 8, i1 false) #2
  %180 = load i8*, i8** %133, align 8
  %181 = load i8*, i8** %133, align 8
  %182 = invoke i64 @_ZNSt3__111char_traitsIcE6lengthEPKc(i8* %181)
          to label %183 unwind label %478

; <label>:183:                                    ; preds = %0
  invoke void @_ZNSt3__112basic_stringIcNS_11char_traitsIcEENS_9allocatorIcEEE6__initEPKcm(%"class.std::__1::basic_string"* %169, i8* %180, i64 %182)
          to label %184 unwind label %478

; <label>:184:                                    ; preds = %183
  br label %185

; <label>:185:                                    ; preds = %184
  %186 = getelementptr inbounds %"struct.std::__1::pair", %"struct.std::__1::pair"* %154, i64 1
  store %"struct.std::__1::pair"* %186, %"struct.std::__1::pair"** %145, align 8
  store i32 2, i32* %149, align 4
  store %"struct.std::__1::pair"* %186, %"struct.std::__1::pair"** %124, align 8
  store i32* %149, i32** %125, align 8
  store [17 x i8]* @.str.1, [17 x i8]** %126, align 8
  %187 = load %"struct.std::__1::pair"*, %"struct.std::__1::pair"** %124, align 8
  %188 = load i32*, i32** %125, align 8
  %189 = load [17 x i8]*, [17 x i8]** %126, align 8
  store %"struct.std::__1::pair"* %187, %"struct.std::__1::pair"** %121, align 8
  store i32* %188, i32** %122, align 8
  store [17 x i8]* %189, [17 x i8]** %123, align 8
  %190 = load %"struct.std::__1::pair"*, %"struct.std::__1::pair"** %121, align 8
  %191 = getelementptr inbounds %"struct.std::__1::pair", %"struct.std::__1::pair"* %190, i32 0, i32 0
  %192 = load i32*, i32** %122, align 8
  store i32* %192, i32** %120, align 8
  %193 = load i32*, i32** %120, align 8
  %194 = load i32, i32* %193, align 4
  store i32 %194, i32* %191, align 8
  %195 = getelementptr inbounds %"struct.std::__1::pair", %"struct.std::__1::pair"* %190, i32 0, i32 1
  %196 = load [17 x i8]*, [17 x i8]** %123, align 8
  store [17 x i8]* %196, [17 x i8]** %111, align 8
  %197 = load [17 x i8]*, [17 x i8]** %111, align 8
  %198 = getelementptr inbounds [17 x i8], [17 x i8]* %197, i32 0, i32 0
  store %"class.std::__1::basic_string"* %195, %"class.std::__1::basic_string"** %118, align 8
  store i8* %198, i8** %119, align 8
  %199 = load %"class.std::__1::basic_string"*, %"class.std::__1::basic_string"** %118, align 8
  %200 = load i8*, i8** %119, align 8
  store %"class.std::__1::basic_string"* %199, %"class.std::__1::basic_string"** %116, align 8
  store i8* %200, i8** %117, align 8
  %201 = load %"class.std::__1::basic_string"*, %"class.std::__1::basic_string"** %116, align 8
  %202 = bitcast %"class.std::__1::basic_string"* %201 to %"class.std::__1::__basic_string_common"*
  %203 = getelementptr inbounds %"class.std::__1::basic_string", %"class.std::__1::basic_string"* %201, i32 0, i32 0
  store %"class.std::__1::__compressed_pair.2"* %203, %"class.std::__1::__compressed_pair.2"** %115, align 8
  %204 = load %"class.std::__1::__compressed_pair.2"*, %"class.std::__1::__compressed_pair.2"** %115, align 8
  store %"class.std::__1::__compressed_pair.2"* %204, %"class.std::__1::__compressed_pair.2"** %114, align 8
  %205 = load %"class.std::__1::__compressed_pair.2"*, %"class.std::__1::__compressed_pair.2"** %114, align 8
  %206 = bitcast %"class.std::__1::__compressed_pair.2"* %205 to %"class.std::__1::__libcpp_compressed_pair_imp.3"*
  store %"class.std::__1::__libcpp_compressed_pair_imp.3"* %206, %"class.std::__1::__libcpp_compressed_pair_imp.3"** %113, align 8
  %207 = load %"class.std::__1::__libcpp_compressed_pair_imp.3"*, %"class.std::__1::__libcpp_compressed_pair_imp.3"** %113, align 8
  %208 = bitcast %"class.std::__1::__libcpp_compressed_pair_imp.3"* %207 to %"class.std::__1::allocator.4"*
  store %"class.std::__1::allocator.4"* %208, %"class.std::__1::allocator.4"** %112, align 8
  %209 = load %"class.std::__1::allocator.4"*, %"class.std::__1::allocator.4"** %112, align 8
  %210 = getelementptr inbounds %"class.std::__1::__libcpp_compressed_pair_imp.3", %"class.std::__1::__libcpp_compressed_pair_imp.3"* %207, i32 0, i32 0
  %211 = bitcast %"struct.std::__1::basic_string<char, std::__1::char_traits<char>, std::__1::allocator<char> >::__rep"* %210 to i8*
  call void @llvm.memset.p0i8.i64(i8* %211, i8 0, i64 24, i32 8, i1 false) #2
  %212 = load i8*, i8** %117, align 8
  %213 = load i8*, i8** %117, align 8
  %214 = invoke i64 @_ZNSt3__111char_traitsIcE6lengthEPKc(i8* %213)
          to label %215 unwind label %478

; <label>:215:                                    ; preds = %185
  invoke void @_ZNSt3__112basic_stringIcNS_11char_traitsIcEENS_9allocatorIcEEE6__initEPKcm(%"class.std::__1::basic_string"* %201, i8* %212, i64 %214)
          to label %216 unwind label %478

; <label>:216:                                    ; preds = %215
  br label %217

; <label>:217:                                    ; preds = %216
  %218 = getelementptr inbounds %"struct.std::__1::pair", %"struct.std::__1::pair"* %186, i64 1
  store %"struct.std::__1::pair"* %218, %"struct.std::__1::pair"** %145, align 8
  store i32 3, i32* %150, align 4
  store %"struct.std::__1::pair"* %218, %"struct.std::__1::pair"** %108, align 8
  store i32* %150, i32** %109, align 8
  store [15 x i8]* @.str.2, [15 x i8]** %110, align 8
  %219 = load %"struct.std::__1::pair"*, %"struct.std::__1::pair"** %108, align 8
  %220 = load i32*, i32** %109, align 8
  %221 = load [15 x i8]*, [15 x i8]** %110, align 8
  store %"struct.std::__1::pair"* %219, %"struct.std::__1::pair"** %105, align 8
  store i32* %220, i32** %106, align 8
  store [15 x i8]* %221, [15 x i8]** %107, align 8
  %222 = load %"struct.std::__1::pair"*, %"struct.std::__1::pair"** %105, align 8
  %223 = getelementptr inbounds %"struct.std::__1::pair", %"struct.std::__1::pair"* %222, i32 0, i32 0
  %224 = load i32*, i32** %106, align 8
  store i32* %224, i32** %104, align 8
  %225 = load i32*, i32** %104, align 8
  %226 = load i32, i32* %225, align 4
  store i32 %226, i32* %223, align 8
  %227 = getelementptr inbounds %"struct.std::__1::pair", %"struct.std::__1::pair"* %222, i32 0, i32 1
  %228 = load [15 x i8]*, [15 x i8]** %107, align 8
  store [15 x i8]* %228, [15 x i8]** %95, align 8
  %229 = load [15 x i8]*, [15 x i8]** %95, align 8
  %230 = getelementptr inbounds [15 x i8], [15 x i8]* %229, i32 0, i32 0
  store %"class.std::__1::basic_string"* %227, %"class.std::__1::basic_string"** %102, align 8
  store i8* %230, i8** %103, align 8
  %231 = load %"class.std::__1::basic_string"*, %"class.std::__1::basic_string"** %102, align 8
  %232 = load i8*, i8** %103, align 8
  store %"class.std::__1::basic_string"* %231, %"class.std::__1::basic_string"** %100, align 8
  store i8* %232, i8** %101, align 8
  %233 = load %"class.std::__1::basic_string"*, %"class.std::__1::basic_string"** %100, align 8
  %234 = bitcast %"class.std::__1::basic_string"* %233 to %"class.std::__1::__basic_string_common"*
  %235 = getelementptr inbounds %"class.std::__1::basic_string", %"class.std::__1::basic_string"* %233, i32 0, i32 0
  store %"class.std::__1::__compressed_pair.2"* %235, %"class.std::__1::__compressed_pair.2"** %99, align 8
  %236 = load %"class.std::__1::__compressed_pair.2"*, %"class.std::__1::__compressed_pair.2"** %99, align 8
  store %"class.std::__1::__compressed_pair.2"* %236, %"class.std::__1::__compressed_pair.2"** %98, align 8
  %237 = load %"class.std::__1::__compressed_pair.2"*, %"class.std::__1::__compressed_pair.2"** %98, align 8
  %238 = bitcast %"class.std::__1::__compressed_pair.2"* %237 to %"class.std::__1::__libcpp_compressed_pair_imp.3"*
  store %"class.std::__1::__libcpp_compressed_pair_imp.3"* %238, %"class.std::__1::__libcpp_compressed_pair_imp.3"** %97, align 8
  %239 = load %"class.std::__1::__libcpp_compressed_pair_imp.3"*, %"class.std::__1::__libcpp_compressed_pair_imp.3"** %97, align 8
  %240 = bitcast %"class.std::__1::__libcpp_compressed_pair_imp.3"* %239 to %"class.std::__1::allocator.4"*
  store %"class.std::__1::allocator.4"* %240, %"class.std::__1::allocator.4"** %96, align 8
  %241 = load %"class.std::__1::allocator.4"*, %"class.std::__1::allocator.4"** %96, align 8
  %242 = getelementptr inbounds %"class.std::__1::__libcpp_compressed_pair_imp.3", %"class.std::__1::__libcpp_compressed_pair_imp.3"* %239, i32 0, i32 0
  %243 = bitcast %"struct.std::__1::basic_string<char, std::__1::char_traits<char>, std::__1::allocator<char> >::__rep"* %242 to i8*
  call void @llvm.memset.p0i8.i64(i8* %243, i8 0, i64 24, i32 8, i1 false) #2
  %244 = load i8*, i8** %101, align 8
  %245 = load i8*, i8** %101, align 8
  %246 = invoke i64 @_ZNSt3__111char_traitsIcE6lengthEPKc(i8* %245)
          to label %247 unwind label %478

; <label>:247:                                    ; preds = %217
  invoke void @_ZNSt3__112basic_stringIcNS_11char_traitsIcEENS_9allocatorIcEEE6__initEPKcm(%"class.std::__1::basic_string"* %233, i8* %244, i64 %246)
          to label %248 unwind label %478

; <label>:248:                                    ; preds = %247
  br label %249

; <label>:249:                                    ; preds = %248
  %250 = getelementptr inbounds %"struct.std::__1::pair", %"struct.std::__1::pair"* %218, i64 1
  store %"struct.std::__1::pair"* %250, %"struct.std::__1::pair"** %145, align 8
  store i32 0, i32* %151, align 4
  store %"struct.std::__1::pair"* %250, %"struct.std::__1::pair"** %92, align 8
  store i32* %151, i32** %93, align 8
  store [14 x i8]* @.str.3, [14 x i8]** %94, align 8
  %251 = load %"struct.std::__1::pair"*, %"struct.std::__1::pair"** %92, align 8
  %252 = load i32*, i32** %93, align 8
  %253 = load [14 x i8]*, [14 x i8]** %94, align 8
  store %"struct.std::__1::pair"* %251, %"struct.std::__1::pair"** %89, align 8
  store i32* %252, i32** %90, align 8
  store [14 x i8]* %253, [14 x i8]** %91, align 8
  %254 = load %"struct.std::__1::pair"*, %"struct.std::__1::pair"** %89, align 8
  %255 = getelementptr inbounds %"struct.std::__1::pair", %"struct.std::__1::pair"* %254, i32 0, i32 0
  %256 = load i32*, i32** %90, align 8
  store i32* %256, i32** %88, align 8
  %257 = load i32*, i32** %88, align 8
  %258 = load i32, i32* %257, align 4
  store i32 %258, i32* %255, align 8
  %259 = getelementptr inbounds %"struct.std::__1::pair", %"struct.std::__1::pair"* %254, i32 0, i32 1
  %260 = load [14 x i8]*, [14 x i8]** %91, align 8
  store [14 x i8]* %260, [14 x i8]** %79, align 8
  %261 = load [14 x i8]*, [14 x i8]** %79, align 8
  %262 = getelementptr inbounds [14 x i8], [14 x i8]* %261, i32 0, i32 0
  store %"class.std::__1::basic_string"* %259, %"class.std::__1::basic_string"** %86, align 8
  store i8* %262, i8** %87, align 8
  %263 = load %"class.std::__1::basic_string"*, %"class.std::__1::basic_string"** %86, align 8
  %264 = load i8*, i8** %87, align 8
  store %"class.std::__1::basic_string"* %263, %"class.std::__1::basic_string"** %84, align 8
  store i8* %264, i8** %85, align 8
  %265 = load %"class.std::__1::basic_string"*, %"class.std::__1::basic_string"** %84, align 8
  %266 = bitcast %"class.std::__1::basic_string"* %265 to %"class.std::__1::__basic_string_common"*
  %267 = getelementptr inbounds %"class.std::__1::basic_string", %"class.std::__1::basic_string"* %265, i32 0, i32 0
  store %"class.std::__1::__compressed_pair.2"* %267, %"class.std::__1::__compressed_pair.2"** %83, align 8
  %268 = load %"class.std::__1::__compressed_pair.2"*, %"class.std::__1::__compressed_pair.2"** %83, align 8
  store %"class.std::__1::__compressed_pair.2"* %268, %"class.std::__1::__compressed_pair.2"** %82, align 8
  %269 = load %"class.std::__1::__compressed_pair.2"*, %"class.std::__1::__compressed_pair.2"** %82, align 8
  %270 = bitcast %"class.std::__1::__compressed_pair.2"* %269 to %"class.std::__1::__libcpp_compressed_pair_imp.3"*
  store %"class.std::__1::__libcpp_compressed_pair_imp.3"* %270, %"class.std::__1::__libcpp_compressed_pair_imp.3"** %81, align 8
  %271 = load %"class.std::__1::__libcpp_compressed_pair_imp.3"*, %"class.std::__1::__libcpp_compressed_pair_imp.3"** %81, align 8
  %272 = bitcast %"class.std::__1::__libcpp_compressed_pair_imp.3"* %271 to %"class.std::__1::allocator.4"*
  store %"class.std::__1::allocator.4"* %272, %"class.std::__1::allocator.4"** %80, align 8
  %273 = load %"class.std::__1::allocator.4"*, %"class.std::__1::allocator.4"** %80, align 8
  %274 = getelementptr inbounds %"class.std::__1::__libcpp_compressed_pair_imp.3", %"class.std::__1::__libcpp_compressed_pair_imp.3"* %271, i32 0, i32 0
  %275 = bitcast %"struct.std::__1::basic_string<char, std::__1::char_traits<char>, std::__1::allocator<char> >::__rep"* %274 to i8*
  call void @llvm.memset.p0i8.i64(i8* %275, i8 0, i64 24, i32 8, i1 false) #2
  %276 = load i8*, i8** %85, align 8
  %277 = load i8*, i8** %85, align 8
  %278 = invoke i64 @_ZNSt3__111char_traitsIcE6lengthEPKc(i8* %277)
          to label %279 unwind label %478

; <label>:279:                                    ; preds = %249
  invoke void @_ZNSt3__112basic_stringIcNS_11char_traitsIcEENS_9allocatorIcEEE6__initEPKcm(%"class.std::__1::basic_string"* %265, i8* %276, i64 %278)
          to label %280 unwind label %478

; <label>:280:                                    ; preds = %279
  br label %281

; <label>:281:                                    ; preds = %280
  %282 = getelementptr inbounds %"struct.std::__1::pair", %"struct.std::__1::pair"* %250, i64 1
  store %"struct.std::__1::pair"* %282, %"struct.std::__1::pair"** %145, align 8
  store i32 4, i32* %152, align 4
  store %"struct.std::__1::pair"* %282, %"struct.std::__1::pair"** %76, align 8
  store i32* %152, i32** %77, align 8
  store [14 x i8]* @.str.4, [14 x i8]** %78, align 8
  %283 = load %"struct.std::__1::pair"*, %"struct.std::__1::pair"** %76, align 8
  %284 = load i32*, i32** %77, align 8
  %285 = load [14 x i8]*, [14 x i8]** %78, align 8
  store %"struct.std::__1::pair"* %283, %"struct.std::__1::pair"** %73, align 8
  store i32* %284, i32** %74, align 8
  store [14 x i8]* %285, [14 x i8]** %75, align 8
  %286 = load %"struct.std::__1::pair"*, %"struct.std::__1::pair"** %73, align 8
  %287 = getelementptr inbounds %"struct.std::__1::pair", %"struct.std::__1::pair"* %286, i32 0, i32 0
  %288 = load i32*, i32** %74, align 8
  store i32* %288, i32** %72, align 8
  %289 = load i32*, i32** %72, align 8
  %290 = load i32, i32* %289, align 4
  store i32 %290, i32* %287, align 8
  %291 = getelementptr inbounds %"struct.std::__1::pair", %"struct.std::__1::pair"* %286, i32 0, i32 1
  %292 = load [14 x i8]*, [14 x i8]** %75, align 8
  store [14 x i8]* %292, [14 x i8]** %63, align 8
  %293 = load [14 x i8]*, [14 x i8]** %63, align 8
  %294 = getelementptr inbounds [14 x i8], [14 x i8]* %293, i32 0, i32 0
  store %"class.std::__1::basic_string"* %291, %"class.std::__1::basic_string"** %70, align 8
  store i8* %294, i8** %71, align 8
  %295 = load %"class.std::__1::basic_string"*, %"class.std::__1::basic_string"** %70, align 8
  %296 = load i8*, i8** %71, align 8
  store %"class.std::__1::basic_string"* %295, %"class.std::__1::basic_string"** %68, align 8
  store i8* %296, i8** %69, align 8
  %297 = load %"class.std::__1::basic_string"*, %"class.std::__1::basic_string"** %68, align 8
  %298 = bitcast %"class.std::__1::basic_string"* %297 to %"class.std::__1::__basic_string_common"*
  %299 = getelementptr inbounds %"class.std::__1::basic_string", %"class.std::__1::basic_string"* %297, i32 0, i32 0
  store %"class.std::__1::__compressed_pair.2"* %299, %"class.std::__1::__compressed_pair.2"** %67, align 8
  %300 = load %"class.std::__1::__compressed_pair.2"*, %"class.std::__1::__compressed_pair.2"** %67, align 8
  store %"class.std::__1::__compressed_pair.2"* %300, %"class.std::__1::__compressed_pair.2"** %66, align 8
  %301 = load %"class.std::__1::__compressed_pair.2"*, %"class.std::__1::__compressed_pair.2"** %66, align 8
  %302 = bitcast %"class.std::__1::__compressed_pair.2"* %301 to %"class.std::__1::__libcpp_compressed_pair_imp.3"*
  store %"class.std::__1::__libcpp_compressed_pair_imp.3"* %302, %"class.std::__1::__libcpp_compressed_pair_imp.3"** %65, align 8
  %303 = load %"class.std::__1::__libcpp_compressed_pair_imp.3"*, %"class.std::__1::__libcpp_compressed_pair_imp.3"** %65, align 8
  %304 = bitcast %"class.std::__1::__libcpp_compressed_pair_imp.3"* %303 to %"class.std::__1::allocator.4"*
  store %"class.std::__1::allocator.4"* %304, %"class.std::__1::allocator.4"** %64, align 8
  %305 = load %"class.std::__1::allocator.4"*, %"class.std::__1::allocator.4"** %64, align 8
  %306 = getelementptr inbounds %"class.std::__1::__libcpp_compressed_pair_imp.3", %"class.std::__1::__libcpp_compressed_pair_imp.3"* %303, i32 0, i32 0
  %307 = bitcast %"struct.std::__1::basic_string<char, std::__1::char_traits<char>, std::__1::allocator<char> >::__rep"* %306 to i8*
  call void @llvm.memset.p0i8.i64(i8* %307, i8 0, i64 24, i32 8, i1 false) #2
  %308 = load i8*, i8** %69, align 8
  %309 = load i8*, i8** %69, align 8
  %310 = invoke i64 @_ZNSt3__111char_traitsIcE6lengthEPKc(i8* %309)
          to label %311 unwind label %478

; <label>:311:                                    ; preds = %281
  invoke void @_ZNSt3__112basic_stringIcNS_11char_traitsIcEENS_9allocatorIcEEE6__initEPKcm(%"class.std::__1::basic_string"* %297, i8* %308, i64 %310)
          to label %312 unwind label %478

; <label>:312:                                    ; preds = %311
  br label %313

; <label>:313:                                    ; preds = %312
  %314 = getelementptr inbounds %"class.std::initializer_list", %"class.std::initializer_list"* %143, i32 0, i32 0
  %315 = getelementptr inbounds [5 x %"struct.std::__1::pair"], [5 x %"struct.std::__1::pair"]* %144, i64 0, i64 0
  store %"struct.std::__1::pair"* %315, %"struct.std::__1::pair"** %314, align 8
  %316 = getelementptr inbounds %"class.std::initializer_list", %"class.std::initializer_list"* %143, i32 0, i32 1
  store i64 5, i64* %316, align 8
  %317 = bitcast %"class.std::initializer_list"* %143 to { %"struct.std::__1::pair"*, i64 }*
  %318 = getelementptr inbounds { %"struct.std::__1::pair"*, i64 }, { %"struct.std::__1::pair"*, i64 }* %317, i32 0, i32 0
  %319 = load %"struct.std::__1::pair"*, %"struct.std::__1::pair"** %318, align 8
  %320 = getelementptr inbounds { %"struct.std::__1::pair"*, i64 }, { %"struct.std::__1::pair"*, i64 }* %317, i32 0, i32 1
  %321 = load i64, i64* %320, align 8
  %322 = bitcast %"class.std::initializer_list"* %60 to { %"struct.std::__1::pair"*, i64 }*
  %323 = getelementptr inbounds { %"struct.std::__1::pair"*, i64 }, { %"struct.std::__1::pair"*, i64 }* %322, i32 0, i32 0
  store %"struct.std::__1::pair"* %319, %"struct.std::__1::pair"** %323, align 8
  %324 = getelementptr inbounds { %"struct.std::__1::pair"*, i64 }, { %"struct.std::__1::pair"*, i64 }* %322, i32 0, i32 1
  store i64 %321, i64* %324, align 8
  store %"class.std::__1::map"* @_literal_names, %"class.std::__1::map"** %61, align 8
  store %"struct.std::__1::less"* %153, %"struct.std::__1::less"** %62, align 8
  %325 = load %"class.std::__1::map"*, %"class.std::__1::map"** %61, align 8
  %326 = load %"struct.std::__1::less"*, %"struct.std::__1::less"** %62, align 8
  %327 = bitcast %"class.std::initializer_list"* %60 to { %"struct.std::__1::pair"*, i64 }*
  %328 = getelementptr inbounds { %"struct.std::__1::pair"*, i64 }, { %"struct.std::__1::pair"*, i64 }* %327, i32 0, i32 0
  %329 = load %"struct.std::__1::pair"*, %"struct.std::__1::pair"** %328, align 8
  %330 = getelementptr inbounds { %"struct.std::__1::pair"*, i64 }, { %"struct.std::__1::pair"*, i64 }* %327, i32 0, i32 1
  %331 = load i64, i64* %330, align 8
  %332 = bitcast %"class.std::initializer_list"* %53 to { %"struct.std::__1::pair"*, i64 }*
  %333 = getelementptr inbounds { %"struct.std::__1::pair"*, i64 }, { %"struct.std::__1::pair"*, i64 }* %332, i32 0, i32 0
  store %"struct.std::__1::pair"* %329, %"struct.std::__1::pair"** %333, align 8
  %334 = getelementptr inbounds { %"struct.std::__1::pair"*, i64 }, { %"struct.std::__1::pair"*, i64 }* %332, i32 0, i32 1
  store i64 %331, i64* %334, align 8
  store %"class.std::__1::map"* %325, %"class.std::__1::map"** %54, align 8
  store %"struct.std::__1::less"* %326, %"struct.std::__1::less"** %55, align 8
  %335 = load %"class.std::__1::map"*, %"class.std::__1::map"** %54, align 8
  %336 = getelementptr inbounds %"class.std::__1::map", %"class.std::__1::map"* %335, i32 0, i32 0
  %337 = load %"struct.std::__1::less"*, %"struct.std::__1::less"** %55, align 8
  store %"class.std::__1::__map_value_compare"* %56, %"class.std::__1::__map_value_compare"** %52, align 8
  %338 = load %"class.std::__1::__map_value_compare"*, %"class.std::__1::__map_value_compare"** %52, align 8
  store %"class.std::__1::__map_value_compare"* %338, %"class.std::__1::__map_value_compare"** %50, align 8
  %339 = load %"class.std::__1::__map_value_compare"*, %"class.std::__1::__map_value_compare"** %50, align 8
  %340 = bitcast %"class.std::__1::__map_value_compare"* %339 to %"struct.std::__1::less"*
  call void @_ZNSt3__16__treeINS_12__value_typeI11LiteralTypeNS_12basic_stringIcNS_11char_traitsIcEENS_9allocatorIcEEEEEENS_19__map_value_compareIS2_S9_NS_4lessIS2_EELb1EEENS6_IS9_EEEC1ERKSD_(%"class.std::__1::__tree"* %336, %"class.std::__1::__map_value_compare"* dereferenceable(1) %56) #2
  store %"class.std::initializer_list"* %53, %"class.std::initializer_list"** %49, align 8
  %341 = load %"class.std::initializer_list"*, %"class.std::initializer_list"** %49, align 8
  %342 = getelementptr inbounds %"class.std::initializer_list", %"class.std::initializer_list"* %341, i32 0, i32 0
  %343 = load %"struct.std::__1::pair"*, %"struct.std::__1::pair"** %342, align 8
  store %"class.std::initializer_list"* %53, %"class.std::initializer_list"** %1, align 8
  %344 = load %"class.std::initializer_list"*, %"class.std::initializer_list"** %1, align 8
  %345 = getelementptr inbounds %"class.std::initializer_list", %"class.std::initializer_list"* %344, i32 0, i32 0
  %346 = load %"struct.std::__1::pair"*, %"struct.std::__1::pair"** %345, align 8
  %347 = getelementptr inbounds %"class.std::initializer_list", %"class.std::initializer_list"* %344, i32 0, i32 1
  %348 = load i64, i64* %347, align 8
  %349 = getelementptr inbounds %"struct.std::__1::pair", %"struct.std::__1::pair"* %346, i64 %348
  store %"class.std::__1::map"* %335, %"class.std::__1::map"** %42, align 8
  store %"struct.std::__1::pair"* %343, %"struct.std::__1::pair"** %43, align 8
  store %"struct.std::__1::pair"* %349, %"struct.std::__1::pair"** %44, align 8
  %350 = load %"class.std::__1::map"*, %"class.std::__1::map"** %42, align 8
  store %"class.std::__1::map"* %350, %"class.std::__1::map"** %41, align 8
  %351 = load %"class.std::__1::map"*, %"class.std::__1::map"** %41, align 8
  store %"class.std::__1::map"* %351, %"class.std::__1::map"** %38, align 8
  %352 = load %"class.std::__1::map"*, %"class.std::__1::map"** %38, align 8
  %353 = getelementptr inbounds %"class.std::__1::map", %"class.std::__1::map"* %352, i32 0, i32 0
  store %"class.std::__1::__tree"* %353, %"class.std::__1::__tree"** %36, align 8
  %354 = load %"class.std::__1::__tree"*, %"class.std::__1::__tree"** %36, align 8
  store %"class.std::__1::__tree"* %354, %"class.std::__1::__tree"** %34, align 8
  %355 = load %"class.std::__1::__tree"*, %"class.std::__1::__tree"** %34, align 8
  %356 = getelementptr inbounds %"class.std::__1::__tree", %"class.std::__1::__tree"* %355, i32 0, i32 1
  store %"class.std::__1::__compressed_pair"* %356, %"class.std::__1::__compressed_pair"** %33, align 8
  %357 = load %"class.std::__1::__compressed_pair"*, %"class.std::__1::__compressed_pair"** %33, align 8
  %358 = bitcast %"class.std::__1::__compressed_pair"* %357 to %"class.std::__1::__libcpp_compressed_pair_imp"*
  store %"class.std::__1::__libcpp_compressed_pair_imp"* %358, %"class.std::__1::__libcpp_compressed_pair_imp"** %32, align 8
  %359 = load %"class.std::__1::__libcpp_compressed_pair_imp"*, %"class.std::__1::__libcpp_compressed_pair_imp"** %32, align 8
  %360 = getelementptr inbounds %"class.std::__1::__libcpp_compressed_pair_imp", %"class.std::__1::__libcpp_compressed_pair_imp"* %359, i32 0, i32 0
  store %"class.std::__1::__tree_end_node"* %360, %"class.std::__1::__tree_end_node"** %31, align 8
  %361 = load %"class.std::__1::__tree_end_node"*, %"class.std::__1::__tree_end_node"** %31, align 8
  store %"class.std::__1::__tree_end_node"* %361, %"class.std::__1::__tree_end_node"** %30, align 8
  %362 = load %"class.std::__1::__tree_end_node"*, %"class.std::__1::__tree_end_node"** %30, align 8
  %363 = bitcast %"class.std::__1::__tree_end_node"* %362 to i8*
  store %"class.std::__1::__tree_const_iterator"* %35, %"class.std::__1::__tree_const_iterator"** %28, align 8
  store %"class.std::__1::__tree_end_node"* %362, %"class.std::__1::__tree_end_node"** %29, align 8
  %364 = load %"class.std::__1::__tree_const_iterator"*, %"class.std::__1::__tree_const_iterator"** %28, align 8
  %365 = load %"class.std::__1::__tree_end_node"*, %"class.std::__1::__tree_end_node"** %29, align 8
  store %"class.std::__1::__tree_const_iterator"* %364, %"class.std::__1::__tree_const_iterator"** %26, align 8
  store %"class.std::__1::__tree_end_node"* %365, %"class.std::__1::__tree_end_node"** %27, align 8
  %366 = load %"class.std::__1::__tree_const_iterator"*, %"class.std::__1::__tree_const_iterator"** %26, align 8
  %367 = getelementptr inbounds %"class.std::__1::__tree_const_iterator", %"class.std::__1::__tree_const_iterator"* %366, i32 0, i32 0
  %368 = load %"class.std::__1::__tree_end_node"*, %"class.std::__1::__tree_end_node"** %27, align 8
  store %"class.std::__1::__tree_end_node"* %368, %"class.std::__1::__tree_end_node"** %367, align 8
  %369 = getelementptr inbounds %"class.std::__1::__tree_const_iterator", %"class.std::__1::__tree_const_iterator"* %35, i32 0, i32 0
  %370 = load %"class.std::__1::__tree_end_node"*, %"class.std::__1::__tree_end_node"** %369, align 8
  %371 = getelementptr inbounds %"class.std::__1::__tree_const_iterator", %"class.std::__1::__tree_const_iterator"* %39, i32 0, i32 0
  store %"class.std::__1::__tree_end_node"* %370, %"class.std::__1::__tree_end_node"** %371, align 8
  %372 = getelementptr inbounds %"class.std::__1::__tree_const_iterator", %"class.std::__1::__tree_const_iterator"* %39, i32 0, i32 0
  %373 = load %"class.std::__1::__tree_end_node"*, %"class.std::__1::__tree_end_node"** %372, align 8
  %374 = getelementptr inbounds %"class.std::__1::__tree_const_iterator", %"class.std::__1::__tree_const_iterator"* %24, i32 0, i32 0
  store %"class.std::__1::__tree_end_node"* %373, %"class.std::__1::__tree_end_node"** %374, align 8
  store %"class.std::__1::__map_const_iterator"* %37, %"class.std::__1::__map_const_iterator"** %25, align 8
  %375 = load %"class.std::__1::__map_const_iterator"*, %"class.std::__1::__map_const_iterator"** %25, align 8
  %376 = getelementptr inbounds %"class.std::__1::__tree_const_iterator", %"class.std::__1::__tree_const_iterator"* %24, i32 0, i32 0
  %377 = load %"class.std::__1::__tree_end_node"*, %"class.std::__1::__tree_end_node"** %376, align 8
  %378 = getelementptr inbounds %"class.std::__1::__tree_const_iterator", %"class.std::__1::__tree_const_iterator"* %22, i32 0, i32 0
  store %"class.std::__1::__tree_end_node"* %377, %"class.std::__1::__tree_end_node"** %378, align 8
  store %"class.std::__1::__map_const_iterator"* %375, %"class.std::__1::__map_const_iterator"** %23, align 8
  %379 = load %"class.std::__1::__map_const_iterator"*, %"class.std::__1::__map_const_iterator"** %23, align 8
  %380 = getelementptr inbounds %"class.std::__1::__map_const_iterator", %"class.std::__1::__map_const_iterator"* %379, i32 0, i32 0
  %381 = bitcast %"class.std::__1::__tree_const_iterator"* %380 to i8*
  %382 = bitcast %"class.std::__1::__tree_const_iterator"* %22 to i8*
  call void @llvm.memcpy.p0i8.p0i8.i64(i8* %381, i8* %382, i64 8, i32 8, i1 false) #2
  %383 = getelementptr inbounds %"class.std::__1::__map_const_iterator", %"class.std::__1::__map_const_iterator"* %37, i32 0, i32 0
  %384 = getelementptr inbounds %"class.std::__1::__tree_const_iterator", %"class.std::__1::__tree_const_iterator"* %383, i32 0, i32 0
  %385 = load %"class.std::__1::__tree_end_node"*, %"class.std::__1::__tree_end_node"** %384, align 8
  %386 = getelementptr inbounds %"class.std::__1::__map_const_iterator", %"class.std::__1::__map_const_iterator"* %40, i32 0, i32 0
  %387 = getelementptr inbounds %"class.std::__1::__tree_const_iterator", %"class.std::__1::__tree_const_iterator"* %386, i32 0, i32 0
  store %"class.std::__1::__tree_end_node"* %385, %"class.std::__1::__tree_end_node"** %387, align 8
  %388 = getelementptr inbounds %"class.std::__1::__map_const_iterator", %"class.std::__1::__map_const_iterator"* %40, i32 0, i32 0
  %389 = getelementptr inbounds %"class.std::__1::__tree_const_iterator", %"class.std::__1::__tree_const_iterator"* %388, i32 0, i32 0
  %390 = load %"class.std::__1::__tree_end_node"*, %"class.std::__1::__tree_end_node"** %389, align 8
  %391 = getelementptr inbounds %"class.std::__1::__map_const_iterator", %"class.std::__1::__map_const_iterator"* %45, i32 0, i32 0
  %392 = getelementptr inbounds %"class.std::__1::__tree_const_iterator", %"class.std::__1::__tree_const_iterator"* %391, i32 0, i32 0
  store %"class.std::__1::__tree_end_node"* %390, %"class.std::__1::__tree_end_node"** %392, align 8
  br label %393

; <label>:393:                                    ; preds = %437, %313
  %394 = load %"struct.std::__1::pair"*, %"struct.std::__1::pair"** %43, align 8
  %395 = load %"struct.std::__1::pair"*, %"struct.std::__1::pair"** %44, align 8
  %396 = icmp ne %"struct.std::__1::pair"* %394, %395
  br i1 %396, label %397, label %468

; <label>:397:                                    ; preds = %393
  %398 = getelementptr inbounds %"class.std::__1::__map_const_iterator", %"class.std::__1::__map_const_iterator"* %45, i32 0, i32 0
  %399 = bitcast %"class.std::__1::__tree_const_iterator"* %47 to i8*
  %400 = bitcast %"class.std::__1::__tree_const_iterator"* %398 to i8*
  call void @llvm.memcpy.p0i8.p0i8.i64(i8* %399, i8* %400, i64 8, i32 8, i1 false)
  %401 = getelementptr inbounds %"class.std::__1::__tree_const_iterator", %"class.std::__1::__tree_const_iterator"* %47, i32 0, i32 0
  %402 = load %"class.std::__1::__tree_end_node"*, %"class.std::__1::__tree_end_node"** %401, align 8
  %403 = getelementptr inbounds %"class.std::__1::__tree_const_iterator", %"class.std::__1::__tree_const_iterator"* %4, i32 0, i32 0
  store %"class.std::__1::__tree_end_node"* %402, %"class.std::__1::__tree_end_node"** %403, align 8
  store %"class.std::__1::__map_const_iterator"* %46, %"class.std::__1::__map_const_iterator"** %5, align 8
  %404 = load %"class.std::__1::__map_const_iterator"*, %"class.std::__1::__map_const_iterator"** %5, align 8
  %405 = getelementptr inbounds %"class.std::__1::__tree_const_iterator", %"class.std::__1::__tree_const_iterator"* %4, i32 0, i32 0
  %406 = load %"class.std::__1::__tree_end_node"*, %"class.std::__1::__tree_end_node"** %405, align 8
  %407 = getelementptr inbounds %"class.std::__1::__tree_const_iterator", %"class.std::__1::__tree_const_iterator"* %2, i32 0, i32 0
  store %"class.std::__1::__tree_end_node"* %406, %"class.std::__1::__tree_end_node"** %407, align 8
  store %"class.std::__1::__map_const_iterator"* %404, %"class.std::__1::__map_const_iterator"** %3, align 8
  %408 = load %"class.std::__1::__map_const_iterator"*, %"class.std::__1::__map_const_iterator"** %3, align 8
  %409 = getelementptr inbounds %"class.std::__1::__map_const_iterator", %"class.std::__1::__map_const_iterator"* %408, i32 0, i32 0
  %410 = bitcast %"class.std::__1::__tree_const_iterator"* %409 to i8*
  %411 = bitcast %"class.std::__1::__tree_const_iterator"* %2 to i8*
  call void @llvm.memcpy.p0i8.p0i8.i64(i8* %410, i8* %411, i64 8, i32 8, i1 false) #2
  %412 = load %"struct.std::__1::pair"*, %"struct.std::__1::pair"** %43, align 8
  %413 = getelementptr inbounds %"class.std::__1::__map_const_iterator", %"class.std::__1::__map_const_iterator"* %46, i32 0, i32 0
  %414 = getelementptr inbounds %"class.std::__1::__tree_const_iterator", %"class.std::__1::__tree_const_iterator"* %413, i32 0, i32 0
  %415 = load %"class.std::__1::__tree_end_node"*, %"class.std::__1::__tree_end_node"** %414, align 8
  %416 = getelementptr inbounds %"class.std::__1::__map_const_iterator", %"class.std::__1::__map_const_iterator"* %17, i32 0, i32 0
  %417 = getelementptr inbounds %"class.std::__1::__tree_const_iterator", %"class.std::__1::__tree_const_iterator"* %416, i32 0, i32 0
  store %"class.std::__1::__tree_end_node"* %415, %"class.std::__1::__tree_end_node"** %417, align 8
  store %"class.std::__1::map"* %350, %"class.std::__1::map"** %18, align 8
  store %"struct.std::__1::pair"* %412, %"struct.std::__1::pair"** %19, align 8
  %418 = load %"class.std::__1::map"*, %"class.std::__1::map"** %18, align 8
  %419 = getelementptr inbounds %"class.std::__1::map", %"class.std::__1::map"* %418, i32 0, i32 0
  %420 = getelementptr inbounds %"class.std::__1::__map_const_iterator", %"class.std::__1::__map_const_iterator"* %17, i32 0, i32 0
  %421 = bitcast %"class.std::__1::__tree_const_iterator"* %21 to i8*
  %422 = bitcast %"class.std::__1::__tree_const_iterator"* %420 to i8*
  call void @llvm.memcpy.p0i8.p0i8.i64(i8* %421, i8* %422, i64 8, i32 8, i1 false)
  %423 = load %"struct.std::__1::pair"*, %"struct.std::__1::pair"** %19, align 8
  %424 = getelementptr inbounds %"class.std::__1::__tree_const_iterator", %"class.std::__1::__tree_const_iterator"* %21, i32 0, i32 0
  %425 = load %"class.std::__1::__tree_end_node"*, %"class.std::__1::__tree_end_node"** %424, align 8
  %426 = getelementptr inbounds %"class.std::__1::__tree_const_iterator", %"class.std::__1::__tree_const_iterator"* %12, i32 0, i32 0
  store %"class.std::__1::__tree_end_node"* %425, %"class.std::__1::__tree_end_node"** %426, align 8
  store %"class.std::__1::__tree"* %419, %"class.std::__1::__tree"** %13, align 8
  store %"struct.std::__1::pair"* %423, %"struct.std::__1::pair"** %14, align 8
  %427 = load %"class.std::__1::__tree"*, %"class.std::__1::__tree"** %13, align 8
  %428 = bitcast %"class.std::__1::__tree_const_iterator"* %15 to i8*
  %429 = bitcast %"class.std::__1::__tree_const_iterator"* %12 to i8*
  call void @llvm.memcpy.p0i8.p0i8.i64(i8* %428, i8* %429, i64 8, i32 8, i1 false)
  %430 = load %"struct.std::__1::pair"*, %"struct.std::__1::pair"** %14, align 8
  store %"struct.std::__1::pair"* %430, %"struct.std::__1::pair"** %10, align 8
  %431 = load %"struct.std::__1::pair"*, %"struct.std::__1::pair"** %10, align 8
  %432 = getelementptr inbounds %"struct.std::__1::pair", %"struct.std::__1::pair"* %431, i32 0, i32 0
  %433 = load %"struct.std::__1::pair"*, %"struct.std::__1::pair"** %14, align 8
  %434 = getelementptr inbounds %"class.std::__1::__tree_const_iterator", %"class.std::__1::__tree_const_iterator"* %15, i32 0, i32 0
  %435 = load %"class.std::__1::__tree_end_node"*, %"class.std::__1::__tree_end_node"** %434, align 8
  %436 = invoke %"class.std::__1::__tree_end_node"* @_ZNSt3__16__treeINS_12__value_typeI11LiteralTypeNS_12basic_stringIcNS_11char_traitsIcEENS_9allocatorIcEEEEEENS_19__map_value_compareIS2_S9_NS_4lessIS2_EELb1EEENS6_IS9_EEE30__emplace_hint_unique_key_argsIS2_JRKNS_4pairIKS2_S8_EEEEENS_15__tree_iteratorIS9_PNS_11__tree_nodeIS9_PvEElEENS_21__tree_const_iteratorIS9_SQ_lEERKT_DpOT0_(%"class.std::__1::__tree"* %427, %"class.std::__1::__tree_end_node"* %435, i32* dereferenceable(4) %432, %"struct.std::__1::pair"* dereferenceable(32) %433)
          to label %437 unwind label %460

; <label>:437:                                    ; preds = %397
  %438 = getelementptr inbounds %"class.std::__1::__tree_iterator", %"class.std::__1::__tree_iterator"* %11, i32 0, i32 0
  store %"class.std::__1::__tree_end_node"* %436, %"class.std::__1::__tree_end_node"** %438, align 8
  %439 = getelementptr inbounds %"class.std::__1::__tree_iterator", %"class.std::__1::__tree_iterator"* %11, i32 0, i32 0
  %440 = load %"class.std::__1::__tree_end_node"*, %"class.std::__1::__tree_end_node"** %439, align 8
  %441 = getelementptr inbounds %"class.std::__1::__tree_iterator", %"class.std::__1::__tree_iterator"* %20, i32 0, i32 0
  store %"class.std::__1::__tree_end_node"* %440, %"class.std::__1::__tree_end_node"** %441, align 8
  %442 = getelementptr inbounds %"class.std::__1::__tree_iterator", %"class.std::__1::__tree_iterator"* %20, i32 0, i32 0
  %443 = load %"class.std::__1::__tree_end_node"*, %"class.std::__1::__tree_end_node"** %442, align 8
  %444 = getelementptr inbounds %"class.std::__1::__tree_iterator", %"class.std::__1::__tree_iterator"* %8, i32 0, i32 0
  store %"class.std::__1::__tree_end_node"* %443, %"class.std::__1::__tree_end_node"** %444, align 8
  store %"class.std::__1::__map_iterator"* %16, %"class.std::__1::__map_iterator"** %9, align 8
  %445 = load %"class.std::__1::__map_iterator"*, %"class.std::__1::__map_iterator"** %9, align 8
  %446 = getelementptr inbounds %"class.std::__1::__tree_iterator", %"class.std::__1::__tree_iterator"* %8, i32 0, i32 0
  %447 = load %"class.std::__1::__tree_end_node"*, %"class.std::__1::__tree_end_node"** %446, align 8
  %448 = getelementptr inbounds %"class.std::__1::__tree_iterator", %"class.std::__1::__tree_iterator"* %6, i32 0, i32 0
  store %"class.std::__1::__tree_end_node"* %447, %"class.std::__1::__tree_end_node"** %448, align 8
  store %"class.std::__1::__map_iterator"* %445, %"class.std::__1::__map_iterator"** %7, align 8
  %449 = load %"class.std::__1::__map_iterator"*, %"class.std::__1::__map_iterator"** %7, align 8
  %450 = getelementptr inbounds %"class.std::__1::__map_iterator", %"class.std::__1::__map_iterator"* %449, i32 0, i32 0
  %451 = bitcast %"class.std::__1::__tree_iterator"* %450 to i8*
  %452 = bitcast %"class.std::__1::__tree_iterator"* %6 to i8*
  call void @llvm.memcpy.p0i8.p0i8.i64(i8* %451, i8* %452, i64 8, i32 8, i1 false) #2
  %453 = getelementptr inbounds %"class.std::__1::__map_iterator", %"class.std::__1::__map_iterator"* %16, i32 0, i32 0
  %454 = getelementptr inbounds %"class.std::__1::__tree_iterator", %"class.std::__1::__tree_iterator"* %453, i32 0, i32 0
  %455 = load %"class.std::__1::__tree_end_node"*, %"class.std::__1::__tree_end_node"** %454, align 8
  %456 = getelementptr inbounds %"class.std::__1::__map_iterator", %"class.std::__1::__map_iterator"* %48, i32 0, i32 0
  %457 = getelementptr inbounds %"class.std::__1::__tree_iterator", %"class.std::__1::__tree_iterator"* %456, i32 0, i32 0
  store %"class.std::__1::__tree_end_node"* %455, %"class.std::__1::__tree_end_node"** %457, align 8
  %458 = load %"struct.std::__1::pair"*, %"struct.std::__1::pair"** %43, align 8
  %459 = getelementptr inbounds %"struct.std::__1::pair", %"struct.std::__1::pair"* %458, i32 1
  store %"struct.std::__1::pair"* %459, %"struct.std::__1::pair"** %43, align 8
  br label %393

; <label>:460:                                    ; preds = %397
  %461 = landingpad { i8*, i32 }
          cleanup
  %462 = extractvalue { i8*, i32 } %461, 0
  store i8* %462, i8** %58, align 8
  %463 = extractvalue { i8*, i32 } %461, 1
  store i32 %463, i32* %59, align 4
  call void @_ZNSt3__16__treeINS_12__value_typeI11LiteralTypeNS_12basic_stringIcNS_11char_traitsIcEENS_9allocatorIcEEEEEENS_19__map_value_compareIS2_S9_NS_4lessIS2_EELb1EEENS6_IS9_EEED1Ev(%"class.std::__1::__tree"* %336) #2
  %464 = load i8*, i8** %58, align 8
  %465 = load i32, i32* %59, align 4
  %466 = insertvalue { i8*, i32 } undef, i8* %464, 0
  %467 = insertvalue { i8*, i32 } %466, i32 %465, 1
  br label %491

; <label>:468:                                    ; preds = %393
  br label %469

; <label>:469:                                    ; preds = %468
  %470 = getelementptr inbounds [5 x %"struct.std::__1::pair"], [5 x %"struct.std::__1::pair"]* %144, i32 0, i32 0
  %471 = getelementptr inbounds %"struct.std::__1::pair", %"struct.std::__1::pair"* %470, i64 5
  br label %472

; <label>:472:                                    ; preds = %472, %469
  %473 = phi %"struct.std::__1::pair"* [ %471, %469 ], [ %474, %472 ]
  %474 = getelementptr inbounds %"struct.std::__1::pair", %"struct.std::__1::pair"* %473, i64 -1
  call void @_ZNSt3__14pairIK11LiteralTypeNS_12basic_stringIcNS_11char_traitsIcEENS_9allocatorIcEEEEED1Ev(%"struct.std::__1::pair"* %474) #2
  %475 = icmp eq %"struct.std::__1::pair"* %474, %470
  br i1 %475, label %476, label %472

; <label>:476:                                    ; preds = %472
  %477 = call i32 @__cxa_atexit(void (i8*)* bitcast (void (%"class.std::__1::map"*)* @_ZNSt3__13mapI11LiteralTypeNS_12basic_stringIcNS_11char_traitsIcEENS_9allocatorIcEEEENS_4lessIS1_EENS5_INS_4pairIKS1_S7_EEEEED1Ev to void (i8*)*), i8* bitcast (%"class.std::__1::map"* @_literal_names to i8*), i8* @__dso_handle) #2
  ret void

; <label>:478:                                    ; preds = %311, %281, %279, %249, %247, %217, %215, %185, %183, %0
  %479 = landingpad { i8*, i32 }
          cleanup
  %480 = extractvalue { i8*, i32 } %479, 0
  store i8* %480, i8** %147, align 8
  %481 = extractvalue { i8*, i32 } %479, 1
  store i32 %481, i32* %148, align 4
  %482 = load %"struct.std::__1::pair"*, %"struct.std::__1::pair"** %145, align 8
  %483 = icmp eq %"struct.std::__1::pair"* %154, %482
  br i1 %483, label %488, label %484

; <label>:484:                                    ; preds = %484, %478
  %485 = phi %"struct.std::__1::pair"* [ %482, %478 ], [ %486, %484 ]
  %486 = getelementptr inbounds %"struct.std::__1::pair", %"struct.std::__1::pair"* %485, i64 -1
  call void @_ZNSt3__14pairIK11LiteralTypeNS_12basic_stringIcNS_11char_traitsIcEENS_9allocatorIcEEEEED1Ev(%"struct.std::__1::pair"* %486) #2
  %487 = icmp eq %"struct.std::__1::pair"* %486, %154
  br i1 %487, label %488, label %484

; <label>:488:                                    ; preds = %484, %478
  br label %502
                                                  ; No predecessors!
  %490 = landingpad { i8*, i32 }
          cleanup
  br label %491

; <label>:491:                                    ; preds = %460, %489
  %492 = phi { i8*, i32 } [ %490, %489 ], [ %467, %460 ]
  %493 = extractvalue { i8*, i32 } %492, 0
  store i8* %493, i8** %147, align 8
  %494 = extractvalue { i8*, i32 } %492, 1
  store i32 %494, i32* %148, align 4
  %495 = getelementptr inbounds [5 x %"struct.std::__1::pair"], [5 x %"struct.std::__1::pair"]* %144, i32 0, i32 0
  %496 = getelementptr inbounds %"struct.std::__1::pair", %"struct.std::__1::pair"* %495, i64 5
  br label %497

; <label>:497:                                    ; preds = %497, %491
  %498 = phi %"struct.std::__1::pair"* [ %496, %491 ], [ %499, %497 ]
  %499 = getelementptr inbounds %"struct.std::__1::pair", %"struct.std::__1::pair"* %498, i64 -1
  call void @_ZNSt3__14pairIK11LiteralTypeNS_12basic_stringIcNS_11char_traitsIcEENS_9allocatorIcEEEEED1Ev(%"struct.std::__1::pair"* %499) #2
  %500 = icmp eq %"struct.std::__1::pair"* %499, %495
  br i1 %500, label %501, label %497

; <label>:501:                                    ; preds = %497
  br label %502

; <label>:502:                                    ; preds = %501, %488
  %503 = load i8*, i8** %147, align 8
  %504 = load i32, i32* %148, align 4
  %505 = insertvalue { i8*, i32 } undef, i8* %503, 0
  %506 = insertvalue { i8*, i32 } %505, i32 %504, 1
  resume { i8*, i32 } %506
}

declare i32 @__gxx_personality_v0(...)

; Function Attrs: inlinehint nounwind ssp uwtable
define linkonce_odr void @_ZNSt3__14pairIK11LiteralTypeNS_12basic_stringIcNS_11char_traitsIcEENS_9allocatorIcEEEEED1Ev(%"struct.std::__1::pair"*) unnamed_addr #1 align 2 {
  %2 = alloca %"struct.std::__1::pair"*, align 8
  store %"struct.std::__1::pair"* %0, %"struct.std::__1::pair"** %2, align 8
  %3 = load %"struct.std::__1::pair"*, %"struct.std::__1::pair"** %2, align 8
  call void @_ZNSt3__14pairIK11LiteralTypeNS_12basic_stringIcNS_11char_traitsIcEENS_9allocatorIcEEEEED2Ev(%"struct.std::__1::pair"* %3) #2
  ret void
}

; Function Attrs: inlinehint nounwind ssp uwtable
define linkonce_odr void @_ZNSt3__13mapI11LiteralTypeNS_12basic_stringIcNS_11char_traitsIcEENS_9allocatorIcEEEENS_4lessIS1_EENS5_INS_4pairIKS1_S7_EEEEED1Ev(%"class.std::__1::map"*) unnamed_addr #1 align 2 {
  %2 = alloca %"class.std::__1::map"*, align 8
  store %"class.std::__1::map"* %0, %"class.std::__1::map"** %2, align 8
  %3 = load %"class.std::__1::map"*, %"class.std::__1::map"** %2, align 8
  call void @_ZNSt3__13mapI11LiteralTypeNS_12basic_stringIcNS_11char_traitsIcEENS_9allocatorIcEEEENS_4lessIS1_EENS5_INS_4pairIKS1_S7_EEEEED2Ev(%"class.std::__1::map"* %3) #2
  ret void
}

; Function Attrs: nounwind
declare i32 @__cxa_atexit(void (i8*)*, i8*, i8*) #2

; Function Attrs: ssp uwtable
define void @_ZN5TokenC2E9TokenType7Variantiii(%class.Token*, i32, %struct.Variant*, i32, i32, i32) unnamed_addr #0 align 2 personality i8* bitcast (i32 (...)* @__gxx_personality_v0 to i8*) {
  %7 = alloca %class.Token*, align 8
  %8 = alloca i32, align 4
  %9 = alloca i32, align 4
  %10 = alloca i32, align 4
  %11 = alloca i32, align 4
  %12 = alloca i8*
  %13 = alloca i32
  store %class.Token* %0, %class.Token** %7, align 8
  store i32 %1, i32* %8, align 4
  store i32 %3, i32* %9, align 4
  store i32 %4, i32* %10, align 4
  store i32 %5, i32* %11, align 4
  %14 = load %class.Token*, %class.Token** %7, align 8
  %15 = getelementptr inbounds %class.Token, %class.Token* %14, i32 0, i32 0
  call void @_ZN7VariantC1Ev(%struct.Variant* %15)
  %16 = getelementptr inbounds %class.Token, %class.Token* %14, i32 0, i32 2
  %17 = load i32, i32* %9, align 4
  store i32 %17, i32* %16, align 4
  %18 = getelementptr inbounds %class.Token, %class.Token* %14, i32 0, i32 3
  %19 = load i32, i32* %10, align 4
  store i32 %19, i32* %18, align 8
  %20 = getelementptr inbounds %class.Token, %class.Token* %14, i32 0, i32 4
  %21 = load i32, i32* %11, align 4
  store i32 %21, i32* %20, align 4
  %22 = load i32, i32* %8, align 4
  %23 = getelementptr inbounds %class.Token, %class.Token* %14, i32 0, i32 1
  store i32 %22, i32* %23, align 8
  %24 = getelementptr inbounds %class.Token, %class.Token* %14, i32 0, i32 0
  %25 = invoke dereferenceable(264) %struct.Variant* @_ZN7VariantaSERKS_(%struct.Variant* %24, %struct.Variant* dereferenceable(264) %2)
          to label %26 unwind label %27

; <label>:26:                                     ; preds = %6
  ret void

; <label>:27:                                     ; preds = %6
  %28 = landingpad { i8*, i32 }
          cleanup
  %29 = extractvalue { i8*, i32 } %28, 0
  store i8* %29, i8** %12, align 8
  %30 = extractvalue { i8*, i32 } %28, 1
  store i32 %30, i32* %13, align 4
  call void @_ZN7VariantD1Ev(%struct.Variant* %15) #2
  br label %31

; <label>:31:                                     ; preds = %27
  %32 = load i8*, i8** %12, align 8
  %33 = load i32, i32* %13, align 4
  %34 = insertvalue { i8*, i32 } undef, i8* %32, 0
  %35 = insertvalue { i8*, i32 } %34, i32 %33, 1
  resume { i8*, i32 } %35
}

declare void @_ZN7VariantC1Ev(%struct.Variant*) unnamed_addr #3

declare dereferenceable(264) %struct.Variant* @_ZN7VariantaSERKS_(%struct.Variant*, %struct.Variant* dereferenceable(264)) #3

; Function Attrs: inlinehint nounwind ssp uwtable
define linkonce_odr void @_ZN7VariantD1Ev(%struct.Variant*) unnamed_addr #1 align 2 {
  %2 = alloca %struct.Variant*, align 8
  store %struct.Variant* %0, %struct.Variant** %2, align 8
  %3 = load %struct.Variant*, %struct.Variant** %2, align 8
  call void @_ZN7VariantD2Ev(%struct.Variant* %3) #2
  ret void
}

; Function Attrs: ssp uwtable
define void @_ZN5TokenC1E9TokenType7Variantiii(%class.Token*, i32, %struct.Variant*, i32, i32, i32) unnamed_addr #0 align 2 {
  %7 = alloca %class.Token*, align 8
  %8 = alloca i32, align 4
  %9 = alloca i32, align 4
  %10 = alloca i32, align 4
  %11 = alloca i32, align 4
  store %class.Token* %0, %class.Token** %7, align 8
  store i32 %1, i32* %8, align 4
  store i32 %3, i32* %9, align 4
  store i32 %4, i32* %10, align 4
  store i32 %5, i32* %11, align 4
  %12 = load %class.Token*, %class.Token** %7, align 8
  %13 = load i32, i32* %8, align 4
  %14 = load i32, i32* %9, align 4
  %15 = load i32, i32* %10, align 4
  %16 = load i32, i32* %11, align 4
  call void @_ZN5TokenC2E9TokenType7Variantiii(%class.Token* %12, i32 %13, %struct.Variant* %2, i32 %14, i32 %15, i32 %16)
  ret void
}

; Function Attrs: ssp uwtable
define void @_ZN5Token9get_valueEv(%struct.Variant* noalias sret, %class.Token*) #0 align 2 {
  %3 = alloca %class.Token*, align 8
  store %class.Token* %1, %class.Token** %3, align 8
  %4 = load %class.Token*, %class.Token** %3, align 8
  %5 = getelementptr inbounds %class.Token, %class.Token* %4, i32 0, i32 0
  call void @_ZN7VariantC1ERKS_(%struct.Variant* %0, %struct.Variant* dereferenceable(264) %5)
  ret void
}

declare void @_ZN7VariantC1ERKS_(%struct.Variant*, %struct.Variant* dereferenceable(264)) unnamed_addr #3

; Function Attrs: nounwind ssp uwtable
define i32 @_ZN5Token8get_typeEv(%class.Token*) #4 align 2 {
  %2 = alloca %class.Token*, align 8
  store %class.Token* %0, %class.Token** %2, align 8
  %3 = load %class.Token*, %class.Token** %2, align 8
  %4 = getelementptr inbounds %class.Token, %class.Token* %3, i32 0, i32 1
  %5 = load i32, i32* %4, align 8
  ret i32 %5
}

; Function Attrs: ssp uwtable
define zeroext i1 @_ZN5Token13is_punctuatorEc(%class.Token*, i8 signext) #0 align 2 {
  %3 = alloca %class.Token*, align 8
  %4 = alloca i8, align 1
  store %class.Token* %0, %class.Token** %3, align 8
  store i8 %1, i8* %4, align 1
  %5 = load %class.Token*, %class.Token** %3, align 8
  %6 = getelementptr inbounds %class.Token, %class.Token* %5, i32 0, i32 1
  %7 = load i32, i32* %6, align 8
  %8 = icmp eq i32 %7, 3
  br i1 %8, label %9, label %16

; <label>:9:                                      ; preds = %2
  %10 = getelementptr inbounds %class.Token, %class.Token* %5, i32 0, i32 0
  %11 = call signext i8 @_ZN7Variant3getIcEET_v(%struct.Variant* %10)
  %12 = sext i8 %11 to i32
  %13 = load i8, i8* %4, align 1
  %14 = sext i8 %13 to i32
  %15 = icmp eq i32 %12, %14
  br label %16

; <label>:16:                                     ; preds = %9, %2
  %17 = phi i1 [ false, %2 ], [ %15, %9 ]
  ret i1 %17
}

declare signext i8 @_ZN7Variant3getIcEET_v(%struct.Variant*) #3

; Function Attrs: ssp uwtable
define signext i8 @_ZN5Token14get_punctuatorEv(%class.Token*) #0 align 2 {
  %2 = alloca %class.Token*, align 8
  store %class.Token* %0, %class.Token** %2, align 8
  %3 = load %class.Token*, %class.Token** %2, align 8
  %4 = getelementptr inbounds %class.Token, %class.Token* %3, i32 0, i32 0
  %5 = call signext i8 @_ZN7Variant3getIcEET_v(%struct.Variant* %4)
  ret i8 %5
}

; Function Attrs: ssp uwtable
define zeroext i1 @_ZN5Token10is_keywordENSt3__112basic_stringIcNS0_11char_traitsIcEENS0_9allocatorIcEEEE(%class.Token*, %"class.std::__1::basic_string"*) #0 align 2 personality i32 (...)* @__gxx_personality_v0 {
  %3 = alloca i8*, align 8
  %4 = alloca %"class.std::__1::__libcpp_compressed_pair_imp.3"*, align 8
  %5 = alloca %"class.std::__1::__compressed_pair.2"*, align 8
  %6 = alloca %"class.std::__1::basic_string"*, align 8
  %7 = alloca i8*, align 8
  %8 = alloca i8*, align 8
  %9 = alloca %"class.std::__1::__libcpp_compressed_pair_imp.3"*, align 8
  %10 = alloca %"class.std::__1::__compressed_pair.2"*, align 8
  %11 = alloca %"class.std::__1::basic_string"*, align 8
  %12 = alloca %"class.std::__1::__libcpp_compressed_pair_imp.3"*, align 8
  %13 = alloca %"class.std::__1::__compressed_pair.2"*, align 8
  %14 = alloca %"class.std::__1::basic_string"*, align 8
  %15 = alloca %"class.std::__1::basic_string"*, align 8
  %16 = alloca %"class.std::__1::basic_string"*, align 8
  %17 = alloca %"class.std::__1::__libcpp_compressed_pair_imp.3"*, align 8
  %18 = alloca %"class.std::__1::__compressed_pair.2"*, align 8
  %19 = alloca %"class.std::__1::basic_string"*, align 8
  %20 = alloca i8*, align 8
  %21 = alloca %"class.std::__1::__libcpp_compressed_pair_imp.3"*, align 8
  %22 = alloca %"class.std::__1::__compressed_pair.2"*, align 8
  %23 = alloca %"class.std::__1::basic_string"*, align 8
  %24 = alloca i8*, align 8
  %25 = alloca i8*, align 8
  %26 = alloca %"class.std::__1::__libcpp_compressed_pair_imp.3"*, align 8
  %27 = alloca %"class.std::__1::__compressed_pair.2"*, align 8
  %28 = alloca %"class.std::__1::basic_string"*, align 8
  %29 = alloca %"class.std::__1::__libcpp_compressed_pair_imp.3"*, align 8
  %30 = alloca %"class.std::__1::__compressed_pair.2"*, align 8
  %31 = alloca %"class.std::__1::basic_string"*, align 8
  %32 = alloca %"class.std::__1::basic_string"*, align 8
  %33 = alloca %"class.std::__1::basic_string"*, align 8
  %34 = alloca %"class.std::__1::__libcpp_compressed_pair_imp.3"*, align 8
  %35 = alloca %"class.std::__1::__compressed_pair.2"*, align 8
  %36 = alloca %"class.std::__1::basic_string"*, align 8
  %37 = alloca %"class.std::__1::__libcpp_compressed_pair_imp.3"*, align 8
  %38 = alloca %"class.std::__1::__compressed_pair.2"*, align 8
  %39 = alloca %"class.std::__1::basic_string"*, align 8
  %40 = alloca %"class.std::__1::__libcpp_compressed_pair_imp.3"*, align 8
  %41 = alloca %"class.std::__1::__compressed_pair.2"*, align 8
  %42 = alloca %"class.std::__1::basic_string"*, align 8
  %43 = alloca %"class.std::__1::basic_string"*, align 8
  %44 = alloca %"class.std::__1::__libcpp_compressed_pair_imp.3"*, align 8
  %45 = alloca %"class.std::__1::__compressed_pair.2"*, align 8
  %46 = alloca %"class.std::__1::basic_string"*, align 8
  %47 = alloca %"class.std::__1::__libcpp_compressed_pair_imp.3"*, align 8
  %48 = alloca %"class.std::__1::__compressed_pair.2"*, align 8
  %49 = alloca %"class.std::__1::basic_string"*, align 8
  %50 = alloca %"class.std::__1::__libcpp_compressed_pair_imp.3"*, align 8
  %51 = alloca %"class.std::__1::__compressed_pair.2"*, align 8
  %52 = alloca %"class.std::__1::basic_string"*, align 8
  %53 = alloca %"class.std::__1::basic_string"*, align 8
  %54 = alloca i1, align 1
  %55 = alloca %"class.std::__1::basic_string"*, align 8
  %56 = alloca %"class.std::__1::basic_string"*, align 8
  %57 = alloca i64, align 8
  %58 = alloca i8*, align 8
  %59 = alloca i8*, align 8
  %60 = alloca i1, align 1
  %61 = alloca %class.Token*, align 8
  %62 = alloca %"class.std::__1::basic_string", align 8
  %63 = alloca i1, align 1
  store %class.Token* %0, %class.Token** %61, align 8
  %64 = load %class.Token*, %class.Token** %61, align 8
  %65 = getelementptr inbounds %class.Token, %class.Token* %64, i32 0, i32 1
  %66 = load i32, i32* %65, align 8
  %67 = icmp eq i32 %66, 0
  store i1 false, i1* %63, align 1
  br i1 %67, label %68, label %298

; <label>:68:                                     ; preds = %2
  %69 = getelementptr inbounds %class.Token, %class.Token* %64, i32 0, i32 0
  call void @_ZN7Variant3getINSt3__112basic_stringIcNS1_11char_traitsIcEENS1_9allocatorIcEEEEEET_v(%"class.std::__1::basic_string"* sret %62, %struct.Variant* %69)
  store i1 true, i1* %63, align 1
  store %"class.std::__1::basic_string"* %62, %"class.std::__1::basic_string"** %55, align 8
  store %"class.std::__1::basic_string"* %1, %"class.std::__1::basic_string"** %56, align 8
  %70 = load %"class.std::__1::basic_string"*, %"class.std::__1::basic_string"** %55, align 8
  store %"class.std::__1::basic_string"* %70, %"class.std::__1::basic_string"** %53, align 8
  %71 = load %"class.std::__1::basic_string"*, %"class.std::__1::basic_string"** %53, align 8
  store %"class.std::__1::basic_string"* %71, %"class.std::__1::basic_string"** %52, align 8
  %72 = load %"class.std::__1::basic_string"*, %"class.std::__1::basic_string"** %52, align 8
  %73 = getelementptr inbounds %"class.std::__1::basic_string", %"class.std::__1::basic_string"* %72, i32 0, i32 0
  store %"class.std::__1::__compressed_pair.2"* %73, %"class.std::__1::__compressed_pair.2"** %51, align 8
  %74 = load %"class.std::__1::__compressed_pair.2"*, %"class.std::__1::__compressed_pair.2"** %51, align 8
  %75 = bitcast %"class.std::__1::__compressed_pair.2"* %74 to %"class.std::__1::__libcpp_compressed_pair_imp.3"*
  store %"class.std::__1::__libcpp_compressed_pair_imp.3"* %75, %"class.std::__1::__libcpp_compressed_pair_imp.3"** %50, align 8
  %76 = load %"class.std::__1::__libcpp_compressed_pair_imp.3"*, %"class.std::__1::__libcpp_compressed_pair_imp.3"** %50, align 8
  %77 = getelementptr inbounds %"class.std::__1::__libcpp_compressed_pair_imp.3", %"class.std::__1::__libcpp_compressed_pair_imp.3"* %76, i32 0, i32 0
  %78 = getelementptr inbounds %"struct.std::__1::basic_string<char, std::__1::char_traits<char>, std::__1::allocator<char> >::__rep", %"struct.std::__1::basic_string<char, std::__1::char_traits<char>, std::__1::allocator<char> >::__rep"* %77, i32 0, i32 0
  %79 = bitcast %union.anon* %78 to %"struct.std::__1::basic_string<char, std::__1::char_traits<char>, std::__1::allocator<char> >::__short"*
  %80 = getelementptr inbounds %"struct.std::__1::basic_string<char, std::__1::char_traits<char>, std::__1::allocator<char> >::__short", %"struct.std::__1::basic_string<char, std::__1::char_traits<char>, std::__1::allocator<char> >::__short"* %79, i32 0, i32 0
  %81 = bitcast %union.anon.6* %80 to i8*
  %82 = load i8, i8* %81, align 8
  %83 = zext i8 %82 to i32
  %84 = and i32 %83, 1
  %85 = icmp ne i32 %84, 0
  br i1 %85, label %86, label %97

; <label>:86:                                     ; preds = %68
  store %"class.std::__1::basic_string"* %71, %"class.std::__1::basic_string"** %46, align 8
  %87 = load %"class.std::__1::basic_string"*, %"class.std::__1::basic_string"** %46, align 8
  %88 = getelementptr inbounds %"class.std::__1::basic_string", %"class.std::__1::basic_string"* %87, i32 0, i32 0
  store %"class.std::__1::__compressed_pair.2"* %88, %"class.std::__1::__compressed_pair.2"** %45, align 8
  %89 = load %"class.std::__1::__compressed_pair.2"*, %"class.std::__1::__compressed_pair.2"** %45, align 8
  %90 = bitcast %"class.std::__1::__compressed_pair.2"* %89 to %"class.std::__1::__libcpp_compressed_pair_imp.3"*
  store %"class.std::__1::__libcpp_compressed_pair_imp.3"* %90, %"class.std::__1::__libcpp_compressed_pair_imp.3"** %44, align 8
  %91 = load %"class.std::__1::__libcpp_compressed_pair_imp.3"*, %"class.std::__1::__libcpp_compressed_pair_imp.3"** %44, align 8
  %92 = getelementptr inbounds %"class.std::__1::__libcpp_compressed_pair_imp.3", %"class.std::__1::__libcpp_compressed_pair_imp.3"* %91, i32 0, i32 0
  %93 = getelementptr inbounds %"struct.std::__1::basic_string<char, std::__1::char_traits<char>, std::__1::allocator<char> >::__rep", %"struct.std::__1::basic_string<char, std::__1::char_traits<char>, std::__1::allocator<char> >::__rep"* %92, i32 0, i32 0
  %94 = bitcast %union.anon* %93 to %"struct.std::__1::basic_string<char, std::__1::char_traits<char>, std::__1::allocator<char> >::__long"*
  %95 = getelementptr inbounds %"struct.std::__1::basic_string<char, std::__1::char_traits<char>, std::__1::allocator<char> >::__long", %"struct.std::__1::basic_string<char, std::__1::char_traits<char>, std::__1::allocator<char> >::__long"* %94, i32 0, i32 1
  %96 = load i64, i64* %95, align 8
  br label %112

; <label>:97:                                     ; preds = %68
  store %"class.std::__1::basic_string"* %71, %"class.std::__1::basic_string"** %49, align 8
  %98 = load %"class.std::__1::basic_string"*, %"class.std::__1::basic_string"** %49, align 8
  %99 = getelementptr inbounds %"class.std::__1::basic_string", %"class.std::__1::basic_string"* %98, i32 0, i32 0
  store %"class.std::__1::__compressed_pair.2"* %99, %"class.std::__1::__compressed_pair.2"** %48, align 8
  %100 = load %"class.std::__1::__compressed_pair.2"*, %"class.std::__1::__compressed_pair.2"** %48, align 8
  %101 = bitcast %"class.std::__1::__compressed_pair.2"* %100 to %"class.std::__1::__libcpp_compressed_pair_imp.3"*
  store %"class.std::__1::__libcpp_compressed_pair_imp.3"* %101, %"class.std::__1::__libcpp_compressed_pair_imp.3"** %47, align 8
  %102 = load %"class.std::__1::__libcpp_compressed_pair_imp.3"*, %"class.std::__1::__libcpp_compressed_pair_imp.3"** %47, align 8
  %103 = getelementptr inbounds %"class.std::__1::__libcpp_compressed_pair_imp.3", %"class.std::__1::__libcpp_compressed_pair_imp.3"* %102, i32 0, i32 0
  %104 = getelementptr inbounds %"struct.std::__1::basic_string<char, std::__1::char_traits<char>, std::__1::allocator<char> >::__rep", %"struct.std::__1::basic_string<char, std::__1::char_traits<char>, std::__1::allocator<char> >::__rep"* %103, i32 0, i32 0
  %105 = bitcast %union.anon* %104 to %"struct.std::__1::basic_string<char, std::__1::char_traits<char>, std::__1::allocator<char> >::__short"*
  %106 = getelementptr inbounds %"struct.std::__1::basic_string<char, std::__1::char_traits<char>, std::__1::allocator<char> >::__short", %"struct.std::__1::basic_string<char, std::__1::char_traits<char>, std::__1::allocator<char> >::__short"* %105, i32 0, i32 0
  %107 = bitcast %union.anon.6* %106 to i8*
  %108 = load i8, i8* %107, align 8
  %109 = zext i8 %108 to i32
  %110 = ashr i32 %109, 1
  %111 = sext i32 %110 to i64
  br label %112

; <label>:112:                                    ; preds = %97, %86
  %113 = phi i64 [ %96, %86 ], [ %111, %97 ]
  store i64 %113, i64* %57, align 8
  %114 = load i64, i64* %57, align 8
  %115 = load %"class.std::__1::basic_string"*, %"class.std::__1::basic_string"** %56, align 8
  store %"class.std::__1::basic_string"* %115, %"class.std::__1::basic_string"** %43, align 8
  %116 = load %"class.std::__1::basic_string"*, %"class.std::__1::basic_string"** %43, align 8
  store %"class.std::__1::basic_string"* %116, %"class.std::__1::basic_string"** %42, align 8
  %117 = load %"class.std::__1::basic_string"*, %"class.std::__1::basic_string"** %42, align 8
  %118 = getelementptr inbounds %"class.std::__1::basic_string", %"class.std::__1::basic_string"* %117, i32 0, i32 0
  store %"class.std::__1::__compressed_pair.2"* %118, %"class.std::__1::__compressed_pair.2"** %41, align 8
  %119 = load %"class.std::__1::__compressed_pair.2"*, %"class.std::__1::__compressed_pair.2"** %41, align 8
  %120 = bitcast %"class.std::__1::__compressed_pair.2"* %119 to %"class.std::__1::__libcpp_compressed_pair_imp.3"*
  store %"class.std::__1::__libcpp_compressed_pair_imp.3"* %120, %"class.std::__1::__libcpp_compressed_pair_imp.3"** %40, align 8
  %121 = load %"class.std::__1::__libcpp_compressed_pair_imp.3"*, %"class.std::__1::__libcpp_compressed_pair_imp.3"** %40, align 8
  %122 = getelementptr inbounds %"class.std::__1::__libcpp_compressed_pair_imp.3", %"class.std::__1::__libcpp_compressed_pair_imp.3"* %121, i32 0, i32 0
  %123 = getelementptr inbounds %"struct.std::__1::basic_string<char, std::__1::char_traits<char>, std::__1::allocator<char> >::__rep", %"struct.std::__1::basic_string<char, std::__1::char_traits<char>, std::__1::allocator<char> >::__rep"* %122, i32 0, i32 0
  %124 = bitcast %union.anon* %123 to %"struct.std::__1::basic_string<char, std::__1::char_traits<char>, std::__1::allocator<char> >::__short"*
  %125 = getelementptr inbounds %"struct.std::__1::basic_string<char, std::__1::char_traits<char>, std::__1::allocator<char> >::__short", %"struct.std::__1::basic_string<char, std::__1::char_traits<char>, std::__1::allocator<char> >::__short"* %124, i32 0, i32 0
  %126 = bitcast %union.anon.6* %125 to i8*
  %127 = load i8, i8* %126, align 8
  %128 = zext i8 %127 to i32
  %129 = and i32 %128, 1
  %130 = icmp ne i32 %129, 0
  br i1 %130, label %131, label %142

; <label>:131:                                    ; preds = %112
  store %"class.std::__1::basic_string"* %116, %"class.std::__1::basic_string"** %36, align 8
  %132 = load %"class.std::__1::basic_string"*, %"class.std::__1::basic_string"** %36, align 8
  %133 = getelementptr inbounds %"class.std::__1::basic_string", %"class.std::__1::basic_string"* %132, i32 0, i32 0
  store %"class.std::__1::__compressed_pair.2"* %133, %"class.std::__1::__compressed_pair.2"** %35, align 8
  %134 = load %"class.std::__1::__compressed_pair.2"*, %"class.std::__1::__compressed_pair.2"** %35, align 8
  %135 = bitcast %"class.std::__1::__compressed_pair.2"* %134 to %"class.std::__1::__libcpp_compressed_pair_imp.3"*
  store %"class.std::__1::__libcpp_compressed_pair_imp.3"* %135, %"class.std::__1::__libcpp_compressed_pair_imp.3"** %34, align 8
  %136 = load %"class.std::__1::__libcpp_compressed_pair_imp.3"*, %"class.std::__1::__libcpp_compressed_pair_imp.3"** %34, align 8
  %137 = getelementptr inbounds %"class.std::__1::__libcpp_compressed_pair_imp.3", %"class.std::__1::__libcpp_compressed_pair_imp.3"* %136, i32 0, i32 0
  %138 = getelementptr inbounds %"struct.std::__1::basic_string<char, std::__1::char_traits<char>, std::__1::allocator<char> >::__rep", %"struct.std::__1::basic_string<char, std::__1::char_traits<char>, std::__1::allocator<char> >::__rep"* %137, i32 0, i32 0
  %139 = bitcast %union.anon* %138 to %"struct.std::__1::basic_string<char, std::__1::char_traits<char>, std::__1::allocator<char> >::__long"*
  %140 = getelementptr inbounds %"struct.std::__1::basic_string<char, std::__1::char_traits<char>, std::__1::allocator<char> >::__long", %"struct.std::__1::basic_string<char, std::__1::char_traits<char>, std::__1::allocator<char> >::__long"* %139, i32 0, i32 1
  %141 = load i64, i64* %140, align 8
  br label %157

; <label>:142:                                    ; preds = %112
  store %"class.std::__1::basic_string"* %116, %"class.std::__1::basic_string"** %39, align 8
  %143 = load %"class.std::__1::basic_string"*, %"class.std::__1::basic_string"** %39, align 8
  %144 = getelementptr inbounds %"class.std::__1::basic_string", %"class.std::__1::basic_string"* %143, i32 0, i32 0
  store %"class.std::__1::__compressed_pair.2"* %144, %"class.std::__1::__compressed_pair.2"** %38, align 8
  %145 = load %"class.std::__1::__compressed_pair.2"*, %"class.std::__1::__compressed_pair.2"** %38, align 8
  %146 = bitcast %"class.std::__1::__compressed_pair.2"* %145 to %"class.std::__1::__libcpp_compressed_pair_imp.3"*
  store %"class.std::__1::__libcpp_compressed_pair_imp.3"* %146, %"class.std::__1::__libcpp_compressed_pair_imp.3"** %37, align 8
  %147 = load %"class.std::__1::__libcpp_compressed_pair_imp.3"*, %"class.std::__1::__libcpp_compressed_pair_imp.3"** %37, align 8
  %148 = getelementptr inbounds %"class.std::__1::__libcpp_compressed_pair_imp.3", %"class.std::__1::__libcpp_compressed_pair_imp.3"* %147, i32 0, i32 0
  %149 = getelementptr inbounds %"struct.std::__1::basic_string<char, std::__1::char_traits<char>, std::__1::allocator<char> >::__rep", %"struct.std::__1::basic_string<char, std::__1::char_traits<char>, std::__1::allocator<char> >::__rep"* %148, i32 0, i32 0
  %150 = bitcast %union.anon* %149 to %"struct.std::__1::basic_string<char, std::__1::char_traits<char>, std::__1::allocator<char> >::__short"*
  %151 = getelementptr inbounds %"struct.std::__1::basic_string<char, std::__1::char_traits<char>, std::__1::allocator<char> >::__short", %"struct.std::__1::basic_string<char, std::__1::char_traits<char>, std::__1::allocator<char> >::__short"* %150, i32 0, i32 0
  %152 = bitcast %union.anon.6* %151 to i8*
  %153 = load i8, i8* %152, align 8
  %154 = zext i8 %153 to i32
  %155 = ashr i32 %154, 1
  %156 = sext i32 %155 to i64
  br label %157

; <label>:157:                                    ; preds = %142, %131
  %158 = phi i64 [ %141, %131 ], [ %156, %142 ]
  %159 = icmp ne i64 %114, %158
  br i1 %159, label %160, label %161

; <label>:160:                                    ; preds = %157
  store i1 false, i1* %54, align 1
  br label %296

; <label>:161:                                    ; preds = %157
  %162 = load %"class.std::__1::basic_string"*, %"class.std::__1::basic_string"** %55, align 8
  store %"class.std::__1::basic_string"* %162, %"class.std::__1::basic_string"** %33, align 8
  %163 = load %"class.std::__1::basic_string"*, %"class.std::__1::basic_string"** %33, align 8
  store %"class.std::__1::basic_string"* %163, %"class.std::__1::basic_string"** %32, align 8
  %164 = load %"class.std::__1::basic_string"*, %"class.std::__1::basic_string"** %32, align 8
  store %"class.std::__1::basic_string"* %164, %"class.std::__1::basic_string"** %31, align 8
  %165 = load %"class.std::__1::basic_string"*, %"class.std::__1::basic_string"** %31, align 8
  %166 = getelementptr inbounds %"class.std::__1::basic_string", %"class.std::__1::basic_string"* %165, i32 0, i32 0
  store %"class.std::__1::__compressed_pair.2"* %166, %"class.std::__1::__compressed_pair.2"** %30, align 8
  %167 = load %"class.std::__1::__compressed_pair.2"*, %"class.std::__1::__compressed_pair.2"** %30, align 8
  %168 = bitcast %"class.std::__1::__compressed_pair.2"* %167 to %"class.std::__1::__libcpp_compressed_pair_imp.3"*
  store %"class.std::__1::__libcpp_compressed_pair_imp.3"* %168, %"class.std::__1::__libcpp_compressed_pair_imp.3"** %29, align 8
  %169 = load %"class.std::__1::__libcpp_compressed_pair_imp.3"*, %"class.std::__1::__libcpp_compressed_pair_imp.3"** %29, align 8
  %170 = getelementptr inbounds %"class.std::__1::__libcpp_compressed_pair_imp.3", %"class.std::__1::__libcpp_compressed_pair_imp.3"* %169, i32 0, i32 0
  %171 = getelementptr inbounds %"struct.std::__1::basic_string<char, std::__1::char_traits<char>, std::__1::allocator<char> >::__rep", %"struct.std::__1::basic_string<char, std::__1::char_traits<char>, std::__1::allocator<char> >::__rep"* %170, i32 0, i32 0
  %172 = bitcast %union.anon* %171 to %"struct.std::__1::basic_string<char, std::__1::char_traits<char>, std::__1::allocator<char> >::__short"*
  %173 = getelementptr inbounds %"struct.std::__1::basic_string<char, std::__1::char_traits<char>, std::__1::allocator<char> >::__short", %"struct.std::__1::basic_string<char, std::__1::char_traits<char>, std::__1::allocator<char> >::__short"* %172, i32 0, i32 0
  %174 = bitcast %union.anon.6* %173 to i8*
  %175 = load i8, i8* %174, align 8
  %176 = zext i8 %175 to i32
  %177 = and i32 %176, 1
  %178 = icmp ne i32 %177, 0
  br i1 %178, label %179, label %190

; <label>:179:                                    ; preds = %161
  store %"class.std::__1::basic_string"* %164, %"class.std::__1::basic_string"** %23, align 8
  %180 = load %"class.std::__1::basic_string"*, %"class.std::__1::basic_string"** %23, align 8
  %181 = getelementptr inbounds %"class.std::__1::basic_string", %"class.std::__1::basic_string"* %180, i32 0, i32 0
  store %"class.std::__1::__compressed_pair.2"* %181, %"class.std::__1::__compressed_pair.2"** %22, align 8
  %182 = load %"class.std::__1::__compressed_pair.2"*, %"class.std::__1::__compressed_pair.2"** %22, align 8
  %183 = bitcast %"class.std::__1::__compressed_pair.2"* %182 to %"class.std::__1::__libcpp_compressed_pair_imp.3"*
  store %"class.std::__1::__libcpp_compressed_pair_imp.3"* %183, %"class.std::__1::__libcpp_compressed_pair_imp.3"** %21, align 8
  %184 = load %"class.std::__1::__libcpp_compressed_pair_imp.3"*, %"class.std::__1::__libcpp_compressed_pair_imp.3"** %21, align 8
  %185 = getelementptr inbounds %"class.std::__1::__libcpp_compressed_pair_imp.3", %"class.std::__1::__libcpp_compressed_pair_imp.3"* %184, i32 0, i32 0
  %186 = getelementptr inbounds %"struct.std::__1::basic_string<char, std::__1::char_traits<char>, std::__1::allocator<char> >::__rep", %"struct.std::__1::basic_string<char, std::__1::char_traits<char>, std::__1::allocator<char> >::__rep"* %185, i32 0, i32 0
  %187 = bitcast %union.anon* %186 to %"struct.std::__1::basic_string<char, std::__1::char_traits<char>, std::__1::allocator<char> >::__long"*
  %188 = getelementptr inbounds %"struct.std::__1::basic_string<char, std::__1::char_traits<char>, std::__1::allocator<char> >::__long", %"struct.std::__1::basic_string<char, std::__1::char_traits<char>, std::__1::allocator<char> >::__long"* %187, i32 0, i32 2
  %189 = load i8*, i8** %188, align 8
  br label %203

; <label>:190:                                    ; preds = %161
  store %"class.std::__1::basic_string"* %164, %"class.std::__1::basic_string"** %28, align 8
  %191 = load %"class.std::__1::basic_string"*, %"class.std::__1::basic_string"** %28, align 8
  %192 = getelementptr inbounds %"class.std::__1::basic_string", %"class.std::__1::basic_string"* %191, i32 0, i32 0
  store %"class.std::__1::__compressed_pair.2"* %192, %"class.std::__1::__compressed_pair.2"** %27, align 8
  %193 = load %"class.std::__1::__compressed_pair.2"*, %"class.std::__1::__compressed_pair.2"** %27, align 8
  %194 = bitcast %"class.std::__1::__compressed_pair.2"* %193 to %"class.std::__1::__libcpp_compressed_pair_imp.3"*
  store %"class.std::__1::__libcpp_compressed_pair_imp.3"* %194, %"class.std::__1::__libcpp_compressed_pair_imp.3"** %26, align 8
  %195 = load %"class.std::__1::__libcpp_compressed_pair_imp.3"*, %"class.std::__1::__libcpp_compressed_pair_imp.3"** %26, align 8
  %196 = getelementptr inbounds %"class.std::__1::__libcpp_compressed_pair_imp.3", %"class.std::__1::__libcpp_compressed_pair_imp.3"* %195, i32 0, i32 0
  %197 = getelementptr inbounds %"struct.std::__1::basic_string<char, std::__1::char_traits<char>, std::__1::allocator<char> >::__rep", %"struct.std::__1::basic_string<char, std::__1::char_traits<char>, std::__1::allocator<char> >::__rep"* %196, i32 0, i32 0
  %198 = bitcast %union.anon* %197 to %"struct.std::__1::basic_string<char, std::__1::char_traits<char>, std::__1::allocator<char> >::__short"*
  %199 = getelementptr inbounds %"struct.std::__1::basic_string<char, std::__1::char_traits<char>, std::__1::allocator<char> >::__short", %"struct.std::__1::basic_string<char, std::__1::char_traits<char>, std::__1::allocator<char> >::__short"* %198, i32 0, i32 1
  %200 = getelementptr inbounds [23 x i8], [23 x i8]* %199, i64 0, i64 0
  store i8* %200, i8** %25, align 8
  %201 = load i8*, i8** %25, align 8
  store i8* %201, i8** %24, align 8
  %202 = load i8*, i8** %24, align 8
  br label %203

; <label>:203:                                    ; preds = %190, %179
  %204 = phi i8* [ %189, %179 ], [ %202, %190 ]
  store i8* %204, i8** %20, align 8
  %205 = load i8*, i8** %20, align 8
  store i8* %205, i8** %58, align 8
  %206 = load %"class.std::__1::basic_string"*, %"class.std::__1::basic_string"** %56, align 8
  store %"class.std::__1::basic_string"* %206, %"class.std::__1::basic_string"** %16, align 8
  %207 = load %"class.std::__1::basic_string"*, %"class.std::__1::basic_string"** %16, align 8
  store %"class.std::__1::basic_string"* %207, %"class.std::__1::basic_string"** %15, align 8
  %208 = load %"class.std::__1::basic_string"*, %"class.std::__1::basic_string"** %15, align 8
  store %"class.std::__1::basic_string"* %208, %"class.std::__1::basic_string"** %14, align 8
  %209 = load %"class.std::__1::basic_string"*, %"class.std::__1::basic_string"** %14, align 8
  %210 = getelementptr inbounds %"class.std::__1::basic_string", %"class.std::__1::basic_string"* %209, i32 0, i32 0
  store %"class.std::__1::__compressed_pair.2"* %210, %"class.std::__1::__compressed_pair.2"** %13, align 8
  %211 = load %"class.std::__1::__compressed_pair.2"*, %"class.std::__1::__compressed_pair.2"** %13, align 8
  %212 = bitcast %"class.std::__1::__compressed_pair.2"* %211 to %"class.std::__1::__libcpp_compressed_pair_imp.3"*
  store %"class.std::__1::__libcpp_compressed_pair_imp.3"* %212, %"class.std::__1::__libcpp_compressed_pair_imp.3"** %12, align 8
  %213 = load %"class.std::__1::__libcpp_compressed_pair_imp.3"*, %"class.std::__1::__libcpp_compressed_pair_imp.3"** %12, align 8
  %214 = getelementptr inbounds %"class.std::__1::__libcpp_compressed_pair_imp.3", %"class.std::__1::__libcpp_compressed_pair_imp.3"* %213, i32 0, i32 0
  %215 = getelementptr inbounds %"struct.std::__1::basic_string<char, std::__1::char_traits<char>, std::__1::allocator<char> >::__rep", %"struct.std::__1::basic_string<char, std::__1::char_traits<char>, std::__1::allocator<char> >::__rep"* %214, i32 0, i32 0
  %216 = bitcast %union.anon* %215 to %"struct.std::__1::basic_string<char, std::__1::char_traits<char>, std::__1::allocator<char> >::__short"*
  %217 = getelementptr inbounds %"struct.std::__1::basic_string<char, std::__1::char_traits<char>, std::__1::allocator<char> >::__short", %"struct.std::__1::basic_string<char, std::__1::char_traits<char>, std::__1::allocator<char> >::__short"* %216, i32 0, i32 0
  %218 = bitcast %union.anon.6* %217 to i8*
  %219 = load i8, i8* %218, align 8
  %220 = zext i8 %219 to i32
  %221 = and i32 %220, 1
  %222 = icmp ne i32 %221, 0
  br i1 %222, label %223, label %234

; <label>:223:                                    ; preds = %203
  store %"class.std::__1::basic_string"* %208, %"class.std::__1::basic_string"** %6, align 8
  %224 = load %"class.std::__1::basic_string"*, %"class.std::__1::basic_string"** %6, align 8
  %225 = getelementptr inbounds %"class.std::__1::basic_string", %"class.std::__1::basic_string"* %224, i32 0, i32 0
  store %"class.std::__1::__compressed_pair.2"* %225, %"class.std::__1::__compressed_pair.2"** %5, align 8
  %226 = load %"class.std::__1::__compressed_pair.2"*, %"class.std::__1::__compressed_pair.2"** %5, align 8
  %227 = bitcast %"class.std::__1::__compressed_pair.2"* %226 to %"class.std::__1::__libcpp_compressed_pair_imp.3"*
  store %"class.std::__1::__libcpp_compressed_pair_imp.3"* %227, %"class.std::__1::__libcpp_compressed_pair_imp.3"** %4, align 8
  %228 = load %"class.std::__1::__libcpp_compressed_pair_imp.3"*, %"class.std::__1::__libcpp_compressed_pair_imp.3"** %4, align 8
  %229 = getelementptr inbounds %"class.std::__1::__libcpp_compressed_pair_imp.3", %"class.std::__1::__libcpp_compressed_pair_imp.3"* %228, i32 0, i32 0
  %230 = getelementptr inbounds %"struct.std::__1::basic_string<char, std::__1::char_traits<char>, std::__1::allocator<char> >::__rep", %"struct.std::__1::basic_string<char, std::__1::char_traits<char>, std::__1::allocator<char> >::__rep"* %229, i32 0, i32 0
  %231 = bitcast %union.anon* %230 to %"struct.std::__1::basic_string<char, std::__1::char_traits<char>, std::__1::allocator<char> >::__long"*
  %232 = getelementptr inbounds %"struct.std::__1::basic_string<char, std::__1::char_traits<char>, std::__1::allocator<char> >::__long", %"struct.std::__1::basic_string<char, std::__1::char_traits<char>, std::__1::allocator<char> >::__long"* %231, i32 0, i32 2
  %233 = load i8*, i8** %232, align 8
  br label %247

; <label>:234:                                    ; preds = %203
  store %"class.std::__1::basic_string"* %208, %"class.std::__1::basic_string"** %11, align 8
  %235 = load %"class.std::__1::basic_string"*, %"class.std::__1::basic_string"** %11, align 8
  %236 = getelementptr inbounds %"class.std::__1::basic_string", %"class.std::__1::basic_string"* %235, i32 0, i32 0
  store %"class.std::__1::__compressed_pair.2"* %236, %"class.std::__1::__compressed_pair.2"** %10, align 8
  %237 = load %"class.std::__1::__compressed_pair.2"*, %"class.std::__1::__compressed_pair.2"** %10, align 8
  %238 = bitcast %"class.std::__1::__compressed_pair.2"* %237 to %"class.std::__1::__libcpp_compressed_pair_imp.3"*
  store %"class.std::__1::__libcpp_compressed_pair_imp.3"* %238, %"class.std::__1::__libcpp_compressed_pair_imp.3"** %9, align 8
  %239 = load %"class.std::__1::__libcpp_compressed_pair_imp.3"*, %"class.std::__1::__libcpp_compressed_pair_imp.3"** %9, align 8
  %240 = getelementptr inbounds %"class.std::__1::__libcpp_compressed_pair_imp.3", %"class.std::__1::__libcpp_compressed_pair_imp.3"* %239, i32 0, i32 0
  %241 = getelementptr inbounds %"struct.std::__1::basic_string<char, std::__1::char_traits<char>, std::__1::allocator<char> >::__rep", %"struct.std::__1::basic_string<char, std::__1::char_traits<char>, std::__1::allocator<char> >::__rep"* %240, i32 0, i32 0
  %242 = bitcast %union.anon* %241 to %"struct.std::__1::basic_string<char, std::__1::char_traits<char>, std::__1::allocator<char> >::__short"*
  %243 = getelementptr inbounds %"struct.std::__1::basic_string<char, std::__1::char_traits<char>, std::__1::allocator<char> >::__short", %"struct.std::__1::basic_string<char, std::__1::char_traits<char>, std::__1::allocator<char> >::__short"* %242, i32 0, i32 1
  %244 = getelementptr inbounds [23 x i8], [23 x i8]* %243, i64 0, i64 0
  store i8* %244, i8** %8, align 8
  %245 = load i8*, i8** %8, align 8
  store i8* %245, i8** %7, align 8
  %246 = load i8*, i8** %7, align 8
  br label %247

; <label>:247:                                    ; preds = %234, %223
  %248 = phi i8* [ %233, %223 ], [ %246, %234 ]
  store i8* %248, i8** %3, align 8
  %249 = load i8*, i8** %3, align 8
  store i8* %249, i8** %59, align 8
  %250 = load %"class.std::__1::basic_string"*, %"class.std::__1::basic_string"** %55, align 8
  store %"class.std::__1::basic_string"* %250, %"class.std::__1::basic_string"** %19, align 8
  %251 = load %"class.std::__1::basic_string"*, %"class.std::__1::basic_string"** %19, align 8
  %252 = getelementptr inbounds %"class.std::__1::basic_string", %"class.std::__1::basic_string"* %251, i32 0, i32 0
  store %"class.std::__1::__compressed_pair.2"* %252, %"class.std::__1::__compressed_pair.2"** %18, align 8
  %253 = load %"class.std::__1::__compressed_pair.2"*, %"class.std::__1::__compressed_pair.2"** %18, align 8
  %254 = bitcast %"class.std::__1::__compressed_pair.2"* %253 to %"class.std::__1::__libcpp_compressed_pair_imp.3"*
  store %"class.std::__1::__libcpp_compressed_pair_imp.3"* %254, %"class.std::__1::__libcpp_compressed_pair_imp.3"** %17, align 8
  %255 = load %"class.std::__1::__libcpp_compressed_pair_imp.3"*, %"class.std::__1::__libcpp_compressed_pair_imp.3"** %17, align 8
  %256 = getelementptr inbounds %"class.std::__1::__libcpp_compressed_pair_imp.3", %"class.std::__1::__libcpp_compressed_pair_imp.3"* %255, i32 0, i32 0
  %257 = getelementptr inbounds %"struct.std::__1::basic_string<char, std::__1::char_traits<char>, std::__1::allocator<char> >::__rep", %"struct.std::__1::basic_string<char, std::__1::char_traits<char>, std::__1::allocator<char> >::__rep"* %256, i32 0, i32 0
  %258 = bitcast %union.anon* %257 to %"struct.std::__1::basic_string<char, std::__1::char_traits<char>, std::__1::allocator<char> >::__short"*
  %259 = getelementptr inbounds %"struct.std::__1::basic_string<char, std::__1::char_traits<char>, std::__1::allocator<char> >::__short", %"struct.std::__1::basic_string<char, std::__1::char_traits<char>, std::__1::allocator<char> >::__short"* %258, i32 0, i32 0
  %260 = bitcast %union.anon.6* %259 to i8*
  %261 = load i8, i8* %260, align 8
  %262 = zext i8 %261 to i32
  %263 = and i32 %262, 1
  %264 = icmp ne i32 %263, 0
  br i1 %264, label %265, label %272

; <label>:265:                                    ; preds = %247
  %266 = load i8*, i8** %58, align 8
  %267 = load i8*, i8** %59, align 8
  %268 = load i64, i64* %57, align 8
  %269 = invoke i32 @_ZNSt3__111char_traitsIcE7compareEPKcS3_m(i8* %266, i8* %267, i64 %268)
          to label %270 unwind label %293

; <label>:270:                                    ; preds = %265
  %271 = icmp eq i32 %269, 0
  store i1 %271, i1* %54, align 1
  br label %296

; <label>:272:                                    ; preds = %247
  br label %273

; <label>:273:                                    ; preds = %285, %272
  %274 = load i64, i64* %57, align 8
  %275 = icmp ne i64 %274, 0
  br i1 %275, label %276, label %292

; <label>:276:                                    ; preds = %273
  %277 = load i8*, i8** %58, align 8
  %278 = load i8, i8* %277, align 1
  %279 = sext i8 %278 to i32
  %280 = load i8*, i8** %59, align 8
  %281 = load i8, i8* %280, align 1
  %282 = sext i8 %281 to i32
  %283 = icmp ne i32 %279, %282
  br i1 %283, label %284, label %285

; <label>:284:                                    ; preds = %276
  store i1 false, i1* %54, align 1
  br label %296

; <label>:285:                                    ; preds = %276
  %286 = load i64, i64* %57, align 8
  %287 = add i64 %286, -1
  store i64 %287, i64* %57, align 8
  %288 = load i8*, i8** %58, align 8
  %289 = getelementptr inbounds i8, i8* %288, i32 1
  store i8* %289, i8** %58, align 8
  %290 = load i8*, i8** %59, align 8
  %291 = getelementptr inbounds i8, i8* %290, i32 1
  store i8* %291, i8** %59, align 8
  br label %273

; <label>:292:                                    ; preds = %273
  store i1 true, i1* %54, align 1
  br label %296

; <label>:293:                                    ; preds = %265
  %294 = landingpad { i8*, i32 }
          catch i8* null
  %295 = extractvalue { i8*, i32 } %294, 0
  call void @__clang_call_terminate(i8* %295) #11
  unreachable

; <label>:296:                                    ; preds = %160, %270, %284, %292
  %297 = load i1, i1* %54, align 1
  br label %298

; <label>:298:                                    ; preds = %296, %2
  %299 = phi i1 [ false, %2 ], [ %297, %296 ]
  store i1 %299, i1* %60, align 1
  %300 = load i1, i1* %63, align 1
  br i1 %300, label %301, label %302

; <label>:301:                                    ; preds = %298
  call void @_ZNSt3__112basic_stringIcNS_11char_traitsIcEENS_9allocatorIcEEED1Ev(%"class.std::__1::basic_string"* %62) #2
  br label %302

; <label>:302:                                    ; preds = %301, %298
  %303 = load i1, i1* %60, align 1
  ret i1 %303
}

declare void @_ZN7Variant3getINSt3__112basic_stringIcNS1_11char_traitsIcEENS1_9allocatorIcEEEEEET_v(%"class.std::__1::basic_string"* sret, %struct.Variant*) #3

; Function Attrs: nounwind
declare void @_ZNSt3__112basic_stringIcNS_11char_traitsIcEENS_9allocatorIcEEED1Ev(%"class.std::__1::basic_string"*) unnamed_addr #5

; Function Attrs: nounwind ssp uwtable
define zeroext i1 @_ZN5Token10is_literalE11LiteralType(%class.Token*, i32) #4 align 2 {
  %3 = alloca %class.Token*, align 8
  %4 = alloca i32, align 4
  store %class.Token* %0, %class.Token** %3, align 8
  store i32 %1, i32* %4, align 4
  %5 = load %class.Token*, %class.Token** %3, align 8
  %6 = getelementptr inbounds %class.Token, %class.Token* %5, i32 0, i32 1
  %7 = load i32, i32* %6, align 8
  %8 = icmp eq i32 %7, 5
  br i1 %8, label %9, label %14

; <label>:9:                                      ; preds = %2
  %10 = getelementptr inbounds %class.Token, %class.Token* %5, i32 0, i32 6
  %11 = load i32, i32* %10, align 4
  %12 = load i32, i32* %4, align 4
  %13 = icmp eq i32 %11, %12
  br label %14

; <label>:14:                                     ; preds = %9, %2
  %15 = phi i1 [ false, %2 ], [ %13, %9 ]
  ret i1 %15
}

; Function Attrs: ssp uwtable
define zeroext i1 @_ZN5Token11is_operatorENSt3__112basic_stringIcNS0_11char_traitsIcEENS0_9allocatorIcEEEE(%class.Token*, %"class.std::__1::basic_string"*) #0 align 2 personality i32 (...)* @__gxx_personality_v0 {
  %3 = alloca i8*, align 8
  %4 = alloca %"class.std::__1::__libcpp_compressed_pair_imp.3"*, align 8
  %5 = alloca %"class.std::__1::__compressed_pair.2"*, align 8
  %6 = alloca %"class.std::__1::basic_string"*, align 8
  %7 = alloca i8*, align 8
  %8 = alloca i8*, align 8
  %9 = alloca %"class.std::__1::__libcpp_compressed_pair_imp.3"*, align 8
  %10 = alloca %"class.std::__1::__compressed_pair.2"*, align 8
  %11 = alloca %"class.std::__1::basic_string"*, align 8
  %12 = alloca %"class.std::__1::__libcpp_compressed_pair_imp.3"*, align 8
  %13 = alloca %"class.std::__1::__compressed_pair.2"*, align 8
  %14 = alloca %"class.std::__1::basic_string"*, align 8
  %15 = alloca %"class.std::__1::basic_string"*, align 8
  %16 = alloca %"class.std::__1::basic_string"*, align 8
  %17 = alloca %"class.std::__1::__libcpp_compressed_pair_imp.3"*, align 8
  %18 = alloca %"class.std::__1::__compressed_pair.2"*, align 8
  %19 = alloca %"class.std::__1::basic_string"*, align 8
  %20 = alloca i8*, align 8
  %21 = alloca %"class.std::__1::__libcpp_compressed_pair_imp.3"*, align 8
  %22 = alloca %"class.std::__1::__compressed_pair.2"*, align 8
  %23 = alloca %"class.std::__1::basic_string"*, align 8
  %24 = alloca i8*, align 8
  %25 = alloca i8*, align 8
  %26 = alloca %"class.std::__1::__libcpp_compressed_pair_imp.3"*, align 8
  %27 = alloca %"class.std::__1::__compressed_pair.2"*, align 8
  %28 = alloca %"class.std::__1::basic_string"*, align 8
  %29 = alloca %"class.std::__1::__libcpp_compressed_pair_imp.3"*, align 8
  %30 = alloca %"class.std::__1::__compressed_pair.2"*, align 8
  %31 = alloca %"class.std::__1::basic_string"*, align 8
  %32 = alloca %"class.std::__1::basic_string"*, align 8
  %33 = alloca %"class.std::__1::basic_string"*, align 8
  %34 = alloca %"class.std::__1::__libcpp_compressed_pair_imp.3"*, align 8
  %35 = alloca %"class.std::__1::__compressed_pair.2"*, align 8
  %36 = alloca %"class.std::__1::basic_string"*, align 8
  %37 = alloca %"class.std::__1::__libcpp_compressed_pair_imp.3"*, align 8
  %38 = alloca %"class.std::__1::__compressed_pair.2"*, align 8
  %39 = alloca %"class.std::__1::basic_string"*, align 8
  %40 = alloca %"class.std::__1::__libcpp_compressed_pair_imp.3"*, align 8
  %41 = alloca %"class.std::__1::__compressed_pair.2"*, align 8
  %42 = alloca %"class.std::__1::basic_string"*, align 8
  %43 = alloca %"class.std::__1::basic_string"*, align 8
  %44 = alloca %"class.std::__1::__libcpp_compressed_pair_imp.3"*, align 8
  %45 = alloca %"class.std::__1::__compressed_pair.2"*, align 8
  %46 = alloca %"class.std::__1::basic_string"*, align 8
  %47 = alloca %"class.std::__1::__libcpp_compressed_pair_imp.3"*, align 8
  %48 = alloca %"class.std::__1::__compressed_pair.2"*, align 8
  %49 = alloca %"class.std::__1::basic_string"*, align 8
  %50 = alloca %"class.std::__1::__libcpp_compressed_pair_imp.3"*, align 8
  %51 = alloca %"class.std::__1::__compressed_pair.2"*, align 8
  %52 = alloca %"class.std::__1::basic_string"*, align 8
  %53 = alloca %"class.std::__1::basic_string"*, align 8
  %54 = alloca i1, align 1
  %55 = alloca %"class.std::__1::basic_string"*, align 8
  %56 = alloca %"class.std::__1::basic_string"*, align 8
  %57 = alloca i64, align 8
  %58 = alloca i8*, align 8
  %59 = alloca i8*, align 8
  %60 = alloca i1, align 1
  %61 = alloca %class.Token*, align 8
  %62 = alloca %"class.std::__1::basic_string", align 8
  %63 = alloca i1, align 1
  store %class.Token* %0, %class.Token** %61, align 8
  %64 = load %class.Token*, %class.Token** %61, align 8
  %65 = getelementptr inbounds %class.Token, %class.Token* %64, i32 0, i32 1
  %66 = load i32, i32* %65, align 8
  %67 = icmp eq i32 %66, 4
  store i1 false, i1* %63, align 1
  br i1 %67, label %68, label %298

; <label>:68:                                     ; preds = %2
  %69 = getelementptr inbounds %class.Token, %class.Token* %64, i32 0, i32 0
  call void @_ZN7Variant3getINSt3__112basic_stringIcNS1_11char_traitsIcEENS1_9allocatorIcEEEEEET_v(%"class.std::__1::basic_string"* sret %62, %struct.Variant* %69)
  store i1 true, i1* %63, align 1
  store %"class.std::__1::basic_string"* %62, %"class.std::__1::basic_string"** %55, align 8
  store %"class.std::__1::basic_string"* %1, %"class.std::__1::basic_string"** %56, align 8
  %70 = load %"class.std::__1::basic_string"*, %"class.std::__1::basic_string"** %55, align 8
  store %"class.std::__1::basic_string"* %70, %"class.std::__1::basic_string"** %53, align 8
  %71 = load %"class.std::__1::basic_string"*, %"class.std::__1::basic_string"** %53, align 8
  store %"class.std::__1::basic_string"* %71, %"class.std::__1::basic_string"** %52, align 8
  %72 = load %"class.std::__1::basic_string"*, %"class.std::__1::basic_string"** %52, align 8
  %73 = getelementptr inbounds %"class.std::__1::basic_string", %"class.std::__1::basic_string"* %72, i32 0, i32 0
  store %"class.std::__1::__compressed_pair.2"* %73, %"class.std::__1::__compressed_pair.2"** %51, align 8
  %74 = load %"class.std::__1::__compressed_pair.2"*, %"class.std::__1::__compressed_pair.2"** %51, align 8
  %75 = bitcast %"class.std::__1::__compressed_pair.2"* %74 to %"class.std::__1::__libcpp_compressed_pair_imp.3"*
  store %"class.std::__1::__libcpp_compressed_pair_imp.3"* %75, %"class.std::__1::__libcpp_compressed_pair_imp.3"** %50, align 8
  %76 = load %"class.std::__1::__libcpp_compressed_pair_imp.3"*, %"class.std::__1::__libcpp_compressed_pair_imp.3"** %50, align 8
  %77 = getelementptr inbounds %"class.std::__1::__libcpp_compressed_pair_imp.3", %"class.std::__1::__libcpp_compressed_pair_imp.3"* %76, i32 0, i32 0
  %78 = getelementptr inbounds %"struct.std::__1::basic_string<char, std::__1::char_traits<char>, std::__1::allocator<char> >::__rep", %"struct.std::__1::basic_string<char, std::__1::char_traits<char>, std::__1::allocator<char> >::__rep"* %77, i32 0, i32 0
  %79 = bitcast %union.anon* %78 to %"struct.std::__1::basic_string<char, std::__1::char_traits<char>, std::__1::allocator<char> >::__short"*
  %80 = getelementptr inbounds %"struct.std::__1::basic_string<char, std::__1::char_traits<char>, std::__1::allocator<char> >::__short", %"struct.std::__1::basic_string<char, std::__1::char_traits<char>, std::__1::allocator<char> >::__short"* %79, i32 0, i32 0
  %81 = bitcast %union.anon.6* %80 to i8*
  %82 = load i8, i8* %81, align 8
  %83 = zext i8 %82 to i32
  %84 = and i32 %83, 1
  %85 = icmp ne i32 %84, 0
  br i1 %85, label %86, label %97

; <label>:86:                                     ; preds = %68
  store %"class.std::__1::basic_string"* %71, %"class.std::__1::basic_string"** %46, align 8
  %87 = load %"class.std::__1::basic_string"*, %"class.std::__1::basic_string"** %46, align 8
  %88 = getelementptr inbounds %"class.std::__1::basic_string", %"class.std::__1::basic_string"* %87, i32 0, i32 0
  store %"class.std::__1::__compressed_pair.2"* %88, %"class.std::__1::__compressed_pair.2"** %45, align 8
  %89 = load %"class.std::__1::__compressed_pair.2"*, %"class.std::__1::__compressed_pair.2"** %45, align 8
  %90 = bitcast %"class.std::__1::__compressed_pair.2"* %89 to %"class.std::__1::__libcpp_compressed_pair_imp.3"*
  store %"class.std::__1::__libcpp_compressed_pair_imp.3"* %90, %"class.std::__1::__libcpp_compressed_pair_imp.3"** %44, align 8
  %91 = load %"class.std::__1::__libcpp_compressed_pair_imp.3"*, %"class.std::__1::__libcpp_compressed_pair_imp.3"** %44, align 8
  %92 = getelementptr inbounds %"class.std::__1::__libcpp_compressed_pair_imp.3", %"class.std::__1::__libcpp_compressed_pair_imp.3"* %91, i32 0, i32 0
  %93 = getelementptr inbounds %"struct.std::__1::basic_string<char, std::__1::char_traits<char>, std::__1::allocator<char> >::__rep", %"struct.std::__1::basic_string<char, std::__1::char_traits<char>, std::__1::allocator<char> >::__rep"* %92, i32 0, i32 0
  %94 = bitcast %union.anon* %93 to %"struct.std::__1::basic_string<char, std::__1::char_traits<char>, std::__1::allocator<char> >::__long"*
  %95 = getelementptr inbounds %"struct.std::__1::basic_string<char, std::__1::char_traits<char>, std::__1::allocator<char> >::__long", %"struct.std::__1::basic_string<char, std::__1::char_traits<char>, std::__1::allocator<char> >::__long"* %94, i32 0, i32 1
  %96 = load i64, i64* %95, align 8
  br label %112

; <label>:97:                                     ; preds = %68
  store %"class.std::__1::basic_string"* %71, %"class.std::__1::basic_string"** %49, align 8
  %98 = load %"class.std::__1::basic_string"*, %"class.std::__1::basic_string"** %49, align 8
  %99 = getelementptr inbounds %"class.std::__1::basic_string", %"class.std::__1::basic_string"* %98, i32 0, i32 0
  store %"class.std::__1::__compressed_pair.2"* %99, %"class.std::__1::__compressed_pair.2"** %48, align 8
  %100 = load %"class.std::__1::__compressed_pair.2"*, %"class.std::__1::__compressed_pair.2"** %48, align 8
  %101 = bitcast %"class.std::__1::__compressed_pair.2"* %100 to %"class.std::__1::__libcpp_compressed_pair_imp.3"*
  store %"class.std::__1::__libcpp_compressed_pair_imp.3"* %101, %"class.std::__1::__libcpp_compressed_pair_imp.3"** %47, align 8
  %102 = load %"class.std::__1::__libcpp_compressed_pair_imp.3"*, %"class.std::__1::__libcpp_compressed_pair_imp.3"** %47, align 8
  %103 = getelementptr inbounds %"class.std::__1::__libcpp_compressed_pair_imp.3", %"class.std::__1::__libcpp_compressed_pair_imp.3"* %102, i32 0, i32 0
  %104 = getelementptr inbounds %"struct.std::__1::basic_string<char, std::__1::char_traits<char>, std::__1::allocator<char> >::__rep", %"struct.std::__1::basic_string<char, std::__1::char_traits<char>, std::__1::allocator<char> >::__rep"* %103, i32 0, i32 0
  %105 = bitcast %union.anon* %104 to %"struct.std::__1::basic_string<char, std::__1::char_traits<char>, std::__1::allocator<char> >::__short"*
  %106 = getelementptr inbounds %"struct.std::__1::basic_string<char, std::__1::char_traits<char>, std::__1::allocator<char> >::__short", %"struct.std::__1::basic_string<char, std::__1::char_traits<char>, std::__1::allocator<char> >::__short"* %105, i32 0, i32 0
  %107 = bitcast %union.anon.6* %106 to i8*
  %108 = load i8, i8* %107, align 8
  %109 = zext i8 %108 to i32
  %110 = ashr i32 %109, 1
  %111 = sext i32 %110 to i64
  br label %112

; <label>:112:                                    ; preds = %97, %86
  %113 = phi i64 [ %96, %86 ], [ %111, %97 ]
  store i64 %113, i64* %57, align 8
  %114 = load i64, i64* %57, align 8
  %115 = load %"class.std::__1::basic_string"*, %"class.std::__1::basic_string"** %56, align 8
  store %"class.std::__1::basic_string"* %115, %"class.std::__1::basic_string"** %43, align 8
  %116 = load %"class.std::__1::basic_string"*, %"class.std::__1::basic_string"** %43, align 8
  store %"class.std::__1::basic_string"* %116, %"class.std::__1::basic_string"** %42, align 8
  %117 = load %"class.std::__1::basic_string"*, %"class.std::__1::basic_string"** %42, align 8
  %118 = getelementptr inbounds %"class.std::__1::basic_string", %"class.std::__1::basic_string"* %117, i32 0, i32 0
  store %"class.std::__1::__compressed_pair.2"* %118, %"class.std::__1::__compressed_pair.2"** %41, align 8
  %119 = load %"class.std::__1::__compressed_pair.2"*, %"class.std::__1::__compressed_pair.2"** %41, align 8
  %120 = bitcast %"class.std::__1::__compressed_pair.2"* %119 to %"class.std::__1::__libcpp_compressed_pair_imp.3"*
  store %"class.std::__1::__libcpp_compressed_pair_imp.3"* %120, %"class.std::__1::__libcpp_compressed_pair_imp.3"** %40, align 8
  %121 = load %"class.std::__1::__libcpp_compressed_pair_imp.3"*, %"class.std::__1::__libcpp_compressed_pair_imp.3"** %40, align 8
  %122 = getelementptr inbounds %"class.std::__1::__libcpp_compressed_pair_imp.3", %"class.std::__1::__libcpp_compressed_pair_imp.3"* %121, i32 0, i32 0
  %123 = getelementptr inbounds %"struct.std::__1::basic_string<char, std::__1::char_traits<char>, std::__1::allocator<char> >::__rep", %"struct.std::__1::basic_string<char, std::__1::char_traits<char>, std::__1::allocator<char> >::__rep"* %122, i32 0, i32 0
  %124 = bitcast %union.anon* %123 to %"struct.std::__1::basic_string<char, std::__1::char_traits<char>, std::__1::allocator<char> >::__short"*
  %125 = getelementptr inbounds %"struct.std::__1::basic_string<char, std::__1::char_traits<char>, std::__1::allocator<char> >::__short", %"struct.std::__1::basic_string<char, std::__1::char_traits<char>, std::__1::allocator<char> >::__short"* %124, i32 0, i32 0
  %126 = bitcast %union.anon.6* %125 to i8*
  %127 = load i8, i8* %126, align 8
  %128 = zext i8 %127 to i32
  %129 = and i32 %128, 1
  %130 = icmp ne i32 %129, 0
  br i1 %130, label %131, label %142

; <label>:131:                                    ; preds = %112
  store %"class.std::__1::basic_string"* %116, %"class.std::__1::basic_string"** %36, align 8
  %132 = load %"class.std::__1::basic_string"*, %"class.std::__1::basic_string"** %36, align 8
  %133 = getelementptr inbounds %"class.std::__1::basic_string", %"class.std::__1::basic_string"* %132, i32 0, i32 0
  store %"class.std::__1::__compressed_pair.2"* %133, %"class.std::__1::__compressed_pair.2"** %35, align 8
  %134 = load %"class.std::__1::__compressed_pair.2"*, %"class.std::__1::__compressed_pair.2"** %35, align 8
  %135 = bitcast %"class.std::__1::__compressed_pair.2"* %134 to %"class.std::__1::__libcpp_compressed_pair_imp.3"*
  store %"class.std::__1::__libcpp_compressed_pair_imp.3"* %135, %"class.std::__1::__libcpp_compressed_pair_imp.3"** %34, align 8
  %136 = load %"class.std::__1::__libcpp_compressed_pair_imp.3"*, %"class.std::__1::__libcpp_compressed_pair_imp.3"** %34, align 8
  %137 = getelementptr inbounds %"class.std::__1::__libcpp_compressed_pair_imp.3", %"class.std::__1::__libcpp_compressed_pair_imp.3"* %136, i32 0, i32 0
  %138 = getelementptr inbounds %"struct.std::__1::basic_string<char, std::__1::char_traits<char>, std::__1::allocator<char> >::__rep", %"struct.std::__1::basic_string<char, std::__1::char_traits<char>, std::__1::allocator<char> >::__rep"* %137, i32 0, i32 0
  %139 = bitcast %union.anon* %138 to %"struct.std::__1::basic_string<char, std::__1::char_traits<char>, std::__1::allocator<char> >::__long"*
  %140 = getelementptr inbounds %"struct.std::__1::basic_string<char, std::__1::char_traits<char>, std::__1::allocator<char> >::__long", %"struct.std::__1::basic_string<char, std::__1::char_traits<char>, std::__1::allocator<char> >::__long"* %139, i32 0, i32 1
  %141 = load i64, i64* %140, align 8
  br label %157

; <label>:142:                                    ; preds = %112
  store %"class.std::__1::basic_string"* %116, %"class.std::__1::basic_string"** %39, align 8
  %143 = load %"class.std::__1::basic_string"*, %"class.std::__1::basic_string"** %39, align 8
  %144 = getelementptr inbounds %"class.std::__1::basic_string", %"class.std::__1::basic_string"* %143, i32 0, i32 0
  store %"class.std::__1::__compressed_pair.2"* %144, %"class.std::__1::__compressed_pair.2"** %38, align 8
  %145 = load %"class.std::__1::__compressed_pair.2"*, %"class.std::__1::__compressed_pair.2"** %38, align 8
  %146 = bitcast %"class.std::__1::__compressed_pair.2"* %145 to %"class.std::__1::__libcpp_compressed_pair_imp.3"*
  store %"class.std::__1::__libcpp_compressed_pair_imp.3"* %146, %"class.std::__1::__libcpp_compressed_pair_imp.3"** %37, align 8
  %147 = load %"class.std::__1::__libcpp_compressed_pair_imp.3"*, %"class.std::__1::__libcpp_compressed_pair_imp.3"** %37, align 8
  %148 = getelementptr inbounds %"class.std::__1::__libcpp_compressed_pair_imp.3", %"class.std::__1::__libcpp_compressed_pair_imp.3"* %147, i32 0, i32 0
  %149 = getelementptr inbounds %"struct.std::__1::basic_string<char, std::__1::char_traits<char>, std::__1::allocator<char> >::__rep", %"struct.std::__1::basic_string<char, std::__1::char_traits<char>, std::__1::allocator<char> >::__rep"* %148, i32 0, i32 0
  %150 = bitcast %union.anon* %149 to %"struct.std::__1::basic_string<char, std::__1::char_traits<char>, std::__1::allocator<char> >::__short"*
  %151 = getelementptr inbounds %"struct.std::__1::basic_string<char, std::__1::char_traits<char>, std::__1::allocator<char> >::__short", %"struct.std::__1::basic_string<char, std::__1::char_traits<char>, std::__1::allocator<char> >::__short"* %150, i32 0, i32 0
  %152 = bitcast %union.anon.6* %151 to i8*
  %153 = load i8, i8* %152, align 8
  %154 = zext i8 %153 to i32
  %155 = ashr i32 %154, 1
  %156 = sext i32 %155 to i64
  br label %157

; <label>:157:                                    ; preds = %142, %131
  %158 = phi i64 [ %141, %131 ], [ %156, %142 ]
  %159 = icmp ne i64 %114, %158
  br i1 %159, label %160, label %161

; <label>:160:                                    ; preds = %157
  store i1 false, i1* %54, align 1
  br label %296

; <label>:161:                                    ; preds = %157
  %162 = load %"class.std::__1::basic_string"*, %"class.std::__1::basic_string"** %55, align 8
  store %"class.std::__1::basic_string"* %162, %"class.std::__1::basic_string"** %33, align 8
  %163 = load %"class.std::__1::basic_string"*, %"class.std::__1::basic_string"** %33, align 8
  store %"class.std::__1::basic_string"* %163, %"class.std::__1::basic_string"** %32, align 8
  %164 = load %"class.std::__1::basic_string"*, %"class.std::__1::basic_string"** %32, align 8
  store %"class.std::__1::basic_string"* %164, %"class.std::__1::basic_string"** %31, align 8
  %165 = load %"class.std::__1::basic_string"*, %"class.std::__1::basic_string"** %31, align 8
  %166 = getelementptr inbounds %"class.std::__1::basic_string", %"class.std::__1::basic_string"* %165, i32 0, i32 0
  store %"class.std::__1::__compressed_pair.2"* %166, %"class.std::__1::__compressed_pair.2"** %30, align 8
  %167 = load %"class.std::__1::__compressed_pair.2"*, %"class.std::__1::__compressed_pair.2"** %30, align 8
  %168 = bitcast %"class.std::__1::__compressed_pair.2"* %167 to %"class.std::__1::__libcpp_compressed_pair_imp.3"*
  store %"class.std::__1::__libcpp_compressed_pair_imp.3"* %168, %"class.std::__1::__libcpp_compressed_pair_imp.3"** %29, align 8
  %169 = load %"class.std::__1::__libcpp_compressed_pair_imp.3"*, %"class.std::__1::__libcpp_compressed_pair_imp.3"** %29, align 8
  %170 = getelementptr inbounds %"class.std::__1::__libcpp_compressed_pair_imp.3", %"class.std::__1::__libcpp_compressed_pair_imp.3"* %169, i32 0, i32 0
  %171 = getelementptr inbounds %"struct.std::__1::basic_string<char, std::__1::char_traits<char>, std::__1::allocator<char> >::__rep", %"struct.std::__1::basic_string<char, std::__1::char_traits<char>, std::__1::allocator<char> >::__rep"* %170, i32 0, i32 0
  %172 = bitcast %union.anon* %171 to %"struct.std::__1::basic_string<char, std::__1::char_traits<char>, std::__1::allocator<char> >::__short"*
  %173 = getelementptr inbounds %"struct.std::__1::basic_string<char, std::__1::char_traits<char>, std::__1::allocator<char> >::__short", %"struct.std::__1::basic_string<char, std::__1::char_traits<char>, std::__1::allocator<char> >::__short"* %172, i32 0, i32 0
  %174 = bitcast %union.anon.6* %173 to i8*
  %175 = load i8, i8* %174, align 8
  %176 = zext i8 %175 to i32
  %177 = and i32 %176, 1
  %178 = icmp ne i32 %177, 0
  br i1 %178, label %179, label %190

; <label>:179:                                    ; preds = %161
  store %"class.std::__1::basic_string"* %164, %"class.std::__1::basic_string"** %23, align 8
  %180 = load %"class.std::__1::basic_string"*, %"class.std::__1::basic_string"** %23, align 8
  %181 = getelementptr inbounds %"class.std::__1::basic_string", %"class.std::__1::basic_string"* %180, i32 0, i32 0
  store %"class.std::__1::__compressed_pair.2"* %181, %"class.std::__1::__compressed_pair.2"** %22, align 8
  %182 = load %"class.std::__1::__compressed_pair.2"*, %"class.std::__1::__compressed_pair.2"** %22, align 8
  %183 = bitcast %"class.std::__1::__compressed_pair.2"* %182 to %"class.std::__1::__libcpp_compressed_pair_imp.3"*
  store %"class.std::__1::__libcpp_compressed_pair_imp.3"* %183, %"class.std::__1::__libcpp_compressed_pair_imp.3"** %21, align 8
  %184 = load %"class.std::__1::__libcpp_compressed_pair_imp.3"*, %"class.std::__1::__libcpp_compressed_pair_imp.3"** %21, align 8
  %185 = getelementptr inbounds %"class.std::__1::__libcpp_compressed_pair_imp.3", %"class.std::__1::__libcpp_compressed_pair_imp.3"* %184, i32 0, i32 0
  %186 = getelementptr inbounds %"struct.std::__1::basic_string<char, std::__1::char_traits<char>, std::__1::allocator<char> >::__rep", %"struct.std::__1::basic_string<char, std::__1::char_traits<char>, std::__1::allocator<char> >::__rep"* %185, i32 0, i32 0
  %187 = bitcast %union.anon* %186 to %"struct.std::__1::basic_string<char, std::__1::char_traits<char>, std::__1::allocator<char> >::__long"*
  %188 = getelementptr inbounds %"struct.std::__1::basic_string<char, std::__1::char_traits<char>, std::__1::allocator<char> >::__long", %"struct.std::__1::basic_string<char, std::__1::char_traits<char>, std::__1::allocator<char> >::__long"* %187, i32 0, i32 2
  %189 = load i8*, i8** %188, align 8
  br label %203

; <label>:190:                                    ; preds = %161
  store %"class.std::__1::basic_string"* %164, %"class.std::__1::basic_string"** %28, align 8
  %191 = load %"class.std::__1::basic_string"*, %"class.std::__1::basic_string"** %28, align 8
  %192 = getelementptr inbounds %"class.std::__1::basic_string", %"class.std::__1::basic_string"* %191, i32 0, i32 0
  store %"class.std::__1::__compressed_pair.2"* %192, %"class.std::__1::__compressed_pair.2"** %27, align 8
  %193 = load %"class.std::__1::__compressed_pair.2"*, %"class.std::__1::__compressed_pair.2"** %27, align 8
  %194 = bitcast %"class.std::__1::__compressed_pair.2"* %193 to %"class.std::__1::__libcpp_compressed_pair_imp.3"*
  store %"class.std::__1::__libcpp_compressed_pair_imp.3"* %194, %"class.std::__1::__libcpp_compressed_pair_imp.3"** %26, align 8
  %195 = load %"class.std::__1::__libcpp_compressed_pair_imp.3"*, %"class.std::__1::__libcpp_compressed_pair_imp.3"** %26, align 8
  %196 = getelementptr inbounds %"class.std::__1::__libcpp_compressed_pair_imp.3", %"class.std::__1::__libcpp_compressed_pair_imp.3"* %195, i32 0, i32 0
  %197 = getelementptr inbounds %"struct.std::__1::basic_string<char, std::__1::char_traits<char>, std::__1::allocator<char> >::__rep", %"struct.std::__1::basic_string<char, std::__1::char_traits<char>, std::__1::allocator<char> >::__rep"* %196, i32 0, i32 0
  %198 = bitcast %union.anon* %197 to %"struct.std::__1::basic_string<char, std::__1::char_traits<char>, std::__1::allocator<char> >::__short"*
  %199 = getelementptr inbounds %"struct.std::__1::basic_string<char, std::__1::char_traits<char>, std::__1::allocator<char> >::__short", %"struct.std::__1::basic_string<char, std::__1::char_traits<char>, std::__1::allocator<char> >::__short"* %198, i32 0, i32 1
  %200 = getelementptr inbounds [23 x i8], [23 x i8]* %199, i64 0, i64 0
  store i8* %200, i8** %25, align 8
  %201 = load i8*, i8** %25, align 8
  store i8* %201, i8** %24, align 8
  %202 = load i8*, i8** %24, align 8
  br label %203

; <label>:203:                                    ; preds = %190, %179
  %204 = phi i8* [ %189, %179 ], [ %202, %190 ]
  store i8* %204, i8** %20, align 8
  %205 = load i8*, i8** %20, align 8
  store i8* %205, i8** %58, align 8
  %206 = load %"class.std::__1::basic_string"*, %"class.std::__1::basic_string"** %56, align 8
  store %"class.std::__1::basic_string"* %206, %"class.std::__1::basic_string"** %16, align 8
  %207 = load %"class.std::__1::basic_string"*, %"class.std::__1::basic_string"** %16, align 8
  store %"class.std::__1::basic_string"* %207, %"class.std::__1::basic_string"** %15, align 8
  %208 = load %"class.std::__1::basic_string"*, %"class.std::__1::basic_string"** %15, align 8
  store %"class.std::__1::basic_string"* %208, %"class.std::__1::basic_string"** %14, align 8
  %209 = load %"class.std::__1::basic_string"*, %"class.std::__1::basic_string"** %14, align 8
  %210 = getelementptr inbounds %"class.std::__1::basic_string", %"class.std::__1::basic_string"* %209, i32 0, i32 0
  store %"class.std::__1::__compressed_pair.2"* %210, %"class.std::__1::__compressed_pair.2"** %13, align 8
  %211 = load %"class.std::__1::__compressed_pair.2"*, %"class.std::__1::__compressed_pair.2"** %13, align 8
  %212 = bitcast %"class.std::__1::__compressed_pair.2"* %211 to %"class.std::__1::__libcpp_compressed_pair_imp.3"*
  store %"class.std::__1::__libcpp_compressed_pair_imp.3"* %212, %"class.std::__1::__libcpp_compressed_pair_imp.3"** %12, align 8
  %213 = load %"class.std::__1::__libcpp_compressed_pair_imp.3"*, %"class.std::__1::__libcpp_compressed_pair_imp.3"** %12, align 8
  %214 = getelementptr inbounds %"class.std::__1::__libcpp_compressed_pair_imp.3", %"class.std::__1::__libcpp_compressed_pair_imp.3"* %213, i32 0, i32 0
  %215 = getelementptr inbounds %"struct.std::__1::basic_string<char, std::__1::char_traits<char>, std::__1::allocator<char> >::__rep", %"struct.std::__1::basic_string<char, std::__1::char_traits<char>, std::__1::allocator<char> >::__rep"* %214, i32 0, i32 0
  %216 = bitcast %union.anon* %215 to %"struct.std::__1::basic_string<char, std::__1::char_traits<char>, std::__1::allocator<char> >::__short"*
  %217 = getelementptr inbounds %"struct.std::__1::basic_string<char, std::__1::char_traits<char>, std::__1::allocator<char> >::__short", %"struct.std::__1::basic_string<char, std::__1::char_traits<char>, std::__1::allocator<char> >::__short"* %216, i32 0, i32 0
  %218 = bitcast %union.anon.6* %217 to i8*
  %219 = load i8, i8* %218, align 8
  %220 = zext i8 %219 to i32
  %221 = and i32 %220, 1
  %222 = icmp ne i32 %221, 0
  br i1 %222, label %223, label %234

; <label>:223:                                    ; preds = %203
  store %"class.std::__1::basic_string"* %208, %"class.std::__1::basic_string"** %6, align 8
  %224 = load %"class.std::__1::basic_string"*, %"class.std::__1::basic_string"** %6, align 8
  %225 = getelementptr inbounds %"class.std::__1::basic_string", %"class.std::__1::basic_string"* %224, i32 0, i32 0
  store %"class.std::__1::__compressed_pair.2"* %225, %"class.std::__1::__compressed_pair.2"** %5, align 8
  %226 = load %"class.std::__1::__compressed_pair.2"*, %"class.std::__1::__compressed_pair.2"** %5, align 8
  %227 = bitcast %"class.std::__1::__compressed_pair.2"* %226 to %"class.std::__1::__libcpp_compressed_pair_imp.3"*
  store %"class.std::__1::__libcpp_compressed_pair_imp.3"* %227, %"class.std::__1::__libcpp_compressed_pair_imp.3"** %4, align 8
  %228 = load %"class.std::__1::__libcpp_compressed_pair_imp.3"*, %"class.std::__1::__libcpp_compressed_pair_imp.3"** %4, align 8
  %229 = getelementptr inbounds %"class.std::__1::__libcpp_compressed_pair_imp.3", %"class.std::__1::__libcpp_compressed_pair_imp.3"* %228, i32 0, i32 0
  %230 = getelementptr inbounds %"struct.std::__1::basic_string<char, std::__1::char_traits<char>, std::__1::allocator<char> >::__rep", %"struct.std::__1::basic_string<char, std::__1::char_traits<char>, std::__1::allocator<char> >::__rep"* %229, i32 0, i32 0
  %231 = bitcast %union.anon* %230 to %"struct.std::__1::basic_string<char, std::__1::char_traits<char>, std::__1::allocator<char> >::__long"*
  %232 = getelementptr inbounds %"struct.std::__1::basic_string<char, std::__1::char_traits<char>, std::__1::allocator<char> >::__long", %"struct.std::__1::basic_string<char, std::__1::char_traits<char>, std::__1::allocator<char> >::__long"* %231, i32 0, i32 2
  %233 = load i8*, i8** %232, align 8
  br label %247

; <label>:234:                                    ; preds = %203
  store %"class.std::__1::basic_string"* %208, %"class.std::__1::basic_string"** %11, align 8
  %235 = load %"class.std::__1::basic_string"*, %"class.std::__1::basic_string"** %11, align 8
  %236 = getelementptr inbounds %"class.std::__1::basic_string", %"class.std::__1::basic_string"* %235, i32 0, i32 0
  store %"class.std::__1::__compressed_pair.2"* %236, %"class.std::__1::__compressed_pair.2"** %10, align 8
  %237 = load %"class.std::__1::__compressed_pair.2"*, %"class.std::__1::__compressed_pair.2"** %10, align 8
  %238 = bitcast %"class.std::__1::__compressed_pair.2"* %237 to %"class.std::__1::__libcpp_compressed_pair_imp.3"*
  store %"class.std::__1::__libcpp_compressed_pair_imp.3"* %238, %"class.std::__1::__libcpp_compressed_pair_imp.3"** %9, align 8
  %239 = load %"class.std::__1::__libcpp_compressed_pair_imp.3"*, %"class.std::__1::__libcpp_compressed_pair_imp.3"** %9, align 8
  %240 = getelementptr inbounds %"class.std::__1::__libcpp_compressed_pair_imp.3", %"class.std::__1::__libcpp_compressed_pair_imp.3"* %239, i32 0, i32 0
  %241 = getelementptr inbounds %"struct.std::__1::basic_string<char, std::__1::char_traits<char>, std::__1::allocator<char> >::__rep", %"struct.std::__1::basic_string<char, std::__1::char_traits<char>, std::__1::allocator<char> >::__rep"* %240, i32 0, i32 0
  %242 = bitcast %union.anon* %241 to %"struct.std::__1::basic_string<char, std::__1::char_traits<char>, std::__1::allocator<char> >::__short"*
  %243 = getelementptr inbounds %"struct.std::__1::basic_string<char, std::__1::char_traits<char>, std::__1::allocator<char> >::__short", %"struct.std::__1::basic_string<char, std::__1::char_traits<char>, std::__1::allocator<char> >::__short"* %242, i32 0, i32 1
  %244 = getelementptr inbounds [23 x i8], [23 x i8]* %243, i64 0, i64 0
  store i8* %244, i8** %8, align 8
  %245 = load i8*, i8** %8, align 8
  store i8* %245, i8** %7, align 8
  %246 = load i8*, i8** %7, align 8
  br label %247

; <label>:247:                                    ; preds = %234, %223
  %248 = phi i8* [ %233, %223 ], [ %246, %234 ]
  store i8* %248, i8** %3, align 8
  %249 = load i8*, i8** %3, align 8
  store i8* %249, i8** %59, align 8
  %250 = load %"class.std::__1::basic_string"*, %"class.std::__1::basic_string"** %55, align 8
  store %"class.std::__1::basic_string"* %250, %"class.std::__1::basic_string"** %19, align 8
  %251 = load %"class.std::__1::basic_string"*, %"class.std::__1::basic_string"** %19, align 8
  %252 = getelementptr inbounds %"class.std::__1::basic_string", %"class.std::__1::basic_string"* %251, i32 0, i32 0
  store %"class.std::__1::__compressed_pair.2"* %252, %"class.std::__1::__compressed_pair.2"** %18, align 8
  %253 = load %"class.std::__1::__compressed_pair.2"*, %"class.std::__1::__compressed_pair.2"** %18, align 8
  %254 = bitcast %"class.std::__1::__compressed_pair.2"* %253 to %"class.std::__1::__libcpp_compressed_pair_imp.3"*
  store %"class.std::__1::__libcpp_compressed_pair_imp.3"* %254, %"class.std::__1::__libcpp_compressed_pair_imp.3"** %17, align 8
  %255 = load %"class.std::__1::__libcpp_compressed_pair_imp.3"*, %"class.std::__1::__libcpp_compressed_pair_imp.3"** %17, align 8
  %256 = getelementptr inbounds %"class.std::__1::__libcpp_compressed_pair_imp.3", %"class.std::__1::__libcpp_compressed_pair_imp.3"* %255, i32 0, i32 0
  %257 = getelementptr inbounds %"struct.std::__1::basic_string<char, std::__1::char_traits<char>, std::__1::allocator<char> >::__rep", %"struct.std::__1::basic_string<char, std::__1::char_traits<char>, std::__1::allocator<char> >::__rep"* %256, i32 0, i32 0
  %258 = bitcast %union.anon* %257 to %"struct.std::__1::basic_string<char, std::__1::char_traits<char>, std::__1::allocator<char> >::__short"*
  %259 = getelementptr inbounds %"struct.std::__1::basic_string<char, std::__1::char_traits<char>, std::__1::allocator<char> >::__short", %"struct.std::__1::basic_string<char, std::__1::char_traits<char>, std::__1::allocator<char> >::__short"* %258, i32 0, i32 0
  %260 = bitcast %union.anon.6* %259 to i8*
  %261 = load i8, i8* %260, align 8
  %262 = zext i8 %261 to i32
  %263 = and i32 %262, 1
  %264 = icmp ne i32 %263, 0
  br i1 %264, label %265, label %272

; <label>:265:                                    ; preds = %247
  %266 = load i8*, i8** %58, align 8
  %267 = load i8*, i8** %59, align 8
  %268 = load i64, i64* %57, align 8
  %269 = invoke i32 @_ZNSt3__111char_traitsIcE7compareEPKcS3_m(i8* %266, i8* %267, i64 %268)
          to label %270 unwind label %293

; <label>:270:                                    ; preds = %265
  %271 = icmp eq i32 %269, 0
  store i1 %271, i1* %54, align 1
  br label %296

; <label>:272:                                    ; preds = %247
  br label %273

; <label>:273:                                    ; preds = %285, %272
  %274 = load i64, i64* %57, align 8
  %275 = icmp ne i64 %274, 0
  br i1 %275, label %276, label %292

; <label>:276:                                    ; preds = %273
  %277 = load i8*, i8** %58, align 8
  %278 = load i8, i8* %277, align 1
  %279 = sext i8 %278 to i32
  %280 = load i8*, i8** %59, align 8
  %281 = load i8, i8* %280, align 1
  %282 = sext i8 %281 to i32
  %283 = icmp ne i32 %279, %282
  br i1 %283, label %284, label %285

; <label>:284:                                    ; preds = %276
  store i1 false, i1* %54, align 1
  br label %296

; <label>:285:                                    ; preds = %276
  %286 = load i64, i64* %57, align 8
  %287 = add i64 %286, -1
  store i64 %287, i64* %57, align 8
  %288 = load i8*, i8** %58, align 8
  %289 = getelementptr inbounds i8, i8* %288, i32 1
  store i8* %289, i8** %58, align 8
  %290 = load i8*, i8** %59, align 8
  %291 = getelementptr inbounds i8, i8* %290, i32 1
  store i8* %291, i8** %59, align 8
  br label %273

; <label>:292:                                    ; preds = %273
  store i1 true, i1* %54, align 1
  br label %296

; <label>:293:                                    ; preds = %265
  %294 = landingpad { i8*, i32 }
          catch i8* null
  %295 = extractvalue { i8*, i32 } %294, 0
  call void @__clang_call_terminate(i8* %295) #11
  unreachable

; <label>:296:                                    ; preds = %160, %270, %284, %292
  %297 = load i1, i1* %54, align 1
  br label %298

; <label>:298:                                    ; preds = %296, %2
  %299 = phi i1 [ false, %2 ], [ %297, %296 ]
  store i1 %299, i1* %60, align 1
  %300 = load i1, i1* %63, align 1
  br i1 %300, label %301, label %302

; <label>:301:                                    ; preds = %298
  call void @_ZNSt3__112basic_stringIcNS_11char_traitsIcEENS_9allocatorIcEEED1Ev(%"class.std::__1::basic_string"* %62) #2
  br label %302

; <label>:302:                                    ; preds = %301, %298
  %303 = load i1, i1* %60, align 1
  ret i1 %303
}

; Function Attrs: ssp uwtable
define zeroext i1 @_ZN5Token12is_separatorEv(%class.Token*) #0 align 2 {
  %2 = alloca %class.Token*, align 8
  store %class.Token* %0, %class.Token** %2, align 8
  %3 = load %class.Token*, %class.Token** %2, align 8
  %4 = getelementptr inbounds %class.Token, %class.Token* %3, i32 0, i32 1
  %5 = load i32, i32* %4, align 8
  %6 = icmp eq i32 %5, 3
  br i1 %6, label %7, label %19

; <label>:7:                                      ; preds = %1
  %8 = getelementptr inbounds %class.Token, %class.Token* %3, i32 0, i32 0
  %9 = call signext i8 @_ZN7Variant3getIcEET_v(%struct.Variant* %8)
  %10 = sext i8 %9 to i32
  %11 = icmp eq i32 %10, 10
  br i1 %11, label %17, label %12

; <label>:12:                                     ; preds = %7
  %13 = getelementptr inbounds %class.Token, %class.Token* %3, i32 0, i32 0
  %14 = call signext i8 @_ZN7Variant3getIcEET_v(%struct.Variant* %13)
  %15 = sext i8 %14 to i32
  %16 = icmp eq i32 %15, 59
  br label %17

; <label>:17:                                     ; preds = %12, %7
  %18 = phi i1 [ true, %7 ], [ %16, %12 ]
  br label %19

; <label>:19:                                     ; preds = %17, %1
  %20 = phi i1 [ false, %1 ], [ %18, %17 ]
  ret i1 %20
}

; Function Attrs: ssp uwtable
define void @_ZN5Token16set_literal_typeE11LiteralType(%class.Token* noalias sret, %class.Token*, i32) #0 align 2 {
  %4 = alloca %class.Token*, align 8
  %5 = alloca i32, align 4
  store %class.Token* %1, %class.Token** %4, align 8
  store i32 %2, i32* %5, align 4
  %6 = load %class.Token*, %class.Token** %4, align 8
  %7 = load i32, i32* %5, align 4
  %8 = getelementptr inbounds %class.Token, %class.Token* %6, i32 0, i32 6
  store i32 %7, i32* %8, align 4
  call void @_ZN5TokenC1ERKS_(%class.Token* %0, %class.Token* dereferenceable(288) %6)
  ret void
}

; Function Attrs: inlinehint ssp uwtable
define linkonce_odr void @_ZN5TokenC1ERKS_(%class.Token*, %class.Token* dereferenceable(288)) unnamed_addr #6 align 2 {
  %3 = alloca %class.Token*, align 8
  %4 = alloca %class.Token*, align 8
  store %class.Token* %0, %class.Token** %3, align 8
  store %class.Token* %1, %class.Token** %4, align 8
  %5 = load %class.Token*, %class.Token** %3, align 8
  %6 = load %class.Token*, %class.Token** %4, align 8
  call void @_ZN5TokenC2ERKS_(%class.Token* %5, %class.Token* dereferenceable(288) %6)
  ret void
}

; Function Attrs: ssp uwtable
define void @_ZN5Token17set_operator_typeE12OperatorType(%class.Token* noalias sret, %class.Token*, i32) #0 align 2 {
  %4 = alloca %class.Token*, align 8
  %5 = alloca i32, align 4
  store %class.Token* %1, %class.Token** %4, align 8
  store i32 %2, i32* %5, align 4
  %6 = load %class.Token*, %class.Token** %4, align 8
  %7 = load i32, i32* %5, align 4
  %8 = getelementptr inbounds %class.Token, %class.Token* %6, i32 0, i32 5
  store i32 %7, i32* %8, align 8
  call void @_ZN5TokenC1ERKS_(%class.Token* %0, %class.Token* dereferenceable(288) %6)
  ret void
}

declare void @_ZNSt3__112basic_stringIcNS_11char_traitsIcEENS_9allocatorIcEEE6__initEPKcm(%"class.std::__1::basic_string"*, i8*, i64) #3

; Function Attrs: inlinehint ssp uwtable
define linkonce_odr i64 @_ZNSt3__111char_traitsIcE6lengthEPKc(i8*) #6 align 2 {
  %2 = alloca i8*, align 8
  store i8* %0, i8** %2, align 8
  %3 = load i8*, i8** %2, align 8
  %4 = call i64 @strlen(i8* %3)
  ret i64 %4
}

; Function Attrs: argmemonly nounwind
declare void @llvm.memset.p0i8.i64(i8* nocapture writeonly, i8, i64, i32, i1) #7

declare i64 @strlen(i8*) #3

; Function Attrs: inlinehint nounwind ssp uwtable
define linkonce_odr void @_ZNSt3__14pairIK11LiteralTypeNS_12basic_stringIcNS_11char_traitsIcEENS_9allocatorIcEEEEED2Ev(%"struct.std::__1::pair"*) unnamed_addr #1 align 2 {
  %2 = alloca %"struct.std::__1::pair"*, align 8
  store %"struct.std::__1::pair"* %0, %"struct.std::__1::pair"** %2, align 8
  %3 = load %"struct.std::__1::pair"*, %"struct.std::__1::pair"** %2, align 8
  %4 = getelementptr inbounds %"struct.std::__1::pair", %"struct.std::__1::pair"* %3, i32 0, i32 1
  call void @_ZNSt3__112basic_stringIcNS_11char_traitsIcEENS_9allocatorIcEEED1Ev(%"class.std::__1::basic_string"* %4) #2
  ret void
}

; Function Attrs: inlinehint nounwind ssp uwtable
define linkonce_odr void @_ZNSt3__13mapI11LiteralTypeNS_12basic_stringIcNS_11char_traitsIcEENS_9allocatorIcEEEENS_4lessIS1_EENS5_INS_4pairIKS1_S7_EEEEED2Ev(%"class.std::__1::map"*) unnamed_addr #1 align 2 {
  %2 = alloca %"class.std::__1::map"*, align 8
  store %"class.std::__1::map"* %0, %"class.std::__1::map"** %2, align 8
  %3 = load %"class.std::__1::map"*, %"class.std::__1::map"** %2, align 8
  %4 = getelementptr inbounds %"class.std::__1::map", %"class.std::__1::map"* %3, i32 0, i32 0
  call void @_ZNSt3__16__treeINS_12__value_typeI11LiteralTypeNS_12basic_stringIcNS_11char_traitsIcEENS_9allocatorIcEEEEEENS_19__map_value_compareIS2_S9_NS_4lessIS2_EELb1EEENS6_IS9_EEED1Ev(%"class.std::__1::__tree"* %4) #2
  ret void
}

; Function Attrs: nounwind ssp uwtable
define linkonce_odr void @_ZNSt3__16__treeINS_12__value_typeI11LiteralTypeNS_12basic_stringIcNS_11char_traitsIcEENS_9allocatorIcEEEEEENS_19__map_value_compareIS2_S9_NS_4lessIS2_EELb1EEENS6_IS9_EEED1Ev(%"class.std::__1::__tree"*) unnamed_addr #4 align 2 {
  %2 = alloca %"class.std::__1::__tree"*, align 8
  store %"class.std::__1::__tree"* %0, %"class.std::__1::__tree"** %2, align 8
  %3 = load %"class.std::__1::__tree"*, %"class.std::__1::__tree"** %2, align 8
  call void @_ZNSt3__16__treeINS_12__value_typeI11LiteralTypeNS_12basic_stringIcNS_11char_traitsIcEENS_9allocatorIcEEEEEENS_19__map_value_compareIS2_S9_NS_4lessIS2_EELb1EEENS6_IS9_EEED2Ev(%"class.std::__1::__tree"* %3) #2
  ret void
}

; Function Attrs: nounwind ssp uwtable
define linkonce_odr void @_ZNSt3__16__treeINS_12__value_typeI11LiteralTypeNS_12basic_stringIcNS_11char_traitsIcEENS_9allocatorIcEEEEEENS_19__map_value_compareIS2_S9_NS_4lessIS2_EELb1EEENS6_IS9_EEED2Ev(%"class.std::__1::__tree"*) unnamed_addr #4 align 2 {
  %2 = alloca %"class.std::__1::__tree_end_node"*, align 8
  %3 = alloca %"class.std::__1::__tree_end_node"*, align 8
  %4 = alloca %"class.std::__1::__libcpp_compressed_pair_imp"*, align 8
  %5 = alloca %"class.std::__1::__compressed_pair"*, align 8
  %6 = alloca %"class.std::__1::__tree"*, align 8
  %7 = alloca %"class.std::__1::__tree"*, align 8
  %8 = alloca %"class.std::__1::__tree"*, align 8
  store %"class.std::__1::__tree"* %0, %"class.std::__1::__tree"** %8, align 8
  %9 = load %"class.std::__1::__tree"*, %"class.std::__1::__tree"** %8, align 8
  store %"class.std::__1::__tree"* %9, %"class.std::__1::__tree"** %7, align 8
  %10 = load %"class.std::__1::__tree"*, %"class.std::__1::__tree"** %7, align 8
  store %"class.std::__1::__tree"* %10, %"class.std::__1::__tree"** %6, align 8
  %11 = load %"class.std::__1::__tree"*, %"class.std::__1::__tree"** %6, align 8
  %12 = getelementptr inbounds %"class.std::__1::__tree", %"class.std::__1::__tree"* %11, i32 0, i32 1
  store %"class.std::__1::__compressed_pair"* %12, %"class.std::__1::__compressed_pair"** %5, align 8
  %13 = load %"class.std::__1::__compressed_pair"*, %"class.std::__1::__compressed_pair"** %5, align 8
  %14 = bitcast %"class.std::__1::__compressed_pair"* %13 to %"class.std::__1::__libcpp_compressed_pair_imp"*
  store %"class.std::__1::__libcpp_compressed_pair_imp"* %14, %"class.std::__1::__libcpp_compressed_pair_imp"** %4, align 8
  %15 = load %"class.std::__1::__libcpp_compressed_pair_imp"*, %"class.std::__1::__libcpp_compressed_pair_imp"** %4, align 8
  %16 = getelementptr inbounds %"class.std::__1::__libcpp_compressed_pair_imp", %"class.std::__1::__libcpp_compressed_pair_imp"* %15, i32 0, i32 0
  store %"class.std::__1::__tree_end_node"* %16, %"class.std::__1::__tree_end_node"** %3, align 8
  %17 = load %"class.std::__1::__tree_end_node"*, %"class.std::__1::__tree_end_node"** %3, align 8
  store %"class.std::__1::__tree_end_node"* %17, %"class.std::__1::__tree_end_node"** %2, align 8
  %18 = load %"class.std::__1::__tree_end_node"*, %"class.std::__1::__tree_end_node"** %2, align 8
  %19 = bitcast %"class.std::__1::__tree_end_node"* %18 to i8*
  %20 = getelementptr inbounds %"class.std::__1::__tree_end_node", %"class.std::__1::__tree_end_node"* %18, i32 0, i32 0
  %21 = load %"class.std::__1::__tree_node_base"*, %"class.std::__1::__tree_node_base"** %20, align 8
  %22 = bitcast %"class.std::__1::__tree_node_base"* %21 to %"class.std::__1::__tree_node"*
  call void @_ZNSt3__16__treeINS_12__value_typeI11LiteralTypeNS_12basic_stringIcNS_11char_traitsIcEENS_9allocatorIcEEEEEENS_19__map_value_compareIS2_S9_NS_4lessIS2_EELb1EEENS6_IS9_EEE7destroyEPNS_11__tree_nodeIS9_PvEE(%"class.std::__1::__tree"* %9, %"class.std::__1::__tree_node"* %22) #2
  ret void
}

; Function Attrs: nounwind ssp uwtable
define linkonce_odr void @_ZNSt3__16__treeINS_12__value_typeI11LiteralTypeNS_12basic_stringIcNS_11char_traitsIcEENS_9allocatorIcEEEEEENS_19__map_value_compareIS2_S9_NS_4lessIS2_EELb1EEENS6_IS9_EEE7destroyEPNS_11__tree_nodeIS9_PvEE(%"class.std::__1::__tree"*, %"class.std::__1::__tree_node"*) #4 align 2 personality i8* bitcast (i32 (...)* @__gxx_personality_v0 to i8*) {
  %3 = alloca %"class.std::__1::allocator"*, align 8
  %4 = alloca %"struct.std::__1::pair"*, align 8
  %5 = alloca %"class.std::__1::allocator"*, align 8
  %6 = alloca %"struct.std::__1::pair"*, align 8
  %7 = alloca %"struct.std::__1::integral_constant", align 1
  %8 = alloca %"struct.std::__1::__has_destroy", align 1
  %9 = alloca %"struct.std::__1::pair"*, align 8
  %10 = alloca %"union.std::__1::__value_type"*, align 8
  %11 = alloca %"class.std::__1::__libcpp_compressed_pair_imp"*, align 8
  %12 = alloca %"class.std::__1::__compressed_pair"*, align 8
  %13 = alloca %"class.std::__1::__tree"*, align 8
  %14 = alloca i8*, align 8
  %15 = alloca %"class.std::__1::allocator"*, align 8
  %16 = alloca %"class.std::__1::__tree_node"*, align 8
  %17 = alloca i64, align 8
  %18 = alloca %"class.std::__1::allocator"*, align 8
  %19 = alloca %"class.std::__1::__tree_node"*, align 8
  %20 = alloca i64, align 8
  %21 = alloca %"class.std::__1::__tree"*, align 8
  %22 = alloca %"class.std::__1::__tree_node"*, align 8
  %23 = alloca %"class.std::__1::allocator"*, align 8
  store %"class.std::__1::__tree"* %0, %"class.std::__1::__tree"** %21, align 8
  store %"class.std::__1::__tree_node"* %1, %"class.std::__1::__tree_node"** %22, align 8
  %24 = load %"class.std::__1::__tree"*, %"class.std::__1::__tree"** %21, align 8
  %25 = load %"class.std::__1::__tree_node"*, %"class.std::__1::__tree_node"** %22, align 8
  %26 = icmp ne %"class.std::__1::__tree_node"* %25, null
  br i1 %26, label %27, label %66

; <label>:27:                                     ; preds = %2
  %28 = load %"class.std::__1::__tree_node"*, %"class.std::__1::__tree_node"** %22, align 8
  %29 = bitcast %"class.std::__1::__tree_node"* %28 to %"class.std::__1::__tree_end_node"*
  %30 = getelementptr inbounds %"class.std::__1::__tree_end_node", %"class.std::__1::__tree_end_node"* %29, i32 0, i32 0
  %31 = load %"class.std::__1::__tree_node_base"*, %"class.std::__1::__tree_node_base"** %30, align 8
  %32 = bitcast %"class.std::__1::__tree_node_base"* %31 to %"class.std::__1::__tree_node"*
  call void @_ZNSt3__16__treeINS_12__value_typeI11LiteralTypeNS_12basic_stringIcNS_11char_traitsIcEENS_9allocatorIcEEEEEENS_19__map_value_compareIS2_S9_NS_4lessIS2_EELb1EEENS6_IS9_EEE7destroyEPNS_11__tree_nodeIS9_PvEE(%"class.std::__1::__tree"* %24, %"class.std::__1::__tree_node"* %32) #2
  %33 = load %"class.std::__1::__tree_node"*, %"class.std::__1::__tree_node"** %22, align 8
  %34 = bitcast %"class.std::__1::__tree_node"* %33 to %"class.std::__1::__tree_node_base"*
  %35 = getelementptr inbounds %"class.std::__1::__tree_node_base", %"class.std::__1::__tree_node_base"* %34, i32 0, i32 1
  %36 = load %"class.std::__1::__tree_node_base"*, %"class.std::__1::__tree_node_base"** %35, align 8
  %37 = bitcast %"class.std::__1::__tree_node_base"* %36 to %"class.std::__1::__tree_node"*
  call void @_ZNSt3__16__treeINS_12__value_typeI11LiteralTypeNS_12basic_stringIcNS_11char_traitsIcEENS_9allocatorIcEEEEEENS_19__map_value_compareIS2_S9_NS_4lessIS2_EELb1EEENS6_IS9_EEE7destroyEPNS_11__tree_nodeIS9_PvEE(%"class.std::__1::__tree"* %24, %"class.std::__1::__tree_node"* %37) #2
  store %"class.std::__1::__tree"* %24, %"class.std::__1::__tree"** %13, align 8
  %38 = load %"class.std::__1::__tree"*, %"class.std::__1::__tree"** %13, align 8
  %39 = getelementptr inbounds %"class.std::__1::__tree", %"class.std::__1::__tree"* %38, i32 0, i32 1
  store %"class.std::__1::__compressed_pair"* %39, %"class.std::__1::__compressed_pair"** %12, align 8
  %40 = load %"class.std::__1::__compressed_pair"*, %"class.std::__1::__compressed_pair"** %12, align 8
  %41 = bitcast %"class.std::__1::__compressed_pair"* %40 to %"class.std::__1::__libcpp_compressed_pair_imp"*
  store %"class.std::__1::__libcpp_compressed_pair_imp"* %41, %"class.std::__1::__libcpp_compressed_pair_imp"** %11, align 8
  %42 = load %"class.std::__1::__libcpp_compressed_pair_imp"*, %"class.std::__1::__libcpp_compressed_pair_imp"** %11, align 8
  %43 = bitcast %"class.std::__1::__libcpp_compressed_pair_imp"* %42 to %"class.std::__1::allocator"*
  store %"class.std::__1::allocator"* %43, %"class.std::__1::allocator"** %23, align 8
  %44 = load %"class.std::__1::allocator"*, %"class.std::__1::allocator"** %23, align 8
  %45 = load %"class.std::__1::__tree_node"*, %"class.std::__1::__tree_node"** %22, align 8
  %46 = getelementptr inbounds %"class.std::__1::__tree_node", %"class.std::__1::__tree_node"* %45, i32 0, i32 1
  store %"union.std::__1::__value_type"* %46, %"union.std::__1::__value_type"** %10, align 8
  %47 = load %"union.std::__1::__value_type"*, %"union.std::__1::__value_type"** %10, align 8
  %48 = bitcast %"union.std::__1::__value_type"* %47 to %"struct.std::__1::pair"*
  store %"struct.std::__1::pair"* %48, %"struct.std::__1::pair"** %9, align 8
  %49 = load %"struct.std::__1::pair"*, %"struct.std::__1::pair"** %9, align 8
  %50 = bitcast %"struct.std::__1::pair"* %49 to i8*
  br label %51

; <label>:51:                                     ; preds = %27
  store %"class.std::__1::allocator"* %44, %"class.std::__1::allocator"** %5, align 8
  store %"struct.std::__1::pair"* %49, %"struct.std::__1::pair"** %6, align 8
  %52 = bitcast %"struct.std::__1::__has_destroy"* %8 to %"struct.std::__1::integral_constant"*
  %53 = load %"class.std::__1::allocator"*, %"class.std::__1::allocator"** %5, align 8
  %54 = load %"struct.std::__1::pair"*, %"struct.std::__1::pair"** %6, align 8
  store %"class.std::__1::allocator"* %53, %"class.std::__1::allocator"** %3, align 8
  store %"struct.std::__1::pair"* %54, %"struct.std::__1::pair"** %4, align 8
  %55 = load %"struct.std::__1::pair"*, %"struct.std::__1::pair"** %4, align 8
  call void @_ZNSt3__14pairIK11LiteralTypeNS_12basic_stringIcNS_11char_traitsIcEENS_9allocatorIcEEEEED1Ev(%"struct.std::__1::pair"* %55) #2
  br label %56

; <label>:56:                                     ; preds = %51
  %57 = load %"class.std::__1::allocator"*, %"class.std::__1::allocator"** %23, align 8
  %58 = load %"class.std::__1::__tree_node"*, %"class.std::__1::__tree_node"** %22, align 8
  store %"class.std::__1::allocator"* %57, %"class.std::__1::allocator"** %18, align 8
  store %"class.std::__1::__tree_node"* %58, %"class.std::__1::__tree_node"** %19, align 8
  store i64 1, i64* %20, align 8
  %59 = load %"class.std::__1::allocator"*, %"class.std::__1::allocator"** %18, align 8
  %60 = load %"class.std::__1::__tree_node"*, %"class.std::__1::__tree_node"** %19, align 8
  %61 = load i64, i64* %20, align 8
  store %"class.std::__1::allocator"* %59, %"class.std::__1::allocator"** %15, align 8
  store %"class.std::__1::__tree_node"* %60, %"class.std::__1::__tree_node"** %16, align 8
  store i64 %61, i64* %17, align 8
  %62 = load %"class.std::__1::allocator"*, %"class.std::__1::allocator"** %15, align 8
  %63 = load %"class.std::__1::__tree_node"*, %"class.std::__1::__tree_node"** %16, align 8
  %64 = bitcast %"class.std::__1::__tree_node"* %63 to i8*
  store i8* %64, i8** %14, align 8
  %65 = load i8*, i8** %14, align 8
  call void @_ZdlPv(i8* %65) #12
  br label %66

; <label>:66:                                     ; preds = %56, %2
  ret void
                                                  ; No predecessors!
  %68 = landingpad { i8*, i32 }
          catch i8* null
  %69 = extractvalue { i8*, i32 } %68, 0
  call void @__clang_call_terminate(i8* %69) #11
  unreachable
}

; Function Attrs: noinline noreturn nounwind
define linkonce_odr hidden void @__clang_call_terminate(i8*) #8 {
  %2 = call i8* @__cxa_begin_catch(i8* %0) #2
  call void @_ZSt9terminatev() #11
  unreachable
}

declare i8* @__cxa_begin_catch(i8*)

declare void @_ZSt9terminatev()

; Function Attrs: nobuiltin nounwind
declare void @_ZdlPv(i8*) #9

; Function Attrs: inlinehint nounwind ssp uwtable
define linkonce_odr void @_ZN7VariantD2Ev(%struct.Variant*) unnamed_addr #1 align 2 {
  %2 = alloca %struct.Variant*, align 8
  store %struct.Variant* %0, %struct.Variant** %2, align 8
  %3 = load %struct.Variant*, %struct.Variant** %2, align 8
  %4 = getelementptr inbounds %struct.Variant, %struct.Variant* %3, i32 0, i32 4
  call void @_ZN13TypeSpecifierD1Ev(%struct.TypeSpecifier* %4) #2
  %5 = getelementptr inbounds %struct.Variant, %struct.Variant* %3, i32 0, i32 3
  call void @_ZNSt3__112basic_stringIcNS_11char_traitsIcEENS_9allocatorIcEEED1Ev(%"class.std::__1::basic_string"* %5) #2
  ret void
}

; Function Attrs: inlinehint nounwind ssp uwtable
define linkonce_odr void @_ZN13TypeSpecifierD1Ev(%struct.TypeSpecifier*) unnamed_addr #1 align 2 {
  %2 = alloca %struct.TypeSpecifier*, align 8
  store %struct.TypeSpecifier* %0, %struct.TypeSpecifier** %2, align 8
  %3 = load %struct.TypeSpecifier*, %struct.TypeSpecifier** %2, align 8
  call void @_ZN13TypeSpecifierD2Ev(%struct.TypeSpecifier* %3) #2
  ret void
}

; Function Attrs: inlinehint nounwind ssp uwtable
define linkonce_odr void @_ZN13TypeSpecifierD2Ev(%struct.TypeSpecifier*) unnamed_addr #1 align 2 {
  %2 = alloca %struct.TypeSpecifier*, align 8
  store %struct.TypeSpecifier* %0, %struct.TypeSpecifier** %2, align 8
  %3 = load %struct.TypeSpecifier*, %struct.TypeSpecifier** %2, align 8
  %4 = getelementptr inbounds %struct.TypeSpecifier, %struct.TypeSpecifier* %3, i32 0, i32 24
  call void @_ZNSt3__16vectorI13TypeSpecifierNS_9allocatorIS1_EEED1Ev(%"class.std::__1::vector.27"* %4) #2
  %5 = getelementptr inbounds %struct.TypeSpecifier, %struct.TypeSpecifier* %3, i32 0, i32 23
  call void @_ZNSt3__16vectorINS_12basic_stringIcNS_11char_traitsIcEENS_9allocatorIcEEEENS4_IS6_EEED1Ev(%"class.std::__1::vector"* %5) #2
  %6 = getelementptr inbounds %struct.TypeSpecifier, %struct.TypeSpecifier* %3, i32 0, i32 14
  call void @_ZNSt3__113unordered_mapINS_12basic_stringIcNS_11char_traitsIcEENS_9allocatorIcEEEE13TypeSpecifierNS_4hashIS6_EENS_8equal_toIS6_EENS4_INS_4pairIKS6_S7_EEEEED1Ev(%"class.std::__1::unordered_map"* %6) #2
  %7 = getelementptr inbounds %struct.TypeSpecifier, %struct.TypeSpecifier* %3, i32 0, i32 11
  call void @_ZNSt3__112basic_stringIcNS_11char_traitsIcEENS_9allocatorIcEEED1Ev(%"class.std::__1::basic_string"* %7) #2
  %8 = getelementptr inbounds %struct.TypeSpecifier, %struct.TypeSpecifier* %3, i32 0, i32 2
  call void @_ZNSt3__110shared_ptrI10ExpressionED1Ev(%"class.std::__1::shared_ptr"* %8) #2
  %9 = getelementptr inbounds %struct.TypeSpecifier, %struct.TypeSpecifier* %3, i32 0, i32 1
  call void @_ZNSt3__112basic_stringIcNS_11char_traitsIcEENS_9allocatorIcEEED1Ev(%"class.std::__1::basic_string"* %9) #2
  ret void
}

; Function Attrs: inlinehint nounwind ssp uwtable
define linkonce_odr void @_ZNSt3__16vectorI13TypeSpecifierNS_9allocatorIS1_EEED1Ev(%"class.std::__1::vector.27"*) unnamed_addr #1 align 2 {
  %2 = alloca %"class.std::__1::vector.27"*, align 8
  store %"class.std::__1::vector.27"* %0, %"class.std::__1::vector.27"** %2, align 8
  %3 = load %"class.std::__1::vector.27"*, %"class.std::__1::vector.27"** %2, align 8
  call void @_ZNSt3__16vectorI13TypeSpecifierNS_9allocatorIS1_EEED2Ev(%"class.std::__1::vector.27"* %3) #2
  ret void
}

; Function Attrs: inlinehint nounwind ssp uwtable
define linkonce_odr void @_ZNSt3__16vectorINS_12basic_stringIcNS_11char_traitsIcEENS_9allocatorIcEEEENS4_IS6_EEED1Ev(%"class.std::__1::vector"*) unnamed_addr #1 align 2 {
  %2 = alloca %"class.std::__1::vector"*, align 8
  store %"class.std::__1::vector"* %0, %"class.std::__1::vector"** %2, align 8
  %3 = load %"class.std::__1::vector"*, %"class.std::__1::vector"** %2, align 8
  call void @_ZNSt3__16vectorINS_12basic_stringIcNS_11char_traitsIcEENS_9allocatorIcEEEENS4_IS6_EEED2Ev(%"class.std::__1::vector"* %3) #2
  ret void
}

; Function Attrs: inlinehint nounwind ssp uwtable
define linkonce_odr void @_ZNSt3__113unordered_mapINS_12basic_stringIcNS_11char_traitsIcEENS_9allocatorIcEEEE13TypeSpecifierNS_4hashIS6_EENS_8equal_toIS6_EENS4_INS_4pairIKS6_S7_EEEEED1Ev(%"class.std::__1::unordered_map"*) unnamed_addr #1 align 2 {
  %2 = alloca %"class.std::__1::unordered_map"*, align 8
  store %"class.std::__1::unordered_map"* %0, %"class.std::__1::unordered_map"** %2, align 8
  %3 = load %"class.std::__1::unordered_map"*, %"class.std::__1::unordered_map"** %2, align 8
  call void @_ZNSt3__113unordered_mapINS_12basic_stringIcNS_11char_traitsIcEENS_9allocatorIcEEEE13TypeSpecifierNS_4hashIS6_EENS_8equal_toIS6_EENS4_INS_4pairIKS6_S7_EEEEED2Ev(%"class.std::__1::unordered_map"* %3) #2
  ret void
}

; Function Attrs: nounwind ssp uwtable
define linkonce_odr void @_ZNSt3__110shared_ptrI10ExpressionED1Ev(%"class.std::__1::shared_ptr"*) unnamed_addr #4 align 2 {
  %2 = alloca %"class.std::__1::shared_ptr"*, align 8
  store %"class.std::__1::shared_ptr"* %0, %"class.std::__1::shared_ptr"** %2, align 8
  %3 = load %"class.std::__1::shared_ptr"*, %"class.std::__1::shared_ptr"** %2, align 8
  call void @_ZNSt3__110shared_ptrI10ExpressionED2Ev(%"class.std::__1::shared_ptr"* %3) #2
  ret void
}

; Function Attrs: inlinehint nounwind ssp uwtable
define linkonce_odr void @_ZNSt3__16vectorI13TypeSpecifierNS_9allocatorIS1_EEED2Ev(%"class.std::__1::vector.27"*) unnamed_addr #1 align 2 {
  %2 = alloca %"class.std::__1::vector.27"*, align 8
  store %"class.std::__1::vector.27"* %0, %"class.std::__1::vector.27"** %2, align 8
  %3 = load %"class.std::__1::vector.27"*, %"class.std::__1::vector.27"** %2, align 8
  %4 = bitcast %"class.std::__1::vector.27"* %3 to %"class.std::__1::__vector_base.28"*
  call void @_ZNSt3__113__vector_baseI13TypeSpecifierNS_9allocatorIS1_EEED2Ev(%"class.std::__1::__vector_base.28"* %4) #2
  ret void
}

; Function Attrs: nounwind ssp uwtable
define linkonce_odr void @_ZNSt3__113__vector_baseI13TypeSpecifierNS_9allocatorIS1_EEED2Ev(%"class.std::__1::__vector_base.28"*) unnamed_addr #4 align 2 personality i32 (...)* @__gxx_personality_v0 {
  %2 = alloca %"class.std::__1::allocator.31"*, align 8
  %3 = alloca %struct.TypeSpecifier*, align 8
  %4 = alloca %"struct.std::__1::integral_constant.35", align 1
  %5 = alloca %"class.std::__1::allocator.31"*, align 8
  %6 = alloca %struct.TypeSpecifier*, align 8
  %7 = alloca %"class.std::__1::allocator.31"*, align 8
  %8 = alloca %struct.TypeSpecifier*, align 8
  %9 = alloca %"struct.std::__1::integral_constant.35", align 1
  %10 = alloca %"struct.std::__1::__has_destroy.36", align 1
  %11 = alloca %"class.std::__1::__libcpp_compressed_pair_imp.30"*, align 8
  %12 = alloca %"class.std::__1::__compressed_pair.29"*, align 8
  %13 = alloca %"class.std::__1::__vector_base.28"*, align 8
  %14 = alloca %struct.TypeSpecifier*, align 8
  %15 = alloca %"class.std::__1::__vector_base.28"*, align 8
  %16 = alloca %struct.TypeSpecifier*, align 8
  %17 = alloca %"class.std::__1::__vector_base.28"*, align 8
  %18 = alloca %"class.std::__1::__libcpp_compressed_pair_imp.30"*, align 8
  %19 = alloca %"class.std::__1::__compressed_pair.29"*, align 8
  %20 = alloca %"class.std::__1::__vector_base.28"*, align 8
  %21 = alloca %"class.std::__1::__libcpp_compressed_pair_imp.30"*, align 8
  %22 = alloca %"class.std::__1::__compressed_pair.29"*, align 8
  %23 = alloca %"class.std::__1::__vector_base.28"*, align 8
  %24 = alloca %"class.std::__1::__vector_base.28"*, align 8
  %25 = alloca i8*, align 8
  %26 = alloca %"class.std::__1::allocator.31"*, align 8
  %27 = alloca %struct.TypeSpecifier*, align 8
  %28 = alloca i64, align 8
  %29 = alloca %"class.std::__1::allocator.31"*, align 8
  %30 = alloca %struct.TypeSpecifier*, align 8
  %31 = alloca i64, align 8
  %32 = alloca %"class.std::__1::__vector_base.28"*, align 8
  store %"class.std::__1::__vector_base.28"* %0, %"class.std::__1::__vector_base.28"** %32, align 8
  %33 = load %"class.std::__1::__vector_base.28"*, %"class.std::__1::__vector_base.28"** %32, align 8
  %34 = getelementptr inbounds %"class.std::__1::__vector_base.28", %"class.std::__1::__vector_base.28"* %33, i32 0, i32 0
  %35 = load %struct.TypeSpecifier*, %struct.TypeSpecifier** %34, align 8
  %36 = icmp ne %struct.TypeSpecifier* %35, null
  br i1 %36, label %37, label %95

; <label>:37:                                     ; preds = %1
  store %"class.std::__1::__vector_base.28"* %33, %"class.std::__1::__vector_base.28"** %17, align 8
  %38 = load %"class.std::__1::__vector_base.28"*, %"class.std::__1::__vector_base.28"** %17, align 8
  %39 = getelementptr inbounds %"class.std::__1::__vector_base.28", %"class.std::__1::__vector_base.28"* %38, i32 0, i32 0
  %40 = load %struct.TypeSpecifier*, %struct.TypeSpecifier** %39, align 8
  store %"class.std::__1::__vector_base.28"* %38, %"class.std::__1::__vector_base.28"** %15, align 8
  store %struct.TypeSpecifier* %40, %struct.TypeSpecifier** %16, align 8
  %41 = load %"class.std::__1::__vector_base.28"*, %"class.std::__1::__vector_base.28"** %15, align 8
  br label %42

; <label>:42:                                     ; preds = %47, %37
  %43 = load %struct.TypeSpecifier*, %struct.TypeSpecifier** %16, align 8
  %44 = getelementptr inbounds %"class.std::__1::__vector_base.28", %"class.std::__1::__vector_base.28"* %41, i32 0, i32 1
  %45 = load %struct.TypeSpecifier*, %struct.TypeSpecifier** %44, align 8
  %46 = icmp ne %struct.TypeSpecifier* %43, %45
  br i1 %46, label %47, label %65

; <label>:47:                                     ; preds = %42
  store %"class.std::__1::__vector_base.28"* %41, %"class.std::__1::__vector_base.28"** %13, align 8
  %48 = load %"class.std::__1::__vector_base.28"*, %"class.std::__1::__vector_base.28"** %13, align 8
  %49 = getelementptr inbounds %"class.std::__1::__vector_base.28", %"class.std::__1::__vector_base.28"* %48, i32 0, i32 2
  store %"class.std::__1::__compressed_pair.29"* %49, %"class.std::__1::__compressed_pair.29"** %12, align 8
  %50 = load %"class.std::__1::__compressed_pair.29"*, %"class.std::__1::__compressed_pair.29"** %12, align 8
  %51 = bitcast %"class.std::__1::__compressed_pair.29"* %50 to %"class.std::__1::__libcpp_compressed_pair_imp.30"*
  store %"class.std::__1::__libcpp_compressed_pair_imp.30"* %51, %"class.std::__1::__libcpp_compressed_pair_imp.30"** %11, align 8
  %52 = load %"class.std::__1::__libcpp_compressed_pair_imp.30"*, %"class.std::__1::__libcpp_compressed_pair_imp.30"** %11, align 8
  %53 = bitcast %"class.std::__1::__libcpp_compressed_pair_imp.30"* %52 to %"class.std::__1::allocator.31"*
  %54 = getelementptr inbounds %"class.std::__1::__vector_base.28", %"class.std::__1::__vector_base.28"* %41, i32 0, i32 1
  %55 = load %struct.TypeSpecifier*, %struct.TypeSpecifier** %54, align 8
  %56 = getelementptr inbounds %struct.TypeSpecifier, %struct.TypeSpecifier* %55, i32 -1
  store %struct.TypeSpecifier* %56, %struct.TypeSpecifier** %54, align 8
  store %struct.TypeSpecifier* %56, %struct.TypeSpecifier** %14, align 8
  %57 = load %struct.TypeSpecifier*, %struct.TypeSpecifier** %14, align 8
  store %"class.std::__1::allocator.31"* %53, %"class.std::__1::allocator.31"** %7, align 8
  store %struct.TypeSpecifier* %57, %struct.TypeSpecifier** %8, align 8
  %58 = bitcast %"struct.std::__1::__has_destroy.36"* %10 to %"struct.std::__1::integral_constant.35"*
  %59 = load %"class.std::__1::allocator.31"*, %"class.std::__1::allocator.31"** %7, align 8
  %60 = load %struct.TypeSpecifier*, %struct.TypeSpecifier** %8, align 8
  store %"class.std::__1::allocator.31"* %59, %"class.std::__1::allocator.31"** %5, align 8
  store %struct.TypeSpecifier* %60, %struct.TypeSpecifier** %6, align 8
  %61 = load %"class.std::__1::allocator.31"*, %"class.std::__1::allocator.31"** %5, align 8
  %62 = load %struct.TypeSpecifier*, %struct.TypeSpecifier** %6, align 8
  store %"class.std::__1::allocator.31"* %61, %"class.std::__1::allocator.31"** %2, align 8
  store %struct.TypeSpecifier* %62, %struct.TypeSpecifier** %3, align 8
  %63 = load %"class.std::__1::allocator.31"*, %"class.std::__1::allocator.31"** %2, align 8
  %64 = load %struct.TypeSpecifier*, %struct.TypeSpecifier** %3, align 8
  call void @_ZN13TypeSpecifierD1Ev(%struct.TypeSpecifier* %64) #2
  br label %42

; <label>:65:                                     ; preds = %42
  store %"class.std::__1::__vector_base.28"* %33, %"class.std::__1::__vector_base.28"** %20, align 8
  %66 = load %"class.std::__1::__vector_base.28"*, %"class.std::__1::__vector_base.28"** %20, align 8
  %67 = getelementptr inbounds %"class.std::__1::__vector_base.28", %"class.std::__1::__vector_base.28"* %66, i32 0, i32 2
  store %"class.std::__1::__compressed_pair.29"* %67, %"class.std::__1::__compressed_pair.29"** %19, align 8
  %68 = load %"class.std::__1::__compressed_pair.29"*, %"class.std::__1::__compressed_pair.29"** %19, align 8
  %69 = bitcast %"class.std::__1::__compressed_pair.29"* %68 to %"class.std::__1::__libcpp_compressed_pair_imp.30"*
  store %"class.std::__1::__libcpp_compressed_pair_imp.30"* %69, %"class.std::__1::__libcpp_compressed_pair_imp.30"** %18, align 8
  %70 = load %"class.std::__1::__libcpp_compressed_pair_imp.30"*, %"class.std::__1::__libcpp_compressed_pair_imp.30"** %18, align 8
  %71 = bitcast %"class.std::__1::__libcpp_compressed_pair_imp.30"* %70 to %"class.std::__1::allocator.31"*
  %72 = getelementptr inbounds %"class.std::__1::__vector_base.28", %"class.std::__1::__vector_base.28"* %33, i32 0, i32 0
  %73 = load %struct.TypeSpecifier*, %struct.TypeSpecifier** %72, align 8
  store %"class.std::__1::__vector_base.28"* %33, %"class.std::__1::__vector_base.28"** %24, align 8
  %74 = load %"class.std::__1::__vector_base.28"*, %"class.std::__1::__vector_base.28"** %24, align 8
  store %"class.std::__1::__vector_base.28"* %74, %"class.std::__1::__vector_base.28"** %23, align 8
  %75 = load %"class.std::__1::__vector_base.28"*, %"class.std::__1::__vector_base.28"** %23, align 8
  %76 = getelementptr inbounds %"class.std::__1::__vector_base.28", %"class.std::__1::__vector_base.28"* %75, i32 0, i32 2
  store %"class.std::__1::__compressed_pair.29"* %76, %"class.std::__1::__compressed_pair.29"** %22, align 8
  %77 = load %"class.std::__1::__compressed_pair.29"*, %"class.std::__1::__compressed_pair.29"** %22, align 8
  %78 = bitcast %"class.std::__1::__compressed_pair.29"* %77 to %"class.std::__1::__libcpp_compressed_pair_imp.30"*
  store %"class.std::__1::__libcpp_compressed_pair_imp.30"* %78, %"class.std::__1::__libcpp_compressed_pair_imp.30"** %21, align 8
  %79 = load %"class.std::__1::__libcpp_compressed_pair_imp.30"*, %"class.std::__1::__libcpp_compressed_pair_imp.30"** %21, align 8
  %80 = getelementptr inbounds %"class.std::__1::__libcpp_compressed_pair_imp.30", %"class.std::__1::__libcpp_compressed_pair_imp.30"* %79, i32 0, i32 0
  %81 = load %struct.TypeSpecifier*, %struct.TypeSpecifier** %80, align 8
  %82 = getelementptr inbounds %"class.std::__1::__vector_base.28", %"class.std::__1::__vector_base.28"* %74, i32 0, i32 0
  %83 = load %struct.TypeSpecifier*, %struct.TypeSpecifier** %82, align 8
  %84 = ptrtoint %struct.TypeSpecifier* %81 to i64
  %85 = ptrtoint %struct.TypeSpecifier* %83 to i64
  %86 = sub i64 %84, %85
  %87 = sdiv exact i64 %86, 216
  store %"class.std::__1::allocator.31"* %71, %"class.std::__1::allocator.31"** %29, align 8
  store %struct.TypeSpecifier* %73, %struct.TypeSpecifier** %30, align 8
  store i64 %87, i64* %31, align 8
  %88 = load %"class.std::__1::allocator.31"*, %"class.std::__1::allocator.31"** %29, align 8
  %89 = load %struct.TypeSpecifier*, %struct.TypeSpecifier** %30, align 8
  %90 = load i64, i64* %31, align 8
  store %"class.std::__1::allocator.31"* %88, %"class.std::__1::allocator.31"** %26, align 8
  store %struct.TypeSpecifier* %89, %struct.TypeSpecifier** %27, align 8
  store i64 %90, i64* %28, align 8
  %91 = load %"class.std::__1::allocator.31"*, %"class.std::__1::allocator.31"** %26, align 8
  %92 = load %struct.TypeSpecifier*, %struct.TypeSpecifier** %27, align 8
  %93 = bitcast %struct.TypeSpecifier* %92 to i8*
  store i8* %93, i8** %25, align 8
  %94 = load i8*, i8** %25, align 8
  call void @_ZdlPv(i8* %94) #12
  br label %95

; <label>:95:                                     ; preds = %65, %1
  ret void
}

; Function Attrs: inlinehint nounwind ssp uwtable
define linkonce_odr void @_ZNSt3__16vectorINS_12basic_stringIcNS_11char_traitsIcEENS_9allocatorIcEEEENS4_IS6_EEED2Ev(%"class.std::__1::vector"*) unnamed_addr #1 align 2 {
  %2 = alloca %"class.std::__1::vector"*, align 8
  store %"class.std::__1::vector"* %0, %"class.std::__1::vector"** %2, align 8
  %3 = load %"class.std::__1::vector"*, %"class.std::__1::vector"** %2, align 8
  %4 = bitcast %"class.std::__1::vector"* %3 to %"class.std::__1::__vector_base"*
  call void @_ZNSt3__113__vector_baseINS_12basic_stringIcNS_11char_traitsIcEENS_9allocatorIcEEEENS4_IS6_EEED2Ev(%"class.std::__1::__vector_base"* %4) #2
  ret void
}

; Function Attrs: nounwind ssp uwtable
define linkonce_odr void @_ZNSt3__113__vector_baseINS_12basic_stringIcNS_11char_traitsIcEENS_9allocatorIcEEEENS4_IS6_EEED2Ev(%"class.std::__1::__vector_base"*) unnamed_addr #4 align 2 personality i32 (...)* @__gxx_personality_v0 {
  %2 = alloca %"class.std::__1::__libcpp_compressed_pair_imp.24"*, align 8
  %3 = alloca %"class.std::__1::__compressed_pair.23"*, align 8
  %4 = alloca %"class.std::__1::__vector_base"*, align 8
  %5 = alloca %"class.std::__1::__vector_base"*, align 8
  %6 = alloca i8*, align 8
  %7 = alloca %"class.std::__1::allocator.25"*, align 8
  %8 = alloca %"class.std::__1::basic_string"*, align 8
  %9 = alloca i64, align 8
  %10 = alloca %"class.std::__1::allocator.25"*, align 8
  %11 = alloca %"class.std::__1::basic_string"*, align 8
  %12 = alloca i64, align 8
  %13 = alloca %"class.std::__1::__libcpp_compressed_pair_imp.24"*, align 8
  %14 = alloca %"class.std::__1::__compressed_pair.23"*, align 8
  %15 = alloca %"class.std::__1::__vector_base"*, align 8
  %16 = alloca %"class.std::__1::allocator.25"*, align 8
  %17 = alloca %"class.std::__1::basic_string"*, align 8
  %18 = alloca %"struct.std::__1::integral_constant.35", align 1
  %19 = alloca %"class.std::__1::allocator.25"*, align 8
  %20 = alloca %"class.std::__1::basic_string"*, align 8
  %21 = alloca %"class.std::__1::allocator.25"*, align 8
  %22 = alloca %"class.std::__1::basic_string"*, align 8
  %23 = alloca %"struct.std::__1::integral_constant.35", align 1
  %24 = alloca %"struct.std::__1::__has_destroy.37", align 1
  %25 = alloca %"class.std::__1::basic_string"*, align 8
  %26 = alloca %"class.std::__1::__libcpp_compressed_pair_imp.24"*, align 8
  %27 = alloca %"class.std::__1::__compressed_pair.23"*, align 8
  %28 = alloca %"class.std::__1::__vector_base"*, align 8
  %29 = alloca %"class.std::__1::__vector_base"*, align 8
  %30 = alloca %"class.std::__1::basic_string"*, align 8
  %31 = alloca %"class.std::__1::__vector_base"*, align 8
  %32 = alloca %"class.std::__1::__vector_base"*, align 8
  store %"class.std::__1::__vector_base"* %0, %"class.std::__1::__vector_base"** %32, align 8
  %33 = load %"class.std::__1::__vector_base"*, %"class.std::__1::__vector_base"** %32, align 8
  %34 = getelementptr inbounds %"class.std::__1::__vector_base", %"class.std::__1::__vector_base"* %33, i32 0, i32 0
  %35 = load %"class.std::__1::basic_string"*, %"class.std::__1::basic_string"** %34, align 8
  %36 = icmp ne %"class.std::__1::basic_string"* %35, null
  br i1 %36, label %37, label %95

; <label>:37:                                     ; preds = %1
  store %"class.std::__1::__vector_base"* %33, %"class.std::__1::__vector_base"** %31, align 8
  %38 = load %"class.std::__1::__vector_base"*, %"class.std::__1::__vector_base"** %31, align 8
  %39 = getelementptr inbounds %"class.std::__1::__vector_base", %"class.std::__1::__vector_base"* %38, i32 0, i32 0
  %40 = load %"class.std::__1::basic_string"*, %"class.std::__1::basic_string"** %39, align 8
  store %"class.std::__1::__vector_base"* %38, %"class.std::__1::__vector_base"** %29, align 8
  store %"class.std::__1::basic_string"* %40, %"class.std::__1::basic_string"** %30, align 8
  %41 = load %"class.std::__1::__vector_base"*, %"class.std::__1::__vector_base"** %29, align 8
  br label %42

; <label>:42:                                     ; preds = %47, %37
  %43 = load %"class.std::__1::basic_string"*, %"class.std::__1::basic_string"** %30, align 8
  %44 = getelementptr inbounds %"class.std::__1::__vector_base", %"class.std::__1::__vector_base"* %41, i32 0, i32 1
  %45 = load %"class.std::__1::basic_string"*, %"class.std::__1::basic_string"** %44, align 8
  %46 = icmp ne %"class.std::__1::basic_string"* %43, %45
  br i1 %46, label %47, label %65

; <label>:47:                                     ; preds = %42
  store %"class.std::__1::__vector_base"* %41, %"class.std::__1::__vector_base"** %28, align 8
  %48 = load %"class.std::__1::__vector_base"*, %"class.std::__1::__vector_base"** %28, align 8
  %49 = getelementptr inbounds %"class.std::__1::__vector_base", %"class.std::__1::__vector_base"* %48, i32 0, i32 2
  store %"class.std::__1::__compressed_pair.23"* %49, %"class.std::__1::__compressed_pair.23"** %27, align 8
  %50 = load %"class.std::__1::__compressed_pair.23"*, %"class.std::__1::__compressed_pair.23"** %27, align 8
  %51 = bitcast %"class.std::__1::__compressed_pair.23"* %50 to %"class.std::__1::__libcpp_compressed_pair_imp.24"*
  store %"class.std::__1::__libcpp_compressed_pair_imp.24"* %51, %"class.std::__1::__libcpp_compressed_pair_imp.24"** %26, align 8
  %52 = load %"class.std::__1::__libcpp_compressed_pair_imp.24"*, %"class.std::__1::__libcpp_compressed_pair_imp.24"** %26, align 8
  %53 = bitcast %"class.std::__1::__libcpp_compressed_pair_imp.24"* %52 to %"class.std::__1::allocator.25"*
  %54 = getelementptr inbounds %"class.std::__1::__vector_base", %"class.std::__1::__vector_base"* %41, i32 0, i32 1
  %55 = load %"class.std::__1::basic_string"*, %"class.std::__1::basic_string"** %54, align 8
  %56 = getelementptr inbounds %"class.std::__1::basic_string", %"class.std::__1::basic_string"* %55, i32 -1
  store %"class.std::__1::basic_string"* %56, %"class.std::__1::basic_string"** %54, align 8
  store %"class.std::__1::basic_string"* %56, %"class.std::__1::basic_string"** %25, align 8
  %57 = load %"class.std::__1::basic_string"*, %"class.std::__1::basic_string"** %25, align 8
  store %"class.std::__1::allocator.25"* %53, %"class.std::__1::allocator.25"** %21, align 8
  store %"class.std::__1::basic_string"* %57, %"class.std::__1::basic_string"** %22, align 8
  %58 = bitcast %"struct.std::__1::__has_destroy.37"* %24 to %"struct.std::__1::integral_constant.35"*
  %59 = load %"class.std::__1::allocator.25"*, %"class.std::__1::allocator.25"** %21, align 8
  %60 = load %"class.std::__1::basic_string"*, %"class.std::__1::basic_string"** %22, align 8
  store %"class.std::__1::allocator.25"* %59, %"class.std::__1::allocator.25"** %19, align 8
  store %"class.std::__1::basic_string"* %60, %"class.std::__1::basic_string"** %20, align 8
  %61 = load %"class.std::__1::allocator.25"*, %"class.std::__1::allocator.25"** %19, align 8
  %62 = load %"class.std::__1::basic_string"*, %"class.std::__1::basic_string"** %20, align 8
  store %"class.std::__1::allocator.25"* %61, %"class.std::__1::allocator.25"** %16, align 8
  store %"class.std::__1::basic_string"* %62, %"class.std::__1::basic_string"** %17, align 8
  %63 = load %"class.std::__1::allocator.25"*, %"class.std::__1::allocator.25"** %16, align 8
  %64 = load %"class.std::__1::basic_string"*, %"class.std::__1::basic_string"** %17, align 8
  call void @_ZNSt3__112basic_stringIcNS_11char_traitsIcEENS_9allocatorIcEEED1Ev(%"class.std::__1::basic_string"* %64) #2
  br label %42

; <label>:65:                                     ; preds = %42
  store %"class.std::__1::__vector_base"* %33, %"class.std::__1::__vector_base"** %15, align 8
  %66 = load %"class.std::__1::__vector_base"*, %"class.std::__1::__vector_base"** %15, align 8
  %67 = getelementptr inbounds %"class.std::__1::__vector_base", %"class.std::__1::__vector_base"* %66, i32 0, i32 2
  store %"class.std::__1::__compressed_pair.23"* %67, %"class.std::__1::__compressed_pair.23"** %14, align 8
  %68 = load %"class.std::__1::__compressed_pair.23"*, %"class.std::__1::__compressed_pair.23"** %14, align 8
  %69 = bitcast %"class.std::__1::__compressed_pair.23"* %68 to %"class.std::__1::__libcpp_compressed_pair_imp.24"*
  store %"class.std::__1::__libcpp_compressed_pair_imp.24"* %69, %"class.std::__1::__libcpp_compressed_pair_imp.24"** %13, align 8
  %70 = load %"class.std::__1::__libcpp_compressed_pair_imp.24"*, %"class.std::__1::__libcpp_compressed_pair_imp.24"** %13, align 8
  %71 = bitcast %"class.std::__1::__libcpp_compressed_pair_imp.24"* %70 to %"class.std::__1::allocator.25"*
  %72 = getelementptr inbounds %"class.std::__1::__vector_base", %"class.std::__1::__vector_base"* %33, i32 0, i32 0
  %73 = load %"class.std::__1::basic_string"*, %"class.std::__1::basic_string"** %72, align 8
  store %"class.std::__1::__vector_base"* %33, %"class.std::__1::__vector_base"** %5, align 8
  %74 = load %"class.std::__1::__vector_base"*, %"class.std::__1::__vector_base"** %5, align 8
  store %"class.std::__1::__vector_base"* %74, %"class.std::__1::__vector_base"** %4, align 8
  %75 = load %"class.std::__1::__vector_base"*, %"class.std::__1::__vector_base"** %4, align 8
  %76 = getelementptr inbounds %"class.std::__1::__vector_base", %"class.std::__1::__vector_base"* %75, i32 0, i32 2
  store %"class.std::__1::__compressed_pair.23"* %76, %"class.std::__1::__compressed_pair.23"** %3, align 8
  %77 = load %"class.std::__1::__compressed_pair.23"*, %"class.std::__1::__compressed_pair.23"** %3, align 8
  %78 = bitcast %"class.std::__1::__compressed_pair.23"* %77 to %"class.std::__1::__libcpp_compressed_pair_imp.24"*
  store %"class.std::__1::__libcpp_compressed_pair_imp.24"* %78, %"class.std::__1::__libcpp_compressed_pair_imp.24"** %2, align 8
  %79 = load %"class.std::__1::__libcpp_compressed_pair_imp.24"*, %"class.std::__1::__libcpp_compressed_pair_imp.24"** %2, align 8
  %80 = getelementptr inbounds %"class.std::__1::__libcpp_compressed_pair_imp.24", %"class.std::__1::__libcpp_compressed_pair_imp.24"* %79, i32 0, i32 0
  %81 = load %"class.std::__1::basic_string"*, %"class.std::__1::basic_string"** %80, align 8
  %82 = getelementptr inbounds %"class.std::__1::__vector_base", %"class.std::__1::__vector_base"* %74, i32 0, i32 0
  %83 = load %"class.std::__1::basic_string"*, %"class.std::__1::basic_string"** %82, align 8
  %84 = ptrtoint %"class.std::__1::basic_string"* %81 to i64
  %85 = ptrtoint %"class.std::__1::basic_string"* %83 to i64
  %86 = sub i64 %84, %85
  %87 = sdiv exact i64 %86, 24
  store %"class.std::__1::allocator.25"* %71, %"class.std::__1::allocator.25"** %10, align 8
  store %"class.std::__1::basic_string"* %73, %"class.std::__1::basic_string"** %11, align 8
  store i64 %87, i64* %12, align 8
  %88 = load %"class.std::__1::allocator.25"*, %"class.std::__1::allocator.25"** %10, align 8
  %89 = load %"class.std::__1::basic_string"*, %"class.std::__1::basic_string"** %11, align 8
  %90 = load i64, i64* %12, align 8
  store %"class.std::__1::allocator.25"* %88, %"class.std::__1::allocator.25"** %7, align 8
  store %"class.std::__1::basic_string"* %89, %"class.std::__1::basic_string"** %8, align 8
  store i64 %90, i64* %9, align 8
  %91 = load %"class.std::__1::allocator.25"*, %"class.std::__1::allocator.25"** %7, align 8
  %92 = load %"class.std::__1::basic_string"*, %"class.std::__1::basic_string"** %8, align 8
  %93 = bitcast %"class.std::__1::basic_string"* %92 to i8*
  store i8* %93, i8** %6, align 8
  %94 = load i8*, i8** %6, align 8
  call void @_ZdlPv(i8* %94) #12
  br label %95

; <label>:95:                                     ; preds = %65, %1
  ret void
}

; Function Attrs: inlinehint nounwind ssp uwtable
define linkonce_odr void @_ZNSt3__113unordered_mapINS_12basic_stringIcNS_11char_traitsIcEENS_9allocatorIcEEEE13TypeSpecifierNS_4hashIS6_EENS_8equal_toIS6_EENS4_INS_4pairIKS6_S7_EEEEED2Ev(%"class.std::__1::unordered_map"*) unnamed_addr #1 align 2 {
  %2 = alloca %"class.std::__1::unordered_map"*, align 8
  store %"class.std::__1::unordered_map"* %0, %"class.std::__1::unordered_map"** %2, align 8
  %3 = load %"class.std::__1::unordered_map"*, %"class.std::__1::unordered_map"** %2, align 8
  %4 = getelementptr inbounds %"class.std::__1::unordered_map", %"class.std::__1::unordered_map"* %3, i32 0, i32 0
  call void @_ZNSt3__112__hash_tableINS_17__hash_value_typeINS_12basic_stringIcNS_11char_traitsIcEENS_9allocatorIcEEEE13TypeSpecifierEENS_22__unordered_map_hasherIS7_S9_NS_4hashIS7_EELb1EEENS_21__unordered_map_equalIS7_S9_NS_8equal_toIS7_EELb1EEENS5_IS9_EEED1Ev(%"class.std::__1::__hash_table"* %4) #2
  ret void
}

; Function Attrs: nounwind ssp uwtable
define linkonce_odr void @_ZNSt3__112__hash_tableINS_17__hash_value_typeINS_12basic_stringIcNS_11char_traitsIcEENS_9allocatorIcEEEE13TypeSpecifierEENS_22__unordered_map_hasherIS7_S9_NS_4hashIS7_EELb1EEENS_21__unordered_map_equalIS7_S9_NS_8equal_toIS7_EELb1EEENS5_IS9_EEED1Ev(%"class.std::__1::__hash_table"*) unnamed_addr #4 align 2 {
  %2 = alloca %"class.std::__1::__hash_table"*, align 8
  store %"class.std::__1::__hash_table"* %0, %"class.std::__1::__hash_table"** %2, align 8
  %3 = load %"class.std::__1::__hash_table"*, %"class.std::__1::__hash_table"** %2, align 8
  call void @_ZNSt3__112__hash_tableINS_17__hash_value_typeINS_12basic_stringIcNS_11char_traitsIcEENS_9allocatorIcEEEE13TypeSpecifierEENS_22__unordered_map_hasherIS7_S9_NS_4hashIS7_EELb1EEENS_21__unordered_map_equalIS7_S9_NS_8equal_toIS7_EELb1EEENS5_IS9_EEED2Ev(%"class.std::__1::__hash_table"* %3) #2
  ret void
}

; Function Attrs: nounwind ssp uwtable
define linkonce_odr void @_ZNSt3__112__hash_tableINS_17__hash_value_typeINS_12basic_stringIcNS_11char_traitsIcEENS_9allocatorIcEEEE13TypeSpecifierEENS_22__unordered_map_hasherIS7_S9_NS_4hashIS7_EELb1EEENS_21__unordered_map_equalIS7_S9_NS_8equal_toIS7_EELb1EEENS5_IS9_EEED2Ev(%"class.std::__1::__hash_table"*) unnamed_addr #4 align 2 personality i32 (...)* @__gxx_personality_v0 {
  %2 = alloca %"class.std::__1::__libcpp_compressed_pair_imp.9"*, align 8
  %3 = alloca %"class.std::__1::__compressed_pair.8"*, align 8
  %4 = alloca %"class.std::__1::__libcpp_compressed_pair_imp.9"*, align 8
  %5 = alloca %"class.std::__1::__compressed_pair.8"*, align 8
  %6 = alloca %"class.std::__1::__libcpp_compressed_pair_imp.11"*, align 8
  %7 = alloca %"class.std::__1::__compressed_pair.10"*, align 8
  %8 = alloca %"class.std::__1::__bucket_list_deallocator"*, align 8
  %9 = alloca i8*, align 8
  %10 = alloca %"class.std::__1::allocator.12"*, align 8
  %11 = alloca %"struct.std::__1::__hash_node_base"**, align 8
  %12 = alloca i64, align 8
  %13 = alloca %"class.std::__1::allocator.12"*, align 8
  %14 = alloca %"struct.std::__1::__hash_node_base"**, align 8
  %15 = alloca i64, align 8
  %16 = alloca %"class.std::__1::__libcpp_compressed_pair_imp.11"*, align 8
  %17 = alloca %"class.std::__1::__compressed_pair.10"*, align 8
  %18 = alloca %"class.std::__1::__bucket_list_deallocator"*, align 8
  %19 = alloca %"class.std::__1::__bucket_list_deallocator"*, align 8
  %20 = alloca %"struct.std::__1::__hash_node_base"**, align 8
  %21 = alloca %"class.std::__1::__libcpp_compressed_pair_imp.9"*, align 8
  %22 = alloca %"class.std::__1::__compressed_pair.8"*, align 8
  %23 = alloca %"class.std::__1::unique_ptr"*, align 8
  %24 = alloca %"struct.std::__1::__hash_node_base"**, align 8
  %25 = alloca %"class.std::__1::unique_ptr"*, align 8
  %26 = alloca %"class.std::__1::unique_ptr"*, align 8
  %27 = alloca %"class.std::__1::__libcpp_compressed_pair_imp.15"*, align 8
  %28 = alloca %"class.std::__1::__compressed_pair.14"*, align 8
  %29 = alloca %"class.std::__1::__hash_table"*, align 8
  store %"class.std::__1::__hash_table"* %0, %"class.std::__1::__hash_table"** %29, align 8
  %30 = load %"class.std::__1::__hash_table"*, %"class.std::__1::__hash_table"** %29, align 8
  %31 = getelementptr inbounds %"class.std::__1::__hash_table", %"class.std::__1::__hash_table"* %30, i32 0, i32 1
  store %"class.std::__1::__compressed_pair.14"* %31, %"class.std::__1::__compressed_pair.14"** %28, align 8
  %32 = load %"class.std::__1::__compressed_pair.14"*, %"class.std::__1::__compressed_pair.14"** %28, align 8
  %33 = bitcast %"class.std::__1::__compressed_pair.14"* %32 to %"class.std::__1::__libcpp_compressed_pair_imp.15"*
  store %"class.std::__1::__libcpp_compressed_pair_imp.15"* %33, %"class.std::__1::__libcpp_compressed_pair_imp.15"** %27, align 8
  %34 = load %"class.std::__1::__libcpp_compressed_pair_imp.15"*, %"class.std::__1::__libcpp_compressed_pair_imp.15"** %27, align 8
  %35 = getelementptr inbounds %"class.std::__1::__libcpp_compressed_pair_imp.15", %"class.std::__1::__libcpp_compressed_pair_imp.15"* %34, i32 0, i32 0
  %36 = getelementptr inbounds %"struct.std::__1::__hash_node_base", %"struct.std::__1::__hash_node_base"* %35, i32 0, i32 0
  %37 = load %"struct.std::__1::__hash_node_base"*, %"struct.std::__1::__hash_node_base"** %36, align 8
  call void @_ZNSt3__112__hash_tableINS_17__hash_value_typeINS_12basic_stringIcNS_11char_traitsIcEENS_9allocatorIcEEEE13TypeSpecifierEENS_22__unordered_map_hasherIS7_S9_NS_4hashIS7_EELb1EEENS_21__unordered_map_equalIS7_S9_NS_8equal_toIS7_EELb1EEENS5_IS9_EEE12__deallocateEPNS_16__hash_node_baseIPNS_11__hash_nodeIS9_PvEEEE(%"class.std::__1::__hash_table"* %30, %"struct.std::__1::__hash_node_base"* %37) #2
  %38 = getelementptr inbounds %"class.std::__1::__hash_table", %"class.std::__1::__hash_table"* %30, i32 0, i32 0
  store %"class.std::__1::unique_ptr"* %38, %"class.std::__1::unique_ptr"** %26, align 8
  %39 = load %"class.std::__1::unique_ptr"*, %"class.std::__1::unique_ptr"** %26, align 8
  store %"class.std::__1::unique_ptr"* %39, %"class.std::__1::unique_ptr"** %25, align 8
  %40 = load %"class.std::__1::unique_ptr"*, %"class.std::__1::unique_ptr"** %25, align 8
  store %"class.std::__1::unique_ptr"* %40, %"class.std::__1::unique_ptr"** %23, align 8
  %41 = load %"class.std::__1::unique_ptr"*, %"class.std::__1::unique_ptr"** %23, align 8
  %42 = getelementptr inbounds %"class.std::__1::unique_ptr", %"class.std::__1::unique_ptr"* %41, i32 0, i32 0
  store %"class.std::__1::__compressed_pair.8"* %42, %"class.std::__1::__compressed_pair.8"** %22, align 8
  %43 = load %"class.std::__1::__compressed_pair.8"*, %"class.std::__1::__compressed_pair.8"** %22, align 8
  %44 = bitcast %"class.std::__1::__compressed_pair.8"* %43 to %"class.std::__1::__libcpp_compressed_pair_imp.9"*
  store %"class.std::__1::__libcpp_compressed_pair_imp.9"* %44, %"class.std::__1::__libcpp_compressed_pair_imp.9"** %21, align 8
  %45 = load %"class.std::__1::__libcpp_compressed_pair_imp.9"*, %"class.std::__1::__libcpp_compressed_pair_imp.9"** %21, align 8
  %46 = getelementptr inbounds %"class.std::__1::__libcpp_compressed_pair_imp.9", %"class.std::__1::__libcpp_compressed_pair_imp.9"* %45, i32 0, i32 0
  %47 = load %"struct.std::__1::__hash_node_base"**, %"struct.std::__1::__hash_node_base"*** %46, align 8
  store %"struct.std::__1::__hash_node_base"** %47, %"struct.std::__1::__hash_node_base"*** %24, align 8
  %48 = getelementptr inbounds %"class.std::__1::unique_ptr", %"class.std::__1::unique_ptr"* %41, i32 0, i32 0
  store %"class.std::__1::__compressed_pair.8"* %48, %"class.std::__1::__compressed_pair.8"** %5, align 8
  %49 = load %"class.std::__1::__compressed_pair.8"*, %"class.std::__1::__compressed_pair.8"** %5, align 8
  %50 = bitcast %"class.std::__1::__compressed_pair.8"* %49 to %"class.std::__1::__libcpp_compressed_pair_imp.9"*
  store %"class.std::__1::__libcpp_compressed_pair_imp.9"* %50, %"class.std::__1::__libcpp_compressed_pair_imp.9"** %4, align 8
  %51 = load %"class.std::__1::__libcpp_compressed_pair_imp.9"*, %"class.std::__1::__libcpp_compressed_pair_imp.9"** %4, align 8
  %52 = getelementptr inbounds %"class.std::__1::__libcpp_compressed_pair_imp.9", %"class.std::__1::__libcpp_compressed_pair_imp.9"* %51, i32 0, i32 0
  store %"struct.std::__1::__hash_node_base"** null, %"struct.std::__1::__hash_node_base"*** %52, align 8
  %53 = load %"struct.std::__1::__hash_node_base"**, %"struct.std::__1::__hash_node_base"*** %24, align 8
  %54 = icmp ne %"struct.std::__1::__hash_node_base"** %53, null
  br i1 %54, label %55, label %84

; <label>:55:                                     ; preds = %1
  %56 = getelementptr inbounds %"class.std::__1::unique_ptr", %"class.std::__1::unique_ptr"* %41, i32 0, i32 0
  store %"class.std::__1::__compressed_pair.8"* %56, %"class.std::__1::__compressed_pair.8"** %3, align 8
  %57 = load %"class.std::__1::__compressed_pair.8"*, %"class.std::__1::__compressed_pair.8"** %3, align 8
  %58 = bitcast %"class.std::__1::__compressed_pair.8"* %57 to %"class.std::__1::__libcpp_compressed_pair_imp.9"*
  store %"class.std::__1::__libcpp_compressed_pair_imp.9"* %58, %"class.std::__1::__libcpp_compressed_pair_imp.9"** %2, align 8
  %59 = load %"class.std::__1::__libcpp_compressed_pair_imp.9"*, %"class.std::__1::__libcpp_compressed_pair_imp.9"** %2, align 8
  %60 = getelementptr inbounds %"class.std::__1::__libcpp_compressed_pair_imp.9", %"class.std::__1::__libcpp_compressed_pair_imp.9"* %59, i32 0, i32 1
  %61 = load %"struct.std::__1::__hash_node_base"**, %"struct.std::__1::__hash_node_base"*** %24, align 8
  store %"class.std::__1::__bucket_list_deallocator"* %60, %"class.std::__1::__bucket_list_deallocator"** %19, align 8
  store %"struct.std::__1::__hash_node_base"** %61, %"struct.std::__1::__hash_node_base"*** %20, align 8
  %62 = load %"class.std::__1::__bucket_list_deallocator"*, %"class.std::__1::__bucket_list_deallocator"** %19, align 8
  store %"class.std::__1::__bucket_list_deallocator"* %62, %"class.std::__1::__bucket_list_deallocator"** %18, align 8
  %63 = load %"class.std::__1::__bucket_list_deallocator"*, %"class.std::__1::__bucket_list_deallocator"** %18, align 8
  %64 = getelementptr inbounds %"class.std::__1::__bucket_list_deallocator", %"class.std::__1::__bucket_list_deallocator"* %63, i32 0, i32 0
  store %"class.std::__1::__compressed_pair.10"* %64, %"class.std::__1::__compressed_pair.10"** %17, align 8
  %65 = load %"class.std::__1::__compressed_pair.10"*, %"class.std::__1::__compressed_pair.10"** %17, align 8
  %66 = bitcast %"class.std::__1::__compressed_pair.10"* %65 to %"class.std::__1::__libcpp_compressed_pair_imp.11"*
  store %"class.std::__1::__libcpp_compressed_pair_imp.11"* %66, %"class.std::__1::__libcpp_compressed_pair_imp.11"** %16, align 8
  %67 = load %"class.std::__1::__libcpp_compressed_pair_imp.11"*, %"class.std::__1::__libcpp_compressed_pair_imp.11"** %16, align 8
  %68 = bitcast %"class.std::__1::__libcpp_compressed_pair_imp.11"* %67 to %"class.std::__1::allocator.12"*
  %69 = load %"struct.std::__1::__hash_node_base"**, %"struct.std::__1::__hash_node_base"*** %20, align 8
  store %"class.std::__1::__bucket_list_deallocator"* %62, %"class.std::__1::__bucket_list_deallocator"** %8, align 8
  %70 = load %"class.std::__1::__bucket_list_deallocator"*, %"class.std::__1::__bucket_list_deallocator"** %8, align 8
  %71 = getelementptr inbounds %"class.std::__1::__bucket_list_deallocator", %"class.std::__1::__bucket_list_deallocator"* %70, i32 0, i32 0
  store %"class.std::__1::__compressed_pair.10"* %71, %"class.std::__1::__compressed_pair.10"** %7, align 8
  %72 = load %"class.std::__1::__compressed_pair.10"*, %"class.std::__1::__compressed_pair.10"** %7, align 8
  %73 = bitcast %"class.std::__1::__compressed_pair.10"* %72 to %"class.std::__1::__libcpp_compressed_pair_imp.11"*
  store %"class.std::__1::__libcpp_compressed_pair_imp.11"* %73, %"class.std::__1::__libcpp_compressed_pair_imp.11"** %6, align 8
  %74 = load %"class.std::__1::__libcpp_compressed_pair_imp.11"*, %"class.std::__1::__libcpp_compressed_pair_imp.11"** %6, align 8
  %75 = getelementptr inbounds %"class.std::__1::__libcpp_compressed_pair_imp.11", %"class.std::__1::__libcpp_compressed_pair_imp.11"* %74, i32 0, i32 0
  %76 = load i64, i64* %75, align 8
  store %"class.std::__1::allocator.12"* %68, %"class.std::__1::allocator.12"** %13, align 8
  store %"struct.std::__1::__hash_node_base"** %69, %"struct.std::__1::__hash_node_base"*** %14, align 8
  store i64 %76, i64* %15, align 8
  %77 = load %"class.std::__1::allocator.12"*, %"class.std::__1::allocator.12"** %13, align 8
  %78 = load %"struct.std::__1::__hash_node_base"**, %"struct.std::__1::__hash_node_base"*** %14, align 8
  %79 = load i64, i64* %15, align 8
  store %"class.std::__1::allocator.12"* %77, %"class.std::__1::allocator.12"** %10, align 8
  store %"struct.std::__1::__hash_node_base"** %78, %"struct.std::__1::__hash_node_base"*** %11, align 8
  store i64 %79, i64* %12, align 8
  %80 = load %"class.std::__1::allocator.12"*, %"class.std::__1::allocator.12"** %10, align 8
  %81 = load %"struct.std::__1::__hash_node_base"**, %"struct.std::__1::__hash_node_base"*** %11, align 8
  %82 = bitcast %"struct.std::__1::__hash_node_base"** %81 to i8*
  store i8* %82, i8** %9, align 8
  %83 = load i8*, i8** %9, align 8
  call void @_ZdlPv(i8* %83) #12
  br label %84

; <label>:84:                                     ; preds = %1, %55
  ret void
}

; Function Attrs: nounwind ssp uwtable
define linkonce_odr void @_ZNSt3__112__hash_tableINS_17__hash_value_typeINS_12basic_stringIcNS_11char_traitsIcEENS_9allocatorIcEEEE13TypeSpecifierEENS_22__unordered_map_hasherIS7_S9_NS_4hashIS7_EELb1EEENS_21__unordered_map_equalIS7_S9_NS_8equal_toIS7_EELb1EEENS5_IS9_EEE12__deallocateEPNS_16__hash_node_baseIPNS_11__hash_nodeIS9_PvEEEE(%"class.std::__1::__hash_table"*, %"struct.std::__1::__hash_node_base"*) #4 align 2 personality i8* bitcast (i32 (...)* @__gxx_personality_v0 to i8*) {
  %3 = alloca %"class.std::__1::allocator.16"*, align 8
  %4 = alloca %"struct.std::__1::pair.38"*, align 8
  %5 = alloca %"class.std::__1::allocator.16"*, align 8
  %6 = alloca %"struct.std::__1::pair.38"*, align 8
  %7 = alloca %"struct.std::__1::integral_constant", align 1
  %8 = alloca %"struct.std::__1::__has_destroy.40", align 1
  %9 = alloca i8*, align 8
  %10 = alloca %"class.std::__1::allocator.16"*, align 8
  %11 = alloca %"struct.std::__1::__hash_node"*, align 8
  %12 = alloca i64, align 8
  %13 = alloca %"class.std::__1::allocator.16"*, align 8
  %14 = alloca %"struct.std::__1::__hash_node"*, align 8
  %15 = alloca i64, align 8
  %16 = alloca %"struct.std::__1::pair.38"*, align 8
  %17 = alloca %"union.std::__1::__hash_value_type"*, align 8
  %18 = alloca %"struct.std::__1::__hash_node_base"*, align 8
  %19 = alloca %"struct.std::__1::__hash_node_base"*, align 8
  %20 = alloca %"struct.std::__1::__hash_node_base"*, align 8
  %21 = alloca %"class.std::__1::__libcpp_compressed_pair_imp.15"*, align 8
  %22 = alloca %"class.std::__1::__compressed_pair.14"*, align 8
  %23 = alloca %"class.std::__1::__hash_table"*, align 8
  %24 = alloca %"class.std::__1::__hash_table"*, align 8
  %25 = alloca %"struct.std::__1::__hash_node_base"*, align 8
  %26 = alloca %"class.std::__1::allocator.16"*, align 8
  %27 = alloca %"struct.std::__1::__hash_node_base"*, align 8
  %28 = alloca %"struct.std::__1::__hash_node"*, align 8
  store %"class.std::__1::__hash_table"* %0, %"class.std::__1::__hash_table"** %24, align 8
  store %"struct.std::__1::__hash_node_base"* %1, %"struct.std::__1::__hash_node_base"** %25, align 8
  %29 = load %"class.std::__1::__hash_table"*, %"class.std::__1::__hash_table"** %24, align 8
  store %"class.std::__1::__hash_table"* %29, %"class.std::__1::__hash_table"** %23, align 8
  %30 = load %"class.std::__1::__hash_table"*, %"class.std::__1::__hash_table"** %23, align 8
  %31 = getelementptr inbounds %"class.std::__1::__hash_table", %"class.std::__1::__hash_table"* %30, i32 0, i32 1
  store %"class.std::__1::__compressed_pair.14"* %31, %"class.std::__1::__compressed_pair.14"** %22, align 8
  %32 = load %"class.std::__1::__compressed_pair.14"*, %"class.std::__1::__compressed_pair.14"** %22, align 8
  %33 = bitcast %"class.std::__1::__compressed_pair.14"* %32 to %"class.std::__1::__libcpp_compressed_pair_imp.15"*
  store %"class.std::__1::__libcpp_compressed_pair_imp.15"* %33, %"class.std::__1::__libcpp_compressed_pair_imp.15"** %21, align 8
  %34 = load %"class.std::__1::__libcpp_compressed_pair_imp.15"*, %"class.std::__1::__libcpp_compressed_pair_imp.15"** %21, align 8
  %35 = bitcast %"class.std::__1::__libcpp_compressed_pair_imp.15"* %34 to %"class.std::__1::allocator.16"*
  store %"class.std::__1::allocator.16"* %35, %"class.std::__1::allocator.16"** %26, align 8
  br label %36

; <label>:36:                                     ; preds = %61, %2
  %37 = load %"struct.std::__1::__hash_node_base"*, %"struct.std::__1::__hash_node_base"** %25, align 8
  %38 = icmp ne %"struct.std::__1::__hash_node_base"* %37, null
  br i1 %38, label %39, label %72

; <label>:39:                                     ; preds = %36
  %40 = load %"struct.std::__1::__hash_node_base"*, %"struct.std::__1::__hash_node_base"** %25, align 8
  %41 = getelementptr inbounds %"struct.std::__1::__hash_node_base", %"struct.std::__1::__hash_node_base"* %40, i32 0, i32 0
  %42 = load %"struct.std::__1::__hash_node_base"*, %"struct.std::__1::__hash_node_base"** %41, align 8
  store %"struct.std::__1::__hash_node_base"* %42, %"struct.std::__1::__hash_node_base"** %27, align 8
  %43 = load %"struct.std::__1::__hash_node_base"*, %"struct.std::__1::__hash_node_base"** %25, align 8
  store %"struct.std::__1::__hash_node_base"* %43, %"struct.std::__1::__hash_node_base"** %20, align 8
  %44 = load %"struct.std::__1::__hash_node_base"*, %"struct.std::__1::__hash_node_base"** %20, align 8
  store %"struct.std::__1::__hash_node_base"* %44, %"struct.std::__1::__hash_node_base"** %19, align 8
  %45 = load %"struct.std::__1::__hash_node_base"*, %"struct.std::__1::__hash_node_base"** %19, align 8
  store %"struct.std::__1::__hash_node_base"* %45, %"struct.std::__1::__hash_node_base"** %18, align 8
  %46 = load %"struct.std::__1::__hash_node_base"*, %"struct.std::__1::__hash_node_base"** %18, align 8
  %47 = bitcast %"struct.std::__1::__hash_node_base"* %46 to i8*
  %48 = bitcast %"struct.std::__1::__hash_node_base"* %46 to %"struct.std::__1::__hash_node"*
  store %"struct.std::__1::__hash_node"* %48, %"struct.std::__1::__hash_node"** %28, align 8
  %49 = load %"class.std::__1::allocator.16"*, %"class.std::__1::allocator.16"** %26, align 8
  %50 = load %"struct.std::__1::__hash_node"*, %"struct.std::__1::__hash_node"** %28, align 8
  %51 = getelementptr inbounds %"struct.std::__1::__hash_node", %"struct.std::__1::__hash_node"* %50, i32 0, i32 2
  store %"union.std::__1::__hash_value_type"* %51, %"union.std::__1::__hash_value_type"** %17, align 8
  %52 = load %"union.std::__1::__hash_value_type"*, %"union.std::__1::__hash_value_type"** %17, align 8
  %53 = bitcast %"union.std::__1::__hash_value_type"* %52 to %"struct.std::__1::pair.38"*
  store %"struct.std::__1::pair.38"* %53, %"struct.std::__1::pair.38"** %16, align 8
  %54 = load %"struct.std::__1::pair.38"*, %"struct.std::__1::pair.38"** %16, align 8
  %55 = bitcast %"struct.std::__1::pair.38"* %54 to i8*
  br label %56

; <label>:56:                                     ; preds = %39
  store %"class.std::__1::allocator.16"* %49, %"class.std::__1::allocator.16"** %5, align 8
  store %"struct.std::__1::pair.38"* %54, %"struct.std::__1::pair.38"** %6, align 8
  %57 = bitcast %"struct.std::__1::__has_destroy.40"* %8 to %"struct.std::__1::integral_constant"*
  %58 = load %"class.std::__1::allocator.16"*, %"class.std::__1::allocator.16"** %5, align 8
  %59 = load %"struct.std::__1::pair.38"*, %"struct.std::__1::pair.38"** %6, align 8
  store %"class.std::__1::allocator.16"* %58, %"class.std::__1::allocator.16"** %3, align 8
  store %"struct.std::__1::pair.38"* %59, %"struct.std::__1::pair.38"** %4, align 8
  %60 = load %"struct.std::__1::pair.38"*, %"struct.std::__1::pair.38"** %4, align 8
  call void @_ZNSt3__14pairIKNS_12basic_stringIcNS_11char_traitsIcEENS_9allocatorIcEEEE13TypeSpecifierED1Ev(%"struct.std::__1::pair.38"* %60) #2
  br label %61

; <label>:61:                                     ; preds = %56
  %62 = load %"class.std::__1::allocator.16"*, %"class.std::__1::allocator.16"** %26, align 8
  %63 = load %"struct.std::__1::__hash_node"*, %"struct.std::__1::__hash_node"** %28, align 8
  store %"class.std::__1::allocator.16"* %62, %"class.std::__1::allocator.16"** %13, align 8
  store %"struct.std::__1::__hash_node"* %63, %"struct.std::__1::__hash_node"** %14, align 8
  store i64 1, i64* %15, align 8
  %64 = load %"class.std::__1::allocator.16"*, %"class.std::__1::allocator.16"** %13, align 8
  %65 = load %"struct.std::__1::__hash_node"*, %"struct.std::__1::__hash_node"** %14, align 8
  %66 = load i64, i64* %15, align 8
  store %"class.std::__1::allocator.16"* %64, %"class.std::__1::allocator.16"** %10, align 8
  store %"struct.std::__1::__hash_node"* %65, %"struct.std::__1::__hash_node"** %11, align 8
  store i64 %66, i64* %12, align 8
  %67 = load %"class.std::__1::allocator.16"*, %"class.std::__1::allocator.16"** %10, align 8
  %68 = load %"struct.std::__1::__hash_node"*, %"struct.std::__1::__hash_node"** %11, align 8
  %69 = bitcast %"struct.std::__1::__hash_node"* %68 to i8*
  store i8* %69, i8** %9, align 8
  %70 = load i8*, i8** %9, align 8
  call void @_ZdlPv(i8* %70) #12
  %71 = load %"struct.std::__1::__hash_node_base"*, %"struct.std::__1::__hash_node_base"** %27, align 8
  store %"struct.std::__1::__hash_node_base"* %71, %"struct.std::__1::__hash_node_base"** %25, align 8
  br label %36

; <label>:72:                                     ; preds = %36
  ret void
                                                  ; No predecessors!
  %74 = landingpad { i8*, i32 }
          catch i8* null
  %75 = extractvalue { i8*, i32 } %74, 0
  call void @__clang_call_terminate(i8* %75) #11
  unreachable
}

; Function Attrs: inlinehint nounwind ssp uwtable
define linkonce_odr void @_ZNSt3__14pairIKNS_12basic_stringIcNS_11char_traitsIcEENS_9allocatorIcEEEE13TypeSpecifierED1Ev(%"struct.std::__1::pair.38"*) unnamed_addr #1 align 2 {
  %2 = alloca %"struct.std::__1::pair.38"*, align 8
  store %"struct.std::__1::pair.38"* %0, %"struct.std::__1::pair.38"** %2, align 8
  %3 = load %"struct.std::__1::pair.38"*, %"struct.std::__1::pair.38"** %2, align 8
  call void @_ZNSt3__14pairIKNS_12basic_stringIcNS_11char_traitsIcEENS_9allocatorIcEEEE13TypeSpecifierED2Ev(%"struct.std::__1::pair.38"* %3) #2
  ret void
}

; Function Attrs: inlinehint nounwind ssp uwtable
define linkonce_odr void @_ZNSt3__14pairIKNS_12basic_stringIcNS_11char_traitsIcEENS_9allocatorIcEEEE13TypeSpecifierED2Ev(%"struct.std::__1::pair.38"*) unnamed_addr #1 align 2 {
  %2 = alloca %"struct.std::__1::pair.38"*, align 8
  store %"struct.std::__1::pair.38"* %0, %"struct.std::__1::pair.38"** %2, align 8
  %3 = load %"struct.std::__1::pair.38"*, %"struct.std::__1::pair.38"** %2, align 8
  %4 = getelementptr inbounds %"struct.std::__1::pair.38", %"struct.std::__1::pair.38"* %3, i32 0, i32 1
  call void @_ZN13TypeSpecifierD1Ev(%struct.TypeSpecifier* %4) #2
  %5 = getelementptr inbounds %"struct.std::__1::pair.38", %"struct.std::__1::pair.38"* %3, i32 0, i32 0
  call void @_ZNSt3__112basic_stringIcNS_11char_traitsIcEENS_9allocatorIcEEED1Ev(%"class.std::__1::basic_string"* %5) #2
  ret void
}

; Function Attrs: nounwind ssp uwtable
define linkonce_odr void @_ZNSt3__110shared_ptrI10ExpressionED2Ev(%"class.std::__1::shared_ptr"*) unnamed_addr #4 align 2 {
  %2 = alloca %"class.std::__1::shared_ptr"*, align 8
  store %"class.std::__1::shared_ptr"* %0, %"class.std::__1::shared_ptr"** %2, align 8
  %3 = load %"class.std::__1::shared_ptr"*, %"class.std::__1::shared_ptr"** %2, align 8
  %4 = getelementptr inbounds %"class.std::__1::shared_ptr", %"class.std::__1::shared_ptr"* %3, i32 0, i32 1
  %5 = load %"class.std::__1::__shared_weak_count"*, %"class.std::__1::__shared_weak_count"** %4, align 8
  %6 = icmp ne %"class.std::__1::__shared_weak_count"* %5, null
  br i1 %6, label %7, label %10

; <label>:7:                                      ; preds = %1
  %8 = getelementptr inbounds %"class.std::__1::shared_ptr", %"class.std::__1::shared_ptr"* %3, i32 0, i32 1
  %9 = load %"class.std::__1::__shared_weak_count"*, %"class.std::__1::__shared_weak_count"** %8, align 8
  call void @_ZNSt3__119__shared_weak_count16__release_sharedEv(%"class.std::__1::__shared_weak_count"* %9) #2
  br label %10

; <label>:10:                                     ; preds = %7, %1
  ret void
}

; Function Attrs: nounwind
declare void @_ZNSt3__119__shared_weak_count16__release_sharedEv(%"class.std::__1::__shared_weak_count"*) #5

; Function Attrs: inlinehint ssp uwtable
define linkonce_odr void @_ZN5TokenC2ERKS_(%class.Token*, %class.Token* dereferenceable(288)) unnamed_addr #6 align 2 {
  %3 = alloca %class.Token*, align 8
  %4 = alloca %class.Token*, align 8
  store %class.Token* %0, %class.Token** %3, align 8
  store %class.Token* %1, %class.Token** %4, align 8
  %5 = load %class.Token*, %class.Token** %3, align 8
  %6 = getelementptr inbounds %class.Token, %class.Token* %5, i32 0, i32 0
  %7 = load %class.Token*, %class.Token** %4, align 8
  %8 = getelementptr inbounds %class.Token, %class.Token* %7, i32 0, i32 0
  call void @_ZN7VariantC1ERKS_(%struct.Variant* %6, %struct.Variant* dereferenceable(264) %8)
  %9 = getelementptr inbounds %class.Token, %class.Token* %5, i32 0, i32 1
  %10 = load %class.Token*, %class.Token** %4, align 8
  %11 = getelementptr inbounds %class.Token, %class.Token* %10, i32 0, i32 1
  %12 = bitcast i32* %9 to i8*
  %13 = bitcast i32* %11 to i8*
  call void @llvm.memcpy.p0i8.p0i8.i64(i8* %12, i8* %13, i64 24, i32 8, i1 false)
  ret void
}

; Function Attrs: argmemonly nounwind
declare void @llvm.memcpy.p0i8.p0i8.i64(i8* nocapture writeonly, i8* nocapture readonly, i64, i32, i1) #7

; Function Attrs: nounwind ssp uwtable
define linkonce_odr void @_ZNSt3__16__treeINS_12__value_typeI11LiteralTypeNS_12basic_stringIcNS_11char_traitsIcEENS_9allocatorIcEEEEEENS_19__map_value_compareIS2_S9_NS_4lessIS2_EELb1EEENS6_IS9_EEEC1ERKSD_(%"class.std::__1::__tree"*, %"class.std::__1::__map_value_compare"* dereferenceable(1)) unnamed_addr #4 align 2 {
  %3 = alloca %"class.std::__1::__tree"*, align 8
  %4 = alloca %"class.std::__1::__map_value_compare"*, align 8
  store %"class.std::__1::__tree"* %0, %"class.std::__1::__tree"** %3, align 8
  store %"class.std::__1::__map_value_compare"* %1, %"class.std::__1::__map_value_compare"** %4, align 8
  %5 = load %"class.std::__1::__tree"*, %"class.std::__1::__tree"** %3, align 8
  %6 = load %"class.std::__1::__map_value_compare"*, %"class.std::__1::__map_value_compare"** %4, align 8
  call void @_ZNSt3__16__treeINS_12__value_typeI11LiteralTypeNS_12basic_stringIcNS_11char_traitsIcEENS_9allocatorIcEEEEEENS_19__map_value_compareIS2_S9_NS_4lessIS2_EELb1EEENS6_IS9_EEEC2ERKSD_(%"class.std::__1::__tree"* %5, %"class.std::__1::__map_value_compare"* dereferenceable(1) %6) #2
  ret void
}

; Function Attrs: nounwind ssp uwtable
define linkonce_odr void @_ZNSt3__16__treeINS_12__value_typeI11LiteralTypeNS_12basic_stringIcNS_11char_traitsIcEENS_9allocatorIcEEEEEENS_19__map_value_compareIS2_S9_NS_4lessIS2_EELb1EEENS6_IS9_EEEC2ERKSD_(%"class.std::__1::__tree"*, %"class.std::__1::__map_value_compare"* dereferenceable(1)) unnamed_addr #4 align 2 personality i8* bitcast (i32 (...)* @__gxx_personality_v0 to i8*) {
  %3 = alloca %"class.std::__1::__tree_end_node"*, align 8
  %4 = alloca %"class.std::__1::__tree_end_node"*, align 8
  %5 = alloca %"class.std::__1::__libcpp_compressed_pair_imp"*, align 8
  %6 = alloca %"class.std::__1::__compressed_pair"*, align 8
  %7 = alloca %"class.std::__1::__tree"*, align 8
  %8 = alloca %"class.std::__1::__tree"*, align 8
  %9 = alloca %"class.std::__1::__map_value_compare"*, align 8
  %10 = alloca i64*, align 8
  %11 = alloca %"class.std::__1::__map_value_compare"*, align 8
  %12 = alloca %"class.std::__1::__map_value_compare", align 1
  %13 = alloca %"class.std::__1::__libcpp_compressed_pair_imp.1"*, align 8
  %14 = alloca i64, align 8
  %15 = alloca i64*, align 8
  %16 = alloca %"class.std::__1::__map_value_compare", align 1
  %17 = alloca %"class.std::__1::__compressed_pair.0"*, align 8
  %18 = alloca i64, align 8
  %19 = alloca %"class.std::__1::__map_value_compare", align 1
  %20 = alloca %"class.std::__1::__map_value_compare", align 1
  %21 = alloca %"class.std::__1::__compressed_pair.0"*, align 8
  %22 = alloca i64, align 8
  %23 = alloca %"class.std::__1::__tree_end_node"*, align 8
  %24 = alloca %"class.std::__1::__tree_end_node"*, align 8
  %25 = alloca %"class.std::__1::allocator"*, align 8
  %26 = alloca %"class.std::__1::__libcpp_compressed_pair_imp"*, align 8
  %27 = alloca %"class.std::__1::__compressed_pair"*, align 8
  %28 = alloca %"class.std::__1::__compressed_pair"*, align 8
  %29 = alloca %"class.std::__1::__tree"*, align 8
  %30 = alloca %"class.std::__1::__map_value_compare"*, align 8
  %31 = alloca %"class.std::__1::__map_value_compare", align 1
  store %"class.std::__1::__tree"* %0, %"class.std::__1::__tree"** %29, align 8
  store %"class.std::__1::__map_value_compare"* %1, %"class.std::__1::__map_value_compare"** %30, align 8
  %32 = load %"class.std::__1::__tree"*, %"class.std::__1::__tree"** %29, align 8
  %33 = getelementptr inbounds %"class.std::__1::__tree", %"class.std::__1::__tree"* %32, i32 0, i32 1
  store %"class.std::__1::__compressed_pair"* %33, %"class.std::__1::__compressed_pair"** %28, align 8
  %34 = load %"class.std::__1::__compressed_pair"*, %"class.std::__1::__compressed_pair"** %28, align 8
  store %"class.std::__1::__compressed_pair"* %34, %"class.std::__1::__compressed_pair"** %27, align 8
  %35 = load %"class.std::__1::__compressed_pair"*, %"class.std::__1::__compressed_pair"** %27, align 8
  %36 = bitcast %"class.std::__1::__compressed_pair"* %35 to %"class.std::__1::__libcpp_compressed_pair_imp"*
  store %"class.std::__1::__libcpp_compressed_pair_imp"* %36, %"class.std::__1::__libcpp_compressed_pair_imp"** %26, align 8
  %37 = load %"class.std::__1::__libcpp_compressed_pair_imp"*, %"class.std::__1::__libcpp_compressed_pair_imp"** %26, align 8
  %38 = bitcast %"class.std::__1::__libcpp_compressed_pair_imp"* %37 to %"class.std::__1::allocator"*
  store %"class.std::__1::allocator"* %38, %"class.std::__1::allocator"** %25, align 8
  %39 = load %"class.std::__1::allocator"*, %"class.std::__1::allocator"** %25, align 8
  %40 = getelementptr inbounds %"class.std::__1::__libcpp_compressed_pair_imp", %"class.std::__1::__libcpp_compressed_pair_imp"* %37, i32 0, i32 0
  store %"class.std::__1::__tree_end_node"* %40, %"class.std::__1::__tree_end_node"** %24, align 8
  %41 = load %"class.std::__1::__tree_end_node"*, %"class.std::__1::__tree_end_node"** %24, align 8
  store %"class.std::__1::__tree_end_node"* %41, %"class.std::__1::__tree_end_node"** %23, align 8
  %42 = load %"class.std::__1::__tree_end_node"*, %"class.std::__1::__tree_end_node"** %23, align 8
  %43 = getelementptr inbounds %"class.std::__1::__tree_end_node", %"class.std::__1::__tree_end_node"* %42, i32 0, i32 0
  store %"class.std::__1::__tree_node_base"* null, %"class.std::__1::__tree_node_base"** %43, align 8
  br label %44

; <label>:44:                                     ; preds = %2
  %45 = getelementptr inbounds %"class.std::__1::__tree", %"class.std::__1::__tree"* %32, i32 0, i32 2
  %46 = load %"class.std::__1::__map_value_compare"*, %"class.std::__1::__map_value_compare"** %30, align 8
  store %"class.std::__1::__compressed_pair.0"* %45, %"class.std::__1::__compressed_pair.0"** %21, align 8
  store i64 0, i64* %22, align 8
  %47 = load %"class.std::__1::__compressed_pair.0"*, %"class.std::__1::__compressed_pair.0"** %21, align 8
  %48 = load i64, i64* %22, align 8
  store %"class.std::__1::__compressed_pair.0"* %47, %"class.std::__1::__compressed_pair.0"** %17, align 8
  store i64 %48, i64* %18, align 8
  %49 = load %"class.std::__1::__compressed_pair.0"*, %"class.std::__1::__compressed_pair.0"** %17, align 8
  %50 = bitcast %"class.std::__1::__compressed_pair.0"* %49 to %"class.std::__1::__libcpp_compressed_pair_imp.1"*
  store i64* %18, i64** %15, align 8
  %51 = load i64*, i64** %15, align 8
  %52 = load i64, i64* %51, align 8
  store %"class.std::__1::__map_value_compare"* %16, %"class.std::__1::__map_value_compare"** %9, align 8
  %53 = load %"class.std::__1::__map_value_compare"*, %"class.std::__1::__map_value_compare"** %9, align 8
  store %"class.std::__1::__libcpp_compressed_pair_imp.1"* %50, %"class.std::__1::__libcpp_compressed_pair_imp.1"** %13, align 8
  store i64 %52, i64* %14, align 8
  %54 = load %"class.std::__1::__libcpp_compressed_pair_imp.1"*, %"class.std::__1::__libcpp_compressed_pair_imp.1"** %13, align 8
  %55 = bitcast %"class.std::__1::__libcpp_compressed_pair_imp.1"* %54 to %"class.std::__1::__map_value_compare"*
  store %"class.std::__1::__map_value_compare"* %12, %"class.std::__1::__map_value_compare"** %11, align 8
  %56 = load %"class.std::__1::__map_value_compare"*, %"class.std::__1::__map_value_compare"** %11, align 8
  %57 = getelementptr inbounds %"class.std::__1::__libcpp_compressed_pair_imp.1", %"class.std::__1::__libcpp_compressed_pair_imp.1"* %54, i32 0, i32 0
  store i64* %14, i64** %10, align 8
  %58 = load i64*, i64** %10, align 8
  %59 = load i64, i64* %58, align 8
  store i64 %59, i64* %57, align 8
  br label %60

; <label>:60:                                     ; preds = %44
  store %"class.std::__1::__tree"* %32, %"class.std::__1::__tree"** %7, align 8
  %61 = load %"class.std::__1::__tree"*, %"class.std::__1::__tree"** %7, align 8
  %62 = getelementptr inbounds %"class.std::__1::__tree", %"class.std::__1::__tree"* %61, i32 0, i32 1
  store %"class.std::__1::__compressed_pair"* %62, %"class.std::__1::__compressed_pair"** %6, align 8
  %63 = load %"class.std::__1::__compressed_pair"*, %"class.std::__1::__compressed_pair"** %6, align 8
  %64 = bitcast %"class.std::__1::__compressed_pair"* %63 to %"class.std::__1::__libcpp_compressed_pair_imp"*
  store %"class.std::__1::__libcpp_compressed_pair_imp"* %64, %"class.std::__1::__libcpp_compressed_pair_imp"** %5, align 8
  %65 = load %"class.std::__1::__libcpp_compressed_pair_imp"*, %"class.std::__1::__libcpp_compressed_pair_imp"** %5, align 8
  %66 = getelementptr inbounds %"class.std::__1::__libcpp_compressed_pair_imp", %"class.std::__1::__libcpp_compressed_pair_imp"* %65, i32 0, i32 0
  store %"class.std::__1::__tree_end_node"* %66, %"class.std::__1::__tree_end_node"** %4, align 8
  %67 = load %"class.std::__1::__tree_end_node"*, %"class.std::__1::__tree_end_node"** %4, align 8
  store %"class.std::__1::__tree_end_node"* %67, %"class.std::__1::__tree_end_node"** %3, align 8
  %68 = load %"class.std::__1::__tree_end_node"*, %"class.std::__1::__tree_end_node"** %3, align 8
  %69 = bitcast %"class.std::__1::__tree_end_node"* %68 to i8*
  store %"class.std::__1::__tree"* %32, %"class.std::__1::__tree"** %8, align 8
  %70 = load %"class.std::__1::__tree"*, %"class.std::__1::__tree"** %8, align 8
  %71 = getelementptr inbounds %"class.std::__1::__tree", %"class.std::__1::__tree"* %70, i32 0, i32 0
  store %"class.std::__1::__tree_end_node"* %68, %"class.std::__1::__tree_end_node"** %71, align 8
  ret void
                                                  ; No predecessors!
  %73 = landingpad { i8*, i32 }
          catch i8* null
  %74 = extractvalue { i8*, i32 } %73, 0
  call void @__clang_call_terminate(i8* %74) #11
  unreachable
}

; Function Attrs: ssp uwtable
define linkonce_odr %"class.std::__1::__tree_end_node"* @_ZNSt3__16__treeINS_12__value_typeI11LiteralTypeNS_12basic_stringIcNS_11char_traitsIcEENS_9allocatorIcEEEEEENS_19__map_value_compareIS2_S9_NS_4lessIS2_EELb1EEENS6_IS9_EEE30__emplace_hint_unique_key_argsIS2_JRKNS_4pairIKS2_S8_EEEEENS_15__tree_iteratorIS9_PNS_11__tree_nodeIS9_PvEElEENS_21__tree_const_iteratorIS9_SQ_lEERKT_DpOT0_(%"class.std::__1::__tree"*, %"class.std::__1::__tree_end_node"*, i32* dereferenceable(4), %"struct.std::__1::pair"* dereferenceable(32)) #0 align 2 personality i8* bitcast (i32 (...)* @__gxx_personality_v0 to i8*) {
  %5 = alloca %"class.std::__1::__libcpp_compressed_pair_imp.43"*, align 8
  %6 = alloca %"class.std::__1::__compressed_pair.42"*, align 8
  %7 = alloca %"class.std::__1::__libcpp_compressed_pair_imp.43"*, align 8
  %8 = alloca %"class.std::__1::__compressed_pair.42"*, align 8
  %9 = alloca i8*, align 8
  %10 = alloca %"class.std::__1::allocator"*, align 8
  %11 = alloca %"class.std::__1::__tree_node"*, align 8
  %12 = alloca i64, align 8
  %13 = alloca %"class.std::__1::allocator"*, align 8
  %14 = alloca %"class.std::__1::__tree_node"*, align 8
  %15 = alloca i64, align 8
  %16 = alloca %"class.std::__1::allocator"*, align 8
  %17 = alloca %"struct.std::__1::pair"*, align 8
  %18 = alloca %"class.std::__1::allocator"*, align 8
  %19 = alloca %"struct.std::__1::pair"*, align 8
  %20 = alloca %"struct.std::__1::integral_constant", align 1
  %21 = alloca %"struct.std::__1::__has_destroy", align 1
  %22 = alloca %"struct.std::__1::pair"*, align 8
  %23 = alloca %"union.std::__1::__value_type"*, align 8
  %24 = alloca %"class.std::__1::__tree_node_destructor"*, align 8
  %25 = alloca %"class.std::__1::__tree_node"*, align 8
  %26 = alloca %"class.std::__1::__libcpp_compressed_pair_imp.43"*, align 8
  %27 = alloca %"class.std::__1::__compressed_pair.42"*, align 8
  %28 = alloca %"class.std::__1::unique_ptr.41"*, align 8
  %29 = alloca %"class.std::__1::__tree_node"*, align 8
  %30 = alloca %"class.std::__1::__tree_node"*, align 8
  %31 = alloca %"class.std::__1::unique_ptr.41"*, align 8
  %32 = alloca %"class.std::__1::unique_ptr.41"*, align 8
  %33 = alloca %"class.std::__1::__libcpp_compressed_pair_imp.43"*, align 8
  %34 = alloca %"class.std::__1::__compressed_pair.42"*, align 8
  %35 = alloca %"class.std::__1::__libcpp_compressed_pair_imp.43"*, align 8
  %36 = alloca %"class.std::__1::__compressed_pair.42"*, align 8
  %37 = alloca %"class.std::__1::unique_ptr.41"*, align 8
  %38 = alloca %"class.std::__1::__tree_node"*, align 8
  %39 = alloca %"class.std::__1::__libcpp_compressed_pair_imp.43"*, align 8
  %40 = alloca %"class.std::__1::__compressed_pair.42"*, align 8
  %41 = alloca %"class.std::__1::unique_ptr.41"*, align 8
  %42 = alloca %"class.std::__1::__libcpp_compressed_pair_imp.43"*, align 8
  %43 = alloca %"class.std::__1::__compressed_pair.42"*, align 8
  %44 = alloca %"class.std::__1::__libcpp_compressed_pair_imp.43"*, align 8
  %45 = alloca %"class.std::__1::__compressed_pair.42"*, align 8
  %46 = alloca i8*, align 8
  %47 = alloca %"class.std::__1::allocator"*, align 8
  %48 = alloca %"class.std::__1::__tree_node"*, align 8
  %49 = alloca i64, align 8
  %50 = alloca %"class.std::__1::allocator"*, align 8
  %51 = alloca %"class.std::__1::__tree_node"*, align 8
  %52 = alloca i64, align 8
  %53 = alloca %"class.std::__1::allocator"*, align 8
  %54 = alloca %"struct.std::__1::pair"*, align 8
  %55 = alloca %"class.std::__1::allocator"*, align 8
  %56 = alloca %"struct.std::__1::pair"*, align 8
  %57 = alloca %"struct.std::__1::integral_constant", align 1
  %58 = alloca %"struct.std::__1::__has_destroy", align 1
  %59 = alloca %"struct.std::__1::pair"*, align 8
  %60 = alloca %"union.std::__1::__value_type"*, align 8
  %61 = alloca %"class.std::__1::__tree_node_destructor"*, align 8
  %62 = alloca %"class.std::__1::__tree_node"*, align 8
  %63 = alloca %"class.std::__1::__libcpp_compressed_pair_imp.43"*, align 8
  %64 = alloca %"class.std::__1::__compressed_pair.42"*, align 8
  %65 = alloca %"class.std::__1::unique_ptr.41"*, align 8
  %66 = alloca %"class.std::__1::__tree_node"*, align 8
  %67 = alloca %"class.std::__1::__tree_node"*, align 8
  %68 = alloca %"class.std::__1::unique_ptr.41"*, align 8
  %69 = alloca %"class.std::__1::unique_ptr.41"*, align 8
  %70 = alloca %"class.std::__1::__tree_iterator"*, align 8
  %71 = alloca %"class.std::__1::__tree_node"*, align 8
  %72 = alloca %"class.std::__1::__tree_iterator"*, align 8
  %73 = alloca %"class.std::__1::__tree_node"*, align 8
  %74 = alloca %"struct.std::__1::pair"*, align 8
  %75 = alloca %"class.std::__1::__tree_iterator", align 8
  %76 = alloca %"class.std::__1::__tree_const_iterator", align 8
  %77 = alloca %"class.std::__1::__tree"*, align 8
  %78 = alloca i32*, align 8
  %79 = alloca %"struct.std::__1::pair"*, align 8
  %80 = alloca %"class.std::__1::__tree_end_node"*, align 8
  %81 = alloca %"class.std::__1::__tree_node_base"*, align 8
  %82 = alloca %"class.std::__1::__tree_node_base"**, align 8
  %83 = alloca %"class.std::__1::__tree_const_iterator", align 8
  %84 = alloca %"class.std::__1::__tree_node"*, align 8
  %85 = alloca %"class.std::__1::unique_ptr.41", align 8
  %86 = alloca i8*
  %87 = alloca i32
  %88 = getelementptr inbounds %"class.std::__1::__tree_const_iterator", %"class.std::__1::__tree_const_iterator"* %76, i32 0, i32 0
  store %"class.std::__1::__tree_end_node"* %1, %"class.std::__1::__tree_end_node"** %88, align 8
  store %"class.std::__1::__tree"* %0, %"class.std::__1::__tree"** %77, align 8
  store i32* %2, i32** %78, align 8
  store %"struct.std::__1::pair"* %3, %"struct.std::__1::pair"** %79, align 8
  %89 = load %"class.std::__1::__tree"*, %"class.std::__1::__tree"** %77, align 8
  %90 = bitcast %"class.std::__1::__tree_const_iterator"* %83 to i8*
  %91 = bitcast %"class.std::__1::__tree_const_iterator"* %76 to i8*
  call void @llvm.memcpy.p0i8.p0i8.i64(i8* %90, i8* %91, i64 8, i32 8, i1 false)
  %92 = load i32*, i32** %78, align 8
  %93 = getelementptr inbounds %"class.std::__1::__tree_const_iterator", %"class.std::__1::__tree_const_iterator"* %83, i32 0, i32 0
  %94 = load %"class.std::__1::__tree_end_node"*, %"class.std::__1::__tree_end_node"** %93, align 8
  %95 = call dereferenceable(8) %"class.std::__1::__tree_node_base"** @_ZNSt3__16__treeINS_12__value_typeI11LiteralTypeNS_12basic_stringIcNS_11char_traitsIcEENS_9allocatorIcEEEEEENS_19__map_value_compareIS2_S9_NS_4lessIS2_EELb1EEENS6_IS9_EEE12__find_equalIS2_EERPNS_16__tree_node_baseIPvEENS_21__tree_const_iteratorIS9_PNS_11__tree_nodeIS9_SI_EElEERPNS_15__tree_end_nodeISK_EESL_RKT_(%"class.std::__1::__tree"* %89, %"class.std::__1::__tree_end_node"* %94, %"class.std::__1::__tree_end_node"** dereferenceable(8) %80, %"class.std::__1::__tree_node_base"** dereferenceable(8) %81, i32* dereferenceable(4) %92)
  store %"class.std::__1::__tree_node_base"** %95, %"class.std::__1::__tree_node_base"*** %82, align 8
  %96 = load %"class.std::__1::__tree_node_base"**, %"class.std::__1::__tree_node_base"*** %82, align 8
  %97 = load %"class.std::__1::__tree_node_base"*, %"class.std::__1::__tree_node_base"** %96, align 8
  %98 = bitcast %"class.std::__1::__tree_node_base"* %97 to %"class.std::__1::__tree_node"*
  store %"class.std::__1::__tree_node"* %98, %"class.std::__1::__tree_node"** %84, align 8
  %99 = load %"class.std::__1::__tree_node_base"**, %"class.std::__1::__tree_node_base"*** %82, align 8
  %100 = load %"class.std::__1::__tree_node_base"*, %"class.std::__1::__tree_node_base"** %99, align 8
  %101 = icmp eq %"class.std::__1::__tree_node_base"* %100, null
  br i1 %101, label %102, label %247

; <label>:102:                                    ; preds = %4
  %103 = load %"struct.std::__1::pair"*, %"struct.std::__1::pair"** %79, align 8
  store %"struct.std::__1::pair"* %103, %"struct.std::__1::pair"** %74, align 8
  %104 = load %"struct.std::__1::pair"*, %"struct.std::__1::pair"** %74, align 8
  call void @_ZNSt3__16__treeINS_12__value_typeI11LiteralTypeNS_12basic_stringIcNS_11char_traitsIcEENS_9allocatorIcEEEEEENS_19__map_value_compareIS2_S9_NS_4lessIS2_EELb1EEENS6_IS9_EEE16__construct_nodeIJRKNS_4pairIKS2_S8_EEEEENS_10unique_ptrINS_11__tree_nodeIS9_PvEENS_22__tree_node_destructorINS6_ISP_EEEEEEDpOT_(%"class.std::__1::unique_ptr.41"* sret %85, %"class.std::__1::__tree"* %89, %"struct.std::__1::pair"* dereferenceable(32) %104)
  %105 = load %"class.std::__1::__tree_end_node"*, %"class.std::__1::__tree_end_node"** %80, align 8
  %106 = load %"class.std::__1::__tree_node_base"**, %"class.std::__1::__tree_node_base"*** %82, align 8
  store %"class.std::__1::unique_ptr.41"* %85, %"class.std::__1::unique_ptr.41"** %41, align 8
  %107 = load %"class.std::__1::unique_ptr.41"*, %"class.std::__1::unique_ptr.41"** %41, align 8
  %108 = getelementptr inbounds %"class.std::__1::unique_ptr.41", %"class.std::__1::unique_ptr.41"* %107, i32 0, i32 0
  store %"class.std::__1::__compressed_pair.42"* %108, %"class.std::__1::__compressed_pair.42"** %40, align 8
  %109 = load %"class.std::__1::__compressed_pair.42"*, %"class.std::__1::__compressed_pair.42"** %40, align 8
  %110 = bitcast %"class.std::__1::__compressed_pair.42"* %109 to %"class.std::__1::__libcpp_compressed_pair_imp.43"*
  store %"class.std::__1::__libcpp_compressed_pair_imp.43"* %110, %"class.std::__1::__libcpp_compressed_pair_imp.43"** %39, align 8
  %111 = load %"class.std::__1::__libcpp_compressed_pair_imp.43"*, %"class.std::__1::__libcpp_compressed_pair_imp.43"** %39, align 8
  %112 = getelementptr inbounds %"class.std::__1::__libcpp_compressed_pair_imp.43", %"class.std::__1::__libcpp_compressed_pair_imp.43"* %111, i32 0, i32 0
  %113 = load %"class.std::__1::__tree_node"*, %"class.std::__1::__tree_node"** %112, align 8
  %114 = bitcast %"class.std::__1::__tree_node"* %113 to %"class.std::__1::__tree_node_base"*
  invoke void @_ZNSt3__16__treeINS_12__value_typeI11LiteralTypeNS_12basic_stringIcNS_11char_traitsIcEENS_9allocatorIcEEEEEENS_19__map_value_compareIS2_S9_NS_4lessIS2_EELb1EEENS6_IS9_EEE16__insert_node_atEPNS_15__tree_end_nodeIPNS_16__tree_node_baseIPvEEEERSK_SK_(%"class.std::__1::__tree"* %89, %"class.std::__1::__tree_end_node"* %105, %"class.std::__1::__tree_node_base"** dereferenceable(8) %106, %"class.std::__1::__tree_node_base"* %114)
          to label %115 unwind label %186

; <label>:115:                                    ; preds = %102
  store %"class.std::__1::unique_ptr.41"* %85, %"class.std::__1::unique_ptr.41"** %37, align 8
  %116 = load %"class.std::__1::unique_ptr.41"*, %"class.std::__1::unique_ptr.41"** %37, align 8
  %117 = getelementptr inbounds %"class.std::__1::unique_ptr.41", %"class.std::__1::unique_ptr.41"* %116, i32 0, i32 0
  store %"class.std::__1::__compressed_pair.42"* %117, %"class.std::__1::__compressed_pair.42"** %36, align 8
  %118 = load %"class.std::__1::__compressed_pair.42"*, %"class.std::__1::__compressed_pair.42"** %36, align 8
  %119 = bitcast %"class.std::__1::__compressed_pair.42"* %118 to %"class.std::__1::__libcpp_compressed_pair_imp.43"*
  store %"class.std::__1::__libcpp_compressed_pair_imp.43"* %119, %"class.std::__1::__libcpp_compressed_pair_imp.43"** %35, align 8
  %120 = load %"class.std::__1::__libcpp_compressed_pair_imp.43"*, %"class.std::__1::__libcpp_compressed_pair_imp.43"** %35, align 8
  %121 = getelementptr inbounds %"class.std::__1::__libcpp_compressed_pair_imp.43", %"class.std::__1::__libcpp_compressed_pair_imp.43"* %120, i32 0, i32 0
  %122 = load %"class.std::__1::__tree_node"*, %"class.std::__1::__tree_node"** %121, align 8
  store %"class.std::__1::__tree_node"* %122, %"class.std::__1::__tree_node"** %38, align 8
  %123 = getelementptr inbounds %"class.std::__1::unique_ptr.41", %"class.std::__1::unique_ptr.41"* %116, i32 0, i32 0
  store %"class.std::__1::__compressed_pair.42"* %123, %"class.std::__1::__compressed_pair.42"** %34, align 8
  %124 = load %"class.std::__1::__compressed_pair.42"*, %"class.std::__1::__compressed_pair.42"** %34, align 8
  %125 = bitcast %"class.std::__1::__compressed_pair.42"* %124 to %"class.std::__1::__libcpp_compressed_pair_imp.43"*
  store %"class.std::__1::__libcpp_compressed_pair_imp.43"* %125, %"class.std::__1::__libcpp_compressed_pair_imp.43"** %33, align 8
  %126 = load %"class.std::__1::__libcpp_compressed_pair_imp.43"*, %"class.std::__1::__libcpp_compressed_pair_imp.43"** %33, align 8
  %127 = getelementptr inbounds %"class.std::__1::__libcpp_compressed_pair_imp.43", %"class.std::__1::__libcpp_compressed_pair_imp.43"* %126, i32 0, i32 0
  store %"class.std::__1::__tree_node"* null, %"class.std::__1::__tree_node"** %127, align 8
  %128 = load %"class.std::__1::__tree_node"*, %"class.std::__1::__tree_node"** %38, align 8
  store %"class.std::__1::__tree_node"* %128, %"class.std::__1::__tree_node"** %84, align 8
  store %"class.std::__1::unique_ptr.41"* %85, %"class.std::__1::unique_ptr.41"** %32, align 8
  %129 = load %"class.std::__1::unique_ptr.41"*, %"class.std::__1::unique_ptr.41"** %32, align 8
  store %"class.std::__1::unique_ptr.41"* %129, %"class.std::__1::unique_ptr.41"** %31, align 8
  %130 = load %"class.std::__1::unique_ptr.41"*, %"class.std::__1::unique_ptr.41"** %31, align 8
  store %"class.std::__1::unique_ptr.41"* %130, %"class.std::__1::unique_ptr.41"** %28, align 8
  store %"class.std::__1::__tree_node"* null, %"class.std::__1::__tree_node"** %29, align 8
  %131 = load %"class.std::__1::unique_ptr.41"*, %"class.std::__1::unique_ptr.41"** %28, align 8
  %132 = getelementptr inbounds %"class.std::__1::unique_ptr.41", %"class.std::__1::unique_ptr.41"* %131, i32 0, i32 0
  store %"class.std::__1::__compressed_pair.42"* %132, %"class.std::__1::__compressed_pair.42"** %27, align 8
  %133 = load %"class.std::__1::__compressed_pair.42"*, %"class.std::__1::__compressed_pair.42"** %27, align 8
  %134 = bitcast %"class.std::__1::__compressed_pair.42"* %133 to %"class.std::__1::__libcpp_compressed_pair_imp.43"*
  store %"class.std::__1::__libcpp_compressed_pair_imp.43"* %134, %"class.std::__1::__libcpp_compressed_pair_imp.43"** %26, align 8
  %135 = load %"class.std::__1::__libcpp_compressed_pair_imp.43"*, %"class.std::__1::__libcpp_compressed_pair_imp.43"** %26, align 8
  %136 = getelementptr inbounds %"class.std::__1::__libcpp_compressed_pair_imp.43", %"class.std::__1::__libcpp_compressed_pair_imp.43"* %135, i32 0, i32 0
  %137 = load %"class.std::__1::__tree_node"*, %"class.std::__1::__tree_node"** %136, align 8
  store %"class.std::__1::__tree_node"* %137, %"class.std::__1::__tree_node"** %30, align 8
  %138 = load %"class.std::__1::__tree_node"*, %"class.std::__1::__tree_node"** %29, align 8
  %139 = getelementptr inbounds %"class.std::__1::unique_ptr.41", %"class.std::__1::unique_ptr.41"* %131, i32 0, i32 0
  store %"class.std::__1::__compressed_pair.42"* %139, %"class.std::__1::__compressed_pair.42"** %8, align 8
  %140 = load %"class.std::__1::__compressed_pair.42"*, %"class.std::__1::__compressed_pair.42"** %8, align 8
  %141 = bitcast %"class.std::__1::__compressed_pair.42"* %140 to %"class.std::__1::__libcpp_compressed_pair_imp.43"*
  store %"class.std::__1::__libcpp_compressed_pair_imp.43"* %141, %"class.std::__1::__libcpp_compressed_pair_imp.43"** %7, align 8
  %142 = load %"class.std::__1::__libcpp_compressed_pair_imp.43"*, %"class.std::__1::__libcpp_compressed_pair_imp.43"** %7, align 8
  %143 = getelementptr inbounds %"class.std::__1::__libcpp_compressed_pair_imp.43", %"class.std::__1::__libcpp_compressed_pair_imp.43"* %142, i32 0, i32 0
  store %"class.std::__1::__tree_node"* %138, %"class.std::__1::__tree_node"** %143, align 8
  %144 = load %"class.std::__1::__tree_node"*, %"class.std::__1::__tree_node"** %30, align 8
  %145 = icmp ne %"class.std::__1::__tree_node"* %144, null
  br i1 %145, label %146, label %185

; <label>:146:                                    ; preds = %115
  %147 = getelementptr inbounds %"class.std::__1::unique_ptr.41", %"class.std::__1::unique_ptr.41"* %131, i32 0, i32 0
  store %"class.std::__1::__compressed_pair.42"* %147, %"class.std::__1::__compressed_pair.42"** %6, align 8
  %148 = load %"class.std::__1::__compressed_pair.42"*, %"class.std::__1::__compressed_pair.42"** %6, align 8
  %149 = bitcast %"class.std::__1::__compressed_pair.42"* %148 to %"class.std::__1::__libcpp_compressed_pair_imp.43"*
  store %"class.std::__1::__libcpp_compressed_pair_imp.43"* %149, %"class.std::__1::__libcpp_compressed_pair_imp.43"** %5, align 8
  %150 = load %"class.std::__1::__libcpp_compressed_pair_imp.43"*, %"class.std::__1::__libcpp_compressed_pair_imp.43"** %5, align 8
  %151 = getelementptr inbounds %"class.std::__1::__libcpp_compressed_pair_imp.43", %"class.std::__1::__libcpp_compressed_pair_imp.43"* %150, i32 0, i32 1
  %152 = load %"class.std::__1::__tree_node"*, %"class.std::__1::__tree_node"** %30, align 8
  store %"class.std::__1::__tree_node_destructor"* %151, %"class.std::__1::__tree_node_destructor"** %24, align 8
  store %"class.std::__1::__tree_node"* %152, %"class.std::__1::__tree_node"** %25, align 8
  %153 = load %"class.std::__1::__tree_node_destructor"*, %"class.std::__1::__tree_node_destructor"** %24, align 8
  %154 = getelementptr inbounds %"class.std::__1::__tree_node_destructor", %"class.std::__1::__tree_node_destructor"* %153, i32 0, i32 1
  %155 = load i8, i8* %154, align 8
  %156 = trunc i8 %155 to i1
  br i1 %156, label %157, label %170

; <label>:157:                                    ; preds = %146
  %158 = getelementptr inbounds %"class.std::__1::__tree_node_destructor", %"class.std::__1::__tree_node_destructor"* %153, i32 0, i32 0
  %159 = load %"class.std::__1::allocator"*, %"class.std::__1::allocator"** %158, align 8
  %160 = load %"class.std::__1::__tree_node"*, %"class.std::__1::__tree_node"** %25, align 8
  %161 = getelementptr inbounds %"class.std::__1::__tree_node", %"class.std::__1::__tree_node"* %160, i32 0, i32 1
  store %"union.std::__1::__value_type"* %161, %"union.std::__1::__value_type"** %23, align 8
  %162 = load %"union.std::__1::__value_type"*, %"union.std::__1::__value_type"** %23, align 8
  %163 = bitcast %"union.std::__1::__value_type"* %162 to %"struct.std::__1::pair"*
  store %"struct.std::__1::pair"* %163, %"struct.std::__1::pair"** %22, align 8
  %164 = load %"struct.std::__1::pair"*, %"struct.std::__1::pair"** %22, align 8
  %165 = bitcast %"struct.std::__1::pair"* %164 to i8*
  store %"class.std::__1::allocator"* %159, %"class.std::__1::allocator"** %18, align 8
  store %"struct.std::__1::pair"* %164, %"struct.std::__1::pair"** %19, align 8
  %166 = bitcast %"struct.std::__1::__has_destroy"* %21 to %"struct.std::__1::integral_constant"*
  %167 = load %"class.std::__1::allocator"*, %"class.std::__1::allocator"** %18, align 8
  %168 = load %"struct.std::__1::pair"*, %"struct.std::__1::pair"** %19, align 8
  store %"class.std::__1::allocator"* %167, %"class.std::__1::allocator"** %16, align 8
  store %"struct.std::__1::pair"* %168, %"struct.std::__1::pair"** %17, align 8
  %169 = load %"struct.std::__1::pair"*, %"struct.std::__1::pair"** %17, align 8
  call void @_ZNSt3__14pairIK11LiteralTypeNS_12basic_stringIcNS_11char_traitsIcEENS_9allocatorIcEEEEED1Ev(%"struct.std::__1::pair"* %169) #2
  br label %170

; <label>:170:                                    ; preds = %157, %146
  %171 = load %"class.std::__1::__tree_node"*, %"class.std::__1::__tree_node"** %25, align 8
  %172 = icmp ne %"class.std::__1::__tree_node"* %171, null
  br i1 %172, label %173, label %184

; <label>:173:                                    ; preds = %170
  %174 = getelementptr inbounds %"class.std::__1::__tree_node_destructor", %"class.std::__1::__tree_node_destructor"* %153, i32 0, i32 0
  %175 = load %"class.std::__1::allocator"*, %"class.std::__1::allocator"** %174, align 8
  %176 = load %"class.std::__1::__tree_node"*, %"class.std::__1::__tree_node"** %25, align 8
  store %"class.std::__1::allocator"* %175, %"class.std::__1::allocator"** %13, align 8
  store %"class.std::__1::__tree_node"* %176, %"class.std::__1::__tree_node"** %14, align 8
  store i64 1, i64* %15, align 8
  %177 = load %"class.std::__1::allocator"*, %"class.std::__1::allocator"** %13, align 8
  %178 = load %"class.std::__1::__tree_node"*, %"class.std::__1::__tree_node"** %14, align 8
  %179 = load i64, i64* %15, align 8
  store %"class.std::__1::allocator"* %177, %"class.std::__1::allocator"** %10, align 8
  store %"class.std::__1::__tree_node"* %178, %"class.std::__1::__tree_node"** %11, align 8
  store i64 %179, i64* %12, align 8
  %180 = load %"class.std::__1::allocator"*, %"class.std::__1::allocator"** %10, align 8
  %181 = load %"class.std::__1::__tree_node"*, %"class.std::__1::__tree_node"** %11, align 8
  %182 = bitcast %"class.std::__1::__tree_node"* %181 to i8*
  store i8* %182, i8** %9, align 8
  %183 = load i8*, i8** %9, align 8
  call void @_ZdlPv(i8* %183) #12
  br label %184

; <label>:184:                                    ; preds = %173, %170
  br label %185

; <label>:185:                                    ; preds = %115, %184
  br label %247

; <label>:186:                                    ; preds = %102
  %187 = landingpad { i8*, i32 }
          cleanup
  %188 = extractvalue { i8*, i32 } %187, 0
  store i8* %188, i8** %86, align 8
  %189 = extractvalue { i8*, i32 } %187, 1
  store i32 %189, i32* %87, align 4
  store %"class.std::__1::unique_ptr.41"* %85, %"class.std::__1::unique_ptr.41"** %69, align 8
  %190 = load %"class.std::__1::unique_ptr.41"*, %"class.std::__1::unique_ptr.41"** %69, align 8
  store %"class.std::__1::unique_ptr.41"* %190, %"class.std::__1::unique_ptr.41"** %68, align 8
  %191 = load %"class.std::__1::unique_ptr.41"*, %"class.std::__1::unique_ptr.41"** %68, align 8
  store %"class.std::__1::unique_ptr.41"* %191, %"class.std::__1::unique_ptr.41"** %65, align 8
  store %"class.std::__1::__tree_node"* null, %"class.std::__1::__tree_node"** %66, align 8
  %192 = load %"class.std::__1::unique_ptr.41"*, %"class.std::__1::unique_ptr.41"** %65, align 8
  %193 = getelementptr inbounds %"class.std::__1::unique_ptr.41", %"class.std::__1::unique_ptr.41"* %192, i32 0, i32 0
  store %"class.std::__1::__compressed_pair.42"* %193, %"class.std::__1::__compressed_pair.42"** %64, align 8
  %194 = load %"class.std::__1::__compressed_pair.42"*, %"class.std::__1::__compressed_pair.42"** %64, align 8
  %195 = bitcast %"class.std::__1::__compressed_pair.42"* %194 to %"class.std::__1::__libcpp_compressed_pair_imp.43"*
  store %"class.std::__1::__libcpp_compressed_pair_imp.43"* %195, %"class.std::__1::__libcpp_compressed_pair_imp.43"** %63, align 8
  %196 = load %"class.std::__1::__libcpp_compressed_pair_imp.43"*, %"class.std::__1::__libcpp_compressed_pair_imp.43"** %63, align 8
  %197 = getelementptr inbounds %"class.std::__1::__libcpp_compressed_pair_imp.43", %"class.std::__1::__libcpp_compressed_pair_imp.43"* %196, i32 0, i32 0
  %198 = load %"class.std::__1::__tree_node"*, %"class.std::__1::__tree_node"** %197, align 8
  store %"class.std::__1::__tree_node"* %198, %"class.std::__1::__tree_node"** %67, align 8
  %199 = load %"class.std::__1::__tree_node"*, %"class.std::__1::__tree_node"** %66, align 8
  %200 = getelementptr inbounds %"class.std::__1::unique_ptr.41", %"class.std::__1::unique_ptr.41"* %192, i32 0, i32 0
  store %"class.std::__1::__compressed_pair.42"* %200, %"class.std::__1::__compressed_pair.42"** %45, align 8
  %201 = load %"class.std::__1::__compressed_pair.42"*, %"class.std::__1::__compressed_pair.42"** %45, align 8
  %202 = bitcast %"class.std::__1::__compressed_pair.42"* %201 to %"class.std::__1::__libcpp_compressed_pair_imp.43"*
  store %"class.std::__1::__libcpp_compressed_pair_imp.43"* %202, %"class.std::__1::__libcpp_compressed_pair_imp.43"** %44, align 8
  %203 = load %"class.std::__1::__libcpp_compressed_pair_imp.43"*, %"class.std::__1::__libcpp_compressed_pair_imp.43"** %44, align 8
  %204 = getelementptr inbounds %"class.std::__1::__libcpp_compressed_pair_imp.43", %"class.std::__1::__libcpp_compressed_pair_imp.43"* %203, i32 0, i32 0
  store %"class.std::__1::__tree_node"* %199, %"class.std::__1::__tree_node"** %204, align 8
  %205 = load %"class.std::__1::__tree_node"*, %"class.std::__1::__tree_node"** %67, align 8
  %206 = icmp ne %"class.std::__1::__tree_node"* %205, null
  br i1 %206, label %207, label %246

; <label>:207:                                    ; preds = %186
  %208 = getelementptr inbounds %"class.std::__1::unique_ptr.41", %"class.std::__1::unique_ptr.41"* %192, i32 0, i32 0
  store %"class.std::__1::__compressed_pair.42"* %208, %"class.std::__1::__compressed_pair.42"** %43, align 8
  %209 = load %"class.std::__1::__compressed_pair.42"*, %"class.std::__1::__compressed_pair.42"** %43, align 8
  %210 = bitcast %"class.std::__1::__compressed_pair.42"* %209 to %"class.std::__1::__libcpp_compressed_pair_imp.43"*
  store %"class.std::__1::__libcpp_compressed_pair_imp.43"* %210, %"class.std::__1::__libcpp_compressed_pair_imp.43"** %42, align 8
  %211 = load %"class.std::__1::__libcpp_compressed_pair_imp.43"*, %"class.std::__1::__libcpp_compressed_pair_imp.43"** %42, align 8
  %212 = getelementptr inbounds %"class.std::__1::__libcpp_compressed_pair_imp.43", %"class.std::__1::__libcpp_compressed_pair_imp.43"* %211, i32 0, i32 1
  %213 = load %"class.std::__1::__tree_node"*, %"class.std::__1::__tree_node"** %67, align 8
  store %"class.std::__1::__tree_node_destructor"* %212, %"class.std::__1::__tree_node_destructor"** %61, align 8
  store %"class.std::__1::__tree_node"* %213, %"class.std::__1::__tree_node"** %62, align 8
  %214 = load %"class.std::__1::__tree_node_destructor"*, %"class.std::__1::__tree_node_destructor"** %61, align 8
  %215 = getelementptr inbounds %"class.std::__1::__tree_node_destructor", %"class.std::__1::__tree_node_destructor"* %214, i32 0, i32 1
  %216 = load i8, i8* %215, align 8
  %217 = trunc i8 %216 to i1
  br i1 %217, label %218, label %231

; <label>:218:                                    ; preds = %207
  %219 = getelementptr inbounds %"class.std::__1::__tree_node_destructor", %"class.std::__1::__tree_node_destructor"* %214, i32 0, i32 0
  %220 = load %"class.std::__1::allocator"*, %"class.std::__1::allocator"** %219, align 8
  %221 = load %"class.std::__1::__tree_node"*, %"class.std::__1::__tree_node"** %62, align 8
  %222 = getelementptr inbounds %"class.std::__1::__tree_node", %"class.std::__1::__tree_node"* %221, i32 0, i32 1
  store %"union.std::__1::__value_type"* %222, %"union.std::__1::__value_type"** %60, align 8
  %223 = load %"union.std::__1::__value_type"*, %"union.std::__1::__value_type"** %60, align 8
  %224 = bitcast %"union.std::__1::__value_type"* %223 to %"struct.std::__1::pair"*
  store %"struct.std::__1::pair"* %224, %"struct.std::__1::pair"** %59, align 8
  %225 = load %"struct.std::__1::pair"*, %"struct.std::__1::pair"** %59, align 8
  %226 = bitcast %"struct.std::__1::pair"* %225 to i8*
  store %"class.std::__1::allocator"* %220, %"class.std::__1::allocator"** %55, align 8
  store %"struct.std::__1::pair"* %225, %"struct.std::__1::pair"** %56, align 8
  %227 = bitcast %"struct.std::__1::__has_destroy"* %58 to %"struct.std::__1::integral_constant"*
  %228 = load %"class.std::__1::allocator"*, %"class.std::__1::allocator"** %55, align 8
  %229 = load %"struct.std::__1::pair"*, %"struct.std::__1::pair"** %56, align 8
  store %"class.std::__1::allocator"* %228, %"class.std::__1::allocator"** %53, align 8
  store %"struct.std::__1::pair"* %229, %"struct.std::__1::pair"** %54, align 8
  %230 = load %"struct.std::__1::pair"*, %"struct.std::__1::pair"** %54, align 8
  call void @_ZNSt3__14pairIK11LiteralTypeNS_12basic_stringIcNS_11char_traitsIcEENS_9allocatorIcEEEEED1Ev(%"struct.std::__1::pair"* %230) #2
  br label %231

; <label>:231:                                    ; preds = %218, %207
  %232 = load %"class.std::__1::__tree_node"*, %"class.std::__1::__tree_node"** %62, align 8
  %233 = icmp ne %"class.std::__1::__tree_node"* %232, null
  br i1 %233, label %234, label %245

; <label>:234:                                    ; preds = %231
