; ModuleID = '/Users/Jonas/CLionProjects/HackerRank/XtremeJonasScript/src/Message/Exceptions.cpp'
source_filename = "/Users/Jonas/CLionProjects/HackerRank/XtremeJonasScript/src/Message/Exceptions.cpp"
target datalayout = "e-m:o-i64:64-f80:128-n8:16:32:64-S128"
target triple = "x86_64-apple-macosx10.12.0"

%"class.std::__1::map" = type { %"class.std::__1::__tree" }
%"class.std::__1::__tree" = type { %"class.std::__1::__tree_end_node"*, %"class.std::__1::__compressed_pair", %"class.std::__1::__compressed_pair.0" }
%"class.std::__1::__tree_end_node" = type { %"class.std::__1::__tree_node_base"* }
%"class.std::__1::__tree_node_base" = type <{ %"class.std::__1::__tree_end_node", %"class.std::__1::__tree_node_base"*, %"class.std::__1::__tree_end_node"*, i8, [7 x i8] }>
%"class.std::__1::__compressed_pair" = type { %"class.std::__1::__libcpp_compressed_pair_imp" }
%"class.std::__1::__libcpp_compressed_pair_imp" = type { %"class.std::__1::__tree_end_node" }
%"class.std::__1::__compressed_pair.0" = type { %"class.std::__1::__libcpp_compressed_pair_imp.1" }
%"class.std::__1::__libcpp_compressed_pair_imp.1" = type { i64 }
%"class.std::__1::map.7" = type { %"class.std::__1::__tree.8" }
%"class.std::__1::__tree.8" = type { %"class.std::__1::__tree_end_node"*, %"class.std::__1::__compressed_pair.9", %"class.std::__1::__compressed_pair.13" }
%"class.std::__1::__compressed_pair.9" = type { %"class.std::__1::__libcpp_compressed_pair_imp.10" }
%"class.std::__1::__libcpp_compressed_pair_imp.10" = type { %"class.std::__1::__tree_end_node" }
%"class.std::__1::__compressed_pair.13" = type { %"class.std::__1::__libcpp_compressed_pair_imp.14" }
%"class.std::__1::__libcpp_compressed_pair_imp.14" = type { i64 }
%"struct.std::__1::piecewise_construct_t" = type { i8 }
%"class.std::initializer_list" = type { %"struct.std::__1::pair"*, i64 }
%"struct.std::__1::pair" = type { i32, %"class.std::__1::basic_string" }
%"class.std::__1::basic_string" = type { %"class.std::__1::__compressed_pair.2" }
%"class.std::__1::__compressed_pair.2" = type { %"class.std::__1::__libcpp_compressed_pair_imp.3" }
%"class.std::__1::__libcpp_compressed_pair_imp.3" = type { %"struct.std::__1::basic_string<char, std::__1::char_traits<char>, std::__1::allocator<char> >::__rep" }
%"struct.std::__1::basic_string<char, std::__1::char_traits<char>, std::__1::allocator<char> >::__rep" = type { %union.anon }
%union.anon = type { %"struct.std::__1::basic_string<char, std::__1::char_traits<char>, std::__1::allocator<char> >::__long" }
%"struct.std::__1::basic_string<char, std::__1::char_traits<char>, std::__1::allocator<char> >::__long" = type { i64, i64, i8* }
%"class.std::__1::__tree_const_iterator" = type { %"class.std::__1::__tree_end_node"* }
%"class.std::__1::__map_const_iterator" = type { %"class.std::__1::__tree_const_iterator" }
%"class.std::__1::__tree_iterator" = type { %"class.std::__1::__tree_end_node"* }
%"class.std::__1::__map_iterator" = type { %"class.std::__1::__tree_iterator" }
%"class.std::__1::__map_value_compare" = type { i8 }
%"struct.std::__1::less" = type { i8 }
%"class.std::__1::allocator.4" = type { i8 }
%"class.std::__1::__basic_string_common" = type { i8 }
%"class.std::initializer_list.18" = type { %"struct.std::__1::pair.19"*, i64 }
%"struct.std::__1::pair.19" = type { i32, %"class.std::__1::basic_string" }
%"class.std::__1::__tree_const_iterator.78" = type { %"class.std::__1::__tree_end_node"* }
%"class.std::__1::__map_const_iterator.77" = type { %"class.std::__1::__tree_const_iterator.78" }
%"class.std::__1::__tree_iterator.80" = type { %"class.std::__1::__tree_end_node"* }
%"class.std::__1::__map_iterator.79" = type { %"class.std::__1::__tree_iterator.80" }
%"class.std::__1::__map_value_compare.15" = type { i8 }
%"struct.std::__1::less.16" = type { i8 }
%class.ParseError = type { %"class.std::exception", %"class.std::__1::basic_string" }
%"class.std::exception" = type { i32 (...)** }
%class.Lexer = type { i32, i32, i32, i32, i32, [4 x i8], %class.Token, %"class.std::__1::vector.47", %"class.std::__1::basic_string" }
%class.Token = type { %struct.Variant, i32, i32, i32, i32, i32, i32 }
%struct.Variant = type <{ %union.anon.20, i8, [7 x i8], %"class.std::__1::basic_string", %struct.TypeSpecifier, i8, i8, i8, [5 x i8] }>
%union.anon.20 = type { i64 }
%struct.TypeSpecifier = type { i32, %"class.std::__1::basic_string", %"class.std::__1::shared_ptr", i8, i8, i8, i8, i64, i32, i8, i8, %"class.std::__1::basic_string", i8, [7 x i8], %"class.std::__1::unordered_map", i8, i8, i8, i8, i8, i8, i8, i32, %"class.std::__1::vector", %"class.std::__1::vector.40", %union.anon.46 }
%"class.std::__1::shared_ptr" = type { %class.Expression*, %"class.std::__1::__shared_weak_count"* }
%class.Expression = type { %class.Statement.base, %"class.std::__1::shared_ptr", i8, %"class.std::__1::shared_ptr", i8, %"class.std::__1::unique_ptr.53", i8, %struct.TypeSpecifier }
%class.Statement.base = type { %class.AstNode.base }
%class.AstNode.base = type <{ i32 (...)**, i32, i32, i64, %class.AstNode*, %class.DeclStmt*, i8, [3 x i8], i32, %"class.std::__1::vector", %struct.TypeSpecifier, %struct.TypeSpecifier, i8, [7 x i8], %"class.std::__1::basic_string", i8, i8 }>
%class.AstNode = type <{ i32 (...)**, i32, i32, i64, %class.AstNode*, %class.DeclStmt*, i8, [3 x i8], i32, %"class.std::__1::vector", %struct.TypeSpecifier, %struct.TypeSpecifier, i8, [7 x i8], %"class.std::__1::basic_string", i8, i8, [6 x i8] }>
%class.DeclStmt = type <{ %class.Statement.base, [6 x i8], %"class.std::__1::vector", %"class.std::__1::vector.56", %"class.std::__1::vector", %"class.std::__1::vector.63", i8, i8, [6 x i8] }>
%"class.std::__1::vector.56" = type { %"class.std::__1::__vector_base.57" }
%"class.std::__1::__vector_base.57" = type { %"struct.std::__1::pair.58"*, %"struct.std::__1::pair.58"*, %"class.std::__1::__compressed_pair.59" }
%"struct.std::__1::pair.58" = type opaque
%"class.std::__1::__compressed_pair.59" = type { %"class.std::__1::__libcpp_compressed_pair_imp.60" }
%"class.std::__1::__libcpp_compressed_pair_imp.60" = type { %"struct.std::__1::pair.58"* }
%"class.std::__1::vector.63" = type { i64*, i64, %"class.std::__1::__compressed_pair.64" }
%"class.std::__1::__compressed_pair.64" = type { %"class.std::__1::__libcpp_compressed_pair_imp.65" }
%"class.std::__1::__libcpp_compressed_pair_imp.65" = type { i64 }
%"class.std::__1::unique_ptr.53" = type { %"class.std::__1::__compressed_pair.54" }
%"class.std::__1::__compressed_pair.54" = type { %"class.std::__1::__libcpp_compressed_pair_imp.55" }
%"class.std::__1::__libcpp_compressed_pair_imp.55" = type { %struct.Variant* }
%"class.std::__1::__shared_weak_count" = type { %"class.std::__1::__shared_count", i64 }
%"class.std::__1::__shared_count" = type { i32 (...)**, i64 }
%"class.std::__1::unordered_map" = type { %"class.std::__1::__hash_table" }
%"class.std::__1::__hash_table" = type <{ %"class.std::__1::unique_ptr", %"class.std::__1::__compressed_pair.27", %"class.std::__1::__compressed_pair.31", %"class.std::__1::__compressed_pair.33", [4 x i8] }>
%"class.std::__1::unique_ptr" = type { %"class.std::__1::__compressed_pair.21" }
%"class.std::__1::__compressed_pair.21" = type { %"class.std::__1::__libcpp_compressed_pair_imp.22" }
%"class.std::__1::__libcpp_compressed_pair_imp.22" = type { %"struct.std::__1::__hash_node_base"**, %"class.std::__1::__bucket_list_deallocator" }
%"struct.std::__1::__hash_node_base" = type { %"struct.std::__1::__hash_node_base"* }
%"class.std::__1::__bucket_list_deallocator" = type { %"class.std::__1::__compressed_pair.23" }
%"class.std::__1::__compressed_pair.23" = type { %"class.std::__1::__libcpp_compressed_pair_imp.24" }
%"class.std::__1::__libcpp_compressed_pair_imp.24" = type { i64 }
%"class.std::__1::__compressed_pair.27" = type { %"class.std::__1::__libcpp_compressed_pair_imp.28" }
%"class.std::__1::__libcpp_compressed_pair_imp.28" = type { %"struct.std::__1::__hash_node_base" }
%"class.std::__1::__compressed_pair.31" = type { %"class.std::__1::__libcpp_compressed_pair_imp.32" }
%"class.std::__1::__libcpp_compressed_pair_imp.32" = type { i64 }
%"class.std::__1::__compressed_pair.33" = type { %"class.std::__1::__libcpp_compressed_pair_imp.34" }
%"class.std::__1::__libcpp_compressed_pair_imp.34" = type { float }
%"class.std::__1::vector" = type { %"class.std::__1::__vector_base" }
%"class.std::__1::__vector_base" = type { %"class.std::__1::basic_string"*, %"class.std::__1::basic_string"*, %"class.std::__1::__compressed_pair.36" }
%"class.std::__1::__compressed_pair.36" = type { %"class.std::__1::__libcpp_compressed_pair_imp.37" }
%"class.std::__1::__libcpp_compressed_pair_imp.37" = type { %"class.std::__1::basic_string"* }
%"class.std::__1::vector.40" = type { %"class.std::__1::__vector_base.41" }
%"class.std::__1::__vector_base.41" = type { %struct.TypeSpecifier*, %struct.TypeSpecifier*, %"class.std::__1::__compressed_pair.42" }
%"class.std::__1::__compressed_pair.42" = type { %"class.std::__1::__libcpp_compressed_pair_imp.43" }
%"class.std::__1::__libcpp_compressed_pair_imp.43" = type { %struct.TypeSpecifier* }
%union.anon.46 = type { %struct.TypeSpecifier* }
%"class.std::__1::vector.47" = type { %"class.std::__1::__vector_base.48" }
%"class.std::__1::__vector_base.48" = type { %class.Token*, %class.Token*, %"class.std::__1::__compressed_pair.49" }
%"class.std::__1::__compressed_pair.49" = type { %"class.std::__1::__libcpp_compressed_pair_imp.50" }
%"class.std::__1::__libcpp_compressed_pair_imp.50" = type { %class.Token* }
%"struct.std::__1::integral_constant.73" = type { i8 }
%"struct.std::__1::basic_string<char, std::__1::char_traits<char>, std::__1::allocator<char> >::__raw" = type { [3 x i64] }
%"struct.std::__1::basic_string<char, std::__1::char_traits<char>, std::__1::allocator<char> >::__short" = type { %union.anon.6, [23 x i8] }
%union.anon.6 = type { i8 }
%"class.std::__1::tuple.88" = type { i8 }
%"union.std::__1::__value_type" = type { %"struct.std::__1::pair" }
%"class.std::__1::__tuple_leaf" = type { i32* }
%"struct.std::__1::__tuple_indices" = type { i8 }
%"struct.std::__1::__tuple_types" = type { i8 }
%"struct.std::__1::__tuple_indices.90" = type { i8 }
%"struct.std::__1::__tuple_types.91" = type { i8 }
%"struct.std::__1::__tuple_impl" = type { %"class.std::__1::__tuple_leaf" }
%"class.std::__1::tuple" = type { %"struct.std::__1::__tuple_impl" }
%"struct.std::__1::pair.87" = type <{ %"class.std::__1::__tree_iterator", i8, [7 x i8] }>
%"class.std::__1::__tree_node" = type { %"class.std::__1::__tree_node_base.base", %"union.std::__1::__value_type" }
%"class.std::__1::__tree_node_base.base" = type <{ %"class.std::__1::__tree_end_node", %"class.std::__1::__tree_node_base"*, %"class.std::__1::__tree_end_node"*, i8 }>
%class.RuntimeError = type { %"class.std::exception", %"class.std::__1::basic_string" }
%"union.std::__1::__value_type.70" = type { %"struct.std::__1::pair.19" }
%"class.std::__1::__tuple_leaf.96" = type { i32* }
%"struct.std::__1::__tuple_types.98" = type { i8 }
%"struct.std::__1::__tuple_impl.95" = type { %"class.std::__1::__tuple_leaf.96" }
%"class.std::__1::tuple.94" = type { %"struct.std::__1::__tuple_impl.95" }
%"struct.std::__1::pair.92" = type <{ %"class.std::__1::__tree_iterator.80", i8, [7 x i8] }>
%"class.std::__1::__tree_node.69" = type { %"class.std::__1::__tree_node_base.base", %"union.std::__1::__value_type.70" }
%"class.std::__1::allocator" = type { i8 }
%"struct.std::__1::integral_constant" = type { i8 }
%"struct.std::__1::__has_destroy" = type { i8 }
%"class.std::__1::allocator.11" = type { i8 }
%"struct.std::__1::__has_destroy.72" = type { i8 }
%"class.std::__1::__libcpp_compressed_pair_imp.76" = type { %"class.std::__1::__tree_node"*, %"class.std::__1::__tree_node_destructor" }
%"class.std::__1::__tree_node_destructor" = type <{ %"class.std::__1::allocator"*, i8, [7 x i8] }>
%"class.std::__1::__compressed_pair.75" = type { %"class.std::__1::__libcpp_compressed_pair_imp.76" }
%"class.std::__1::unique_ptr.74" = type { %"class.std::__1::__compressed_pair.75" }
%"struct.std::__1::bidirectional_iterator_tag" = type { i8 }
%"struct.std::__1::__has_construct" = type { i8 }
%"class.std::__1::__libcpp_compressed_pair_imp.83" = type { %"class.std::__1::__tree_node.69"*, %"class.std::__1::__tree_node_destructor.84" }
%"class.std::__1::__tree_node_destructor.84" = type <{ %"class.std::__1::allocator.11"*, i8, [7 x i8] }>
%"class.std::__1::__compressed_pair.82" = type { %"class.std::__1::__libcpp_compressed_pair_imp.83" }
%"class.std::__1::unique_ptr.81" = type { %"class.std::__1::__compressed_pair.82" }
%"struct.std::__1::__has_construct.86" = type { i8 }
%"struct.std::__1::__has_construct.89" = type { i8 }
%"struct.std::__1::__has_construct.97" = type { i8 }

@_ZN4llvm24DisableABIBreakingChecksE = external global i32, align 4
@_ZN4llvm30VerifyDisableABIBreakingChecksE = weak hidden global i32* @_ZN4llvm24DisableABIBreakingChecksE, align 8
@_parse_errors = global %"class.std::__1::map" zeroinitializer, align 8
@.str = private unnamed_addr constant [17 x i8] c"Unexpected Token\00", align 1
@.str.1 = private unnamed_addr constant [21 x i8] c"Unexpected Character\00", align 1
@.str.2 = private unnamed_addr constant [15 x i8] c"Unexpected EOF\00", align 1
@.str.3 = private unnamed_addr constant [23 x i8] c"Uninitialized Variable\00", align 1
@__dso_handle = external global i8
@_runtime_errors = global %"class.std::__1::map.7" zeroinitializer, align 8
@.str.5 = private unnamed_addr constant [14 x i8] c"Context Error\00", align 1
@.str.6 = private unnamed_addr constant [20 x i8] c"Undeclared Variable\00", align 1
@.str.7 = private unnamed_addr constant [9 x i8] c"Bad Cast\00", align 1
@.str.8 = private unnamed_addr constant [11 x i8] c"Bad Access\00", align 1
@.str.9 = private unnamed_addr constant [20 x i8] c"Undefined Operation\00", align 1
@.str.10 = private unnamed_addr constant [23 x i8] c"Variable Redeclaration\00", align 1
@.str.11 = private unnamed_addr constant [28 x i8] c"Incompatible argument count\00", align 1
@.str.12 = private unnamed_addr constant [11 x i8] c"Type Error\00", align 1
@.str.13 = private unnamed_addr constant [17 x i8] c"Private Property\00", align 1
@.str.14 = private unnamed_addr constant [23 x i8] c"Null Pointer Exception\00", align 1
@_ZTV10ParseError = linkonce_odr unnamed_addr constant [5 x i8*] [i8* null, i8* bitcast ({ i8*, i8*, i8* }* @_ZTI10ParseError to i8*), i8* bitcast (void (%class.ParseError*)* @_ZN10ParseErrorD1Ev to i8*), i8* bitcast (void (%class.ParseError*)* @_ZN10ParseErrorD0Ev to i8*), i8* bitcast (i8* (%class.ParseError*)* @_ZNK10ParseError4whatEv to i8*)], align 8
@.str.15 = private unnamed_addr constant [9 x i8] c"\1B[21;31m\00", align 1
@.str.16 = private unnamed_addr constant [3 x i8] c": \00", align 1
@.str.17 = private unnamed_addr constant [3 x i8] c" (\00", align 1
@.str.18 = private unnamed_addr constant [2 x i8] c":\00", align 1
@.str.19 = private unnamed_addr constant [3 x i8] c")\0A\00", align 1
@.str.20 = private unnamed_addr constant [4 x i8] c" | \00", align 1
@.str.21 = private unnamed_addr constant [2 x i8] c"\0A\00", align 1
@.str.22 = private unnamed_addr constant [2 x i8] c" \00", align 1
@.str.23 = private unnamed_addr constant [2 x i8] c"^\00", align 1
@.str.24 = private unnamed_addr constant [5 x i8] c"\1B[0m\00", align 1
@_ZTVN10__cxxabiv120__si_class_type_infoE = external global i8*
@_ZTS10ParseError = linkonce_odr constant [13 x i8] c"10ParseError\00"
@_ZTISt9exception = external constant i8*
@_ZTI10ParseError = linkonce_odr constant { i8*, i8*, i8* } { i8* bitcast (i8** getelementptr inbounds (i8*, i8** @_ZTVN10__cxxabiv120__si_class_type_infoE, i64 2) to i8*), i8* getelementptr inbounds ([13 x i8], [13 x i8]* @_ZTS10ParseError, i32 0, i32 0), i8* bitcast (i8** @_ZTISt9exception to i8*) }
@_ZTV12RuntimeError = linkonce_odr unnamed_addr constant [5 x i8*] [i8* null, i8* bitcast ({ i8*, i8*, i8* }* @_ZTI12RuntimeError to i8*), i8* bitcast (void (%class.RuntimeError*)* @_ZN12RuntimeErrorD1Ev to i8*), i8* bitcast (void (%class.RuntimeError*)* @_ZN12RuntimeErrorD0Ev to i8*), i8* bitcast (i8* (%class.RuntimeError*)* @_ZNK12RuntimeError4whatEv to i8*)], align 8
@_ZTS12RuntimeError = linkonce_odr constant [15 x i8] c"12RuntimeError\00"
@_ZTI12RuntimeError = linkonce_odr constant { i8*, i8*, i8* } { i8* bitcast (i8** getelementptr inbounds (i8*, i8** @_ZTVN10__cxxabiv120__si_class_type_infoE, i64 2) to i8*), i8* getelementptr inbounds ([15 x i8], [15 x i8]* @_ZTS12RuntimeError, i32 0, i32 0), i8* bitcast (i8** @_ZTISt9exception to i8*) }
@_ZTVSt9exception = external unnamed_addr constant [5 x i8*]
@_ZNSt3__1L19piecewise_constructE = internal constant %"struct.std::__1::piecewise_construct_t" undef, align 1
@llvm.global_ctors = appending global [1 x { i32, void ()*, i8* }] [{ i32, void ()*, i8* } { i32 65535, void ()* @_GLOBAL__sub_I_Exceptions.cpp, i8* null }]

; Function Attrs: ssp uwtable
define internal void @__cxx_global_var_init() #0 section "__TEXT,__StaticInit,regular,pure_instructions" personality i8* bitcast (i32 (...)* @__gxx_personality_v0 to i8*) {
  %1 = alloca %"class.std::initializer_list"*, align 8
  %2 = alloca %"class.std::__1::__tree_const_iterator", align 8
  %3 = alloca %"class.std::__1::__map_const_iterator"*, align 8
  %4 = alloca %"class.std::__1::__tree_const_iterator", align 8
  %5 = alloca %"class.std::__1::__map_const_iterator"*, align 8
  %6 = alloca %"class.std::__1::__tree_iterator", align 8
  %7 = alloca %"class.std::__1::__map_iterator"*, align 8
  %8 = alloca %"class.std::__1::__tree_iterator", align 8
  %9 = alloca %"class.std::__1::__map_iterator"*, align 8
  %10 = alloca %"struct.std::__1::pair"*, align 8
  %11 = alloca %"class.std::__1::__tree_iterator", align 8
  %12 = alloca %"class.std::__1::__tree_const_iterator", align 8
  %13 = alloca %"class.std::__1::__tree"*, align 8
  %14 = alloca %"struct.std::__1::pair"*, align 8
  %15 = alloca %"class.std::__1::__tree_const_iterator", align 8
  %16 = alloca %"class.std::__1::__map_iterator", align 8
  %17 = alloca %"class.std::__1::__map_const_iterator", align 8
  %18 = alloca %"class.std::__1::map"*, align 8
  %19 = alloca %"struct.std::__1::pair"*, align 8
  %20 = alloca %"class.std::__1::__tree_iterator", align 8
  %21 = alloca %"class.std::__1::__tree_const_iterator", align 8
  %22 = alloca %"class.std::__1::__tree_const_iterator", align 8
  %23 = alloca %"class.std::__1::__map_const_iterator"*, align 8
  %24 = alloca %"class.std::__1::__tree_const_iterator", align 8
  %25 = alloca %"class.std::__1::__map_const_iterator"*, align 8
  %26 = alloca %"class.std::__1::__tree_const_iterator"*, align 8
  %27 = alloca %"class.std::__1::__tree_end_node"*, align 8
  %28 = alloca %"class.std::__1::__tree_const_iterator"*, align 8
  %29 = alloca %"class.std::__1::__tree_end_node"*, align 8
  %30 = alloca %"class.std::__1::__tree_end_node"*, align 8
  %31 = alloca %"class.std::__1::__tree_end_node"*, align 8
  %32 = alloca %"class.std::__1::__libcpp_compressed_pair_imp"*, align 8
  %33 = alloca %"class.std::__1::__compressed_pair"*, align 8
  %34 = alloca %"class.std::__1::__tree"*, align 8
  %35 = alloca %"class.std::__1::__tree_const_iterator", align 8
  %36 = alloca %"class.std::__1::__tree"*, align 8
  %37 = alloca %"class.std::__1::__map_const_iterator", align 8
  %38 = alloca %"class.std::__1::map"*, align 8
  %39 = alloca %"class.std::__1::__tree_const_iterator", align 8
  %40 = alloca %"class.std::__1::__map_const_iterator", align 8
  %41 = alloca %"class.std::__1::map"*, align 8
  %42 = alloca %"class.std::__1::map"*, align 8
  %43 = alloca %"struct.std::__1::pair"*, align 8
  %44 = alloca %"struct.std::__1::pair"*, align 8
  %45 = alloca %"class.std::__1::__map_const_iterator", align 8
  %46 = alloca %"class.std::__1::__map_const_iterator", align 8
  %47 = alloca %"class.std::__1::__tree_const_iterator", align 8
  %48 = alloca %"class.std::__1::__map_iterator", align 8
  %49 = alloca %"class.std::initializer_list"*, align 8
  %50 = alloca %"class.std::__1::__map_value_compare"*, align 8
  %51 = alloca %"struct.std::__1::less", align 1
  %52 = alloca %"class.std::__1::__map_value_compare"*, align 8
  %53 = alloca %"class.std::initializer_list", align 8
  %54 = alloca %"class.std::__1::map"*, align 8
  %55 = alloca %"struct.std::__1::less"*, align 8
  %56 = alloca %"class.std::__1::__map_value_compare", align 1
  %57 = alloca %"struct.std::__1::less", align 1
  %58 = alloca i8*
  %59 = alloca i32
  %60 = alloca %"class.std::initializer_list", align 8
  %61 = alloca %"class.std::__1::map"*, align 8
  %62 = alloca %"struct.std::__1::less"*, align 8
  %63 = alloca [23 x i8]*, align 8
  %64 = alloca %"class.std::__1::allocator.4"*, align 8
  %65 = alloca %"class.std::__1::__libcpp_compressed_pair_imp.3"*, align 8
  %66 = alloca %"class.std::__1::__compressed_pair.2"*, align 8
  %67 = alloca %"class.std::__1::__compressed_pair.2"*, align 8
  %68 = alloca %"class.std::__1::basic_string"*, align 8
  %69 = alloca i8*, align 8
  %70 = alloca %"class.std::__1::basic_string"*, align 8
  %71 = alloca i8*, align 8
  %72 = alloca i32*, align 8
  %73 = alloca %"struct.std::__1::pair"*, align 8
  %74 = alloca i32*, align 8
  %75 = alloca [23 x i8]*, align 8
  %76 = alloca %"struct.std::__1::pair"*, align 8
  %77 = alloca i32*, align 8
  %78 = alloca [23 x i8]*, align 8
  %79 = alloca [15 x i8]*, align 8
  %80 = alloca %"class.std::__1::allocator.4"*, align 8
  %81 = alloca %"class.std::__1::__libcpp_compressed_pair_imp.3"*, align 8
  %82 = alloca %"class.std::__1::__compressed_pair.2"*, align 8
  %83 = alloca %"class.std::__1::__compressed_pair.2"*, align 8
  %84 = alloca %"class.std::__1::basic_string"*, align 8
  %85 = alloca i8*, align 8
  %86 = alloca %"class.std::__1::basic_string"*, align 8
  %87 = alloca i8*, align 8
  %88 = alloca i32*, align 8
  %89 = alloca %"struct.std::__1::pair"*, align 8
  %90 = alloca i32*, align 8
  %91 = alloca [15 x i8]*, align 8
  %92 = alloca %"struct.std::__1::pair"*, align 8
  %93 = alloca i32*, align 8
  %94 = alloca [15 x i8]*, align 8
  %95 = alloca [21 x i8]*, align 8
  %96 = alloca %"class.std::__1::allocator.4"*, align 8
  %97 = alloca %"class.std::__1::__libcpp_compressed_pair_imp.3"*, align 8
  %98 = alloca %"class.std::__1::__compressed_pair.2"*, align 8
  %99 = alloca %"class.std::__1::__compressed_pair.2"*, align 8
  %100 = alloca %"class.std::__1::basic_string"*, align 8
  %101 = alloca i8*, align 8
  %102 = alloca %"class.std::__1::basic_string"*, align 8
  %103 = alloca i8*, align 8
  %104 = alloca i32*, align 8
  %105 = alloca %"struct.std::__1::pair"*, align 8
  %106 = alloca i32*, align 8
  %107 = alloca [21 x i8]*, align 8
  %108 = alloca %"struct.std::__1::pair"*, align 8
  %109 = alloca i32*, align 8
  %110 = alloca [21 x i8]*, align 8
  %111 = alloca [17 x i8]*, align 8
  %112 = alloca %"class.std::__1::allocator.4"*, align 8
  %113 = alloca %"class.std::__1::__libcpp_compressed_pair_imp.3"*, align 8
  %114 = alloca %"class.std::__1::__compressed_pair.2"*, align 8
  %115 = alloca %"class.std::__1::__compressed_pair.2"*, align 8
  %116 = alloca %"class.std::__1::basic_string"*, align 8
  %117 = alloca i8*, align 8
  %118 = alloca %"class.std::__1::basic_string"*, align 8
  %119 = alloca i8*, align 8
  %120 = alloca i32*, align 8
  %121 = alloca %"struct.std::__1::pair"*, align 8
  %122 = alloca i32*, align 8
  %123 = alloca [17 x i8]*, align 8
  %124 = alloca %"struct.std::__1::pair"*, align 8
  %125 = alloca i32*, align 8
  %126 = alloca [17 x i8]*, align 8
  %127 = alloca %"class.std::initializer_list", align 8
  %128 = alloca [4 x %"struct.std::__1::pair"], align 8
  %129 = alloca %"struct.std::__1::pair"*, align 8
  %130 = alloca i32, align 4
  %131 = alloca i8*
  %132 = alloca i32
  %133 = alloca i32, align 4
  %134 = alloca i32, align 4
  %135 = alloca i32, align 4
  %136 = alloca %"struct.std::__1::less", align 1
  %137 = getelementptr inbounds [4 x %"struct.std::__1::pair"], [4 x %"struct.std::__1::pair"]* %128, i64 0, i64 0
  store %"struct.std::__1::pair"* %137, %"struct.std::__1::pair"** %129, align 8
  store i32 0, i32* %130, align 4
  store %"struct.std::__1::pair"* %137, %"struct.std::__1::pair"** %124, align 8
  store i32* %130, i32** %125, align 8
  store [17 x i8]* @.str, [17 x i8]** %126, align 8
  %138 = load %"struct.std::__1::pair"*, %"struct.std::__1::pair"** %124, align 8
  %139 = load i32*, i32** %125, align 8
  %140 = load [17 x i8]*, [17 x i8]** %126, align 8
  store %"struct.std::__1::pair"* %138, %"struct.std::__1::pair"** %121, align 8
  store i32* %139, i32** %122, align 8
  store [17 x i8]* %140, [17 x i8]** %123, align 8
  %141 = load %"struct.std::__1::pair"*, %"struct.std::__1::pair"** %121, align 8
  %142 = getelementptr inbounds %"struct.std::__1::pair", %"struct.std::__1::pair"* %141, i32 0, i32 0
  %143 = load i32*, i32** %122, align 8
  store i32* %143, i32** %120, align 8
  %144 = load i32*, i32** %120, align 8
  %145 = load i32, i32* %144, align 4
  store i32 %145, i32* %142, align 8
  %146 = getelementptr inbounds %"struct.std::__1::pair", %"struct.std::__1::pair"* %141, i32 0, i32 1
  %147 = load [17 x i8]*, [17 x i8]** %123, align 8
  store [17 x i8]* %147, [17 x i8]** %111, align 8
  %148 = load [17 x i8]*, [17 x i8]** %111, align 8
  %149 = getelementptr inbounds [17 x i8], [17 x i8]* %148, i32 0, i32 0
  store %"class.std::__1::basic_string"* %146, %"class.std::__1::basic_string"** %118, align 8
  store i8* %149, i8** %119, align 8
  %150 = load %"class.std::__1::basic_string"*, %"class.std::__1::basic_string"** %118, align 8
  %151 = load i8*, i8** %119, align 8
  store %"class.std::__1::basic_string"* %150, %"class.std::__1::basic_string"** %116, align 8
  store i8* %151, i8** %117, align 8
  %152 = load %"class.std::__1::basic_string"*, %"class.std::__1::basic_string"** %116, align 8
  %153 = bitcast %"class.std::__1::basic_string"* %152 to %"class.std::__1::__basic_string_common"*
  %154 = getelementptr inbounds %"class.std::__1::basic_string", %"class.std::__1::basic_string"* %152, i32 0, i32 0
  store %"class.std::__1::__compressed_pair.2"* %154, %"class.std::__1::__compressed_pair.2"** %115, align 8
  %155 = load %"class.std::__1::__compressed_pair.2"*, %"class.std::__1::__compressed_pair.2"** %115, align 8
  store %"class.std::__1::__compressed_pair.2"* %155, %"class.std::__1::__compressed_pair.2"** %114, align 8
  %156 = load %"class.std::__1::__compressed_pair.2"*, %"class.std::__1::__compressed_pair.2"** %114, align 8
  %157 = bitcast %"class.std::__1::__compressed_pair.2"* %156 to %"class.std::__1::__libcpp_compressed_pair_imp.3"*
  store %"class.std::__1::__libcpp_compressed_pair_imp.3"* %157, %"class.std::__1::__libcpp_compressed_pair_imp.3"** %113, align 8
  %158 = load %"class.std::__1::__libcpp_compressed_pair_imp.3"*, %"class.std::__1::__libcpp_compressed_pair_imp.3"** %113, align 8
  %159 = bitcast %"class.std::__1::__libcpp_compressed_pair_imp.3"* %158 to %"class.std::__1::allocator.4"*
  store %"class.std::__1::allocator.4"* %159, %"class.std::__1::allocator.4"** %112, align 8
  %160 = load %"class.std::__1::allocator.4"*, %"class.std::__1::allocator.4"** %112, align 8
  %161 = getelementptr inbounds %"class.std::__1::__libcpp_compressed_pair_imp.3", %"class.std::__1::__libcpp_compressed_pair_imp.3"* %158, i32 0, i32 0
  %162 = bitcast %"struct.std::__1::basic_string<char, std::__1::char_traits<char>, std::__1::allocator<char> >::__rep"* %161 to i8*
  call void @llvm.memset.p0i8.i64(i8* %162, i8 0, i64 24, i32 8, i1 false) #2
  %163 = load i8*, i8** %117, align 8
  %164 = load i8*, i8** %117, align 8
  %165 = invoke i64 @_ZNSt3__111char_traitsIcE6lengthEPKc(i8* %164)
          to label %166 unwind label %429

; <label>:166:                                    ; preds = %0
  invoke void @_ZNSt3__112basic_stringIcNS_11char_traitsIcEENS_9allocatorIcEEE6__initEPKcm(%"class.std::__1::basic_string"* %152, i8* %163, i64 %165)
          to label %167 unwind label %429

; <label>:167:                                    ; preds = %166
  br label %168

; <label>:168:                                    ; preds = %167
  %169 = getelementptr inbounds %"struct.std::__1::pair", %"struct.std::__1::pair"* %137, i64 1
  store %"struct.std::__1::pair"* %169, %"struct.std::__1::pair"** %129, align 8
  store i32 1, i32* %133, align 4
  store %"struct.std::__1::pair"* %169, %"struct.std::__1::pair"** %108, align 8
  store i32* %133, i32** %109, align 8
  store [21 x i8]* @.str.1, [21 x i8]** %110, align 8
  %170 = load %"struct.std::__1::pair"*, %"struct.std::__1::pair"** %108, align 8
  %171 = load i32*, i32** %109, align 8
  %172 = load [21 x i8]*, [21 x i8]** %110, align 8
  store %"struct.std::__1::pair"* %170, %"struct.std::__1::pair"** %105, align 8
  store i32* %171, i32** %106, align 8
  store [21 x i8]* %172, [21 x i8]** %107, align 8
  %173 = load %"struct.std::__1::pair"*, %"struct.std::__1::pair"** %105, align 8
  %174 = getelementptr inbounds %"struct.std::__1::pair", %"struct.std::__1::pair"* %173, i32 0, i32 0
  %175 = load i32*, i32** %106, align 8
  store i32* %175, i32** %104, align 8
  %176 = load i32*, i32** %104, align 8
  %177 = load i32, i32* %176, align 4
  store i32 %177, i32* %174, align 8
  %178 = getelementptr inbounds %"struct.std::__1::pair", %"struct.std::__1::pair"* %173, i32 0, i32 1
  %179 = load [21 x i8]*, [21 x i8]** %107, align 8
  store [21 x i8]* %179, [21 x i8]** %95, align 8
  %180 = load [21 x i8]*, [21 x i8]** %95, align 8
  %181 = getelementptr inbounds [21 x i8], [21 x i8]* %180, i32 0, i32 0
  store %"class.std::__1::basic_string"* %178, %"class.std::__1::basic_string"** %102, align 8
  store i8* %181, i8** %103, align 8
  %182 = load %"class.std::__1::basic_string"*, %"class.std::__1::basic_string"** %102, align 8
  %183 = load i8*, i8** %103, align 8
  store %"class.std::__1::basic_string"* %182, %"class.std::__1::basic_string"** %100, align 8
  store i8* %183, i8** %101, align 8
  %184 = load %"class.std::__1::basic_string"*, %"class.std::__1::basic_string"** %100, align 8
  %185 = bitcast %"class.std::__1::basic_string"* %184 to %"class.std::__1::__basic_string_common"*
  %186 = getelementptr inbounds %"class.std::__1::basic_string", %"class.std::__1::basic_string"* %184, i32 0, i32 0
  store %"class.std::__1::__compressed_pair.2"* %186, %"class.std::__1::__compressed_pair.2"** %99, align 8
  %187 = load %"class.std::__1::__compressed_pair.2"*, %"class.std::__1::__compressed_pair.2"** %99, align 8
  store %"class.std::__1::__compressed_pair.2"* %187, %"class.std::__1::__compressed_pair.2"** %98, align 8
  %188 = load %"class.std::__1::__compressed_pair.2"*, %"class.std::__1::__compressed_pair.2"** %98, align 8
  %189 = bitcast %"class.std::__1::__compressed_pair.2"* %188 to %"class.std::__1::__libcpp_compressed_pair_imp.3"*
  store %"class.std::__1::__libcpp_compressed_pair_imp.3"* %189, %"class.std::__1::__libcpp_compressed_pair_imp.3"** %97, align 8
  %190 = load %"class.std::__1::__libcpp_compressed_pair_imp.3"*, %"class.std::__1::__libcpp_compressed_pair_imp.3"** %97, align 8
  %191 = bitcast %"class.std::__1::__libcpp_compressed_pair_imp.3"* %190 to %"class.std::__1::allocator.4"*
  store %"class.std::__1::allocator.4"* %191, %"class.std::__1::allocator.4"** %96, align 8
  %192 = load %"class.std::__1::allocator.4"*, %"class.std::__1::allocator.4"** %96, align 8
  %193 = getelementptr inbounds %"class.std::__1::__libcpp_compressed_pair_imp.3", %"class.std::__1::__libcpp_compressed_pair_imp.3"* %190, i32 0, i32 0
  %194 = bitcast %"struct.std::__1::basic_string<char, std::__1::char_traits<char>, std::__1::allocator<char> >::__rep"* %193 to i8*
  call void @llvm.memset.p0i8.i64(i8* %194, i8 0, i64 24, i32 8, i1 false) #2
  %195 = load i8*, i8** %101, align 8
  %196 = load i8*, i8** %101, align 8
  %197 = invoke i64 @_ZNSt3__111char_traitsIcE6lengthEPKc(i8* %196)
          to label %198 unwind label %429

; <label>:198:                                    ; preds = %168
  invoke void @_ZNSt3__112basic_stringIcNS_11char_traitsIcEENS_9allocatorIcEEE6__initEPKcm(%"class.std::__1::basic_string"* %184, i8* %195, i64 %197)
          to label %199 unwind label %429

; <label>:199:                                    ; preds = %198
  br label %200

; <label>:200:                                    ; preds = %199
  %201 = getelementptr inbounds %"struct.std::__1::pair", %"struct.std::__1::pair"* %169, i64 1
  store %"struct.std::__1::pair"* %201, %"struct.std::__1::pair"** %129, align 8
  store i32 3, i32* %134, align 4
  store %"struct.std::__1::pair"* %201, %"struct.std::__1::pair"** %92, align 8
  store i32* %134, i32** %93, align 8
  store [15 x i8]* @.str.2, [15 x i8]** %94, align 8
  %202 = load %"struct.std::__1::pair"*, %"struct.std::__1::pair"** %92, align 8
  %203 = load i32*, i32** %93, align 8
  %204 = load [15 x i8]*, [15 x i8]** %94, align 8
  store %"struct.std::__1::pair"* %202, %"struct.std::__1::pair"** %89, align 8
  store i32* %203, i32** %90, align 8
  store [15 x i8]* %204, [15 x i8]** %91, align 8
  %205 = load %"struct.std::__1::pair"*, %"struct.std::__1::pair"** %89, align 8
  %206 = getelementptr inbounds %"struct.std::__1::pair", %"struct.std::__1::pair"* %205, i32 0, i32 0
  %207 = load i32*, i32** %90, align 8
  store i32* %207, i32** %88, align 8
  %208 = load i32*, i32** %88, align 8
  %209 = load i32, i32* %208, align 4
  store i32 %209, i32* %206, align 8
  %210 = getelementptr inbounds %"struct.std::__1::pair", %"struct.std::__1::pair"* %205, i32 0, i32 1
  %211 = load [15 x i8]*, [15 x i8]** %91, align 8
  store [15 x i8]* %211, [15 x i8]** %79, align 8
  %212 = load [15 x i8]*, [15 x i8]** %79, align 8
  %213 = getelementptr inbounds [15 x i8], [15 x i8]* %212, i32 0, i32 0
  store %"class.std::__1::basic_string"* %210, %"class.std::__1::basic_string"** %86, align 8
  store i8* %213, i8** %87, align 8
  %214 = load %"class.std::__1::basic_string"*, %"class.std::__1::basic_string"** %86, align 8
  %215 = load i8*, i8** %87, align 8
  store %"class.std::__1::basic_string"* %214, %"class.std::__1::basic_string"** %84, align 8
  store i8* %215, i8** %85, align 8
  %216 = load %"class.std::__1::basic_string"*, %"class.std::__1::basic_string"** %84, align 8
  %217 = bitcast %"class.std::__1::basic_string"* %216 to %"class.std::__1::__basic_string_common"*
  %218 = getelementptr inbounds %"class.std::__1::basic_string", %"class.std::__1::basic_string"* %216, i32 0, i32 0
  store %"class.std::__1::__compressed_pair.2"* %218, %"class.std::__1::__compressed_pair.2"** %83, align 8
  %219 = load %"class.std::__1::__compressed_pair.2"*, %"class.std::__1::__compressed_pair.2"** %83, align 8
  store %"class.std::__1::__compressed_pair.2"* %219, %"class.std::__1::__compressed_pair.2"** %82, align 8
  %220 = load %"class.std::__1::__compressed_pair.2"*, %"class.std::__1::__compressed_pair.2"** %82, align 8
  %221 = bitcast %"class.std::__1::__compressed_pair.2"* %220 to %"class.std::__1::__libcpp_compressed_pair_imp.3"*
  store %"class.std::__1::__libcpp_compressed_pair_imp.3"* %221, %"class.std::__1::__libcpp_compressed_pair_imp.3"** %81, align 8
  %222 = load %"class.std::__1::__libcpp_compressed_pair_imp.3"*, %"class.std::__1::__libcpp_compressed_pair_imp.3"** %81, align 8
  %223 = bitcast %"class.std::__1::__libcpp_compressed_pair_imp.3"* %222 to %"class.std::__1::allocator.4"*
  store %"class.std::__1::allocator.4"* %223, %"class.std::__1::allocator.4"** %80, align 8
  %224 = load %"class.std::__1::allocator.4"*, %"class.std::__1::allocator.4"** %80, align 8
  %225 = getelementptr inbounds %"class.std::__1::__libcpp_compressed_pair_imp.3", %"class.std::__1::__libcpp_compressed_pair_imp.3"* %222, i32 0, i32 0
  %226 = bitcast %"struct.std::__1::basic_string<char, std::__1::char_traits<char>, std::__1::allocator<char> >::__rep"* %225 to i8*
  call void @llvm.memset.p0i8.i64(i8* %226, i8 0, i64 24, i32 8, i1 false) #2
  %227 = load i8*, i8** %85, align 8
  %228 = load i8*, i8** %85, align 8
  %229 = invoke i64 @_ZNSt3__111char_traitsIcE6lengthEPKc(i8* %228)
          to label %230 unwind label %429

; <label>:230:                                    ; preds = %200
  invoke void @_ZNSt3__112basic_stringIcNS_11char_traitsIcEENS_9allocatorIcEEE6__initEPKcm(%"class.std::__1::basic_string"* %216, i8* %227, i64 %229)
          to label %231 unwind label %429

; <label>:231:                                    ; preds = %230
  br label %232

; <label>:232:                                    ; preds = %231
  %233 = getelementptr inbounds %"struct.std::__1::pair", %"struct.std::__1::pair"* %201, i64 1
  store %"struct.std::__1::pair"* %233, %"struct.std::__1::pair"** %129, align 8
  store i32 2, i32* %135, align 4
  store %"struct.std::__1::pair"* %233, %"struct.std::__1::pair"** %76, align 8
  store i32* %135, i32** %77, align 8
  store [23 x i8]* @.str.3, [23 x i8]** %78, align 8
  %234 = load %"struct.std::__1::pair"*, %"struct.std::__1::pair"** %76, align 8
  %235 = load i32*, i32** %77, align 8
  %236 = load [23 x i8]*, [23 x i8]** %78, align 8
  store %"struct.std::__1::pair"* %234, %"struct.std::__1::pair"** %73, align 8
  store i32* %235, i32** %74, align 8
  store [23 x i8]* %236, [23 x i8]** %75, align 8
  %237 = load %"struct.std::__1::pair"*, %"struct.std::__1::pair"** %73, align 8
  %238 = getelementptr inbounds %"struct.std::__1::pair", %"struct.std::__1::pair"* %237, i32 0, i32 0
  %239 = load i32*, i32** %74, align 8
  store i32* %239, i32** %72, align 8
  %240 = load i32*, i32** %72, align 8
  %241 = load i32, i32* %240, align 4
  store i32 %241, i32* %238, align 8
  %242 = getelementptr inbounds %"struct.std::__1::pair", %"struct.std::__1::pair"* %237, i32 0, i32 1
  %243 = load [23 x i8]*, [23 x i8]** %75, align 8
  store [23 x i8]* %243, [23 x i8]** %63, align 8
  %244 = load [23 x i8]*, [23 x i8]** %63, align 8
  %245 = getelementptr inbounds [23 x i8], [23 x i8]* %244, i32 0, i32 0
  store %"class.std::__1::basic_string"* %242, %"class.std::__1::basic_string"** %70, align 8
  store i8* %245, i8** %71, align 8
  %246 = load %"class.std::__1::basic_string"*, %"class.std::__1::basic_string"** %70, align 8
  %247 = load i8*, i8** %71, align 8
  store %"class.std::__1::basic_string"* %246, %"class.std::__1::basic_string"** %68, align 8
  store i8* %247, i8** %69, align 8
  %248 = load %"class.std::__1::basic_string"*, %"class.std::__1::basic_string"** %68, align 8
  %249 = bitcast %"class.std::__1::basic_string"* %248 to %"class.std::__1::__basic_string_common"*
  %250 = getelementptr inbounds %"class.std::__1::basic_string", %"class.std::__1::basic_string"* %248, i32 0, i32 0
  store %"class.std::__1::__compressed_pair.2"* %250, %"class.std::__1::__compressed_pair.2"** %67, align 8
  %251 = load %"class.std::__1::__compressed_pair.2"*, %"class.std::__1::__compressed_pair.2"** %67, align 8
  store %"class.std::__1::__compressed_pair.2"* %251, %"class.std::__1::__compressed_pair.2"** %66, align 8
  %252 = load %"class.std::__1::__compressed_pair.2"*, %"class.std::__1::__compressed_pair.2"** %66, align 8
  %253 = bitcast %"class.std::__1::__compressed_pair.2"* %252 to %"class.std::__1::__libcpp_compressed_pair_imp.3"*
  store %"class.std::__1::__libcpp_compressed_pair_imp.3"* %253, %"class.std::__1::__libcpp_compressed_pair_imp.3"** %65, align 8
  %254 = load %"class.std::__1::__libcpp_compressed_pair_imp.3"*, %"class.std::__1::__libcpp_compressed_pair_imp.3"** %65, align 8
  %255 = bitcast %"class.std::__1::__libcpp_compressed_pair_imp.3"* %254 to %"class.std::__1::allocator.4"*
  store %"class.std::__1::allocator.4"* %255, %"class.std::__1::allocator.4"** %64, align 8
  %256 = load %"class.std::__1::allocator.4"*, %"class.std::__1::allocator.4"** %64, align 8
  %257 = getelementptr inbounds %"class.std::__1::__libcpp_compressed_pair_imp.3", %"class.std::__1::__libcpp_compressed_pair_imp.3"* %254, i32 0, i32 0
  %258 = bitcast %"struct.std::__1::basic_string<char, std::__1::char_traits<char>, std::__1::allocator<char> >::__rep"* %257 to i8*
  call void @llvm.memset.p0i8.i64(i8* %258, i8 0, i64 24, i32 8, i1 false) #2
  %259 = load i8*, i8** %69, align 8
  %260 = load i8*, i8** %69, align 8
  %261 = invoke i64 @_ZNSt3__111char_traitsIcE6lengthEPKc(i8* %260)
          to label %262 unwind label %429

; <label>:262:                                    ; preds = %232
  invoke void @_ZNSt3__112basic_stringIcNS_11char_traitsIcEENS_9allocatorIcEEE6__initEPKcm(%"class.std::__1::basic_string"* %248, i8* %259, i64 %261)
          to label %263 unwind label %429

; <label>:263:                                    ; preds = %262
  br label %264

; <label>:264:                                    ; preds = %263
  %265 = getelementptr inbounds %"class.std::initializer_list", %"class.std::initializer_list"* %127, i32 0, i32 0
  %266 = getelementptr inbounds [4 x %"struct.std::__1::pair"], [4 x %"struct.std::__1::pair"]* %128, i64 0, i64 0
  store %"struct.std::__1::pair"* %266, %"struct.std::__1::pair"** %265, align 8
  %267 = getelementptr inbounds %"class.std::initializer_list", %"class.std::initializer_list"* %127, i32 0, i32 1
  store i64 4, i64* %267, align 8
  %268 = bitcast %"class.std::initializer_list"* %127 to { %"struct.std::__1::pair"*, i64 }*
  %269 = getelementptr inbounds { %"struct.std::__1::pair"*, i64 }, { %"struct.std::__1::pair"*, i64 }* %268, i32 0, i32 0
  %270 = load %"struct.std::__1::pair"*, %"struct.std::__1::pair"** %269, align 8
  %271 = getelementptr inbounds { %"struct.std::__1::pair"*, i64 }, { %"struct.std::__1::pair"*, i64 }* %268, i32 0, i32 1
  %272 = load i64, i64* %271, align 8
  %273 = bitcast %"class.std::initializer_list"* %60 to { %"struct.std::__1::pair"*, i64 }*
  %274 = getelementptr inbounds { %"struct.std::__1::pair"*, i64 }, { %"struct.std::__1::pair"*, i64 }* %273, i32 0, i32 0
  store %"struct.std::__1::pair"* %270, %"struct.std::__1::pair"** %274, align 8
  %275 = getelementptr inbounds { %"struct.std::__1::pair"*, i64 }, { %"struct.std::__1::pair"*, i64 }* %273, i32 0, i32 1
  store i64 %272, i64* %275, align 8
  store %"class.std::__1::map"* @_parse_errors, %"class.std::__1::map"** %61, align 8
  store %"struct.std::__1::less"* %136, %"struct.std::__1::less"** %62, align 8
  %276 = load %"class.std::__1::map"*, %"class.std::__1::map"** %61, align 8
  %277 = load %"struct.std::__1::less"*, %"struct.std::__1::less"** %62, align 8
  %278 = bitcast %"class.std::initializer_list"* %60 to { %"struct.std::__1::pair"*, i64 }*
  %279 = getelementptr inbounds { %"struct.std::__1::pair"*, i64 }, { %"struct.std::__1::pair"*, i64 }* %278, i32 0, i32 0
  %280 = load %"struct.std::__1::pair"*, %"struct.std::__1::pair"** %279, align 8
  %281 = getelementptr inbounds { %"struct.std::__1::pair"*, i64 }, { %"struct.std::__1::pair"*, i64 }* %278, i32 0, i32 1
  %282 = load i64, i64* %281, align 8
  %283 = bitcast %"class.std::initializer_list"* %53 to { %"struct.std::__1::pair"*, i64 }*
  %284 = getelementptr inbounds { %"struct.std::__1::pair"*, i64 }, { %"struct.std::__1::pair"*, i64 }* %283, i32 0, i32 0
  store %"struct.std::__1::pair"* %280, %"struct.std::__1::pair"** %284, align 8
  %285 = getelementptr inbounds { %"struct.std::__1::pair"*, i64 }, { %"struct.std::__1::pair"*, i64 }* %283, i32 0, i32 1
  store i64 %282, i64* %285, align 8
  store %"class.std::__1::map"* %276, %"class.std::__1::map"** %54, align 8
  store %"struct.std::__1::less"* %277, %"struct.std::__1::less"** %55, align 8
  %286 = load %"class.std::__1::map"*, %"class.std::__1::map"** %54, align 8
  %287 = getelementptr inbounds %"class.std::__1::map", %"class.std::__1::map"* %286, i32 0, i32 0
  %288 = load %"struct.std::__1::less"*, %"struct.std::__1::less"** %55, align 8
  store %"class.std::__1::__map_value_compare"* %56, %"class.std::__1::__map_value_compare"** %52, align 8
  %289 = load %"class.std::__1::__map_value_compare"*, %"class.std::__1::__map_value_compare"** %52, align 8
  store %"class.std::__1::__map_value_compare"* %289, %"class.std::__1::__map_value_compare"** %50, align 8
  %290 = load %"class.std::__1::__map_value_compare"*, %"class.std::__1::__map_value_compare"** %50, align 8
  %291 = bitcast %"class.std::__1::__map_value_compare"* %290 to %"struct.std::__1::less"*
  call void @_ZNSt3__16__treeINS_12__value_typeI11ParseErrorsNS_12basic_stringIcNS_11char_traitsIcEENS_9allocatorIcEEEEEENS_19__map_value_compareIS2_S9_NS_4lessIS2_EELb1EEENS6_IS9_EEEC1ERKSD_(%"class.std::__1::__tree"* %287, %"class.std::__1::__map_value_compare"* dereferenceable(1) %56) #2
  store %"class.std::initializer_list"* %53, %"class.std::initializer_list"** %49, align 8
  %292 = load %"class.std::initializer_list"*, %"class.std::initializer_list"** %49, align 8
  %293 = getelementptr inbounds %"class.std::initializer_list", %"class.std::initializer_list"* %292, i32 0, i32 0
  %294 = load %"struct.std::__1::pair"*, %"struct.std::__1::pair"** %293, align 8
  store %"class.std::initializer_list"* %53, %"class.std::initializer_list"** %1, align 8
  %295 = load %"class.std::initializer_list"*, %"class.std::initializer_list"** %1, align 8
  %296 = getelementptr inbounds %"class.std::initializer_list", %"class.std::initializer_list"* %295, i32 0, i32 0
  %297 = load %"struct.std::__1::pair"*, %"struct.std::__1::pair"** %296, align 8
  %298 = getelementptr inbounds %"class.std::initializer_list", %"class.std::initializer_list"* %295, i32 0, i32 1
  %299 = load i64, i64* %298, align 8
  %300 = getelementptr inbounds %"struct.std::__1::pair", %"struct.std::__1::pair"* %297, i64 %299
  store %"class.std::__1::map"* %286, %"class.std::__1::map"** %42, align 8
  store %"struct.std::__1::pair"* %294, %"struct.std::__1::pair"** %43, align 8
  store %"struct.std::__1::pair"* %300, %"struct.std::__1::pair"** %44, align 8
  %301 = load %"class.std::__1::map"*, %"class.std::__1::map"** %42, align 8
  store %"class.std::__1::map"* %301, %"class.std::__1::map"** %41, align 8
  %302 = load %"class.std::__1::map"*, %"class.std::__1::map"** %41, align 8
  store %"class.std::__1::map"* %302, %"class.std::__1::map"** %38, align 8
  %303 = load %"class.std::__1::map"*, %"class.std::__1::map"** %38, align 8
  %304 = getelementptr inbounds %"class.std::__1::map", %"class.std::__1::map"* %303, i32 0, i32 0
  store %"class.std::__1::__tree"* %304, %"class.std::__1::__tree"** %36, align 8
  %305 = load %"class.std::__1::__tree"*, %"class.std::__1::__tree"** %36, align 8
  store %"class.std::__1::__tree"* %305, %"class.std::__1::__tree"** %34, align 8
  %306 = load %"class.std::__1::__tree"*, %"class.std::__1::__tree"** %34, align 8
  %307 = getelementptr inbounds %"class.std::__1::__tree", %"class.std::__1::__tree"* %306, i32 0, i32 1
  store %"class.std::__1::__compressed_pair"* %307, %"class.std::__1::__compressed_pair"** %33, align 8
  %308 = load %"class.std::__1::__compressed_pair"*, %"class.std::__1::__compressed_pair"** %33, align 8
  %309 = bitcast %"class.std::__1::__compressed_pair"* %308 to %"class.std::__1::__libcpp_compressed_pair_imp"*
  store %"class.std::__1::__libcpp_compressed_pair_imp"* %309, %"class.std::__1::__libcpp_compressed_pair_imp"** %32, align 8
  %310 = load %"class.std::__1::__libcpp_compressed_pair_imp"*, %"class.std::__1::__libcpp_compressed_pair_imp"** %32, align 8
  %311 = getelementptr inbounds %"class.std::__1::__libcpp_compressed_pair_imp", %"class.std::__1::__libcpp_compressed_pair_imp"* %310, i32 0, i32 0
  store %"class.std::__1::__tree_end_node"* %311, %"class.std::__1::__tree_end_node"** %31, align 8
  %312 = load %"class.std::__1::__tree_end_node"*, %"class.std::__1::__tree_end_node"** %31, align 8
  store %"class.std::__1::__tree_end_node"* %312, %"class.std::__1::__tree_end_node"** %30, align 8
  %313 = load %"class.std::__1::__tree_end_node"*, %"class.std::__1::__tree_end_node"** %30, align 8
  %314 = bitcast %"class.std::__1::__tree_end_node"* %313 to i8*
  store %"class.std::__1::__tree_const_iterator"* %35, %"class.std::__1::__tree_const_iterator"** %28, align 8
  store %"class.std::__1::__tree_end_node"* %313, %"class.std::__1::__tree_end_node"** %29, align 8
  %315 = load %"class.std::__1::__tree_const_iterator"*, %"class.std::__1::__tree_const_iterator"** %28, align 8
  %316 = load %"class.std::__1::__tree_end_node"*, %"class.std::__1::__tree_end_node"** %29, align 8
  store %"class.std::__1::__tree_const_iterator"* %315, %"class.std::__1::__tree_const_iterator"** %26, align 8
  store %"class.std::__1::__tree_end_node"* %316, %"class.std::__1::__tree_end_node"** %27, align 8
  %317 = load %"class.std::__1::__tree_const_iterator"*, %"class.std::__1::__tree_const_iterator"** %26, align 8
  %318 = getelementptr inbounds %"class.std::__1::__tree_const_iterator", %"class.std::__1::__tree_const_iterator"* %317, i32 0, i32 0
  %319 = load %"class.std::__1::__tree_end_node"*, %"class.std::__1::__tree_end_node"** %27, align 8
  store %"class.std::__1::__tree_end_node"* %319, %"class.std::__1::__tree_end_node"** %318, align 8
  %320 = getelementptr inbounds %"class.std::__1::__tree_const_iterator", %"class.std::__1::__tree_const_iterator"* %35, i32 0, i32 0
  %321 = load %"class.std::__1::__tree_end_node"*, %"class.std::__1::__tree_end_node"** %320, align 8
  %322 = getelementptr inbounds %"class.std::__1::__tree_const_iterator", %"class.std::__1::__tree_const_iterator"* %39, i32 0, i32 0
  store %"class.std::__1::__tree_end_node"* %321, %"class.std::__1::__tree_end_node"** %322, align 8
  %323 = getelementptr inbounds %"class.std::__1::__tree_const_iterator", %"class.std::__1::__tree_const_iterator"* %39, i32 0, i32 0
  %324 = load %"class.std::__1::__tree_end_node"*, %"class.std::__1::__tree_end_node"** %323, align 8
  %325 = getelementptr inbounds %"class.std::__1::__tree_const_iterator", %"class.std::__1::__tree_const_iterator"* %24, i32 0, i32 0
  store %"class.std::__1::__tree_end_node"* %324, %"class.std::__1::__tree_end_node"** %325, align 8
  store %"class.std::__1::__map_const_iterator"* %37, %"class.std::__1::__map_const_iterator"** %25, align 8
  %326 = load %"class.std::__1::__map_const_iterator"*, %"class.std::__1::__map_const_iterator"** %25, align 8
  %327 = getelementptr inbounds %"class.std::__1::__tree_const_iterator", %"class.std::__1::__tree_const_iterator"* %24, i32 0, i32 0
  %328 = load %"class.std::__1::__tree_end_node"*, %"class.std::__1::__tree_end_node"** %327, align 8
  %329 = getelementptr inbounds %"class.std::__1::__tree_const_iterator", %"class.std::__1::__tree_const_iterator"* %22, i32 0, i32 0
  store %"class.std::__1::__tree_end_node"* %328, %"class.std::__1::__tree_end_node"** %329, align 8
  store %"class.std::__1::__map_const_iterator"* %326, %"class.std::__1::__map_const_iterator"** %23, align 8
  %330 = load %"class.std::__1::__map_const_iterator"*, %"class.std::__1::__map_const_iterator"** %23, align 8
  %331 = getelementptr inbounds %"class.std::__1::__map_const_iterator", %"class.std::__1::__map_const_iterator"* %330, i32 0, i32 0
  %332 = bitcast %"class.std::__1::__tree_const_iterator"* %331 to i8*
  %333 = bitcast %"class.std::__1::__tree_const_iterator"* %22 to i8*
  call void @llvm.memcpy.p0i8.p0i8.i64(i8* %332, i8* %333, i64 8, i32 8, i1 false) #2
  %334 = getelementptr inbounds %"class.std::__1::__map_const_iterator", %"class.std::__1::__map_const_iterator"* %37, i32 0, i32 0
  %335 = getelementptr inbounds %"class.std::__1::__tree_const_iterator", %"class.std::__1::__tree_const_iterator"* %334, i32 0, i32 0
  %336 = load %"class.std::__1::__tree_end_node"*, %"class.std::__1::__tree_end_node"** %335, align 8
  %337 = getelementptr inbounds %"class.std::__1::__map_const_iterator", %"class.std::__1::__map_const_iterator"* %40, i32 0, i32 0
  %338 = getelementptr inbounds %"class.std::__1::__tree_const_iterator", %"class.std::__1::__tree_const_iterator"* %337, i32 0, i32 0
  store %"class.std::__1::__tree_end_node"* %336, %"class.std::__1::__tree_end_node"** %338, align 8
  %339 = getelementptr inbounds %"class.std::__1::__map_const_iterator", %"class.std::__1::__map_const_iterator"* %40, i32 0, i32 0
  %340 = getelementptr inbounds %"class.std::__1::__tree_const_iterator", %"class.std::__1::__tree_const_iterator"* %339, i32 0, i32 0
  %341 = load %"class.std::__1::__tree_end_node"*, %"class.std::__1::__tree_end_node"** %340, align 8
  %342 = getelementptr inbounds %"class.std::__1::__map_const_iterator", %"class.std::__1::__map_const_iterator"* %45, i32 0, i32 0
  %343 = getelementptr inbounds %"class.std::__1::__tree_const_iterator", %"class.std::__1::__tree_const_iterator"* %342, i32 0, i32 0
  store %"class.std::__1::__tree_end_node"* %341, %"class.std::__1::__tree_end_node"** %343, align 8
  br label %344

; <label>:344:                                    ; preds = %388, %264
  %345 = load %"struct.std::__1::pair"*, %"struct.std::__1::pair"** %43, align 8
  %346 = load %"struct.std::__1::pair"*, %"struct.std::__1::pair"** %44, align 8
  %347 = icmp ne %"struct.std::__1::pair"* %345, %346
  br i1 %347, label %348, label %419

; <label>:348:                                    ; preds = %344
  %349 = getelementptr inbounds %"class.std::__1::__map_const_iterator", %"class.std::__1::__map_const_iterator"* %45, i32 0, i32 0
  %350 = bitcast %"class.std::__1::__tree_const_iterator"* %47 to i8*
  %351 = bitcast %"class.std::__1::__tree_const_iterator"* %349 to i8*
  call void @llvm.memcpy.p0i8.p0i8.i64(i8* %350, i8* %351, i64 8, i32 8, i1 false)
  %352 = getelementptr inbounds %"class.std::__1::__tree_const_iterator", %"class.std::__1::__tree_const_iterator"* %47, i32 0, i32 0
  %353 = load %"class.std::__1::__tree_end_node"*, %"class.std::__1::__tree_end_node"** %352, align 8
  %354 = getelementptr inbounds %"class.std::__1::__tree_const_iterator", %"class.std::__1::__tree_const_iterator"* %4, i32 0, i32 0
  store %"class.std::__1::__tree_end_node"* %353, %"class.std::__1::__tree_end_node"** %354, align 8
  store %"class.std::__1::__map_const_iterator"* %46, %"class.std::__1::__map_const_iterator"** %5, align 8
  %355 = load %"class.std::__1::__map_const_iterator"*, %"class.std::__1::__map_const_iterator"** %5, align 8
  %356 = getelementptr inbounds %"class.std::__1::__tree_const_iterator", %"class.std::__1::__tree_const_iterator"* %4, i32 0, i32 0
  %357 = load %"class.std::__1::__tree_end_node"*, %"class.std::__1::__tree_end_node"** %356, align 8
  %358 = getelementptr inbounds %"class.std::__1::__tree_const_iterator", %"class.std::__1::__tree_const_iterator"* %2, i32 0, i32 0
  store %"class.std::__1::__tree_end_node"* %357, %"class.std::__1::__tree_end_node"** %358, align 8
  store %"class.std::__1::__map_const_iterator"* %355, %"class.std::__1::__map_const_iterator"** %3, align 8
  %359 = load %"class.std::__1::__map_const_iterator"*, %"class.std::__1::__map_const_iterator"** %3, align 8
  %360 = getelementptr inbounds %"class.std::__1::__map_const_iterator", %"class.std::__1::__map_const_iterator"* %359, i32 0, i32 0
  %361 = bitcast %"class.std::__1::__tree_const_iterator"* %360 to i8*
  %362 = bitcast %"class.std::__1::__tree_const_iterator"* %2 to i8*
  call void @llvm.memcpy.p0i8.p0i8.i64(i8* %361, i8* %362, i64 8, i32 8, i1 false) #2
  %363 = load %"struct.std::__1::pair"*, %"struct.std::__1::pair"** %43, align 8
  %364 = getelementptr inbounds %"class.std::__1::__map_const_iterator", %"class.std::__1::__map_const_iterator"* %46, i32 0, i32 0
  %365 = getelementptr inbounds %"class.std::__1::__tree_const_iterator", %"class.std::__1::__tree_const_iterator"* %364, i32 0, i32 0
  %366 = load %"class.std::__1::__tree_end_node"*, %"class.std::__1::__tree_end_node"** %365, align 8
  %367 = getelementptr inbounds %"class.std::__1::__map_const_iterator", %"class.std::__1::__map_const_iterator"* %17, i32 0, i32 0
  %368 = getelementptr inbounds %"class.std::__1::__tree_const_iterator", %"class.std::__1::__tree_const_iterator"* %367, i32 0, i32 0
  store %"class.std::__1::__tree_end_node"* %366, %"class.std::__1::__tree_end_node"** %368, align 8
  store %"class.std::__1::map"* %301, %"class.std::__1::map"** %18, align 8
  store %"struct.std::__1::pair"* %363, %"struct.std::__1::pair"** %19, align 8
  %369 = load %"class.std::__1::map"*, %"class.std::__1::map"** %18, align 8
  %370 = getelementptr inbounds %"class.std::__1::map", %"class.std::__1::map"* %369, i32 0, i32 0
  %371 = getelementptr inbounds %"class.std::__1::__map_const_iterator", %"class.std::__1::__map_const_iterator"* %17, i32 0, i32 0
  %372 = bitcast %"class.std::__1::__tree_const_iterator"* %21 to i8*
  %373 = bitcast %"class.std::__1::__tree_const_iterator"* %371 to i8*
  call void @llvm.memcpy.p0i8.p0i8.i64(i8* %372, i8* %373, i64 8, i32 8, i1 false)
  %374 = load %"struct.std::__1::pair"*, %"struct.std::__1::pair"** %19, align 8
  %375 = getelementptr inbounds %"class.std::__1::__tree_const_iterator", %"class.std::__1::__tree_const_iterator"* %21, i32 0, i32 0
  %376 = load %"class.std::__1::__tree_end_node"*, %"class.std::__1::__tree_end_node"** %375, align 8
  %377 = getelementptr inbounds %"class.std::__1::__tree_const_iterator", %"class.std::__1::__tree_const_iterator"* %12, i32 0, i32 0
  store %"class.std::__1::__tree_end_node"* %376, %"class.std::__1::__tree_end_node"** %377, align 8
  store %"class.std::__1::__tree"* %370, %"class.std::__1::__tree"** %13, align 8
  store %"struct.std::__1::pair"* %374, %"struct.std::__1::pair"** %14, align 8
  %378 = load %"class.std::__1::__tree"*, %"class.std::__1::__tree"** %13, align 8
  %379 = bitcast %"class.std::__1::__tree_const_iterator"* %15 to i8*
  %380 = bitcast %"class.std::__1::__tree_const_iterator"* %12 to i8*
  call void @llvm.memcpy.p0i8.p0i8.i64(i8* %379, i8* %380, i64 8, i32 8, i1 false)
  %381 = load %"struct.std::__1::pair"*, %"struct.std::__1::pair"** %14, align 8
  store %"struct.std::__1::pair"* %381, %"struct.std::__1::pair"** %10, align 8
  %382 = load %"struct.std::__1::pair"*, %"struct.std::__1::pair"** %10, align 8
  %383 = getelementptr inbounds %"struct.std::__1::pair", %"struct.std::__1::pair"* %382, i32 0, i32 0
  %384 = load %"struct.std::__1::pair"*, %"struct.std::__1::pair"** %14, align 8
  %385 = getelementptr inbounds %"class.std::__1::__tree_const_iterator", %"class.std::__1::__tree_const_iterator"* %15, i32 0, i32 0
  %386 = load %"class.std::__1::__tree_end_node"*, %"class.std::__1::__tree_end_node"** %385, align 8
  %387 = invoke %"class.std::__1::__tree_end_node"* @_ZNSt3__16__treeINS_12__value_typeI11ParseErrorsNS_12basic_stringIcNS_11char_traitsIcEENS_9allocatorIcEEEEEENS_19__map_value_compareIS2_S9_NS_4lessIS2_EELb1EEENS6_IS9_EEE30__emplace_hint_unique_key_argsIS2_JRKNS_4pairIKS2_S8_EEEEENS_15__tree_iteratorIS9_PNS_11__tree_nodeIS9_PvEElEENS_21__tree_const_iteratorIS9_SQ_lEERKT_DpOT0_(%"class.std::__1::__tree"* %378, %"class.std::__1::__tree_end_node"* %386, i32* dereferenceable(4) %383, %"struct.std::__1::pair"* dereferenceable(32) %384)
          to label %388 unwind label %411

; <label>:388:                                    ; preds = %348
  %389 = getelementptr inbounds %"class.std::__1::__tree_iterator", %"class.std::__1::__tree_iterator"* %11, i32 0, i32 0
  store %"class.std::__1::__tree_end_node"* %387, %"class.std::__1::__tree_end_node"** %389, align 8
  %390 = getelementptr inbounds %"class.std::__1::__tree_iterator", %"class.std::__1::__tree_iterator"* %11, i32 0, i32 0
  %391 = load %"class.std::__1::__tree_end_node"*, %"class.std::__1::__tree_end_node"** %390, align 8
  %392 = getelementptr inbounds %"class.std::__1::__tree_iterator", %"class.std::__1::__tree_iterator"* %20, i32 0, i32 0
  store %"class.std::__1::__tree_end_node"* %391, %"class.std::__1::__tree_end_node"** %392, align 8
  %393 = getelementptr inbounds %"class.std::__1::__tree_iterator", %"class.std::__1::__tree_iterator"* %20, i32 0, i32 0
  %394 = load %"class.std::__1::__tree_end_node"*, %"class.std::__1::__tree_end_node"** %393, align 8
  %395 = getelementptr inbounds %"class.std::__1::__tree_iterator", %"class.std::__1::__tree_iterator"* %8, i32 0, i32 0
  store %"class.std::__1::__tree_end_node"* %394, %"class.std::__1::__tree_end_node"** %395, align 8
  store %"class.std::__1::__map_iterator"* %16, %"class.std::__1::__map_iterator"** %9, align 8
  %396 = load %"class.std::__1::__map_iterator"*, %"class.std::__1::__map_iterator"** %9, align 8
  %397 = getelementptr inbounds %"class.std::__1::__tree_iterator", %"class.std::__1::__tree_iterator"* %8, i32 0, i32 0
  %398 = load %"class.std::__1::__tree_end_node"*, %"class.std::__1::__tree_end_node"** %397, align 8
  %399 = getelementptr inbounds %"class.std::__1::__tree_iterator", %"class.std::__1::__tree_iterator"* %6, i32 0, i32 0
  store %"class.std::__1::__tree_end_node"* %398, %"class.std::__1::__tree_end_node"** %399, align 8
  store %"class.std::__1::__map_iterator"* %396, %"class.std::__1::__map_iterator"** %7, align 8
  %400 = load %"class.std::__1::__map_iterator"*, %"class.std::__1::__map_iterator"** %7, align 8
  %401 = getelementptr inbounds %"class.std::__1::__map_iterator", %"class.std::__1::__map_iterator"* %400, i32 0, i32 0
  %402 = bitcast %"class.std::__1::__tree_iterator"* %401 to i8*
  %403 = bitcast %"class.std::__1::__tree_iterator"* %6 to i8*
  call void @llvm.memcpy.p0i8.p0i8.i64(i8* %402, i8* %403, i64 8, i32 8, i1 false) #2
  %404 = getelementptr inbounds %"class.std::__1::__map_iterator", %"class.std::__1::__map_iterator"* %16, i32 0, i32 0
  %405 = getelementptr inbounds %"class.std::__1::__tree_iterator", %"class.std::__1::__tree_iterator"* %404, i32 0, i32 0
  %406 = load %"class.std::__1::__tree_end_node"*, %"class.std::__1::__tree_end_node"** %405, align 8
  %407 = getelementptr inbounds %"class.std::__1::__map_iterator", %"class.std::__1::__map_iterator"* %48, i32 0, i32 0
  %408 = getelementptr inbounds %"class.std::__1::__tree_iterator", %"class.std::__1::__tree_iterator"* %407, i32 0, i32 0
  store %"class.std::__1::__tree_end_node"* %406, %"class.std::__1::__tree_end_node"** %408, align 8
  %409 = load %"struct.std::__1::pair"*, %"struct.std::__1::pair"** %43, align 8
  %410 = getelementptr inbounds %"struct.std::__1::pair", %"struct.std::__1::pair"* %409, i32 1
  store %"struct.std::__1::pair"* %410, %"struct.std::__1::pair"** %43, align 8
  br label %344

; <label>:411:                                    ; preds = %348
  %412 = landingpad { i8*, i32 }
          cleanup
  %413 = extractvalue { i8*, i32 } %412, 0
  store i8* %413, i8** %58, align 8
  %414 = extractvalue { i8*, i32 } %412, 1
  store i32 %414, i32* %59, align 4
  call void @_ZNSt3__16__treeINS_12__value_typeI11ParseErrorsNS_12basic_stringIcNS_11char_traitsIcEENS_9allocatorIcEEEEEENS_19__map_value_compareIS2_S9_NS_4lessIS2_EELb1EEENS6_IS9_EEED1Ev(%"class.std::__1::__tree"* %287) #2
  %415 = load i8*, i8** %58, align 8
  %416 = load i32, i32* %59, align 4
  %417 = insertvalue { i8*, i32 } undef, i8* %415, 0
  %418 = insertvalue { i8*, i32 } %417, i32 %416, 1
  br label %442

; <label>:419:                                    ; preds = %344
  br label %420

; <label>:420:                                    ; preds = %419
  %421 = getelementptr inbounds [4 x %"struct.std::__1::pair"], [4 x %"struct.std::__1::pair"]* %128, i32 0, i32 0
  %422 = getelementptr inbounds %"struct.std::__1::pair", %"struct.std::__1::pair"* %421, i64 4
  br label %423

; <label>:423:                                    ; preds = %423, %420
  %424 = phi %"struct.std::__1::pair"* [ %422, %420 ], [ %425, %423 ]
  %425 = getelementptr inbounds %"struct.std::__1::pair", %"struct.std::__1::pair"* %424, i64 -1
  call void @_ZNSt3__14pairIK11ParseErrorsNS_12basic_stringIcNS_11char_traitsIcEENS_9allocatorIcEEEEED1Ev(%"struct.std::__1::pair"* %425) #2
  %426 = icmp eq %"struct.std::__1::pair"* %425, %421
  br i1 %426, label %427, label %423

; <label>:427:                                    ; preds = %423
  %428 = call i32 @__cxa_atexit(void (i8*)* bitcast (void (%"class.std::__1::map"*)* @_ZNSt3__13mapI11ParseErrorsNS_12basic_stringIcNS_11char_traitsIcEENS_9allocatorIcEEEENS_4lessIS1_EENS5_INS_4pairIKS1_S7_EEEEED1Ev to void (i8*)*), i8* bitcast (%"class.std::__1::map"* @_parse_errors to i8*), i8* @__dso_handle) #2
  ret void

; <label>:429:                                    ; preds = %262, %232, %230, %200, %198, %168, %166, %0
  %430 = landingpad { i8*, i32 }
          cleanup
  %431 = extractvalue { i8*, i32 } %430, 0
  store i8* %431, i8** %131, align 8
  %432 = extractvalue { i8*, i32 } %430, 1
  store i32 %432, i32* %132, align 4
  %433 = load %"struct.std::__1::pair"*, %"struct.std::__1::pair"** %129, align 8
  %434 = icmp eq %"struct.std::__1::pair"* %137, %433
  br i1 %434, label %439, label %435

; <label>:435:                                    ; preds = %435, %429
  %436 = phi %"struct.std::__1::pair"* [ %433, %429 ], [ %437, %435 ]
  %437 = getelementptr inbounds %"struct.std::__1::pair", %"struct.std::__1::pair"* %436, i64 -1
  call void @_ZNSt3__14pairIK11ParseErrorsNS_12basic_stringIcNS_11char_traitsIcEENS_9allocatorIcEEEEED1Ev(%"struct.std::__1::pair"* %437) #2
  %438 = icmp eq %"struct.std::__1::pair"* %437, %137
  br i1 %438, label %439, label %435

; <label>:439:                                    ; preds = %435, %429
  br label %453
                                                  ; No predecessors!
  %441 = landingpad { i8*, i32 }
          cleanup
  br label %442

; <label>:442:                                    ; preds = %411, %440
  %443 = phi { i8*, i32 } [ %441, %440 ], [ %418, %411 ]
  %444 = extractvalue { i8*, i32 } %443, 0
  store i8* %444, i8** %131, align 8
  %445 = extractvalue { i8*, i32 } %443, 1
  store i32 %445, i32* %132, align 4
  %446 = getelementptr inbounds [4 x %"struct.std::__1::pair"], [4 x %"struct.std::__1::pair"]* %128, i32 0, i32 0
  %447 = getelementptr inbounds %"struct.std::__1::pair", %"struct.std::__1::pair"* %446, i64 4
  br label %448

; <label>:448:                                    ; preds = %448, %442
  %449 = phi %"struct.std::__1::pair"* [ %447, %442 ], [ %450, %448 ]
  %450 = getelementptr inbounds %"struct.std::__1::pair", %"struct.std::__1::pair"* %449, i64 -1
  call void @_ZNSt3__14pairIK11ParseErrorsNS_12basic_stringIcNS_11char_traitsIcEENS_9allocatorIcEEEEED1Ev(%"struct.std::__1::pair"* %450) #2
  %451 = icmp eq %"struct.std::__1::pair"* %450, %446
  br i1 %451, label %452, label %448

; <label>:452:                                    ; preds = %448
  br label %453

; <label>:453:                                    ; preds = %452, %439
  %454 = load i8*, i8** %131, align 8
  %455 = load i32, i32* %132, align 4
  %456 = insertvalue { i8*, i32 } undef, i8* %454, 0
  %457 = insertvalue { i8*, i32 } %456, i32 %455, 1
  resume { i8*, i32 } %457
}

declare i32 @__gxx_personality_v0(...)

; Function Attrs: inlinehint nounwind ssp uwtable
define linkonce_odr void @_ZNSt3__14pairIK11ParseErrorsNS_12basic_stringIcNS_11char_traitsIcEENS_9allocatorIcEEEEED1Ev(%"struct.std::__1::pair"*) unnamed_addr #1 align 2 {
  %2 = alloca %"struct.std::__1::pair"*, align 8
  store %"struct.std::__1::pair"* %0, %"struct.std::__1::pair"** %2, align 8
  %3 = load %"struct.std::__1::pair"*, %"struct.std::__1::pair"** %2, align 8
  call void @_ZNSt3__14pairIK11ParseErrorsNS_12basic_stringIcNS_11char_traitsIcEENS_9allocatorIcEEEEED2Ev(%"struct.std::__1::pair"* %3) #2
  ret void
}

; Function Attrs: inlinehint nounwind ssp uwtable
define linkonce_odr void @_ZNSt3__13mapI11ParseErrorsNS_12basic_stringIcNS_11char_traitsIcEENS_9allocatorIcEEEENS_4lessIS1_EENS5_INS_4pairIKS1_S7_EEEEED1Ev(%"class.std::__1::map"*) unnamed_addr #1 align 2 {
  %2 = alloca %"class.std::__1::map"*, align 8
  store %"class.std::__1::map"* %0, %"class.std::__1::map"** %2, align 8
  %3 = load %"class.std::__1::map"*, %"class.std::__1::map"** %2, align 8
  call void @_ZNSt3__13mapI11ParseErrorsNS_12basic_stringIcNS_11char_traitsIcEENS_9allocatorIcEEEENS_4lessIS1_EENS5_INS_4pairIKS1_S7_EEEEED2Ev(%"class.std::__1::map"* %3) #2
  ret void
}

; Function Attrs: nounwind
declare i32 @__cxa_atexit(void (i8*)*, i8*, i8*) #2

; Function Attrs: ssp uwtable
define internal void @__cxx_global_var_init.4() #0 section "__TEXT,__StaticInit,regular,pure_instructions" personality i8* bitcast (i32 (...)* @__gxx_personality_v0 to i8*) {
  %1 = alloca %"class.std::initializer_list.18"*, align 8
  %2 = alloca %"class.std::__1::__tree_const_iterator.78", align 8
  %3 = alloca %"class.std::__1::__map_const_iterator.77"*, align 8
  %4 = alloca %"class.std::__1::__tree_const_iterator.78", align 8
  %5 = alloca %"class.std::__1::__map_const_iterator.77"*, align 8
  %6 = alloca %"class.std::__1::__tree_iterator.80", align 8
  %7 = alloca %"class.std::__1::__map_iterator.79"*, align 8
  %8 = alloca %"class.std::__1::__tree_iterator.80", align 8
  %9 = alloca %"class.std::__1::__map_iterator.79"*, align 8
  %10 = alloca %"struct.std::__1::pair.19"*, align 8
  %11 = alloca %"class.std::__1::__tree_iterator.80", align 8
  %12 = alloca %"class.std::__1::__tree_const_iterator.78", align 8
  %13 = alloca %"class.std::__1::__tree.8"*, align 8
  %14 = alloca %"struct.std::__1::pair.19"*, align 8
  %15 = alloca %"class.std::__1::__tree_const_iterator.78", align 8
  %16 = alloca %"class.std::__1::__map_iterator.79", align 8
  %17 = alloca %"class.std::__1::__map_const_iterator.77", align 8
  %18 = alloca %"class.std::__1::map.7"*, align 8
  %19 = alloca %"struct.std::__1::pair.19"*, align 8
  %20 = alloca %"class.std::__1::__tree_iterator.80", align 8
  %21 = alloca %"class.std::__1::__tree_const_iterator.78", align 8
  %22 = alloca %"class.std::__1::__tree_const_iterator.78", align 8
  %23 = alloca %"class.std::__1::__map_const_iterator.77"*, align 8
  %24 = alloca %"class.std::__1::__tree_const_iterator.78", align 8
  %25 = alloca %"class.std::__1::__map_const_iterator.77"*, align 8
  %26 = alloca %"class.std::__1::__tree_const_iterator.78"*, align 8
  %27 = alloca %"class.std::__1::__tree_end_node"*, align 8
  %28 = alloca %"class.std::__1::__tree_const_iterator.78"*, align 8
  %29 = alloca %"class.std::__1::__tree_end_node"*, align 8
  %30 = alloca %"class.std::__1::__tree_end_node"*, align 8
  %31 = alloca %"class.std::__1::__tree_end_node"*, align 8
  %32 = alloca %"class.std::__1::__libcpp_compressed_pair_imp.10"*, align 8
  %33 = alloca %"class.std::__1::__compressed_pair.9"*, align 8
  %34 = alloca %"class.std::__1::__tree.8"*, align 8
  %35 = alloca %"class.std::__1::__tree_const_iterator.78", align 8
  %36 = alloca %"class.std::__1::__tree.8"*, align 8
  %37 = alloca %"class.std::__1::__map_const_iterator.77", align 8
  %38 = alloca %"class.std::__1::map.7"*, align 8
  %39 = alloca %"class.std::__1::__tree_const_iterator.78", align 8
  %40 = alloca %"class.std::__1::__map_const_iterator.77", align 8
  %41 = alloca %"class.std::__1::map.7"*, align 8
  %42 = alloca %"class.std::__1::map.7"*, align 8
  %43 = alloca %"struct.std::__1::pair.19"*, align 8
  %44 = alloca %"struct.std::__1::pair.19"*, align 8
  %45 = alloca %"class.std::__1::__map_const_iterator.77", align 8
  %46 = alloca %"class.std::__1::__map_const_iterator.77", align 8
  %47 = alloca %"class.std::__1::__tree_const_iterator.78", align 8
  %48 = alloca %"class.std::__1::__map_iterator.79", align 8
  %49 = alloca %"class.std::initializer_list.18"*, align 8
  %50 = alloca %"class.std::__1::__map_value_compare.15"*, align 8
  %51 = alloca %"struct.std::__1::less.16", align 1
  %52 = alloca %"class.std::__1::__map_value_compare.15"*, align 8
  %53 = alloca %"class.std::initializer_list.18", align 8
  %54 = alloca %"class.std::__1::map.7"*, align 8
  %55 = alloca %"struct.std::__1::less.16"*, align 8
  %56 = alloca %"class.std::__1::__map_value_compare.15", align 1
  %57 = alloca %"struct.std::__1::less.16", align 1
  %58 = alloca i8*
  %59 = alloca i32
  %60 = alloca %"class.std::initializer_list.18", align 8
  %61 = alloca %"class.std::__1::map.7"*, align 8
  %62 = alloca %"struct.std::__1::less.16"*, align 8
  %63 = alloca [23 x i8]*, align 8
  %64 = alloca %"class.std::__1::allocator.4"*, align 8
  %65 = alloca %"class.std::__1::__libcpp_compressed_pair_imp.3"*, align 8
  %66 = alloca %"class.std::__1::__compressed_pair.2"*, align 8
  %67 = alloca %"class.std::__1::__compressed_pair.2"*, align 8
  %68 = alloca %"class.std::__1::basic_string"*, align 8
  %69 = alloca i8*, align 8
  %70 = alloca %"class.std::__1::basic_string"*, align 8
  %71 = alloca i8*, align 8
  %72 = alloca i32*, align 8
  %73 = alloca %"struct.std::__1::pair.19"*, align 8
  %74 = alloca i32*, align 8
  %75 = alloca [23 x i8]*, align 8
  %76 = alloca %"struct.std::__1::pair.19"*, align 8
  %77 = alloca i32*, align 8
  %78 = alloca [23 x i8]*, align 8
  %79 = alloca [17 x i8]*, align 8
  %80 = alloca %"class.std::__1::allocator.4"*, align 8
  %81 = alloca %"class.std::__1::__libcpp_compressed_pair_imp.3"*, align 8
  %82 = alloca %"class.std::__1::__compressed_pair.2"*, align 8
  %83 = alloca %"class.std::__1::__compressed_pair.2"*, align 8
  %84 = alloca %"class.std::__1::basic_string"*, align 8
  %85 = alloca i8*, align 8
  %86 = alloca %"class.std::__1::basic_string"*, align 8
  %87 = alloca i8*, align 8
  %88 = alloca i32*, align 8
  %89 = alloca %"struct.std::__1::pair.19"*, align 8
  %90 = alloca i32*, align 8
  %91 = alloca [17 x i8]*, align 8
  %92 = alloca %"struct.std::__1::pair.19"*, align 8
  %93 = alloca i32*, align 8
  %94 = alloca [17 x i8]*, align 8
  %95 = alloca [11 x i8]*, align 8
  %96 = alloca %"class.std::__1::allocator.4"*, align 8
  %97 = alloca %"class.std::__1::__libcpp_compressed_pair_imp.3"*, align 8
  %98 = alloca %"class.std::__1::__compressed_pair.2"*, align 8
  %99 = alloca %"class.std::__1::__compressed_pair.2"*, align 8
  %100 = alloca %"class.std::__1::basic_string"*, align 8
  %101 = alloca i8*, align 8
  %102 = alloca %"class.std::__1::basic_string"*, align 8
  %103 = alloca i8*, align 8
  %104 = alloca i32*, align 8
  %105 = alloca %"struct.std::__1::pair.19"*, align 8
  %106 = alloca i32*, align 8
  %107 = alloca [11 x i8]*, align 8
  %108 = alloca %"struct.std::__1::pair.19"*, align 8
  %109 = alloca i32*, align 8
  %110 = alloca [11 x i8]*, align 8
  %111 = alloca [28 x i8]*, align 8
  %112 = alloca %"class.std::__1::allocator.4"*, align 8
  %113 = alloca %"class.std::__1::__libcpp_compressed_pair_imp.3"*, align 8
  %114 = alloca %"class.std::__1::__compressed_pair.2"*, align 8
  %115 = alloca %"class.std::__1::__compressed_pair.2"*, align 8
  %116 = alloca %"class.std::__1::basic_string"*, align 8
  %117 = alloca i8*, align 8
  %118 = alloca %"class.std::__1::basic_string"*, align 8
  %119 = alloca i8*, align 8
  %120 = alloca i32*, align 8
  %121 = alloca %"struct.std::__1::pair.19"*, align 8
  %122 = alloca i32*, align 8
  %123 = alloca [28 x i8]*, align 8
  %124 = alloca %"struct.std::__1::pair.19"*, align 8
  %125 = alloca i32*, align 8
  %126 = alloca [28 x i8]*, align 8
  %127 = alloca [23 x i8]*, align 8
  %128 = alloca %"class.std::__1::allocator.4"*, align 8
  %129 = alloca %"class.std::__1::__libcpp_compressed_pair_imp.3"*, align 8
  %130 = alloca %"class.std::__1::__compressed_pair.2"*, align 8
  %131 = alloca %"class.std::__1::__compressed_pair.2"*, align 8
  %132 = alloca %"class.std::__1::basic_string"*, align 8
  %133 = alloca i8*, align 8
  %134 = alloca %"class.std::__1::basic_string"*, align 8
  %135 = alloca i8*, align 8
  %136 = alloca i32*, align 8
  %137 = alloca %"struct.std::__1::pair.19"*, align 8
  %138 = alloca i32*, align 8
  %139 = alloca [23 x i8]*, align 8
  %140 = alloca %"struct.std::__1::pair.19"*, align 8
  %141 = alloca i32*, align 8
  %142 = alloca [23 x i8]*, align 8
  %143 = alloca [20 x i8]*, align 8
  %144 = alloca %"class.std::__1::allocator.4"*, align 8
  %145 = alloca %"class.std::__1::__libcpp_compressed_pair_imp.3"*, align 8
  %146 = alloca %"class.std::__1::__compressed_pair.2"*, align 8
  %147 = alloca %"class.std::__1::__compressed_pair.2"*, align 8
  %148 = alloca %"class.std::__1::basic_string"*, align 8
  %149 = alloca i8*, align 8
  %150 = alloca %"class.std::__1::basic_string"*, align 8
  %151 = alloca i8*, align 8
  %152 = alloca i32*, align 8
  %153 = alloca %"struct.std::__1::pair.19"*, align 8
  %154 = alloca i32*, align 8
  %155 = alloca [20 x i8]*, align 8
  %156 = alloca %"struct.std::__1::pair.19"*, align 8
  %157 = alloca i32*, align 8
  %158 = alloca [20 x i8]*, align 8
  %159 = alloca [11 x i8]*, align 8
  %160 = alloca %"class.std::__1::allocator.4"*, align 8
  %161 = alloca %"class.std::__1::__libcpp_compressed_pair_imp.3"*, align 8
  %162 = alloca %"class.std::__1::__compressed_pair.2"*, align 8
  %163 = alloca %"class.std::__1::__compressed_pair.2"*, align 8
  %164 = alloca %"class.std::__1::basic_string"*, align 8
  %165 = alloca i8*, align 8
  %166 = alloca %"class.std::__1::basic_string"*, align 8
  %167 = alloca i8*, align 8
  %168 = alloca i32*, align 8
  %169 = alloca %"struct.std::__1::pair.19"*, align 8
  %170 = alloca i32*, align 8
  %171 = alloca [11 x i8]*, align 8
  %172 = alloca %"struct.std::__1::pair.19"*, align 8
  %173 = alloca i32*, align 8
  %174 = alloca [11 x i8]*, align 8
  %175 = alloca [9 x i8]*, align 8
  %176 = alloca %"class.std::__1::allocator.4"*, align 8
  %177 = alloca %"class.std::__1::__libcpp_compressed_pair_imp.3"*, align 8
  %178 = alloca %"class.std::__1::__compressed_pair.2"*, align 8
  %179 = alloca %"class.std::__1::__compressed_pair.2"*, align 8
  %180 = alloca %"class.std::__1::basic_string"*, align 8
  %181 = alloca i8*, align 8
  %182 = alloca %"class.std::__1::basic_string"*, align 8
  %183 = alloca i8*, align 8
  %184 = alloca i32*, align 8
  %185 = alloca %"struct.std::__1::pair.19"*, align 8
  %186 = alloca i32*, align 8
  %187 = alloca [9 x i8]*, align 8
  %188 = alloca %"struct.std::__1::pair.19"*, align 8
  %189 = alloca i32*, align 8
  %190 = alloca [9 x i8]*, align 8
  %191 = alloca [20 x i8]*, align 8
  %192 = alloca %"class.std::__1::allocator.4"*, align 8
  %193 = alloca %"class.std::__1::__libcpp_compressed_pair_imp.3"*, align 8
  %194 = alloca %"class.std::__1::__compressed_pair.2"*, align 8
  %195 = alloca %"class.std::__1::__compressed_pair.2"*, align 8
  %196 = alloca %"class.std::__1::basic_string"*, align 8
  %197 = alloca i8*, align 8
  %198 = alloca %"class.std::__1::basic_string"*, align 8
  %199 = alloca i8*, align 8
  %200 = alloca i32*, align 8
  %201 = alloca %"struct.std::__1::pair.19"*, align 8
  %202 = alloca i32*, align 8
  %203 = alloca [20 x i8]*, align 8
  %204 = alloca %"struct.std::__1::pair.19"*, align 8
  %205 = alloca i32*, align 8
  %206 = alloca [20 x i8]*, align 8
  %207 = alloca [14 x i8]*, align 8
  %208 = alloca %"class.std::__1::allocator.4"*, align 8
  %209 = alloca %"class.std::__1::__libcpp_compressed_pair_imp.3"*, align 8
  %210 = alloca %"class.std::__1::__compressed_pair.2"*, align 8
  %211 = alloca %"class.std::__1::__compressed_pair.2"*, align 8
  %212 = alloca %"class.std::__1::basic_string"*, align 8
  %213 = alloca i8*, align 8
  %214 = alloca %"class.std::__1::basic_string"*, align 8
  %215 = alloca i8*, align 8
  %216 = alloca i32*, align 8
  %217 = alloca %"struct.std::__1::pair.19"*, align 8
  %218 = alloca i32*, align 8
  %219 = alloca [14 x i8]*, align 8
  %220 = alloca %"struct.std::__1::pair.19"*, align 8
  %221 = alloca i32*, align 8
  %222 = alloca [14 x i8]*, align 8
  %223 = alloca %"class.std::initializer_list.18", align 8
  %224 = alloca [10 x %"struct.std::__1::pair.19"], align 8
  %225 = alloca %"struct.std::__1::pair.19"*, align 8
  %226 = alloca i32, align 4
  %227 = alloca i8*
  %228 = alloca i32
  %229 = alloca i32, align 4
  %230 = alloca i32, align 4
  %231 = alloca i32, align 4
  %232 = alloca i32, align 4
  %233 = alloca i32, align 4
  %234 = alloca i32, align 4
  %235 = alloca i32, align 4
  %236 = alloca i32, align 4
  %237 = alloca i32, align 4
  %238 = alloca %"struct.std::__1::less.16", align 1
  %239 = getelementptr inbounds [10 x %"struct.std::__1::pair.19"], [10 x %"struct.std::__1::pair.19"]* %224, i64 0, i64 0
  store %"struct.std::__1::pair.19"* %239, %"struct.std::__1::pair.19"** %225, align 8
  store i32 0, i32* %226, align 4
  store %"struct.std::__1::pair.19"* %239, %"struct.std::__1::pair.19"** %220, align 8
  store i32* %226, i32** %221, align 8
  store [14 x i8]* @.str.5, [14 x i8]** %222, align 8
  %240 = load %"struct.std::__1::pair.19"*, %"struct.std::__1::pair.19"** %220, align 8
  %241 = load i32*, i32** %221, align 8
  %242 = load [14 x i8]*, [14 x i8]** %222, align 8
  store %"struct.std::__1::pair.19"* %240, %"struct.std::__1::pair.19"** %217, align 8
  store i32* %241, i32** %218, align 8
  store [14 x i8]* %242, [14 x i8]** %219, align 8
  %243 = load %"struct.std::__1::pair.19"*, %"struct.std::__1::pair.19"** %217, align 8
  %244 = getelementptr inbounds %"struct.std::__1::pair.19", %"struct.std::__1::pair.19"* %243, i32 0, i32 0
  %245 = load i32*, i32** %218, align 8
  store i32* %245, i32** %216, align 8
  %246 = load i32*, i32** %216, align 8
  %247 = load i32, i32* %246, align 4
  store i32 %247, i32* %244, align 8
  %248 = getelementptr inbounds %"struct.std::__1::pair.19", %"struct.std::__1::pair.19"* %243, i32 0, i32 1
  %249 = load [14 x i8]*, [14 x i8]** %219, align 8
  store [14 x i8]* %249, [14 x i8]** %207, align 8
  %250 = load [14 x i8]*, [14 x i8]** %207, align 8
  %251 = getelementptr inbounds [14 x i8], [14 x i8]* %250, i32 0, i32 0
  store %"class.std::__1::basic_string"* %248, %"class.std::__1::basic_string"** %214, align 8
  store i8* %251, i8** %215, align 8
  %252 = load %"class.std::__1::basic_string"*, %"class.std::__1::basic_string"** %214, align 8
  %253 = load i8*, i8** %215, align 8
  store %"class.std::__1::basic_string"* %252, %"class.std::__1::basic_string"** %212, align 8
  store i8* %253, i8** %213, align 8
  %254 = load %"class.std::__1::basic_string"*, %"class.std::__1::basic_string"** %212, align 8
  %255 = bitcast %"class.std::__1::basic_string"* %254 to %"class.std::__1::__basic_string_common"*
  %256 = getelementptr inbounds %"class.std::__1::basic_string", %"class.std::__1::basic_string"* %254, i32 0, i32 0
  store %"class.std::__1::__compressed_pair.2"* %256, %"class.std::__1::__compressed_pair.2"** %211, align 8
  %257 = load %"class.std::__1::__compressed_pair.2"*, %"class.std::__1::__compressed_pair.2"** %211, align 8
  store %"class.std::__1::__compressed_pair.2"* %257, %"class.std::__1::__compressed_pair.2"** %210, align 8
  %258 = load %"class.std::__1::__compressed_pair.2"*, %"class.std::__1::__compressed_pair.2"** %210, align 8
  %259 = bitcast %"class.std::__1::__compressed_pair.2"* %258 to %"class.std::__1::__libcpp_compressed_pair_imp.3"*
  store %"class.std::__1::__libcpp_compressed_pair_imp.3"* %259, %"class.std::__1::__libcpp_compressed_pair_imp.3"** %209, align 8
  %260 = load %"class.std::__1::__libcpp_compressed_pair_imp.3"*, %"class.std::__1::__libcpp_compressed_pair_imp.3"** %209, align 8
  %261 = bitcast %"class.std::__1::__libcpp_compressed_pair_imp.3"* %260 to %"class.std::__1::allocator.4"*
  store %"class.std::__1::allocator.4"* %261, %"class.std::__1::allocator.4"** %208, align 8
  %262 = load %"class.std::__1::allocator.4"*, %"class.std::__1::allocator.4"** %208, align 8
  %263 = getelementptr inbounds %"class.std::__1::__libcpp_compressed_pair_imp.3", %"class.std::__1::__libcpp_compressed_pair_imp.3"* %260, i32 0, i32 0
  %264 = bitcast %"struct.std::__1::basic_string<char, std::__1::char_traits<char>, std::__1::allocator<char> >::__rep"* %263 to i8*
  call void @llvm.memset.p0i8.i64(i8* %264, i8 0, i64 24, i32 8, i1 false) #2
  %265 = load i8*, i8** %213, align 8
  %266 = load i8*, i8** %213, align 8
  %267 = invoke i64 @_ZNSt3__111char_traitsIcE6lengthEPKc(i8* %266)
          to label %268 unwind label %723

; <label>:268:                                    ; preds = %0
  invoke void @_ZNSt3__112basic_stringIcNS_11char_traitsIcEENS_9allocatorIcEEE6__initEPKcm(%"class.std::__1::basic_string"* %254, i8* %265, i64 %267)
          to label %269 unwind label %723

; <label>:269:                                    ; preds = %268
  br label %270

; <label>:270:                                    ; preds = %269
  %271 = getelementptr inbounds %"struct.std::__1::pair.19", %"struct.std::__1::pair.19"* %239, i64 1
  store %"struct.std::__1::pair.19"* %271, %"struct.std::__1::pair.19"** %225, align 8
  store i32 1, i32* %229, align 4
  store %"struct.std::__1::pair.19"* %271, %"struct.std::__1::pair.19"** %204, align 8
  store i32* %229, i32** %205, align 8
  store [20 x i8]* @.str.6, [20 x i8]** %206, align 8
  %272 = load %"struct.std::__1::pair.19"*, %"struct.std::__1::pair.19"** %204, align 8
  %273 = load i32*, i32** %205, align 8
  %274 = load [20 x i8]*, [20 x i8]** %206, align 8
  store %"struct.std::__1::pair.19"* %272, %"struct.std::__1::pair.19"** %201, align 8
  store i32* %273, i32** %202, align 8
  store [20 x i8]* %274, [20 x i8]** %203, align 8
  %275 = load %"struct.std::__1::pair.19"*, %"struct.std::__1::pair.19"** %201, align 8
  %276 = getelementptr inbounds %"struct.std::__1::pair.19", %"struct.std::__1::pair.19"* %275, i32 0, i32 0
  %277 = load i32*, i32** %202, align 8
  store i32* %277, i32** %200, align 8
  %278 = load i32*, i32** %200, align 8
  %279 = load i32, i32* %278, align 4
  store i32 %279, i32* %276, align 8
  %280 = getelementptr inbounds %"struct.std::__1::pair.19", %"struct.std::__1::pair.19"* %275, i32 0, i32 1
  %281 = load [20 x i8]*, [20 x i8]** %203, align 8
  store [20 x i8]* %281, [20 x i8]** %191, align 8
  %282 = load [20 x i8]*, [20 x i8]** %191, align 8
  %283 = getelementptr inbounds [20 x i8], [20 x i8]* %282, i32 0, i32 0
  store %"class.std::__1::basic_string"* %280, %"class.std::__1::basic_string"** %198, align 8
  store i8* %283, i8** %199, align 8
  %284 = load %"class.std::__1::basic_string"*, %"class.std::__1::basic_string"** %198, align 8
  %285 = load i8*, i8** %199, align 8
  store %"class.std::__1::basic_string"* %284, %"class.std::__1::basic_string"** %196, align 8
  store i8* %285, i8** %197, align 8
  %286 = load %"class.std::__1::basic_string"*, %"class.std::__1::basic_string"** %196, align 8
  %287 = bitcast %"class.std::__1::basic_string"* %286 to %"class.std::__1::__basic_string_common"*
  %288 = getelementptr inbounds %"class.std::__1::basic_string", %"class.std::__1::basic_string"* %286, i32 0, i32 0
  store %"class.std::__1::__compressed_pair.2"* %288, %"class.std::__1::__compressed_pair.2"** %195, align 8
  %289 = load %"class.std::__1::__compressed_pair.2"*, %"class.std::__1::__compressed_pair.2"** %195, align 8
  store %"class.std::__1::__compressed_pair.2"* %289, %"class.std::__1::__compressed_pair.2"** %194, align 8
  %290 = load %"class.std::__1::__compressed_pair.2"*, %"class.std::__1::__compressed_pair.2"** %194, align 8
  %291 = bitcast %"class.std::__1::__compressed_pair.2"* %290 to %"class.std::__1::__libcpp_compressed_pair_imp.3"*
  store %"class.std::__1::__libcpp_compressed_pair_imp.3"* %291, %"class.std::__1::__libcpp_compressed_pair_imp.3"** %193, align 8
  %292 = load %"class.std::__1::__libcpp_compressed_pair_imp.3"*, %"class.std::__1::__libcpp_compressed_pair_imp.3"** %193, align 8
  %293 = bitcast %"class.std::__1::__libcpp_compressed_pair_imp.3"* %292 to %"class.std::__1::allocator.4"*
  store %"class.std::__1::allocator.4"* %293, %"class.std::__1::allocator.4"** %192, align 8
  %294 = load %"class.std::__1::allocator.4"*, %"class.std::__1::allocator.4"** %192, align 8
  %295 = getelementptr inbounds %"class.std::__1::__libcpp_compressed_pair_imp.3", %"class.std::__1::__libcpp_compressed_pair_imp.3"* %292, i32 0, i32 0
  %296 = bitcast %"struct.std::__1::basic_string<char, std::__1::char_traits<char>, std::__1::allocator<char> >::__rep"* %295 to i8*
  call void @llvm.memset.p0i8.i64(i8* %296, i8 0, i64 24, i32 8, i1 false) #2
  %297 = load i8*, i8** %197, align 8
  %298 = load i8*, i8** %197, align 8
  %299 = invoke i64 @_ZNSt3__111char_traitsIcE6lengthEPKc(i8* %298)
          to label %300 unwind label %723

; <label>:300:                                    ; preds = %270
  invoke void @_ZNSt3__112basic_stringIcNS_11char_traitsIcEENS_9allocatorIcEEE6__initEPKcm(%"class.std::__1::basic_string"* %286, i8* %297, i64 %299)
          to label %301 unwind label %723

; <label>:301:                                    ; preds = %300
  br label %302

; <label>:302:                                    ; preds = %301
  %303 = getelementptr inbounds %"struct.std::__1::pair.19", %"struct.std::__1::pair.19"* %271, i64 1
  store %"struct.std::__1::pair.19"* %303, %"struct.std::__1::pair.19"** %225, align 8
  store i32 2, i32* %230, align 4
  store %"struct.std::__1::pair.19"* %303, %"struct.std::__1::pair.19"** %188, align 8
  store i32* %230, i32** %189, align 8
  store [9 x i8]* @.str.7, [9 x i8]** %190, align 8
  %304 = load %"struct.std::__1::pair.19"*, %"struct.std::__1::pair.19"** %188, align 8
  %305 = load i32*, i32** %189, align 8
  %306 = load [9 x i8]*, [9 x i8]** %190, align 8
  store %"struct.std::__1::pair.19"* %304, %"struct.std::__1::pair.19"** %185, align 8
  store i32* %305, i32** %186, align 8
  store [9 x i8]* %306, [9 x i8]** %187, align 8
  %307 = load %"struct.std::__1::pair.19"*, %"struct.std::__1::pair.19"** %185, align 8
  %308 = getelementptr inbounds %"struct.std::__1::pair.19", %"struct.std::__1::pair.19"* %307, i32 0, i32 0
  %309 = load i32*, i32** %186, align 8
  store i32* %309, i32** %184, align 8
  %310 = load i32*, i32** %184, align 8
  %311 = load i32, i32* %310, align 4
  store i32 %311, i32* %308, align 8
  %312 = getelementptr inbounds %"struct.std::__1::pair.19", %"struct.std::__1::pair.19"* %307, i32 0, i32 1
  %313 = load [9 x i8]*, [9 x i8]** %187, align 8
  store [9 x i8]* %313, [9 x i8]** %175, align 8
  %314 = load [9 x i8]*, [9 x i8]** %175, align 8
  %315 = getelementptr inbounds [9 x i8], [9 x i8]* %314, i32 0, i32 0
  store %"class.std::__1::basic_string"* %312, %"class.std::__1::basic_string"** %182, align 8
  store i8* %315, i8** %183, align 8
  %316 = load %"class.std::__1::basic_string"*, %"class.std::__1::basic_string"** %182, align 8
  %317 = load i8*, i8** %183, align 8
  store %"class.std::__1::basic_string"* %316, %"class.std::__1::basic_string"** %180, align 8
  store i8* %317, i8** %181, align 8
  %318 = load %"class.std::__1::basic_string"*, %"class.std::__1::basic_string"** %180, align 8
  %319 = bitcast %"class.std::__1::basic_string"* %318 to %"class.std::__1::__basic_string_common"*
  %320 = getelementptr inbounds %"class.std::__1::basic_string", %"class.std::__1::basic_string"* %318, i32 0, i32 0
  store %"class.std::__1::__compressed_pair.2"* %320, %"class.std::__1::__compressed_pair.2"** %179, align 8
  %321 = load %"class.std::__1::__compressed_pair.2"*, %"class.std::__1::__compressed_pair.2"** %179, align 8
  store %"class.std::__1::__compressed_pair.2"* %321, %"class.std::__1::__compressed_pair.2"** %178, align 8
  %322 = load %"class.std::__1::__compressed_pair.2"*, %"class.std::__1::__compressed_pair.2"** %178, align 8
  %323 = bitcast %"class.std::__1::__compressed_pair.2"* %322 to %"class.std::__1::__libcpp_compressed_pair_imp.3"*
  store %"class.std::__1::__libcpp_compressed_pair_imp.3"* %323, %"class.std::__1::__libcpp_compressed_pair_imp.3"** %177, align 8
  %324 = load %"class.std::__1::__libcpp_compressed_pair_imp.3"*, %"class.std::__1::__libcpp_compressed_pair_imp.3"** %177, align 8
  %325 = bitcast %"class.std::__1::__libcpp_compressed_pair_imp.3"* %324 to %"class.std::__1::allocator.4"*
  store %"class.std::__1::allocator.4"* %325, %"class.std::__1::allocator.4"** %176, align 8
  %326 = load %"class.std::__1::allocator.4"*, %"class.std::__1::allocator.4"** %176, align 8
  %327 = getelementptr inbounds %"class.std::__1::__libcpp_compressed_pair_imp.3", %"class.std::__1::__libcpp_compressed_pair_imp.3"* %324, i32 0, i32 0
  %328 = bitcast %"struct.std::__1::basic_string<char, std::__1::char_traits<char>, std::__1::allocator<char> >::__rep"* %327 to i8*
  call void @llvm.memset.p0i8.i64(i8* %328, i8 0, i64 24, i32 8, i1 false) #2
  %329 = load i8*, i8** %181, align 8
  %330 = load i8*, i8** %181, align 8
  %331 = invoke i64 @_ZNSt3__111char_traitsIcE6lengthEPKc(i8* %330)
          to label %332 unwind label %723

; <label>:332:                                    ; preds = %302
  invoke void @_ZNSt3__112basic_stringIcNS_11char_traitsIcEENS_9allocatorIcEEE6__initEPKcm(%"class.std::__1::basic_string"* %318, i8* %329, i64 %331)
          to label %333 unwind label %723

; <label>:333:                                    ; preds = %332
  br label %334

; <label>:334:                                    ; preds = %333
  %335 = getelementptr inbounds %"struct.std::__1::pair.19", %"struct.std::__1::pair.19"* %303, i64 1
  store %"struct.std::__1::pair.19"* %335, %"struct.std::__1::pair.19"** %225, align 8
  store i32 3, i32* %231, align 4
  store %"struct.std::__1::pair.19"* %335, %"struct.std::__1::pair.19"** %172, align 8
  store i32* %231, i32** %173, align 8
  store [11 x i8]* @.str.8, [11 x i8]** %174, align 8
  %336 = load %"struct.std::__1::pair.19"*, %"struct.std::__1::pair.19"** %172, align 8
  %337 = load i32*, i32** %173, align 8
  %338 = load [11 x i8]*, [11 x i8]** %174, align 8
  store %"struct.std::__1::pair.19"* %336, %"struct.std::__1::pair.19"** %169, align 8
  store i32* %337, i32** %170, align 8
  store [11 x i8]* %338, [11 x i8]** %171, align 8
  %339 = load %"struct.std::__1::pair.19"*, %"struct.std::__1::pair.19"** %169, align 8
  %340 = getelementptr inbounds %"struct.std::__1::pair.19", %"struct.std::__1::pair.19"* %339, i32 0, i32 0
  %341 = load i32*, i32** %170, align 8
  store i32* %341, i32** %168, align 8
  %342 = load i32*, i32** %168, align 8
  %343 = load i32, i32* %342, align 4
  store i32 %343, i32* %340, align 8
  %344 = getelementptr inbounds %"struct.std::__1::pair.19", %"struct.std::__1::pair.19"* %339, i32 0, i32 1
  %345 = load [11 x i8]*, [11 x i8]** %171, align 8
  store [11 x i8]* %345, [11 x i8]** %159, align 8
  %346 = load [11 x i8]*, [11 x i8]** %159, align 8
  %347 = getelementptr inbounds [11 x i8], [11 x i8]* %346, i32 0, i32 0
  store %"class.std::__1::basic_string"* %344, %"class.std::__1::basic_string"** %166, align 8
  store i8* %347, i8** %167, align 8
  %348 = load %"class.std::__1::basic_string"*, %"class.std::__1::basic_string"** %166, align 8
  %349 = load i8*, i8** %167, align 8
  store %"class.std::__1::basic_string"* %348, %"class.std::__1::basic_string"** %164, align 8
  store i8* %349, i8** %165, align 8
  %350 = load %"class.std::__1::basic_string"*, %"class.std::__1::basic_string"** %164, align 8
  %351 = bitcast %"class.std::__1::basic_string"* %350 to %"class.std::__1::__basic_string_common"*
  %352 = getelementptr inbounds %"class.std::__1::basic_string", %"class.std::__1::basic_string"* %350, i32 0, i32 0
  store %"class.std::__1::__compressed_pair.2"* %352, %"class.std::__1::__compressed_pair.2"** %163, align 8
  %353 = load %"class.std::__1::__compressed_pair.2"*, %"class.std::__1::__compressed_pair.2"** %163, align 8
  store %"class.std::__1::__compressed_pair.2"* %353, %"class.std::__1::__compressed_pair.2"** %162, align 8
  %354 = load %"class.std::__1::__compressed_pair.2"*, %"class.std::__1::__compressed_pair.2"** %162, align 8
  %355 = bitcast %"class.std::__1::__compressed_pair.2"* %354 to %"class.std::__1::__libcpp_compressed_pair_imp.3"*
  store %"class.std::__1::__libcpp_compressed_pair_imp.3"* %355, %"class.std::__1::__libcpp_compressed_pair_imp.3"** %161, align 8
  %356 = load %"class.std::__1::__libcpp_compressed_pair_imp.3"*, %"class.std::__1::__libcpp_compressed_pair_imp.3"** %161, align 8
  %357 = bitcast %"class.std::__1::__libcpp_compressed_pair_imp.3"* %356 to %"class.std::__1::allocator.4"*
  store %"class.std::__1::allocator.4"* %357, %"class.std::__1::allocator.4"** %160, align 8
  %358 = load %"class.std::__1::allocator.4"*, %"class.std::__1::allocator.4"** %160, align 8
  %359 = getelementptr inbounds %"class.std::__1::__libcpp_compressed_pair_imp.3", %"class.std::__1::__libcpp_compressed_pair_imp.3"* %356, i32 0, i32 0
  %360 = bitcast %"struct.std::__1::basic_string<char, std::__1::char_traits<char>, std::__1::allocator<char> >::__rep"* %359 to i8*
  call void @llvm.memset.p0i8.i64(i8* %360, i8 0, i64 24, i32 8, i1 false) #2
  %361 = load i8*, i8** %165, align 8
  %362 = load i8*, i8** %165, align 8
  %363 = invoke i64 @_ZNSt3__111char_traitsIcE6lengthEPKc(i8* %362)
          to label %364 unwind label %723

; <label>:364:                                    ; preds = %334
  invoke void @_ZNSt3__112basic_stringIcNS_11char_traitsIcEENS_9allocatorIcEEE6__initEPKcm(%"class.std::__1::basic_string"* %350, i8* %361, i64 %363)
          to label %365 unwind label %723

; <label>:365:                                    ; preds = %364
  br label %366

; <label>:366:                                    ; preds = %365
  %367 = getelementptr inbounds %"struct.std::__1::pair.19", %"struct.std::__1::pair.19"* %335, i64 1
  store %"struct.std::__1::pair.19"* %367, %"struct.std::__1::pair.19"** %225, align 8
  store i32 4, i32* %232, align 4
  store %"struct.std::__1::pair.19"* %367, %"struct.std::__1::pair.19"** %156, align 8
  store i32* %232, i32** %157, align 8
  store [20 x i8]* @.str.9, [20 x i8]** %158, align 8
  %368 = load %"struct.std::__1::pair.19"*, %"struct.std::__1::pair.19"** %156, align 8
  %369 = load i32*, i32** %157, align 8
  %370 = load [20 x i8]*, [20 x i8]** %158, align 8
  store %"struct.std::__1::pair.19"* %368, %"struct.std::__1::pair.19"** %153, align 8
  store i32* %369, i32** %154, align 8
  store [20 x i8]* %370, [20 x i8]** %155, align 8
  %371 = load %"struct.std::__1::pair.19"*, %"struct.std::__1::pair.19"** %153, align 8
  %372 = getelementptr inbounds %"struct.std::__1::pair.19", %"struct.std::__1::pair.19"* %371, i32 0, i32 0
  %373 = load i32*, i32** %154, align 8
  store i32* %373, i32** %152, align 8
  %374 = load i32*, i32** %152, align 8
  %375 = load i32, i32* %374, align 4
  store i32 %375, i32* %372, align 8
  %376 = getelementptr inbounds %"struct.std::__1::pair.19", %"struct.std::__1::pair.19"* %371, i32 0, i32 1
  %377 = load [20 x i8]*, [20 x i8]** %155, align 8
  store [20 x i8]* %377, [20 x i8]** %143, align 8
  %378 = load [20 x i8]*, [20 x i8]** %143, align 8
  %379 = getelementptr inbounds [20 x i8], [20 x i8]* %378, i32 0, i32 0
  store %"class.std::__1::basic_string"* %376, %"class.std::__1::basic_string"** %150, align 8
  store i8* %379, i8** %151, align 8
  %380 = load %"class.std::__1::basic_string"*, %"class.std::__1::basic_string"** %150, align 8
  %381 = load i8*, i8** %151, align 8
  store %"class.std::__1::basic_string"* %380, %"class.std::__1::basic_string"** %148, align 8
  store i8* %381, i8** %149, align 8
  %382 = load %"class.std::__1::basic_string"*, %"class.std::__1::basic_string"** %148, align 8
  %383 = bitcast %"class.std::__1::basic_string"* %382 to %"class.std::__1::__basic_string_common"*
  %384 = getelementptr inbounds %"class.std::__1::basic_string", %"class.std::__1::basic_string"* %382, i32 0, i32 0
  store %"class.std::__1::__compressed_pair.2"* %384, %"class.std::__1::__compressed_pair.2"** %147, align 8
  %385 = load %"class.std::__1::__compressed_pair.2"*, %"class.std::__1::__compressed_pair.2"** %147, align 8
  store %"class.std::__1::__compressed_pair.2"* %385, %"class.std::__1::__compressed_pair.2"** %146, align 8
  %386 = load %"class.std::__1::__compressed_pair.2"*, %"class.std::__1::__compressed_pair.2"** %146, align 8
  %387 = bitcast %"class.std::__1::__compressed_pair.2"* %386 to %"class.std::__1::__libcpp_compressed_pair_imp.3"*
  store %"class.std::__1::__libcpp_compressed_pair_imp.3"* %387, %"class.std::__1::__libcpp_compressed_pair_imp.3"** %145, align 8
  %388 = load %"class.std::__1::__libcpp_compressed_pair_imp.3"*, %"class.std::__1::__libcpp_compressed_pair_imp.3"** %145, align 8
  %389 = bitcast %"class.std::__1::__libcpp_compressed_pair_imp.3"* %388 to %"class.std::__1::allocator.4"*
  store %"class.std::__1::allocator.4"* %389, %"class.std::__1::allocator.4"** %144, align 8
  %390 = load %"class.std::__1::allocator.4"*, %"class.std::__1::allocator.4"** %144, align 8
  %391 = getelementptr inbounds %"class.std::__1::__libcpp_compressed_pair_imp.3", %"class.std::__1::__libcpp_compressed_pair_imp.3"* %388, i32 0, i32 0
  %392 = bitcast %"struct.std::__1::basic_string<char, std::__1::char_traits<char>, std::__1::allocator<char> >::__rep"* %391 to i8*
  call void @llvm.memset.p0i8.i64(i8* %392, i8 0, i64 24, i32 8, i1 false) #2
  %393 = load i8*, i8** %149, align 8
  %394 = load i8*, i8** %149, align 8
  %395 = invoke i64 @_ZNSt3__111char_traitsIcE6lengthEPKc(i8* %394)
          to label %396 unwind label %723

; <label>:396:                                    ; preds = %366
  invoke void @_ZNSt3__112basic_stringIcNS_11char_traitsIcEENS_9allocatorIcEEE6__initEPKcm(%"class.std::__1::basic_string"* %382, i8* %393, i64 %395)
          to label %397 unwind label %723

; <label>:397:                                    ; preds = %396
  br label %398

; <label>:398:                                    ; preds = %397
  %399 = getelementptr inbounds %"struct.std::__1::pair.19", %"struct.std::__1::pair.19"* %367, i64 1
  store %"struct.std::__1::pair.19"* %399, %"struct.std::__1::pair.19"** %225, align 8
  store i32 5, i32* %233, align 4
  store %"struct.std::__1::pair.19"* %399, %"struct.std::__1::pair.19"** %140, align 8
  store i32* %233, i32** %141, align 8
  store [23 x i8]* @.str.10, [23 x i8]** %142, align 8
  %400 = load %"struct.std::__1::pair.19"*, %"struct.std::__1::pair.19"** %140, align 8
  %401 = load i32*, i32** %141, align 8
  %402 = load [23 x i8]*, [23 x i8]** %142, align 8
  store %"struct.std::__1::pair.19"* %400, %"struct.std::__1::pair.19"** %137, align 8
  store i32* %401, i32** %138, align 8
  store [23 x i8]* %402, [23 x i8]** %139, align 8
  %403 = load %"struct.std::__1::pair.19"*, %"struct.std::__1::pair.19"** %137, align 8
  %404 = getelementptr inbounds %"struct.std::__1::pair.19", %"struct.std::__1::pair.19"* %403, i32 0, i32 0
  %405 = load i32*, i32** %138, align 8
  store i32* %405, i32** %136, align 8
  %406 = load i32*, i32** %136, align 8
  %407 = load i32, i32* %406, align 4
  store i32 %407, i32* %404, align 8
  %408 = getelementptr inbounds %"struct.std::__1::pair.19", %"struct.std::__1::pair.19"* %403, i32 0, i32 1
  %409 = load [23 x i8]*, [23 x i8]** %139, align 8
  store [23 x i8]* %409, [23 x i8]** %127, align 8
  %410 = load [23 x i8]*, [23 x i8]** %127, align 8
  %411 = getelementptr inbounds [23 x i8], [23 x i8]* %410, i32 0, i32 0
  store %"class.std::__1::basic_string"* %408, %"class.std::__1::basic_string"** %134, align 8
  store i8* %411, i8** %135, align 8
  %412 = load %"class.std::__1::basic_string"*, %"class.std::__1::basic_string"** %134, align 8
  %413 = load i8*, i8** %135, align 8
  store %"class.std::__1::basic_string"* %412, %"class.std::__1::basic_string"** %132, align 8
  store i8* %413, i8** %133, align 8
  %414 = load %"class.std::__1::basic_string"*, %"class.std::__1::basic_string"** %132, align 8
  %415 = bitcast %"class.std::__1::basic_string"* %414 to %"class.std::__1::__basic_string_common"*
  %416 = getelementptr inbounds %"class.std::__1::basic_string", %"class.std::__1::basic_string"* %414, i32 0, i32 0
  store %"class.std::__1::__compressed_pair.2"* %416, %"class.std::__1::__compressed_pair.2"** %131, align 8
  %417 = load %"class.std::__1::__compressed_pair.2"*, %"class.std::__1::__compressed_pair.2"** %131, align 8
  store %"class.std::__1::__compressed_pair.2"* %417, %"class.std::__1::__compressed_pair.2"** %130, align 8
  %418 = load %"class.std::__1::__compressed_pair.2"*, %"class.std::__1::__compressed_pair.2"** %130, align 8
  %419 = bitcast %"class.std::__1::__compressed_pair.2"* %418 to %"class.std::__1::__libcpp_compressed_pair_imp.3"*
  store %"class.std::__1::__libcpp_compressed_pair_imp.3"* %419, %"class.std::__1::__libcpp_compressed_pair_imp.3"** %129, align 8
  %420 = load %"class.std::__1::__libcpp_compressed_pair_imp.3"*, %"class.std::__1::__libcpp_compressed_pair_imp.3"** %129, align 8
  %421 = bitcast %"class.std::__1::__libcpp_compressed_pair_imp.3"* %420 to %"class.std::__1::allocator.4"*
  store %"class.std::__1::allocator.4"* %421, %"class.std::__1::allocator.4"** %128, align 8
  %422 = load %"class.std::__1::allocator.4"*, %"class.std::__1::allocator.4"** %128, align 8
  %423 = getelementptr inbounds %"class.std::__1::__libcpp_compressed_pair_imp.3", %"class.std::__1::__libcpp_compressed_pair_imp.3"* %420, i32 0, i32 0
  %424 = bitcast %"struct.std::__1::basic_string<char, std::__1::char_traits<char>, std::__1::allocator<char> >::__rep"* %423 to i8*
  call void @llvm.memset.p0i8.i64(i8* %424, i8 0, i64 24, i32 8, i1 false) #2
  %425 = load i8*, i8** %133, align 8
  %426 = load i8*, i8** %133, align 8
  %427 = invoke i64 @_ZNSt3__111char_traitsIcE6lengthEPKc(i8* %426)
          to label %428 unwind label %723

; <label>:428:                                    ; preds = %398
  invoke void @_ZNSt3__112basic_stringIcNS_11char_traitsIcEENS_9allocatorIcEEE6__initEPKcm(%"class.std::__1::basic_string"* %414, i8* %425, i64 %427)
          to label %429 unwind label %723

; <label>:429:                                    ; preds = %428
  br label %430

; <label>:430:                                    ; preds = %429
  %431 = getelementptr inbounds %"struct.std::__1::pair.19", %"struct.std::__1::pair.19"* %399, i64 1
  store %"struct.std::__1::pair.19"* %431, %"struct.std::__1::pair.19"** %225, align 8
  store i32 6, i32* %234, align 4
  store %"struct.std::__1::pair.19"* %431, %"struct.std::__1::pair.19"** %124, align 8
  store i32* %234, i32** %125, align 8
  store [28 x i8]* @.str.11, [28 x i8]** %126, align 8
  %432 = load %"struct.std::__1::pair.19"*, %"struct.std::__1::pair.19"** %124, align 8
  %433 = load i32*, i32** %125, align 8
  %434 = load [28 x i8]*, [28 x i8]** %126, align 8
  store %"struct.std::__1::pair.19"* %432, %"struct.std::__1::pair.19"** %121, align 8
  store i32* %433, i32** %122, align 8
  store [28 x i8]* %434, [28 x i8]** %123, align 8
  %435 = load %"struct.std::__1::pair.19"*, %"struct.std::__1::pair.19"** %121, align 8
  %436 = getelementptr inbounds %"struct.std::__1::pair.19", %"struct.std::__1::pair.19"* %435, i32 0, i32 0
  %437 = load i32*, i32** %122, align 8
  store i32* %437, i32** %120, align 8
  %438 = load i32*, i32** %120, align 8
  %439 = load i32, i32* %438, align 4
  store i32 %439, i32* %436, align 8
  %440 = getelementptr inbounds %"struct.std::__1::pair.19", %"struct.std::__1::pair.19"* %435, i32 0, i32 1
  %441 = load [28 x i8]*, [28 x i8]** %123, align 8
  store [28 x i8]* %441, [28 x i8]** %111, align 8
  %442 = load [28 x i8]*, [28 x i8]** %111, align 8
  %443 = getelementptr inbounds [28 x i8], [28 x i8]* %442, i32 0, i32 0
  store %"class.std::__1::basic_string"* %440, %"class.std::__1::basic_string"** %118, align 8
  store i8* %443, i8** %119, align 8
  %444 = load %"class.std::__1::basic_string"*, %"class.std::__1::basic_string"** %118, align 8
  %445 = load i8*, i8** %119, align 8
  store %"class.std::__1::basic_string"* %444, %"class.std::__1::basic_string"** %116, align 8
  store i8* %445, i8** %117, align 8
  %446 = load %"class.std::__1::basic_string"*, %"class.std::__1::basic_string"** %116, align 8
  %447 = bitcast %"class.std::__1::basic_string"* %446 to %"class.std::__1::__basic_string_common"*
  %448 = getelementptr inbounds %"class.std::__1::basic_string", %"class.std::__1::basic_string"* %446, i32 0, i32 0
  store %"class.std::__1::__compressed_pair.2"* %448, %"class.std::__1::__compressed_pair.2"** %115, align 8
  %449 = load %"class.std::__1::__compressed_pair.2"*, %"class.std::__1::__compressed_pair.2"** %115, align 8
  store %"class.std::__1::__compressed_pair.2"* %449, %"class.std::__1::__compressed_pair.2"** %114, align 8
  %450 = load %"class.std::__1::__compressed_pair.2"*, %"class.std::__1::__compressed_pair.2"** %114, align 8
  %451 = bitcast %"class.std::__1::__compressed_pair.2"* %450 to %"class.std::__1::__libcpp_compressed_pair_imp.3"*
  store %"class.std::__1::__libcpp_compressed_pair_imp.3"* %451, %"class.std::__1::__libcpp_compressed_pair_imp.3"** %113, align 8
  %452 = load %"class.std::__1::__libcpp_compressed_pair_imp.3"*, %"class.std::__1::__libcpp_compressed_pair_imp.3"** %113, align 8
  %453 = bitcast %"class.std::__1::__libcpp_compressed_pair_imp.3"* %452 to %"class.std::__1::allocator.4"*
  store %"class.std::__1::allocator.4"* %453, %"class.std::__1::allocator.4"** %112, align 8
  %454 = load %"class.std::__1::allocator.4"*, %"class.std::__1::allocator.4"** %112, align 8
  %455 = getelementptr inbounds %"class.std::__1::__libcpp_compressed_pair_imp.3", %"class.std::__1::__libcpp_compressed_pair_imp.3"* %452, i32 0, i32 0
  %456 = bitcast %"struct.std::__1::basic_string<char, std::__1::char_traits<char>, std::__1::allocator<char> >::__rep"* %455 to i8*
  call void @llvm.memset.p0i8.i64(i8* %456, i8 0, i64 24, i32 8, i1 false) #2
  %457 = load i8*, i8** %117, align 8
  %458 = load i8*, i8** %117, align 8
  %459 = invoke i64 @_ZNSt3__111char_traitsIcE6lengthEPKc(i8* %458)
          to label %460 unwind label %723

; <label>:460:                                    ; preds = %430
  invoke void @_ZNSt3__112basic_stringIcNS_11char_traitsIcEENS_9allocatorIcEEE6__initEPKcm(%"class.std::__1::basic_string"* %446, i8* %457, i64 %459)
          to label %461 unwind label %723

; <label>:461:                                    ; preds = %460
  br label %462

; <label>:462:                                    ; preds = %461
  %463 = getelementptr inbounds %"struct.std::__1::pair.19", %"struct.std::__1::pair.19"* %431, i64 1
  store %"struct.std::__1::pair.19"* %463, %"struct.std::__1::pair.19"** %225, align 8
  store i32 7, i32* %235, align 4
  store %"struct.std::__1::pair.19"* %463, %"struct.std::__1::pair.19"** %108, align 8
  store i32* %235, i32** %109, align 8
  store [11 x i8]* @.str.12, [11 x i8]** %110, align 8
  %464 = load %"struct.std::__1::pair.19"*, %"struct.std::__1::pair.19"** %108, align 8
  %465 = load i32*, i32** %109, align 8
  %466 = load [11 x i8]*, [11 x i8]** %110, align 8
  store %"struct.std::__1::pair.19"* %464, %"struct.std::__1::pair.19"** %105, align 8
  store i32* %465, i32** %106, align 8
  store [11 x i8]* %466, [11 x i8]** %107, align 8
  %467 = load %"struct.std::__1::pair.19"*, %"struct.std::__1::pair.19"** %105, align 8
  %468 = getelementptr inbounds %"struct.std::__1::pair.19", %"struct.std::__1::pair.19"* %467, i32 0, i32 0
  %469 = load i32*, i32** %106, align 8
  store i32* %469, i32** %104, align 8
  %470 = load i32*, i32** %104, align 8
  %471 = load i32, i32* %470, align 4
  store i32 %471, i32* %468, align 8
  %472 = getelementptr inbounds %"struct.std::__1::pair.19", %"struct.std::__1::pair.19"* %467, i32 0, i32 1
  %473 = load [11 x i8]*, [11 x i8]** %107, align 8
  store [11 x i8]* %473, [11 x i8]** %95, align 8
  %474 = load [11 x i8]*, [11 x i8]** %95, align 8
  %475 = getelementptr inbounds [11 x i8], [11 x i8]* %474, i32 0, i32 0
  store %"class.std::__1::basic_string"* %472, %"class.std::__1::basic_string"** %102, align 8
  store i8* %475, i8** %103, align 8
  %476 = load %"class.std::__1::basic_string"*, %"class.std::__1::basic_string"** %102, align 8
  %477 = load i8*, i8** %103, align 8
  store %"class.std::__1::basic_string"* %476, %"class.std::__1::basic_string"** %100, align 8
  store i8* %477, i8** %101, align 8
  %478 = load %"class.std::__1::basic_string"*, %"class.std::__1::basic_string"** %100, align 8
  %479 = bitcast %"class.std::__1::basic_string"* %478 to %"class.std::__1::__basic_string_common"*
  %480 = getelementptr inbounds %"class.std::__1::basic_string", %"class.std::__1::basic_string"* %478, i32 0, i32 0
  store %"class.std::__1::__compressed_pair.2"* %480, %"class.std::__1::__compressed_pair.2"** %99, align 8
  %481 = load %"class.std::__1::__compressed_pair.2"*, %"class.std::__1::__compressed_pair.2"** %99, align 8
  store %"class.std::__1::__compressed_pair.2"* %481, %"class.std::__1::__compressed_pair.2"** %98, align 8
  %482 = load %"class.std::__1::__compressed_pair.2"*, %"class.std::__1::__compressed_pair.2"** %98, align 8
  %483 = bitcast %"class.std::__1::__compressed_pair.2"* %482 to %"class.std::__1::__libcpp_compressed_pair_imp.3"*
  store %"class.std::__1::__libcpp_compressed_pair_imp.3"* %483, %"class.std::__1::__libcpp_compressed_pair_imp.3"** %97, align 8
  %484 = load %"class.std::__1::__libcpp_compressed_pair_imp.3"*, %"class.std::__1::__libcpp_compressed_pair_imp.3"** %97, align 8
  %485 = bitcast %"class.std::__1::__libcpp_compressed_pair_imp.3"* %484 to %"class.std::__1::allocator.4"*
  store %"class.std::__1::allocator.4"* %485, %"class.std::__1::allocator.4"** %96, align 8
  %486 = load %"class.std::__1::allocator.4"*, %"class.std::__1::allocator.4"** %96, align 8
  %487 = getelementptr inbounds %"class.std::__1::__libcpp_compressed_pair_imp.3", %"class.std::__1::__libcpp_compressed_pair_imp.3"* %484, i32 0, i32 0
  %488 = bitcast %"struct.std::__1::basic_string<char, std::__1::char_traits<char>, std::__1::allocator<char> >::__rep"* %487 to i8*
  call void @llvm.memset.p0i8.i64(i8* %488, i8 0, i64 24, i32 8, i1 false) #2
  %489 = load i8*, i8** %101, align 8
  %490 = load i8*, i8** %101, align 8
  %491 = invoke i64 @_ZNSt3__111char_traitsIcE6lengthEPKc(i8* %490)
          to label %492 unwind label %723

; <label>:492:                                    ; preds = %462
  invoke void @_ZNSt3__112basic_stringIcNS_11char_traitsIcEENS_9allocatorIcEEE6__initEPKcm(%"class.std::__1::basic_string"* %478, i8* %489, i64 %491)
          to label %493 unwind label %723

; <label>:493:                                    ; preds = %492
  br label %494

; <label>:494:                                    ; preds = %493
  %495 = getelementptr inbounds %"struct.std::__1::pair.19", %"struct.std::__1::pair.19"* %463, i64 1
  store %"struct.std::__1::pair.19"* %495, %"struct.std::__1::pair.19"** %225, align 8
  store i32 9, i32* %236, align 4
  store %"struct.std::__1::pair.19"* %495, %"struct.std::__1::pair.19"** %92, align 8
  store i32* %236, i32** %93, align 8
  store [17 x i8]* @.str.13, [17 x i8]** %94, align 8
  %496 = load %"struct.std::__1::pair.19"*, %"struct.std::__1::pair.19"** %92, align 8
  %497 = load i32*, i32** %93, align 8
  %498 = load [17 x i8]*, [17 x i8]** %94, align 8
  store %"struct.std::__1::pair.19"* %496, %"struct.std::__1::pair.19"** %89, align 8
  store i32* %497, i32** %90, align 8
  store [17 x i8]* %498, [17 x i8]** %91, align 8
  %499 = load %"struct.std::__1::pair.19"*, %"struct.std::__1::pair.19"** %89, align 8
  %500 = getelementptr inbounds %"struct.std::__1::pair.19", %"struct.std::__1::pair.19"* %499, i32 0, i32 0
  %501 = load i32*, i32** %90, align 8
  store i32* %501, i32** %88, align 8
  %502 = load i32*, i32** %88, align 8
  %503 = load i32, i32* %502, align 4
  store i32 %503, i32* %500, align 8
  %504 = getelementptr inbounds %"struct.std::__1::pair.19", %"struct.std::__1::pair.19"* %499, i32 0, i32 1
  %505 = load [17 x i8]*, [17 x i8]** %91, align 8
  store [17 x i8]* %505, [17 x i8]** %79, align 8
  %506 = load [17 x i8]*, [17 x i8]** %79, align 8
  %507 = getelementptr inbounds [17 x i8], [17 x i8]* %506, i32 0, i32 0
  store %"class.std::__1::basic_string"* %504, %"class.std::__1::basic_string"** %86, align 8
  store i8* %507, i8** %87, align 8
  %508 = load %"class.std::__1::basic_string"*, %"class.std::__1::basic_string"** %86, align 8
  %509 = load i8*, i8** %87, align 8
  store %"class.std::__1::basic_string"* %508, %"class.std::__1::basic_string"** %84, align 8
  store i8* %509, i8** %85, align 8
  %510 = load %"class.std::__1::basic_string"*, %"class.std::__1::basic_string"** %84, align 8
  %511 = bitcast %"class.std::__1::basic_string"* %510 to %"class.std::__1::__basic_string_common"*
  %512 = getelementptr inbounds %"class.std::__1::basic_string", %"class.std::__1::basic_string"* %510, i32 0, i32 0
  store %"class.std::__1::__compressed_pair.2"* %512, %"class.std::__1::__compressed_pair.2"** %83, align 8
  %513 = load %"class.std::__1::__compressed_pair.2"*, %"class.std::__1::__compressed_pair.2"** %83, align 8
  store %"class.std::__1::__compressed_pair.2"* %513, %"class.std::__1::__compressed_pair.2"** %82, align 8
  %514 = load %"class.std::__1::__compressed_pair.2"*, %"class.std::__1::__compressed_pair.2"** %82, align 8
  %515 = bitcast %"class.std::__1::__compressed_pair.2"* %514 to %"class.std::__1::__libcpp_compressed_pair_imp.3"*
  store %"class.std::__1::__libcpp_compressed_pair_imp.3"* %515, %"class.std::__1::__libcpp_compressed_pair_imp.3"** %81, align 8
  %516 = load %"class.std::__1::__libcpp_compressed_pair_imp.3"*, %"class.std::__1::__libcpp_compressed_pair_imp.3"** %81, align 8
  %517 = bitcast %"class.std::__1::__libcpp_compressed_pair_imp.3"* %516 to %"class.std::__1::allocator.4"*
  store %"class.std::__1::allocator.4"* %517, %"class.std::__1::allocator.4"** %80, align 8
  %518 = load %"class.std::__1::allocator.4"*, %"class.std::__1::allocator.4"** %80, align 8
  %519 = getelementptr inbounds %"class.std::__1::__libcpp_compressed_pair_imp.3", %"class.std::__1::__libcpp_compressed_pair_imp.3"* %516, i32 0, i32 0
  %520 = bitcast %"struct.std::__1::basic_string<char, std::__1::char_traits<char>, std::__1::allocator<char> >::__rep"* %519 to i8*
  call void @llvm.memset.p0i8.i64(i8* %520, i8 0, i64 24, i32 8, i1 false) #2
  %521 = load i8*, i8** %85, align 8
  %522 = load i8*, i8** %85, align 8
  %523 = invoke i64 @_ZNSt3__111char_traitsIcE6lengthEPKc(i8* %522)
          to label %524 unwind label %723

; <label>:524:                                    ; preds = %494
  invoke void @_ZNSt3__112basic_stringIcNS_11char_traitsIcEENS_9allocatorIcEEE6__initEPKcm(%"class.std::__1::basic_string"* %510, i8* %521, i64 %523)
          to label %525 unwind label %723

; <label>:525:                                    ; preds = %524
  br label %526

; <label>:526:                                    ; preds = %525
  %527 = getelementptr inbounds %"struct.std::__1::pair.19", %"struct.std::__1::pair.19"* %495, i64 1
  store %"struct.std::__1::pair.19"* %527, %"struct.std::__1::pair.19"** %225, align 8
  store i32 10, i32* %237, align 4
  store %"struct.std::__1::pair.19"* %527, %"struct.std::__1::pair.19"** %76, align 8
  store i32* %237, i32** %77, align 8
  store [23 x i8]* @.str.14, [23 x i8]** %78, align 8
  %528 = load %"struct.std::__1::pair.19"*, %"struct.std::__1::pair.19"** %76, align 8
  %529 = load i32*, i32** %77, align 8
  %530 = load [23 x i8]*, [23 x i8]** %78, align 8
  store %"struct.std::__1::pair.19"* %528, %"struct.std::__1::pair.19"** %73, align 8
  store i32* %529, i32** %74, align 8
  store [23 x i8]* %530, [23 x i8]** %75, align 8
  %531 = load %"struct.std::__1::pair.19"*, %"struct.std::__1::pair.19"** %73, align 8
  %532 = getelementptr inbounds %"struct.std::__1::pair.19", %"struct.std::__1::pair.19"* %531, i32 0, i32 0
  %533 = load i32*, i32** %74, align 8
  store i32* %533, i32** %72, align 8
  %534 = load i32*, i32** %72, align 8
  %535 = load i32, i32* %534, align 4
  store i32 %535, i32* %532, align 8
  %536 = getelementptr inbounds %"struct.std::__1::pair.19", %"struct.std::__1::pair.19"* %531, i32 0, i32 1
  %537 = load [23 x i8]*, [23 x i8]** %75, align 8
  store [23 x i8]* %537, [23 x i8]** %63, align 8
  %538 = load [23 x i8]*, [23 x i8]** %63, align 8
  %539 = getelementptr inbounds [23 x i8], [23 x i8]* %538, i32 0, i32 0
  store %"class.std::__1::basic_string"* %536, %"class.std::__1::basic_string"** %70, align 8
  store i8* %539, i8** %71, align 8
  %540 = load %"class.std::__1::basic_string"*, %"class.std::__1::basic_string"** %70, align 8
  %541 = load i8*, i8** %71, align 8
  store %"class.std::__1::basic_string"* %540, %"class.std::__1::basic_string"** %68, align 8
  store i8* %541, i8** %69, align 8
  %542 = load %"class.std::__1::basic_string"*, %"class.std::__1::basic_string"** %68, align 8
  %543 = bitcast %"class.std::__1::basic_string"* %542 to %"class.std::__1::__basic_string_common"*
  %544 = getelementptr inbounds %"class.std::__1::basic_string", %"class.std::__1::basic_string"* %542, i32 0, i32 0
  store %"class.std::__1::__compressed_pair.2"* %544, %"class.std::__1::__compressed_pair.2"** %67, align 8
  %545 = load %"class.std::__1::__compressed_pair.2"*, %"class.std::__1::__compressed_pair.2"** %67, align 8
  store %"class.std::__1::__compressed_pair.2"* %545, %"class.std::__1::__compressed_pair.2"** %66, align 8
  %546 = load %"class.std::__1::__compressed_pair.2"*, %"class.std::__1::__compressed_pair.2"** %66, align 8
  %547 = bitcast %"class.std::__1::__compressed_pair.2"* %546 to %"class.std::__1::__libcpp_compressed_pair_imp.3"*
  store %"class.std::__1::__libcpp_compressed_pair_imp.3"* %547, %"class.std::__1::__libcpp_compressed_pair_imp.3"** %65, align 8
  %548 = load %"class.std::__1::__libcpp_compressed_pair_imp.3"*, %"class.std::__1::__libcpp_compressed_pair_imp.3"** %65, align 8
  %549 = bitcast %"class.std::__1::__libcpp_compressed_pair_imp.3"* %548 to %"class.std::__1::allocator.4"*
  store %"class.std::__1::allocator.4"* %549, %"class.std::__1::allocator.4"** %64, align 8
  %550 = load %"class.std::__1::allocator.4"*, %"class.std::__1::allocator.4"** %64, align 8
  %551 = getelementptr inbounds %"class.std::__1::__libcpp_compressed_pair_imp.3", %"class.std::__1::__libcpp_compressed_pair_imp.3"* %548, i32 0, i32 0
  %552 = bitcast %"struct.std::__1::basic_string<char, std::__1::char_traits<char>, std::__1::allocator<char> >::__rep"* %551 to i8*
  call void @llvm.memset.p0i8.i64(i8* %552, i8 0, i64 24, i32 8, i1 false) #2
  %553 = load i8*, i8** %69, align 8
  %554 = load i8*, i8** %69, align 8
  %555 = invoke i64 @_ZNSt3__111char_traitsIcE6lengthEPKc(i8* %554)
          to label %556 unwind label %723

; <label>:556:                                    ; preds = %526
  invoke void @_ZNSt3__112basic_stringIcNS_11char_traitsIcEENS_9allocatorIcEEE6__initEPKcm(%"class.std::__1::basic_string"* %542, i8* %553, i64 %555)
          to label %557 unwind label %723

; <label>:557:                                    ; preds = %556
  br label %558

; <label>:558:                                    ; preds = %557
  %559 = getelementptr inbounds %"class.std::initializer_list.18", %"class.std::initializer_list.18"* %223, i32 0, i32 0
  %560 = getelementptr inbounds [10 x %"struct.std::__1::pair.19"], [10 x %"struct.std::__1::pair.19"]* %224, i64 0, i64 0
  store %"struct.std::__1::pair.19"* %560, %"struct.std::__1::pair.19"** %559, align 8
  %561 = getelementptr inbounds %"class.std::initializer_list.18", %"class.std::initializer_list.18"* %223, i32 0, i32 1
  store i64 10, i64* %561, align 8
  %562 = bitcast %"class.std::initializer_list.18"* %223 to { %"struct.std::__1::pair.19"*, i64 }*
  %563 = getelementptr inbounds { %"struct.std::__1::pair.19"*, i64 }, { %"struct.std::__1::pair.19"*, i64 }* %562, i32 0, i32 0
  %564 = load %"struct.std::__1::pair.19"*, %"struct.std::__1::pair.19"** %563, align 8
  %565 = getelementptr inbounds { %"struct.std::__1::pair.19"*, i64 }, { %"struct.std::__1::pair.19"*, i64 }* %562, i32 0, i32 1
  %566 = load i64, i64* %565, align 8
  %567 = bitcast %"class.std::initializer_list.18"* %60 to { %"struct.std::__1::pair.19"*, i64 }*
  %568 = getelementptr inbounds { %"struct.std::__1::pair.19"*, i64 }, { %"struct.std::__1::pair.19"*, i64 }* %567, i32 0, i32 0
  store %"struct.std::__1::pair.19"* %564, %"struct.std::__1::pair.19"** %568, align 8
  %569 = getelementptr inbounds { %"struct.std::__1::pair.19"*, i64 }, { %"struct.std::__1::pair.19"*, i64 }* %567, i32 0, i32 1
  store i64 %566, i64* %569, align 8
  store %"class.std::__1::map.7"* @_runtime_errors, %"class.std::__1::map.7"** %61, align 8
  store %"struct.std::__1::less.16"* %238, %"struct.std::__1::less.16"** %62, align 8
  %570 = load %"class.std::__1::map.7"*, %"class.std::__1::map.7"** %61, align 8
  %571 = load %"struct.std::__1::less.16"*, %"struct.std::__1::less.16"** %62, align 8
  %572 = bitcast %"class.std::initializer_list.18"* %60 to { %"struct.std::__1::pair.19"*, i64 }*
  %573 = getelementptr inbounds { %"struct.std::__1::pair.19"*, i64 }, { %"struct.std::__1::pair.19"*, i64 }* %572, i32 0, i32 0
  %574 = load %"struct.std::__1::pair.19"*, %"struct.std::__1::pair.19"** %573, align 8
  %575 = getelementptr inbounds { %"struct.std::__1::pair.19"*, i64 }, { %"struct.std::__1::pair.19"*, i64 }* %572, i32 0, i32 1
  %576 = load i64, i64* %575, align 8
  %577 = bitcast %"class.std::initializer_list.18"* %53 to { %"struct.std::__1::pair.19"*, i64 }*
  %578 = getelementptr inbounds { %"struct.std::__1::pair.19"*, i64 }, { %"struct.std::__1::pair.19"*, i64 }* %577, i32 0, i32 0
  store %"struct.std::__1::pair.19"* %574, %"struct.std::__1::pair.19"** %578, align 8
  %579 = getelementptr inbounds { %"struct.std::__1::pair.19"*, i64 }, { %"struct.std::__1::pair.19"*, i64 }* %577, i32 0, i32 1
  store i64 %576, i64* %579, align 8
  store %"class.std::__1::map.7"* %570, %"class.std::__1::map.7"** %54, align 8
  store %"struct.std::__1::less.16"* %571, %"struct.std::__1::less.16"** %55, align 8
  %580 = load %"class.std::__1::map.7"*, %"class.std::__1::map.7"** %54, align 8
  %581 = getelementptr inbounds %"class.std::__1::map.7", %"class.std::__1::map.7"* %580, i32 0, i32 0
  %582 = load %"struct.std::__1::less.16"*, %"struct.std::__1::less.16"** %55, align 8
  store %"class.std::__1::__map_value_compare.15"* %56, %"class.std::__1::__map_value_compare.15"** %52, align 8
  %583 = load %"class.std::__1::__map_value_compare.15"*, %"class.std::__1::__map_value_compare.15"** %52, align 8
  store %"class.std::__1::__map_value_compare.15"* %583, %"class.std::__1::__map_value_compare.15"** %50, align 8
  %584 = load %"class.std::__1::__map_value_compare.15"*, %"class.std::__1::__map_value_compare.15"** %50, align 8
  %585 = bitcast %"class.std::__1::__map_value_compare.15"* %584 to %"struct.std::__1::less.16"*
  call void @_ZNSt3__16__treeINS_12__value_typeI13RuntimeErrorsNS_12basic_stringIcNS_11char_traitsIcEENS_9allocatorIcEEEEEENS_19__map_value_compareIS2_S9_NS_4lessIS2_EELb1EEENS6_IS9_EEEC1ERKSD_(%"class.std::__1::__tree.8"* %581, %"class.std::__1::__map_value_compare.15"* dereferenceable(1) %56) #2
  store %"class.std::initializer_list.18"* %53, %"class.std::initializer_list.18"** %49, align 8
  %586 = load %"class.std::initializer_list.18"*, %"class.std::initializer_list.18"** %49, align 8
  %587 = getelementptr inbounds %"class.std::initializer_list.18", %"class.std::initializer_list.18"* %586, i32 0, i32 0
  %588 = load %"struct.std::__1::pair.19"*, %"struct.std::__1::pair.19"** %587, align 8
  store %"class.std::initializer_list.18"* %53, %"class.std::initializer_list.18"** %1, align 8
  %589 = load %"class.std::initializer_list.18"*, %"class.std::initializer_list.18"** %1, align 8
  %590 = getelementptr inbounds %"class.std::initializer_list.18", %"class.std::initializer_list.18"* %589, i32 0, i32 0
  %591 = load %"struct.std::__1::pair.19"*, %"struct.std::__1::pair.19"** %590, align 8
  %592 = getelementptr inbounds %"class.std::initializer_list.18", %"class.std::initializer_list.18"* %589, i32 0, i32 1
  %593 = load i64, i64* %592, align 8
  %594 = getelementptr inbounds %"struct.std::__1::pair.19", %"struct.std::__1::pair.19"* %591, i64 %593
  store %"class.std::__1::map.7"* %580, %"class.std::__1::map.7"** %42, align 8
  store %"struct.std::__1::pair.19"* %588, %"struct.std::__1::pair.19"** %43, align 8
  store %"struct.std::__1::pair.19"* %594, %"struct.std::__1::pair.19"** %44, align 8
  %595 = load %"class.std::__1::map.7"*, %"class.std::__1::map.7"** %42, align 8
  store %"class.std::__1::map.7"* %595, %"class.std::__1::map.7"** %41, align 8
  %596 = load %"class.std::__1::map.7"*, %"class.std::__1::map.7"** %41, align 8
  store %"class.std::__1::map.7"* %596, %"class.std::__1::map.7"** %38, align 8
  %597 = load %"class.std::__1::map.7"*, %"class.std::__1::map.7"** %38, align 8
  %598 = getelementptr inbounds %"class.std::__1::map.7", %"class.std::__1::map.7"* %597, i32 0, i32 0
  store %"class.std::__1::__tree.8"* %598, %"class.std::__1::__tree.8"** %36, align 8
  %599 = load %"class.std::__1::__tree.8"*, %"class.std::__1::__tree.8"** %36, align 8
  store %"class.std::__1::__tree.8"* %599, %"class.std::__1::__tree.8"** %34, align 8
  %600 = load %"class.std::__1::__tree.8"*, %"class.std::__1::__tree.8"** %34, align 8
  %601 = getelementptr inbounds %"class.std::__1::__tree.8", %"class.std::__1::__tree.8"* %600, i32 0, i32 1
  store %"class.std::__1::__compressed_pair.9"* %601, %"class.std::__1::__compressed_pair.9"** %33, align 8
  %602 = load %"class.std::__1::__compressed_pair.9"*, %"class.std::__1::__compressed_pair.9"** %33, align 8
  %603 = bitcast %"class.std::__1::__compressed_pair.9"* %602 to %"class.std::__1::__libcpp_compressed_pair_imp.10"*
  store %"class.std::__1::__libcpp_compressed_pair_imp.10"* %603, %"class.std::__1::__libcpp_compressed_pair_imp.10"** %32, align 8
  %604 = load %"class.std::__1::__libcpp_compressed_pair_imp.10"*, %"class.std::__1::__libcpp_compressed_pair_imp.10"** %32, align 8
  %605 = getelementptr inbounds %"class.std::__1::__libcpp_compressed_pair_imp.10", %"class.std::__1::__libcpp_compressed_pair_imp.10"* %604, i32 0, i32 0
  store %"class.std::__1::__tree_end_node"* %605, %"class.std::__1::__tree_end_node"** %31, align 8
  %606 = load %"class.std::__1::__tree_end_node"*, %"class.std::__1::__tree_end_node"** %31, align 8
  store %"class.std::__1::__tree_end_node"* %606, %"class.std::__1::__tree_end_node"** %30, align 8
  %607 = load %"class.std::__1::__tree_end_node"*, %"class.std::__1::__tree_end_node"** %30, align 8
  %608 = bitcast %"class.std::__1::__tree_end_node"* %607 to i8*
  store %"class.std::__1::__tree_const_iterator.78"* %35, %"class.std::__1::__tree_const_iterator.78"** %28, align 8
  store %"class.std::__1::__tree_end_node"* %607, %"class.std::__1::__tree_end_node"** %29, align 8
  %609 = load %"class.std::__1::__tree_const_iterator.78"*, %"class.std::__1::__tree_const_iterator.78"** %28, align 8
  %610 = load %"class.std::__1::__tree_end_node"*, %"class.std::__1::__tree_end_node"** %29, align 8
  store %"class.std::__1::__tree_const_iterator.78"* %609, %"class.std::__1::__tree_const_iterator.78"** %26, align 8
  store %"class.std::__1::__tree_end_node"* %610, %"class.std::__1::__tree_end_node"** %27, align 8
  %611 = load %"class.std::__1::__tree_const_iterator.78"*, %"class.std::__1::__tree_const_iterator.78"** %26, align 8
  %612 = getelementptr inbounds %"class.std::__1::__tree_const_iterator.78", %"class.std::__1::__tree_const_iterator.78"* %611, i32 0, i32 0
  %613 = load %"class.std::__1::__tree_end_node"*, %"class.std::__1::__tree_end_node"** %27, align 8
  store %"class.std::__1::__tree_end_node"* %613, %"class.std::__1::__tree_end_node"** %612, align 8
  %614 = getelementptr inbounds %"class.std::__1::__tree_const_iterator.78", %"class.std::__1::__tree_const_iterator.78"* %35, i32 0, i32 0
  %615 = load %"class.std::__1::__tree_end_node"*, %"class.std::__1::__tree_end_node"** %614, align 8
  %616 = getelementptr inbounds %"class.std::__1::__tree_const_iterator.78", %"class.std::__1::__tree_const_iterator.78"* %39, i32 0, i32 0
  store %"class.std::__1::__tree_end_node"* %615, %"class.std::__1::__tree_end_node"** %616, align 8
  %617 = getelementptr inbounds %"class.std::__1::__tree_const_iterator.78", %"class.std::__1::__tree_const_iterator.78"* %39, i32 0, i32 0
  %618 = load %"class.std::__1::__tree_end_node"*, %"class.std::__1::__tree_end_node"** %617, align 8
  %619 = getelementptr inbounds %"class.std::__1::__tree_const_iterator.78", %"class.std::__1::__tree_const_iterator.78"* %24, i32 0, i32 0
  store %"class.std::__1::__tree_end_node"* %618, %"class.std::__1::__tree_end_node"** %619, align 8
  store %"class.std::__1::__map_const_iterator.77"* %37, %"class.std::__1::__map_const_iterator.77"** %25, align 8
  %620 = load %"class.std::__1::__map_const_iterator.77"*, %"class.std::__1::__map_const_iterator.77"** %25, align 8
  %621 = getelementptr inbounds %"class.std::__1::__tree_const_iterator.78", %"class.std::__1::__tree_const_iterator.78"* %24, i32 0, i32 0
  %622 = load %"class.std::__1::__tree_end_node"*, %"class.std::__1::__tree_end_node"** %621, align 8
  %623 = getelementptr inbounds %"class.std::__1::__tree_const_iterator.78", %"class.std::__1::__tree_const_iterator.78"* %22, i32 0, i32 0
  store %"class.std::__1::__tree_end_node"* %622, %"class.std::__1::__tree_end_node"** %623, align 8
  store %"class.std::__1::__map_const_iterator.77"* %620, %"class.std::__1::__map_const_iterator.77"** %23, align 8
  %624 = load %"class.std::__1::__map_const_iterator.77"*, %"class.std::__1::__map_const_iterator.77"** %23, align 8
  %625 = getelementptr inbounds %"class.std::__1::__map_const_iterator.77", %"class.std::__1::__map_const_iterator.77"* %624, i32 0, i32 0
  %626 = bitcast %"class.std::__1::__tree_const_iterator.78"* %625 to i8*
  %627 = bitcast %"class.std::__1::__tree_const_iterator.78"* %22 to i8*
  call void @llvm.memcpy.p0i8.p0i8.i64(i8* %626, i8* %627, i64 8, i32 8, i1 false) #2
  %628 = getelementptr inbounds %"class.std::__1::__map_const_iterator.77", %"class.std::__1::__map_const_iterator.77"* %37, i32 0, i32 0
  %629 = getelementptr inbounds %"class.std::__1::__tree_const_iterator.78", %"class.std::__1::__tree_const_iterator.78"* %628, i32 0, i32 0
  %630 = load %"class.std::__1::__tree_end_node"*, %"class.std::__1::__tree_end_node"** %629, align 8
  %631 = getelementptr inbounds %"class.std::__1::__map_const_iterator.77", %"class.std::__1::__map_const_iterator.77"* %40, i32 0, i32 0
  %632 = getelementptr inbounds %"class.std::__1::__tree_const_iterator.78", %"class.std::__1::__tree_const_iterator.78"* %631, i32 0, i32 0
  store %"class.std::__1::__tree_end_node"* %630, %"class.std::__1::__tree_end_node"** %632, align 8
  %633 = getelementptr inbounds %"class.std::__1::__map_const_iterator.77", %"class.std::__1::__map_const_iterator.77"* %40, i32 0, i32 0
  %634 = getelementptr inbounds %"class.std::__1::__tree_const_iterator.78", %"class.std::__1::__tree_const_iterator.78"* %633, i32 0, i32 0
  %635 = load %"class.std::__1::__tree_end_node"*, %"class.std::__1::__tree_end_node"** %634, align 8
  %636 = getelementptr inbounds %"class.std::__1::__map_const_iterator.77", %"class.std::__1::__map_const_iterator.77"* %45, i32 0, i32 0
  %637 = getelementptr inbounds %"class.std::__1::__tree_const_iterator.78", %"class.std::__1::__tree_const_iterator.78"* %636, i32 0, i32 0
  store %"class.std::__1::__tree_end_node"* %635, %"class.std::__1::__tree_end_node"** %637, align 8
  br label %638

; <label>:638:                                    ; preds = %682, %558
  %639 = load %"struct.std::__1::pair.19"*, %"struct.std::__1::pair.19"** %43, align 8
  %640 = load %"struct.std::__1::pair.19"*, %"struct.std::__1::pair.19"** %44, align 8
  %641 = icmp ne %"struct.std::__1::pair.19"* %639, %640
  br i1 %641, label %642, label %713

; <label>:642:                                    ; preds = %638
  %643 = getelementptr inbounds %"class.std::__1::__map_const_iterator.77", %"class.std::__1::__map_const_iterator.77"* %45, i32 0, i32 0
  %644 = bitcast %"class.std::__1::__tree_const_iterator.78"* %47 to i8*
  %645 = bitcast %"class.std::__1::__tree_const_iterator.78"* %643 to i8*
  call void @llvm.memcpy.p0i8.p0i8.i64(i8* %644, i8* %645, i64 8, i32 8, i1 false)
  %646 = getelementptr inbounds %"class.std::__1::__tree_const_iterator.78", %"class.std::__1::__tree_const_iterator.78"* %47, i32 0, i32 0
  %647 = load %"class.std::__1::__tree_end_node"*, %"class.std::__1::__tree_end_node"** %646, align 8
  %648 = getelementptr inbounds %"class.std::__1::__tree_const_iterator.78", %"class.std::__1::__tree_const_iterator.78"* %4, i32 0, i32 0
  store %"class.std::__1::__tree_end_node"* %647, %"class.std::__1::__tree_end_node"** %648, align 8
  store %"class.std::__1::__map_const_iterator.77"* %46, %"class.std::__1::__map_const_iterator.77"** %5, align 8
  %649 = load %"class.std::__1::__map_const_iterator.77"*, %"class.std::__1::__map_const_iterator.77"** %5, align 8
  %650 = getelementptr inbounds %"class.std::__1::__tree_const_iterator.78", %"class.std::__1::__tree_const_iterator.78"* %4, i32 0, i32 0
  %651 = load %"class.std::__1::__tree_end_node"*, %"class.std::__1::__tree_end_node"** %650, align 8
  %652 = getelementptr inbounds %"class.std::__1::__tree_const_iterator.78", %"class.std::__1::__tree_const_iterator.78"* %2, i32 0, i32 0
  store %"class.std::__1::__tree_end_node"* %651, %"class.std::__1::__tree_end_node"** %652, align 8
  store %"class.std::__1::__map_const_iterator.77"* %649, %"class.std::__1::__map_const_iterator.77"** %3, align 8
  %653 = load %"class.std::__1::__map_const_iterator.77"*, %"class.std::__1::__map_const_iterator.77"** %3, align 8
  %654 = getelementptr inbounds %"class.std::__1::__map_const_iterator.77", %"class.std::__1::__map_const_iterator.77"* %653, i32 0, i32 0
  %655 = bitcast %"class.std::__1::__tree_const_iterator.78"* %654 to i8*
  %656 = bitcast %"class.std::__1::__tree_const_iterator.78"* %2 to i8*
  call void @llvm.memcpy.p0i8.p0i8.i64(i8* %655, i8* %656, i64 8, i32 8, i1 false) #2
  %657 = load %"struct.std::__1::pair.19"*, %"struct.std::__1::pair.19"** %43, align 8
  %658 = getelementptr inbounds %"class.std::__1::__map_const_iterator.77", %"class.std::__1::__map_const_iterator.77"* %46, i32 0, i32 0
  %659 = getelementptr inbounds %"class.std::__1::__tree_const_iterator.78", %"class.std::__1::__tree_const_iterator.78"* %658, i32 0, i32 0
  %660 = load %"class.std::__1::__tree_end_node"*, %"class.std::__1::__tree_end_node"** %659, align 8
  %661 = getelementptr inbounds %"class.std::__1::__map_const_iterator.77", %"class.std::__1::__map_const_iterator.77"* %17, i32 0, i32 0
  %662 = getelementptr inbounds %"class.std::__1::__tree_const_iterator.78", %"class.std::__1::__tree_const_iterator.78"* %661, i32 0, i32 0
  store %"class.std::__1::__tree_end_node"* %660, %"class.std::__1::__tree_end_node"** %662, align 8
  store %"class.std::__1::map.7"* %595, %"class.std::__1::map.7"** %18, align 8
  store %"struct.std::__1::pair.19"* %657, %"struct.std::__1::pair.19"** %19, align 8
  %663 = load %"class.std::__1::map.7"*, %"class.std::__1::map.7"** %18, align 8
  %664 = getelementptr inbounds %"class.std::__1::map.7", %"class.std::__1::map.7"* %663, i32 0, i32 0
  %665 = getelementptr inbounds %"class.std::__1::__map_const_iterator.77", %"class.std::__1::__map_const_iterator.77"* %17, i32 0, i32 0
  %666 = bitcast %"class.std::__1::__tree_const_iterator.78"* %21 to i8*
  %667 = bitcast %"class.std::__1::__tree_const_iterator.78"* %665 to i8*
  call void @llvm.memcpy.p0i8.p0i8.i64(i8* %666, i8* %667, i64 8, i32 8, i1 false)
  %668 = load %"struct.std::__1::pair.19"*, %"struct.std::__1::pair.19"** %19, align 8
  %669 = getelementptr inbounds %"class.std::__1::__tree_const_iterator.78", %"class.std::__1::__tree_const_iterator.78"* %21, i32 0, i32 0
  %670 = load %"class.std::__1::__tree_end_node"*, %"class.std::__1::__tree_end_node"** %669, align 8
  %671 = getelementptr inbounds %"class.std::__1::__tree_const_iterator.78", %"class.std::__1::__tree_const_iterator.78"* %12, i32 0, i32 0
  store %"class.std::__1::__tree_end_node"* %670, %"class.std::__1::__tree_end_node"** %671, align 8
  store %"class.std::__1::__tree.8"* %664, %"class.std::__1::__tree.8"** %13, align 8
  store %"struct.std::__1::pair.19"* %668, %"struct.std::__1::pair.19"** %14, align 8
  %672 = load %"class.std::__1::__tree.8"*, %"class.std::__1::__tree.8"** %13, align 8
  %673 = bitcast %"class.std::__1::__tree_const_iterator.78"* %15 to i8*
  %674 = bitcast %"class.std::__1::__tree_const_iterator.78"* %12 to i8*
  call void @llvm.memcpy.p0i8.p0i8.i64(i8* %673, i8* %674, i64 8, i32 8, i1 false)
  %675 = load %"struct.std::__1::pair.19"*, %"struct.std::__1::pair.19"** %14, align 8
  store %"struct.std::__1::pair.19"* %675, %"struct.std::__1::pair.19"** %10, align 8
  %676 = load %"struct.std::__1::pair.19"*, %"struct.std::__1::pair.19"** %10, align 8
  %677 = getelementptr inbounds %"struct.std::__1::pair.19", %"struct.std::__1::pair.19"* %676, i32 0, i32 0
  %678 = load %"struct.std::__1::pair.19"*, %"struct.std::__1::pair.19"** %14, align 8
  %679 = getelementptr inbounds %"class.std::__1::__tree_const_iterator.78", %"class.std::__1::__tree_const_iterator.78"* %15, i32 0, i32 0
  %680 = load %"class.std::__1::__tree_end_node"*, %"class.std::__1::__tree_end_node"** %679, align 8
  %681 = invoke %"class.std::__1::__tree_end_node"* @_ZNSt3__16__treeINS_12__value_typeI13RuntimeErrorsNS_12basic_stringIcNS_11char_traitsIcEENS_9allocatorIcEEEEEENS_19__map_value_compareIS2_S9_NS_4lessIS2_EELb1EEENS6_IS9_EEE30__emplace_hint_unique_key_argsIS2_JRKNS_4pairIKS2_S8_EEEEENS_15__tree_iteratorIS9_PNS_11__tree_nodeIS9_PvEElEENS_21__tree_const_iteratorIS9_SQ_lEERKT_DpOT0_(%"class.std::__1::__tree.8"* %672, %"class.std::__1::__tree_end_node"* %680, i32* dereferenceable(4) %677, %"struct.std::__1::pair.19"* dereferenceable(32) %678)
          to label %682 unwind label %705

; <label>:682:                                    ; preds = %642
  %683 = getelementptr inbounds %"class.std::__1::__tree_iterator.80", %"class.std::__1::__tree_iterator.80"* %11, i32 0, i32 0
  store %"class.std::__1::__tree_end_node"* %681, %"class.std::__1::__tree_end_node"** %683, align 8
  %684 = getelementptr inbounds %"class.std::__1::__tree_iterator.80", %"class.std::__1::__tree_iterator.80"* %11, i32 0, i32 0
  %685 = load %"class.std::__1::__tree_end_node"*, %"class.std::__1::__tree_end_node"** %684, align 8
  %686 = getelementptr inbounds %"class.std::__1::__tree_iterator.80", %"class.std::__1::__tree_iterator.80"* %20, i32 0, i32 0
  store %"class.std::__1::__tree_end_node"* %685, %"class.std::__1::__tree_end_node"** %686, align 8
  %687 = getelementptr inbounds %"class.std::__1::__tree_iterator.80", %"class.std::__1::__tree_iterator.80"* %20, i32 0, i32 0
  %688 = load %"class.std::__1::__tree_end_node"*, %"class.std::__1::__tree_end_node"** %687, align 8
  %689 = getelementptr inbounds %"class.std::__1::__tree_iterator.80", %"class.std::__1::__tree_iterator.80"* %8, i32 0, i32 0
  store %"class.std::__1::__tree_end_node"* %688, %"class.std::__1::__tree_end_node"** %689, align 8
  store %"class.std::__1::__map_iterator.79"* %16, %"class.std::__1::__map_iterator.79"** %9, align 8
  %690 = load %"class.std::__1::__map_iterator.79"*, %"class.std::__1::__map_iterator.79"** %9, align 8
  %691 = getelementptr inbounds %"class.std::__1::__tree_iterator.80", %"class.std::__1::__tree_iterator.80"* %8, i32 0, i32 0
  %692 = load %"class.std::__1::__tree_end_node"*, %"class.std::__1::__tree_end_node"** %691, align 8
  %693 = getelementptr inbounds %"class.std::__1::__tree_iterator.80", %"class.std::__1::__tree_iterator.80"* %6, i32 0, i32 0
  store %"class.std::__1::__tree_end_node"* %692, %"class.std::__1::__tree_end_node"** %693, align 8
  store %"class.std::__1::__map_iterator.79"* %690, %"class.std::__1::__map_iterator.79"** %7, align 8
  %694 = load %"class.std::__1::__map_iterator.79"*, %"class.std::__1::__map_iterator.79"** %7, align 8
  %695 = getelementptr inbounds %"class.std::__1::__map_iterator.79", %"class.std::__1::__map_iterator.79"* %694, i32 0, i32 0
  %696 = bitcast %"class.std::__1::__tree_iterator.80"* %695 to i8*
  %697 = bitcast %"class.std::__1::__tree_iterator.80"* %6 to i8*
  call void @llvm.memcpy.p0i8.p0i8.i64(i8* %696, i8* %697, i64 8, i32 8, i1 false) #2
  %698 = getelementptr inbounds %"class.std::__1::__map_iterator.79", %"class.std::__1::__map_iterator.79"* %16, i32 0, i32 0
  %699 = getelementptr inbounds %"class.std::__1::__tree_iterator.80", %"class.std::__1::__tree_iterator.80"* %698, i32 0, i32 0
  %700 = load %"class.std::__1::__tree_end_node"*, %"class.std::__1::__tree_end_node"** %699, align 8
  %701 = getelementptr inbounds %"class.std::__1::__map_iterator.79", %"class.std::__1::__map_iterator.79"* %48, i32 0, i32 0
  %702 = getelementptr inbounds %"class.std::__1::__tree_iterator.80", %"class.std::__1::__tree_iterator.80"* %701, i32 0, i32 0
  store %"class.std::__1::__tree_end_node"* %700, %"class.std::__1::__tree_end_node"** %702, align 8
  %703 = load %"struct.std::__1::pair.19"*, %"struct.std::__1::pair.19"** %43, align 8
  %704 = getelementptr inbounds %"struct.std::__1::pair.19", %"struct.std::__1::pair.19"* %703, i32 1
  store %"struct.std::__1::pair.19"* %704, %"struct.std::__1::pair.19"** %43, align 8
  br label %638

; <label>:705:                                    ; preds = %642
  %706 = landingpad { i8*, i32 }
          cleanup
  %707 = extractvalue { i8*, i32 } %706, 0
  store i8* %707, i8** %58, align 8
  %708 = extractvalue { i8*, i32 } %706, 1
  store i32 %708, i32* %59, align 4
  call void @_ZNSt3__16__treeINS_12__value_typeI13RuntimeErrorsNS_12basic_stringIcNS_11char_traitsIcEENS_9allocatorIcEEEEEENS_19__map_value_compareIS2_S9_NS_4lessIS2_EELb1EEENS6_IS9_EEED1Ev(%"class.std::__1::__tree.8"* %581) #2
  %709 = load i8*, i8** %58, align 8
  %710 = load i32, i32* %59, align 4
  %711 = insertvalue { i8*, i32 } undef, i8* %709, 0
  %712 = insertvalue { i8*, i32 } %711, i32 %710, 1
  br label %736

; <label>:713:                                    ; preds = %638
  br label %714

; <label>:714:                                    ; preds = %713
  %715 = getelementptr inbounds [10 x %"struct.std::__1::pair.19"], [10 x %"struct.std::__1::pair.19"]* %224, i32 0, i32 0
  %716 = getelementptr inbounds %"struct.std::__1::pair.19", %"struct.std::__1::pair.19"* %715, i64 10
  br label %717

; <label>:717:                                    ; preds = %717, %714
  %718 = phi %"struct.std::__1::pair.19"* [ %716, %714 ], [ %719, %717 ]
  %719 = getelementptr inbounds %"struct.std::__1::pair.19", %"struct.std::__1::pair.19"* %718, i64 -1
  call void @_ZNSt3__14pairIK13RuntimeErrorsNS_12basic_stringIcNS_11char_traitsIcEENS_9allocatorIcEEEEED1Ev(%"struct.std::__1::pair.19"* %719) #2
  %720 = icmp eq %"struct.std::__1::pair.19"* %719, %715
  br i1 %720, label %721, label %717

; <label>:721:                                    ; preds = %717
  %722 = call i32 @__cxa_atexit(void (i8*)* bitcast (void (%"class.std::__1::map.7"*)* @_ZNSt3__13mapI13RuntimeErrorsNS_12basic_stringIcNS_11char_traitsIcEENS_9allocatorIcEEEENS_4lessIS1_EENS5_INS_4pairIKS1_S7_EEEEED1Ev to void (i8*)*), i8* bitcast (%"class.std::__1::map.7"* @_runtime_errors to i8*), i8* @__dso_handle) #2
  ret void

; <label>:723:                                    ; preds = %556, %526, %524, %494, %492, %462, %460, %430, %428, %398, %396, %366, %364, %334, %332, %302, %300, %270, %268, %0
  %724 = landingpad { i8*, i32 }
          cleanup
  %725 = extractvalue { i8*, i32 } %724, 0
  store i8* %725, i8** %227, align 8
  %726 = extractvalue { i8*, i32 } %724, 1
  store i32 %726, i32* %228, align 4
  %727 = load %"struct.std::__1::pair.19"*, %"struct.std::__1::pair.19"** %225, align 8
  %728 = icmp eq %"struct.std::__1::pair.19"* %239, %727
  br i1 %728, label %733, label %729

; <label>:729:                                    ; preds = %729, %723
  %730 = phi %"struct.std::__1::pair.19"* [ %727, %723 ], [ %731, %729 ]
  %731 = getelementptr inbounds %"struct.std::__1::pair.19", %"struct.std::__1::pair.19"* %730, i64 -1
  call void @_ZNSt3__14pairIK13RuntimeErrorsNS_12basic_stringIcNS_11char_traitsIcEENS_9allocatorIcEEEEED1Ev(%"struct.std::__1::pair.19"* %731) #2
  %732 = icmp eq %"struct.std::__1::pair.19"* %731, %239
  br i1 %732, label %733, label %729

; <label>:733:                                    ; preds = %729, %723
  br label %747
                                                  ; No predecessors!
  %735 = landingpad { i8*, i32 }
          cleanup
  br label %736

; <label>:736:                                    ; preds = %705, %734
  %737 = phi { i8*, i32 } [ %735, %734 ], [ %712, %705 ]
  %738 = extractvalue { i8*, i32 } %737, 0
  store i8* %738, i8** %227, align 8
  %739 = extractvalue { i8*, i32 } %737, 1
  store i32 %739, i32* %228, align 4
  %740 = getelementptr inbounds [10 x %"struct.std::__1::pair.19"], [10 x %"struct.std::__1::pair.19"]* %224, i32 0, i32 0
  %741 = getelementptr inbounds %"struct.std::__1::pair.19", %"struct.std::__1::pair.19"* %740, i64 10
  br label %742

; <label>:742:                                    ; preds = %742, %736
  %743 = phi %"struct.std::__1::pair.19"* [ %741, %736 ], [ %744, %742 ]
  %744 = getelementptr inbounds %"struct.std::__1::pair.19", %"struct.std::__1::pair.19"* %743, i64 -1
  call void @_ZNSt3__14pairIK13RuntimeErrorsNS_12basic_stringIcNS_11char_traitsIcEENS_9allocatorIcEEEEED1Ev(%"struct.std::__1::pair.19"* %744) #2
  %745 = icmp eq %"struct.std::__1::pair.19"* %744, %740
  br i1 %745, label %746, label %742

; <label>:746:                                    ; preds = %742
  br label %747

; <label>:747:                                    ; preds = %746, %733
  %748 = load i8*, i8** %227, align 8
  %749 = load i32, i32* %228, align 4
  %750 = insertvalue { i8*, i32 } undef, i8* %748, 0
  %751 = insertvalue { i8*, i32 } %750, i32 %749, 1
  resume { i8*, i32 } %751
}

; Function Attrs: inlinehint nounwind ssp uwtable
define linkonce_odr void @_ZNSt3__14pairIK13RuntimeErrorsNS_12basic_stringIcNS_11char_traitsIcEENS_9allocatorIcEEEEED1Ev(%"struct.std::__1::pair.19"*) unnamed_addr #1 align 2 {
  %2 = alloca %"struct.std::__1::pair.19"*, align 8
  store %"struct.std::__1::pair.19"* %0, %"struct.std::__1::pair.19"** %2, align 8
  %3 = load %"struct.std::__1::pair.19"*, %"struct.std::__1::pair.19"** %2, align 8
  call void @_ZNSt3__14pairIK13RuntimeErrorsNS_12basic_stringIcNS_11char_traitsIcEENS_9allocatorIcEEEEED2Ev(%"struct.std::__1::pair.19"* %3) #2
  ret void
}

; Function Attrs: inlinehint nounwind ssp uwtable
define linkonce_odr void @_ZNSt3__13mapI13RuntimeErrorsNS_12basic_stringIcNS_11char_traitsIcEENS_9allocatorIcEEEENS_4lessIS1_EENS5_INS_4pairIKS1_S7_EEEEED1Ev(%"class.std::__1::map.7"*) unnamed_addr #1 align 2 {
  %2 = alloca %"class.std::__1::map.7"*, align 8
  store %"class.std::__1::map.7"* %0, %"class.std::__1::map.7"** %2, align 8
  %3 = load %"class.std::__1::map.7"*, %"class.std::__1::map.7"** %2, align 8
  call void @_ZNSt3__13mapI13RuntimeErrorsNS_12basic_stringIcNS_11char_traitsIcEENS_9allocatorIcEEEENS_4lessIS1_EENS5_INS_4pairIKS1_S7_EEEEED2Ev(%"class.std::__1::map.7"* %3) #2
  ret void
}

; Function Attrs: ssp uwtable
define void @_ZN10ParseErrorC2ERKNSt3__112basic_stringIcNS0_11char_traitsIcEENS0_9allocatorIcEEEE(%class.ParseError*, %"class.std::__1::basic_string"* dereferenceable(24)) unnamed_addr #0 align 2 personality i8* bitcast (i32 (...)* @__gxx_personality_v0 to i8*) {
  %3 = alloca %"class.std::exception"*, align 8
  %4 = alloca %class.ParseError*, align 8
  %5 = alloca %"class.std::__1::basic_string"*, align 8
  %6 = alloca i8*
  %7 = alloca i32
  store %class.ParseError* %0, %class.ParseError** %4, align 8
  store %"class.std::__1::basic_string"* %1, %"class.std::__1::basic_string"** %5, align 8
  %8 = load %class.ParseError*, %class.ParseError** %4, align 8
  %9 = bitcast %class.ParseError* %8 to %"class.std::exception"*
  store %"class.std::exception"* %9, %"class.std::exception"** %3, align 8
  %10 = load %"class.std::exception"*, %"class.std::exception"** %3, align 8
  %11 = bitcast %"class.std::exception"* %10 to i32 (...)***
  store i32 (...)** bitcast (i8** getelementptr inbounds ([5 x i8*], [5 x i8*]* @_ZTVSt9exception, i32 0, i32 2) to i32 (...)**), i32 (...)*** %11, align 8
  %12 = bitcast %class.ParseError* %8 to i32 (...)***
  store i32 (...)** bitcast (i8** getelementptr inbounds ([5 x i8*], [5 x i8*]* @_ZTV10ParseError, i32 0, i32 2) to i32 (...)**), i32 (...)*** %12, align 8
  %13 = getelementptr inbounds %class.ParseError, %class.ParseError* %8, i32 0, i32 1
  %14 = load %"class.std::__1::basic_string"*, %"class.std::__1::basic_string"** %5, align 8
  invoke void @_ZNSt3__112basic_stringIcNS_11char_traitsIcEENS_9allocatorIcEEEC1ERKS5_(%"class.std::__1::basic_string"* %13, %"class.std::__1::basic_string"* dereferenceable(24) %14)
          to label %15 unwind label %16

; <label>:15:                                     ; preds = %2
  ret void

; <label>:16:                                     ; preds = %2
  %17 = landingpad { i8*, i32 }
          cleanup
  %18 = extractvalue { i8*, i32 } %17, 0
  store i8* %18, i8** %6, align 8
  %19 = extractvalue { i8*, i32 } %17, 1
  store i32 %19, i32* %7, align 4
  %20 = bitcast %class.ParseError* %8 to %"class.std::exception"*
  call void @_ZNSt9exceptionD2Ev(%"class.std::exception"* %20) #2
  br label %21

; <label>:21:                                     ; preds = %16
  %22 = load i8*, i8** %6, align 8
  %23 = load i32, i32* %7, align 4
  %24 = insertvalue { i8*, i32 } undef, i8* %22, 0
  %25 = insertvalue { i8*, i32 } %24, i32 %23, 1
  resume { i8*, i32 } %25
}

declare void @_ZNSt3__112basic_stringIcNS_11char_traitsIcEENS_9allocatorIcEEEC1ERKS5_(%"class.std::__1::basic_string"*, %"class.std::__1::basic_string"* dereferenceable(24)) unnamed_addr #3

; Function Attrs: nounwind
declare void @_ZNSt9exceptionD2Ev(%"class.std::exception"*) unnamed_addr #4

; Function Attrs: ssp uwtable
define void @_ZN10ParseErrorC1ERKNSt3__112basic_stringIcNS0_11char_traitsIcEENS0_9allocatorIcEEEE(%class.ParseError*, %"class.std::__1::basic_string"* dereferenceable(24)) unnamed_addr #0 align 2 {
  %3 = alloca %class.ParseError*, align 8
  %4 = alloca %"class.std::__1::basic_string"*, align 8
  store %class.ParseError* %0, %class.ParseError** %3, align 8
  store %"class.std::__1::basic_string"* %1, %"class.std::__1::basic_string"** %4, align 8
  %5 = load %class.ParseError*, %class.ParseError** %3, align 8
  %6 = load %"class.std::__1::basic_string"*, %"class.std::__1::basic_string"** %4, align 8
  call void @_ZN10ParseErrorC2ERKNSt3__112basic_stringIcNS0_11char_traitsIcEENS0_9allocatorIcEEEE(%class.ParseError* %5, %"class.std::__1::basic_string"* dereferenceable(24) %6)
  ret void
}

; Function Attrs: ssp uwtable
define void @_ZN10ParseError5raiseE11ParseErrorsNSt3__112basic_stringIcNS1_11char_traitsIcEENS1_9allocatorIcEEEEP5Lexer(i32, %"class.std::__1::basic_string"*, %class.Lexer*) #0 align 2 personality i8* bitcast (i32 (...)* @__gxx_personality_v0 to i8*) {
  %4 = alloca %"class.std::__1::__libcpp_compressed_pair_imp.3"*, align 8
  %5 = alloca %"class.std::__1::__compressed_pair.2"*, align 8
  %6 = alloca %"class.std::__1::basic_string"*, align 8
  %7 = alloca %"class.std::__1::__libcpp_compressed_pair_imp.3"*, align 8
  %8 = alloca %"class.std::__1::__compressed_pair.2"*, align 8
  %9 = alloca %"class.std::__1::basic_string"*, align 8
  %10 = alloca %"class.std::__1::__libcpp_compressed_pair_imp.3"*, align 8
  %11 = alloca %"class.std::__1::__compressed_pair.2"*, align 8
  %12 = alloca %"class.std::__1::basic_string"*, align 8
  %13 = alloca %"class.std::__1::basic_string"*, align 8
  %14 = alloca %"class.std::__1::basic_string"*, align 8
  %15 = alloca %"class.std::__1::__libcpp_compressed_pair_imp.3"*, align 8
  %16 = alloca %"class.std::__1::__compressed_pair.2"*, align 8
  %17 = alloca %"class.std::__1::basic_string"*, align 8
  %18 = alloca i8*, align 8
  %19 = alloca i8*, align 8
  %20 = alloca %"class.std::__1::__libcpp_compressed_pair_imp.3"*, align 8
  %21 = alloca %"class.std::__1::__compressed_pair.2"*, align 8
  %22 = alloca %"class.std::__1::basic_string"*, align 8
  %23 = alloca %"class.std::__1::__libcpp_compressed_pair_imp.3"*, align 8
  %24 = alloca %"class.std::__1::__compressed_pair.2"*, align 8
  %25 = alloca %"class.std::__1::basic_string"*, align 8
  %26 = alloca %"class.std::__1::basic_string"*, align 8
  %27 = alloca %"class.std::__1::basic_string"*, align 8
  %28 = alloca i64, align 8
  %29 = alloca %"class.std::__1::__libcpp_compressed_pair_imp.3"*, align 8
  %30 = alloca %"class.std::__1::__compressed_pair.2"*, align 8
  %31 = alloca %"class.std::__1::basic_string"*, align 8
  %32 = alloca %"class.std::__1::__libcpp_compressed_pair_imp.3"*, align 8
  %33 = alloca %"class.std::__1::__compressed_pair.2"*, align 8
  %34 = alloca %"class.std::__1::basic_string"*, align 8
  %35 = alloca %"class.std::__1::__libcpp_compressed_pair_imp.3"*, align 8
  %36 = alloca %"class.std::__1::__compressed_pair.2"*, align 8
  %37 = alloca %"class.std::__1::basic_string"*, align 8
  %38 = alloca %"class.std::__1::basic_string"*, align 8
  %39 = alloca %"class.std::__1::basic_string"*, align 8
  %40 = alloca %"class.std::__1::__libcpp_compressed_pair_imp.3"*, align 8
  %41 = alloca %"class.std::__1::__compressed_pair.2"*, align 8
  %42 = alloca %"class.std::__1::basic_string"*, align 8
  %43 = alloca [3 x i64]*, align 8
  %44 = alloca i32, align 4
  %45 = alloca %"class.std::__1::__compressed_pair.2"*, align 8
  %46 = alloca %"class.std::__1::basic_string"*, align 8
  %47 = alloca %"class.std::__1::basic_string"*, align 8
  %48 = alloca %"class.std::__1::basic_string"*, align 8
  %49 = alloca %"class.std::__1::basic_string"*, align 8
  %50 = alloca %"class.std::__1::basic_string"*, align 8
  %51 = alloca %"class.std::__1::basic_string"*, align 8
  %52 = alloca i8*, align 8
  %53 = alloca %"class.std::__1::__libcpp_compressed_pair_imp.3"*, align 8
  %54 = alloca %"class.std::__1::__compressed_pair.2"*, align 8
  %55 = alloca %"class.std::__1::basic_string"*, align 8
  %56 = alloca [3 x i64]*, align 8
  %57 = alloca i32, align 4
  %58 = alloca %"class.std::__1::__compressed_pair.2"*, align 8
  %59 = alloca %"class.std::__1::basic_string"*, align 8
  %60 = alloca %"class.std::__1::basic_string"*, align 8
  %61 = alloca %"class.std::__1::basic_string"*, align 8
  %62 = alloca %"class.std::__1::basic_string"*, align 8
  %63 = alloca %"class.std::__1::basic_string"*, align 8
  %64 = alloca %"class.std::__1::__libcpp_compressed_pair_imp.3"*, align 8
  %65 = alloca %"class.std::__1::__compressed_pair.2"*, align 8
  %66 = alloca %"class.std::__1::basic_string"*, align 8
  %67 = alloca %"class.std::__1::__libcpp_compressed_pair_imp.3"*, align 8
  %68 = alloca %"class.std::__1::__compressed_pair.2"*, align 8
  %69 = alloca %"class.std::__1::basic_string"*, align 8
  %70 = alloca %"class.std::__1::__libcpp_compressed_pair_imp.3"*, align 8
  %71 = alloca %"class.std::__1::__compressed_pair.2"*, align 8
  %72 = alloca %"class.std::__1::basic_string"*, align 8
  %73 = alloca %"class.std::__1::basic_string"*, align 8
  %74 = alloca i8*, align 8
  %75 = alloca %"class.std::__1::__libcpp_compressed_pair_imp.3"*, align 8
  %76 = alloca %"class.std::__1::__compressed_pair.2"*, align 8
  %77 = alloca %"class.std::__1::basic_string"*, align 8
  %78 = alloca i8*, align 8
  %79 = alloca i8*, align 8
  %80 = alloca %"class.std::__1::__libcpp_compressed_pair_imp.3"*, align 8
  %81 = alloca %"class.std::__1::__compressed_pair.2"*, align 8
  %82 = alloca %"class.std::__1::basic_string"*, align 8
  %83 = alloca %"class.std::__1::__libcpp_compressed_pair_imp.3"*, align 8
  %84 = alloca %"class.std::__1::__compressed_pair.2"*, align 8
  %85 = alloca %"class.std::__1::basic_string"*, align 8
  %86 = alloca %"class.std::__1::basic_string"*, align 8
  %87 = alloca %"class.std::__1::basic_string"*, align 8
  %88 = alloca %"class.std::__1::basic_string"*, align 8
  %89 = alloca i64, align 8
  %90 = alloca %"class.std::__1::basic_string"*, align 8
  %91 = alloca %"class.std::__1::basic_string"*, align 8
  %92 = alloca %"class.std::__1::basic_string"*, align 8
  %93 = alloca %"class.std::__1::__libcpp_compressed_pair_imp.3"*, align 8
  %94 = alloca %"class.std::__1::__compressed_pair.2"*, align 8
  %95 = alloca %"class.std::__1::basic_string"*, align 8
  %96 = alloca %"class.std::__1::basic_string"*, align 8
  %97 = alloca i64, align 8
  %98 = alloca i64, align 8
  %99 = alloca %"class.std::__1::__libcpp_compressed_pair_imp.3"*, align 8
  %100 = alloca %"class.std::__1::__compressed_pair.2"*, align 8
  %101 = alloca %"class.std::__1::basic_string"*, align 8
  %102 = alloca [3 x i64]*, align 8
  %103 = alloca i32, align 4
  %104 = alloca %"class.std::__1::__compressed_pair.2"*, align 8
  %105 = alloca %"class.std::__1::basic_string"*, align 8
  %106 = alloca %"class.std::__1::basic_string"*, align 8
  %107 = alloca %"class.std::__1::basic_string"*, align 8
  %108 = alloca %"class.std::__1::basic_string"*, align 8
  %109 = alloca %"class.std::__1::basic_string"*, align 8
  %110 = alloca %"class.std::__1::basic_string"*, align 8
  %111 = alloca i8*, align 8
  %112 = alloca %"class.std::__1::__libcpp_compressed_pair_imp.3"*, align 8
  %113 = alloca %"class.std::__1::__compressed_pair.2"*, align 8
  %114 = alloca %"class.std::__1::basic_string"*, align 8
  %115 = alloca [3 x i64]*, align 8
  %116 = alloca i32, align 4
  %117 = alloca %"class.std::__1::__libcpp_compressed_pair_imp.3"*, align 8
  %118 = alloca %"class.std::__1::__compressed_pair.2"*, align 8
  %119 = alloca %"class.std::__1::basic_string"*, align 8
  %120 = alloca %"class.std::__1::allocator.4"*, align 8
  %121 = alloca %"class.std::__1::__libcpp_compressed_pair_imp.3"*, align 8
  %122 = alloca %"class.std::__1::__compressed_pair.2"*, align 8
  %123 = alloca %"class.std::__1::basic_string"*, align 8
  %124 = alloca %"struct.std::__1::integral_constant.73", align 1
  %125 = alloca %"class.std::__1::basic_string"*, align 8
  %126 = alloca %"class.std::__1::basic_string"*, align 8
  %127 = alloca %"class.std::__1::basic_string"*, align 8
  %128 = alloca %"class.std::__1::basic_string"*, align 8
  %129 = alloca %"struct.std::__1::integral_constant.73", align 1
  %130 = alloca %"class.std::__1::__libcpp_compressed_pair_imp.3"*, align 8
  %131 = alloca %"class.std::__1::__compressed_pair.2"*, align 8
  %132 = alloca %"class.std::__1::__libcpp_compressed_pair_imp.3"*, align 8
  %133 = alloca %"class.std::__1::__compressed_pair.2"*, align 8
  %134 = alloca %"class.std::__1::basic_string"*, align 8
  %135 = alloca %"class.std::__1::__libcpp_compressed_pair_imp.3"*, align 8
  %136 = alloca %"class.std::__1::__compressed_pair.2"*, align 8
  %137 = alloca %"class.std::__1::basic_string"*, align 8
  %138 = alloca i64, align 8
  %139 = alloca i8*, align 8
  %140 = alloca i8*, align 8
  %141 = alloca %"class.std::__1::__libcpp_compressed_pair_imp.3"*, align 8
  %142 = alloca %"class.std::__1::__compressed_pair.2"*, align 8
  %143 = alloca %"class.std::__1::basic_string"*, align 8
  %144 = alloca %"class.std::__1::__libcpp_compressed_pair_imp.3"*, align 8
  %145 = alloca %"class.std::__1::__compressed_pair.2"*, align 8
  %146 = alloca %"class.std::__1::basic_string"*, align 8
  %147 = alloca %"class.std::__1::__libcpp_compressed_pair_imp.3"*, align 8
  %148 = alloca %"class.std::__1::__compressed_pair.2"*, align 8
  %149 = alloca %"class.std::__1::basic_string"*, align 8
  %150 = alloca i64, align 8
  %151 = alloca %"class.std::__1::__libcpp_compressed_pair_imp.3"*, align 8
  %152 = alloca %"class.std::__1::__compressed_pair.2"*, align 8
  %153 = alloca %"class.std::__1::basic_string"*, align 8
  %154 = alloca %"class.std::__1::basic_string"*, align 8
  %155 = alloca %"class.std::__1::basic_string"*, align 8
  %156 = alloca i8, align 1
  %157 = alloca i8, align 1
  %158 = alloca %"struct.std::__1::integral_constant.73", align 1
  %159 = alloca %"class.std::__1::basic_string"*, align 8
  %160 = alloca %"class.std::__1::basic_string"*, align 8
  %161 = alloca %"class.std::__1::basic_string"*, align 8
  %162 = alloca %"class.std::__1::basic_string"*, align 8
  %163 = alloca %"struct.std::__1::integral_constant.73", align 1
  %164 = alloca %"class.std::__1::__libcpp_compressed_pair_imp.3"*, align 8
  %165 = alloca %"class.std::__1::__compressed_pair.2"*, align 8
  %166 = alloca %"class.std::__1::basic_string"*, align 8
  %167 = alloca %"class.std::__1::basic_string"*, align 8
  %168 = alloca i64, align 8
  %169 = alloca i64, align 8
  %170 = alloca %"class.std::__1::__libcpp_compressed_pair_imp.3"*, align 8
  %171 = alloca %"class.std::__1::__compressed_pair.2"*, align 8
  %172 = alloca %"class.std::__1::basic_string"*, align 8
  %173 = alloca %"class.std::__1::__libcpp_compressed_pair_imp.3"*, align 8
  %174 = alloca %"class.std::__1::__compressed_pair.2"*, align 8
  %175 = alloca %"class.std::__1::basic_string"*, align 8
  %176 = alloca %"class.std::__1::__libcpp_compressed_pair_imp.3"*, align 8
  %177 = alloca %"class.std::__1::__compressed_pair.2"*, align 8
  %178 = alloca %"class.std::__1::basic_string"*, align 8
  %179 = alloca %"class.std::__1::basic_string"*, align 8
  %180 = alloca %"class.std::__1::basic_string"*, align 8
  %181 = alloca %"class.std::__1::__libcpp_compressed_pair_imp.3"*, align 8
  %182 = alloca %"class.std::__1::__compressed_pair.2"*, align 8
  %183 = alloca %"class.std::__1::basic_string"*, align 8
  %184 = alloca i8*, align 8
  %185 = alloca i8*, align 8
  %186 = alloca %"class.std::__1::__libcpp_compressed_pair_imp.3"*, align 8
  %187 = alloca %"class.std::__1::__compressed_pair.2"*, align 8
  %188 = alloca %"class.std::__1::basic_string"*, align 8
  %189 = alloca %"class.std::__1::__libcpp_compressed_pair_imp.3"*, align 8
  %190 = alloca %"class.std::__1::__compressed_pair.2"*, align 8
  %191 = alloca %"class.std::__1::basic_string"*, align 8
  %192 = alloca %"class.std::__1::basic_string"*, align 8
  %193 = alloca %"class.std::__1::basic_string"*, align 8
  %194 = alloca i64, align 8
  %195 = alloca %"class.std::__1::__libcpp_compressed_pair_imp.3"*, align 8
  %196 = alloca %"class.std::__1::__compressed_pair.2"*, align 8
  %197 = alloca %"class.std::__1::basic_string"*, align 8
  %198 = alloca %"class.std::__1::__libcpp_compressed_pair_imp.3"*, align 8
  %199 = alloca %"class.std::__1::__compressed_pair.2"*, align 8
  %200 = alloca %"class.std::__1::basic_string"*, align 8
  %201 = alloca %"class.std::__1::__libcpp_compressed_pair_imp.3"*, align 8
  %202 = alloca %"class.std::__1::__compressed_pair.2"*, align 8
  %203 = alloca %"class.std::__1::basic_string"*, align 8
  %204 = alloca %"class.std::__1::basic_string"*, align 8
  %205 = alloca %"class.std::__1::basic_string"*, align 8
  %206 = alloca %"class.std::__1::__libcpp_compressed_pair_imp.3"*, align 8
  %207 = alloca %"class.std::__1::__compressed_pair.2"*, align 8
  %208 = alloca %"class.std::__1::basic_string"*, align 8
  %209 = alloca [3 x i64]*, align 8
  %210 = alloca i32, align 4
  %211 = alloca %"class.std::__1::__libcpp_compressed_pair_imp.3"*, align 8
  %212 = alloca %"class.std::__1::__compressed_pair.2"*, align 8
  %213 = alloca %"class.std::__1::basic_string"*, align 8
  %214 = alloca %"class.std::__1::allocator.4"*, align 8
  %215 = alloca %"class.std::__1::__libcpp_compressed_pair_imp.3"*, align 8
  %216 = alloca %"class.std::__1::__compressed_pair.2"*, align 8
  %217 = alloca %"class.std::__1::basic_string"*, align 8
  %218 = alloca %"struct.std::__1::integral_constant.73", align 1
  %219 = alloca %"class.std::__1::basic_string"*, align 8
  %220 = alloca %"class.std::__1::basic_string"*, align 8
  %221 = alloca %"class.std::__1::basic_string"*, align 8
  %222 = alloca %"class.std::__1::basic_string"*, align 8
  %223 = alloca %"struct.std::__1::integral_constant.73", align 1
  %224 = alloca %"class.std::__1::__libcpp_compressed_pair_imp.3"*, align 8
  %225 = alloca %"class.std::__1::__compressed_pair.2"*, align 8
  %226 = alloca %"class.std::__1::__libcpp_compressed_pair_imp.3"*, align 8
  %227 = alloca %"class.std::__1::__compressed_pair.2"*, align 8
  %228 = alloca %"class.std::__1::basic_string"*, align 8
  %229 = alloca %"class.std::__1::__libcpp_compressed_pair_imp.3"*, align 8
  %230 = alloca %"class.std::__1::__compressed_pair.2"*, align 8
  %231 = alloca %"class.std::__1::basic_string"*, align 8
  %232 = alloca i64, align 8
  %233 = alloca i8*, align 8
  %234 = alloca i8*, align 8
  %235 = alloca %"class.std::__1::__libcpp_compressed_pair_imp.3"*, align 8
  %236 = alloca %"class.std::__1::__compressed_pair.2"*, align 8
  %237 = alloca %"class.std::__1::basic_string"*, align 8
  %238 = alloca %"class.std::__1::__libcpp_compressed_pair_imp.3"*, align 8
  %239 = alloca %"class.std::__1::__compressed_pair.2"*, align 8
  %240 = alloca %"class.std::__1::basic_string"*, align 8
  %241 = alloca %"class.std::__1::__libcpp_compressed_pair_imp.3"*, align 8
  %242 = alloca %"class.std::__1::__compressed_pair.2"*, align 8
  %243 = alloca %"class.std::__1::basic_string"*, align 8
  %244 = alloca i64, align 8
  %245 = alloca %"class.std::__1::__libcpp_compressed_pair_imp.3"*, align 8
  %246 = alloca %"class.std::__1::__compressed_pair.2"*, align 8
  %247 = alloca %"class.std::__1::basic_string"*, align 8
  %248 = alloca %"class.std::__1::basic_string"*, align 8
  %249 = alloca %"class.std::__1::basic_string"*, align 8
  %250 = alloca i8, align 1
  %251 = alloca i8, align 1
  %252 = alloca %"struct.std::__1::integral_constant.73", align 1
  %253 = alloca %"class.std::__1::basic_string"*, align 8
  %254 = alloca %"class.std::__1::basic_string"*, align 8
  %255 = alloca %"class.std::__1::basic_string"*, align 8
  %256 = alloca %"class.std::__1::basic_string"*, align 8
  %257 = alloca %"struct.std::__1::integral_constant.73", align 1
  %258 = alloca %"class.std::__1::__libcpp_compressed_pair_imp.3"*, align 8
  %259 = alloca %"class.std::__1::__compressed_pair.2"*, align 8
  %260 = alloca %"class.std::__1::basic_string"*, align 8
  %261 = alloca %"class.std::__1::basic_string"*, align 8
  %262 = alloca i64, align 8
  %263 = alloca i64, align 8
  %264 = alloca %"class.std::__1::basic_string"*, align 8
  %265 = alloca i8*, align 8
  %266 = alloca %"class.std::__1::__libcpp_compressed_pair_imp.3"*, align 8
  %267 = alloca %"class.std::__1::__compressed_pair.2"*, align 8
  %268 = alloca %"class.std::__1::basic_string"*, align 8
  %269 = alloca i8*, align 8
  %270 = alloca i8*, align 8
  %271 = alloca %"class.std::__1::__libcpp_compressed_pair_imp.3"*, align 8
  %272 = alloca %"class.std::__1::__compressed_pair.2"*, align 8
  %273 = alloca %"class.std::__1::basic_string"*, align 8
  %274 = alloca %"class.std::__1::__libcpp_compressed_pair_imp.3"*, align 8
  %275 = alloca %"class.std::__1::__compressed_pair.2"*, align 8
  %276 = alloca %"class.std::__1::basic_string"*, align 8
  %277 = alloca %"class.std::__1::basic_string"*, align 8
  %278 = alloca %"class.std::__1::basic_string"*, align 8
  %279 = alloca i64, align 8
  %280 = alloca %"class.std::__1::__libcpp_compressed_pair_imp.3"*, align 8
  %281 = alloca %"class.std::__1::__compressed_pair.2"*, align 8
  %282 = alloca %"class.std::__1::basic_string"*, align 8
  %283 = alloca %"class.std::__1::basic_string"*, align 8
  %284 = alloca i64, align 8
  %285 = alloca i64, align 8
  %286 = alloca %"class.std::__1::basic_string"*, align 8
  %287 = alloca i8*, align 8
  %288 = alloca %"class.std::__1::__libcpp_compressed_pair_imp.3"*, align 8
  %289 = alloca %"class.std::__1::__compressed_pair.2"*, align 8
  %290 = alloca %"class.std::__1::basic_string"*, align 8
  %291 = alloca %"class.std::__1::__libcpp_compressed_pair_imp.3"*, align 8
  %292 = alloca %"class.std::__1::__compressed_pair.2"*, align 8
  %293 = alloca %"class.std::__1::basic_string"*, align 8
  %294 = alloca %"class.std::__1::__libcpp_compressed_pair_imp.3"*, align 8
  %295 = alloca %"class.std::__1::__compressed_pair.2"*, align 8
  %296 = alloca %"class.std::__1::basic_string"*, align 8
  %297 = alloca %"class.std::__1::basic_string"*, align 8
  %298 = alloca %"class.std::__1::basic_string"*, align 8
  %299 = alloca %"class.std::__1::__libcpp_compressed_pair_imp.3"*, align 8
  %300 = alloca %"class.std::__1::__compressed_pair.2"*, align 8
  %301 = alloca %"class.std::__1::basic_string"*, align 8
  %302 = alloca %"class.std::__1::__libcpp_compressed_pair_imp.3"*, align 8
  %303 = alloca %"class.std::__1::__compressed_pair.2"*, align 8
  %304 = alloca %"class.std::__1::basic_string"*, align 8
  %305 = alloca %"class.std::__1::__libcpp_compressed_pair_imp.3"*, align 8
  %306 = alloca %"class.std::__1::__compressed_pair.2"*, align 8
  %307 = alloca %"class.std::__1::basic_string"*, align 8
  %308 = alloca %"class.std::__1::basic_string"*, align 8
  %309 = alloca i8*, align 8
  %310 = alloca %"class.std::__1::__libcpp_compressed_pair_imp.3"*, align 8
  %311 = alloca %"class.std::__1::__compressed_pair.2"*, align 8
  %312 = alloca %"class.std::__1::basic_string"*, align 8
  %313 = alloca i8*, align 8
  %314 = alloca i8*, align 8
  %315 = alloca %"class.std::__1::__libcpp_compressed_pair_imp.3"*, align 8
  %316 = alloca %"class.std::__1::__compressed_pair.2"*, align 8
  %317 = alloca %"class.std::__1::basic_string"*, align 8
  %318 = alloca %"class.std::__1::__libcpp_compressed_pair_imp.3"*, align 8
  %319 = alloca %"class.std::__1::__compressed_pair.2"*, align 8
  %320 = alloca %"class.std::__1::basic_string"*, align 8
  %321 = alloca %"class.std::__1::basic_string"*, align 8
  %322 = alloca %"class.std::__1::basic_string"*, align 8
  %323 = alloca %"class.std::__1::basic_string"*, align 8
  %324 = alloca %"class.std::__1::basic_string"*, align 8
  %325 = alloca %"class.std::__1::basic_string"*, align 8
  %326 = alloca %"class.std::__1::basic_string"*, align 8
  %327 = alloca %"class.std::__1::__libcpp_compressed_pair_imp.3"*, align 8
  %328 = alloca %"class.std::__1::__compressed_pair.2"*, align 8
  %329 = alloca %"class.std::__1::basic_string"*, align 8
  %330 = alloca i8*, align 8
  %331 = alloca i8*, align 8
  %332 = alloca %"class.std::__1::__libcpp_compressed_pair_imp.3"*, align 8
  %333 = alloca %"class.std::__1::__compressed_pair.2"*, align 8
  %334 = alloca %"class.std::__1::basic_string"*, align 8
  %335 = alloca %"class.std::__1::__libcpp_compressed_pair_imp.3"*, align 8
  %336 = alloca %"class.std::__1::__compressed_pair.2"*, align 8
  %337 = alloca %"class.std::__1::basic_string"*, align 8
  %338 = alloca %"class.std::__1::basic_string"*, align 8
  %339 = alloca %"class.std::__1::basic_string"*, align 8
  %340 = alloca i64, align 8
  %341 = alloca %"class.std::__1::__libcpp_compressed_pair_imp.3"*, align 8
  %342 = alloca %"class.std::__1::__compressed_pair.2"*, align 8
  %343 = alloca %"class.std::__1::basic_string"*, align 8
  %344 = alloca i8*, align 8
  %345 = alloca i8*, align 8
  %346 = alloca %"class.std::__1::__libcpp_compressed_pair_imp.3"*, align 8
  %347 = alloca %"class.std::__1::__compressed_pair.2"*, align 8
  %348 = alloca %"class.std::__1::basic_string"*, align 8
  %349 = alloca %"class.std::__1::__libcpp_compressed_pair_imp.3"*, align 8
  %350 = alloca %"class.std::__1::__compressed_pair.2"*, align 8
  %351 = alloca %"class.std::__1::basic_string"*, align 8
  %352 = alloca %"class.std::__1::basic_string"*, align 8
  %353 = alloca %"class.std::__1::basic_string"*, align 8
  %354 = alloca i64, align 8
  %355 = alloca %"class.std::__1::__libcpp_compressed_pair_imp.3"*, align 8
  %356 = alloca %"class.std::__1::__compressed_pair.2"*, align 8
  %357 = alloca %"class.std::__1::basic_string"*, align 8
  %358 = alloca %"class.std::__1::__libcpp_compressed_pair_imp.3"*, align 8
  %359 = alloca %"class.std::__1::__compressed_pair.2"*, align 8
  %360 = alloca %"class.std::__1::basic_string"*, align 8
  %361 = alloca %"class.std::__1::__libcpp_compressed_pair_imp.3"*, align 8
  %362 = alloca %"class.std::__1::__compressed_pair.2"*, align 8
  %363 = alloca %"class.std::__1::basic_string"*, align 8
  %364 = alloca %"class.std::__1::basic_string"*, align 8
  %365 = alloca i8*, align 8
  %366 = alloca %"class.std::__1::__libcpp_compressed_pair_imp.3"*, align 8
  %367 = alloca %"class.std::__1::__compressed_pair.2"*, align 8
  %368 = alloca %"class.std::__1::basic_string"*, align 8
  %369 = alloca i8*, align 8
  %370 = alloca i8*, align 8
  %371 = alloca %"class.std::__1::__libcpp_compressed_pair_imp.3"*, align 8
  %372 = alloca %"class.std::__1::__compressed_pair.2"*, align 8
  %373 = alloca %"class.std::__1::basic_string"*, align 8
  %374 = alloca %"class.std::__1::__libcpp_compressed_pair_imp.3"*, align 8
  %375 = alloca %"class.std::__1::__compressed_pair.2"*, align 8
  %376 = alloca %"class.std::__1::basic_string"*, align 8
  %377 = alloca %"class.std::__1::basic_string"*, align 8
  %378 = alloca %"class.std::__1::basic_string"*, align 8
  %379 = alloca %"class.std::__1::basic_string"*, align 8
  %380 = alloca %"class.std::__1::basic_string"*, align 8
  %381 = alloca %"class.std::__1::basic_string"*, align 8
  %382 = alloca %"class.std::__1::basic_string"*, align 8
  %383 = alloca %"class.std::__1::__libcpp_compressed_pair_imp.3"*, align 8
  %384 = alloca %"class.std::__1::__compressed_pair.2"*, align 8
  %385 = alloca %"class.std::__1::basic_string"*, align 8
  %386 = alloca [3 x i64]*, align 8
  %387 = alloca i32, align 4
  %388 = alloca %"class.std::__1::__compressed_pair.2"*, align 8
  %389 = alloca %"class.std::__1::basic_string"*, align 8
  %390 = alloca %"class.std::__1::basic_string"*, align 8
  %391 = alloca %"class.std::__1::basic_string"*, align 8
  %392 = alloca %"class.std::__1::basic_string"*, align 8
  %393 = alloca %"class.std::__1::basic_string"*, align 8
  %394 = alloca %"class.std::__1::basic_string"*, align 8
  %395 = alloca i8*, align 8
  %396 = alloca %"class.std::__1::__libcpp_compressed_pair_imp.3"*, align 8
  %397 = alloca %"class.std::__1::__compressed_pair.2"*, align 8
  %398 = alloca %"class.std::__1::basic_string"*, align 8
  %399 = alloca [3 x i64]*, align 8
  %400 = alloca i32, align 4
  %401 = alloca %"class.std::__1::__compressed_pair.2"*, align 8
  %402 = alloca %"class.std::__1::basic_string"*, align 8
  %403 = alloca %"class.std::__1::basic_string"*, align 8
  %404 = alloca %"class.std::__1::basic_string"*, align 8
  %405 = alloca %"class.std::__1::basic_string"*, align 8
  %406 = alloca %"class.std::__1::basic_string"*, align 8
  %407 = alloca %"class.std::__1::__libcpp_compressed_pair_imp.3"*, align 8
  %408 = alloca %"class.std::__1::__compressed_pair.2"*, align 8
  %409 = alloca %"class.std::__1::basic_string"*, align 8
  %410 = alloca %"class.std::__1::__libcpp_compressed_pair_imp.3"*, align 8
  %411 = alloca %"class.std::__1::__compressed_pair.2"*, align 8
  %412 = alloca %"class.std::__1::basic_string"*, align 8
  %413 = alloca %"class.std::__1::__libcpp_compressed_pair_imp.3"*, align 8
  %414 = alloca %"class.std::__1::__compressed_pair.2"*, align 8
  %415 = alloca %"class.std::__1::basic_string"*, align 8
  %416 = alloca %"class.std::__1::basic_string"*, align 8
  %417 = alloca i8*, align 8
  %418 = alloca %"class.std::__1::__libcpp_compressed_pair_imp.3"*, align 8
  %419 = alloca %"class.std::__1::__compressed_pair.2"*, align 8
  %420 = alloca %"class.std::__1::basic_string"*, align 8
  %421 = alloca i8*, align 8
  %422 = alloca i8*, align 8
  %423 = alloca %"class.std::__1::__libcpp_compressed_pair_imp.3"*, align 8
  %424 = alloca %"class.std::__1::__compressed_pair.2"*, align 8
  %425 = alloca %"class.std::__1::basic_string"*, align 8
  %426 = alloca %"class.std::__1::__libcpp_compressed_pair_imp.3"*, align 8
  %427 = alloca %"class.std::__1::__compressed_pair.2"*, align 8
  %428 = alloca %"class.std::__1::basic_string"*, align 8
  %429 = alloca %"class.std::__1::basic_string"*, align 8
  %430 = alloca %"class.std::__1::basic_string"*, align 8
  %431 = alloca %"class.std::__1::basic_string"*, align 8
  %432 = alloca %"class.std::__1::basic_string"*, align 8
  %433 = alloca %"class.std::__1::basic_string"*, align 8
  %434 = alloca %"class.std::__1::basic_string"*, align 8
  %435 = alloca %"class.std::__1::__libcpp_compressed_pair_imp.3"*, align 8
  %436 = alloca %"class.std::__1::__compressed_pair.2"*, align 8
  %437 = alloca %"class.std::__1::basic_string"*, align 8
  %438 = alloca [3 x i64]*, align 8
  %439 = alloca i32, align 4
  %440 = alloca %"class.std::__1::__compressed_pair.2"*, align 8
  %441 = alloca %"class.std::__1::basic_string"*, align 8
  %442 = alloca %"class.std::__1::basic_string"*, align 8
  %443 = alloca %"class.std::__1::basic_string"*, align 8
  %444 = alloca %"class.std::__1::basic_string"*, align 8
  %445 = alloca %"class.std::__1::basic_string"*, align 8
  %446 = alloca %"class.std::__1::basic_string"*, align 8
  %447 = alloca i8*, align 8
  %448 = alloca %"class.std::__1::__libcpp_compressed_pair_imp.3"*, align 8
  %449 = alloca %"class.std::__1::__compressed_pair.2"*, align 8
  %450 = alloca %"class.std::__1::basic_string"*, align 8
  %451 = alloca [3 x i64]*, align 8
  %452 = alloca i32, align 4
  %453 = alloca %"class.std::__1::__compressed_pair.2"*, align 8
  %454 = alloca %"class.std::__1::basic_string"*, align 8
  %455 = alloca %"class.std::__1::basic_string"*, align 8
  %456 = alloca %"class.std::__1::basic_string"*, align 8
  %457 = alloca %"class.std::__1::basic_string"*, align 8
  %458 = alloca %"class.std::__1::basic_string"*, align 8
  %459 = alloca i8*, align 8
  %460 = alloca %"class.std::__1::basic_string"*, align 8
  %461 = alloca %"class.std::__1::__libcpp_compressed_pair_imp.3"*, align 8
  %462 = alloca %"class.std::__1::__compressed_pair.2"*, align 8
  %463 = alloca %"class.std::__1::basic_string"*, align 8
  %464 = alloca i8*, align 8
  %465 = alloca i8*, align 8
  %466 = alloca %"class.std::__1::__libcpp_compressed_pair_imp.3"*, align 8
  %467 = alloca %"class.std::__1::__compressed_pair.2"*, align 8
  %468 = alloca %"class.std::__1::basic_string"*, align 8
  %469 = alloca %"class.std::__1::__libcpp_compressed_pair_imp.3"*, align 8
  %470 = alloca %"class.std::__1::__compressed_pair.2"*, align 8
  %471 = alloca %"class.std::__1::basic_string"*, align 8
  %472 = alloca %"class.std::__1::basic_string"*, align 8
  %473 = alloca %"class.std::__1::basic_string"*, align 8
  %474 = alloca i64, align 8
  %475 = alloca %"class.std::__1::__libcpp_compressed_pair_imp.3"*, align 8
  %476 = alloca %"class.std::__1::__compressed_pair.2"*, align 8
  %477 = alloca %"class.std::__1::basic_string"*, align 8
  %478 = alloca [3 x i64]*, align 8
  %479 = alloca i32, align 4
  %480 = alloca %"class.std::__1::__compressed_pair.2"*, align 8
  %481 = alloca %"class.std::__1::basic_string"*, align 8
  %482 = alloca %"class.std::__1::basic_string"*, align 8
  %483 = alloca %"class.std::__1::basic_string"*, align 8
  %484 = alloca %"class.std::__1::basic_string"*, align 8
  %485 = alloca %"class.std::__1::basic_string"*, align 8
  %486 = alloca %"class.std::__1::__libcpp_compressed_pair_imp.3"*, align 8
  %487 = alloca %"class.std::__1::__compressed_pair.2"*, align 8
  %488 = alloca %"class.std::__1::basic_string"*, align 8
  %489 = alloca %"class.std::__1::__libcpp_compressed_pair_imp.3"*, align 8
  %490 = alloca %"class.std::__1::__compressed_pair.2"*, align 8
  %491 = alloca %"class.std::__1::basic_string"*, align 8
  %492 = alloca %"class.std::__1::__libcpp_compressed_pair_imp.3"*, align 8
  %493 = alloca %"class.std::__1::__compressed_pair.2"*, align 8
  %494 = alloca %"class.std::__1::basic_string"*, align 8
  %495 = alloca %"class.std::__1::basic_string"*, align 8
  %496 = alloca i8*, align 8
  %497 = alloca %"class.std::__1::__libcpp_compressed_pair_imp.3"*, align 8
  %498 = alloca %"class.std::__1::__compressed_pair.2"*, align 8
  %499 = alloca %"class.std::__1::basic_string"*, align 8
  %500 = alloca i8*, align 8
  %501 = alloca i8*, align 8
  %502 = alloca %"class.std::__1::__libcpp_compressed_pair_imp.3"*, align 8
  %503 = alloca %"class.std::__1::__compressed_pair.2"*, align 8
  %504 = alloca %"class.std::__1::basic_string"*, align 8
  %505 = alloca %"class.std::__1::__libcpp_compressed_pair_imp.3"*, align 8
  %506 = alloca %"class.std::__1::__compressed_pair.2"*, align 8
  %507 = alloca %"class.std::__1::basic_string"*, align 8
  %508 = alloca %"class.std::__1::basic_string"*, align 8
  %509 = alloca %"class.std::__1::basic_string"*, align 8
  %510 = alloca %"class.std::__1::basic_string"*, align 8
  %511 = alloca %"class.std::__1::basic_string"*, align 8
  %512 = alloca %"class.std::__1::basic_string"*, align 8
  %513 = alloca %"class.std::__1::basic_string"*, align 8
  %514 = alloca %"class.std::__1::__libcpp_compressed_pair_imp.3"*, align 8
  %515 = alloca %"class.std::__1::__compressed_pair.2"*, align 8
  %516 = alloca %"class.std::__1::basic_string"*, align 8
  %517 = alloca [3 x i64]*, align 8
  %518 = alloca i32, align 4
  %519 = alloca %"class.std::__1::__compressed_pair.2"*, align 8
  %520 = alloca %"class.std::__1::basic_string"*, align 8
  %521 = alloca %"class.std::__1::basic_string"*, align 8
  %522 = alloca %"class.std::__1::basic_string"*, align 8
  %523 = alloca %"class.std::__1::basic_string"*, align 8
  %524 = alloca %"class.std::__1::basic_string"*, align 8
  %525 = alloca %"class.std::__1::basic_string"*, align 8
  %526 = alloca i8*, align 8
  %527 = alloca i32, align 4
  %528 = alloca %class.Lexer*, align 8
  %529 = alloca %"class.std::__1::basic_string", align 8
  %530 = alloca %"class.std::__1::basic_string", align 8
  %531 = alloca %"class.std::__1::basic_string", align 8
  %532 = alloca i8*
  %533 = alloca i32
  %534 = alloca %"class.std::__1::basic_string", align 8
  %535 = alloca i32, align 4
  %536 = alloca i32, align 4
  %537 = alloca i32, align 4
  %538 = alloca i32, align 4
  %539 = alloca i32, align 4
  %540 = alloca %"class.std::__1::basic_string", align 8
  %541 = alloca %"class.std::__1::basic_string", align 8
  %542 = alloca %"class.std::__1::basic_string", align 8
  %543 = alloca %"class.std::__1::basic_string", align 8
  %544 = alloca %"class.std::__1::basic_string", align 8
  %545 = alloca %"class.std::__1::basic_string", align 8
  %546 = alloca i32, align 4
  %547 = alloca i32, align 4
  %548 = alloca %"class.std::__1::basic_string", align 8
  %549 = alloca %"class.std::__1::basic_string", align 8
  %550 = alloca %"class.std::__1::basic_string", align 8
  %551 = alloca %"class.std::__1::basic_string", align 8
  %552 = alloca %"class.std::__1::basic_string", align 8
  %553 = alloca %"class.std::__1::basic_string", align 8
  %554 = alloca %"class.std::__1::basic_string", align 8
  %555 = alloca %"class.std::__1::basic_string", align 8
  %556 = alloca i32, align 4
  %557 = alloca %"class.std::__1::basic_string", align 8
  %558 = alloca i1, align 1
  store i32 %0, i32* %527, align 4
  store %class.Lexer* %2, %class.Lexer** %528, align 8
  %559 = call dereferenceable(24) %"class.std::__1::basic_string"* @_ZNSt3__13mapI11ParseErrorsNS_12basic_stringIcNS_11char_traitsIcEENS_9allocatorIcEEEENS_4lessIS1_EENS5_INS_4pairIKS1_S7_EEEEEixERSB_(%"class.std::__1::map"* @_parse_errors, i32* dereferenceable(4) %527)
  call void @_ZNSt3__1plIcNS_11char_traitsIcEENS_9allocatorIcEEEENS_12basic_stringIT_T0_T1_EEPKS6_RKS9_(%"class.std::__1::basic_string"* sret %531, i8* getelementptr inbounds ([9 x i8], [9 x i8]* @.str.15, i32 0, i32 0), %"class.std::__1::basic_string"* dereferenceable(24) %559)
  store %"class.std::__1::basic_string"* %531, %"class.std::__1::basic_string"** %525, align 8, !noalias !2
  store i8* getelementptr inbounds ([3 x i8], [3 x i8]* @.str.16, i32 0, i32 0), i8** %526, align 8, !noalias !2
  %560 = load %"class.std::__1::basic_string"*, %"class.std::__1::basic_string"** %525, align 8, !noalias !2
  %561 = load i8*, i8** %526, align 8, !noalias !2
  %562 = invoke dereferenceable(24) %"class.std::__1::basic_string"* @_ZNSt3__112basic_stringIcNS_11char_traitsIcEENS_9allocatorIcEEE6appendEPKc(%"class.std::__1::basic_string"* %560, i8* %561)
          to label %563 unwind label %796

; <label>:563:                                    ; preds = %3
  store %"class.std::__1::basic_string"* %562, %"class.std::__1::basic_string"** %524, align 8, !noalias !2
  %564 = load %"class.std::__1::basic_string"*, %"class.std::__1::basic_string"** %524, align 8, !noalias !2
  store %"class.std::__1::basic_string"* %530, %"class.std::__1::basic_string"** %522, align 8, !noalias !2
  store %"class.std::__1::basic_string"* %564, %"class.std::__1::basic_string"** %523, align 8, !noalias !2
  %565 = load %"class.std::__1::basic_string"*, %"class.std::__1::basic_string"** %522, align 8, !noalias !2
  %566 = load %"class.std::__1::basic_string"*, %"class.std::__1::basic_string"** %523, align 8, !noalias !2
  store %"class.std::__1::basic_string"* %565, %"class.std::__1::basic_string"** %520, align 8, !noalias !2
  store %"class.std::__1::basic_string"* %566, %"class.std::__1::basic_string"** %521, align 8, !noalias !2
  %567 = load %"class.std::__1::basic_string"*, %"class.std::__1::basic_string"** %520, align 8, !noalias !2
  %568 = bitcast %"class.std::__1::basic_string"* %567 to %"class.std::__1::__basic_string_common"*
  %569 = getelementptr inbounds %"class.std::__1::basic_string", %"class.std::__1::basic_string"* %567, i32 0, i32 0
  %570 = load %"class.std::__1::basic_string"*, %"class.std::__1::basic_string"** %521, align 8, !noalias !2
  %571 = getelementptr inbounds %"class.std::__1::basic_string", %"class.std::__1::basic_string"* %570, i32 0, i32 0
  store %"class.std::__1::__compressed_pair.2"* %571, %"class.std::__1::__compressed_pair.2"** %519, align 8, !noalias !2
  %572 = load %"class.std::__1::__compressed_pair.2"*, %"class.std::__1::__compressed_pair.2"** %519, align 8, !noalias !2
  %573 = bitcast %"class.std::__1::__compressed_pair.2"* %569 to i8*
  %574 = bitcast %"class.std::__1::__compressed_pair.2"* %572 to i8*
  call void @llvm.memcpy.p0i8.p0i8.i64(i8* %573, i8* %574, i64 24, i32 8, i1 false) #2
  %575 = load %"class.std::__1::basic_string"*, %"class.std::__1::basic_string"** %521, align 8, !noalias !2
  store %"class.std::__1::basic_string"* %575, %"class.std::__1::basic_string"** %516, align 8, !noalias !2
  %576 = load %"class.std::__1::basic_string"*, %"class.std::__1::basic_string"** %516, align 8, !noalias !2
  %577 = getelementptr inbounds %"class.std::__1::basic_string", %"class.std::__1::basic_string"* %576, i32 0, i32 0
  store %"class.std::__1::__compressed_pair.2"* %577, %"class.std::__1::__compressed_pair.2"** %515, align 8, !noalias !2
  %578 = load %"class.std::__1::__compressed_pair.2"*, %"class.std::__1::__compressed_pair.2"** %515, align 8, !noalias !2
  %579 = bitcast %"class.std::__1::__compressed_pair.2"* %578 to %"class.std::__1::__libcpp_compressed_pair_imp.3"*
  store %"class.std::__1::__libcpp_compressed_pair_imp.3"* %579, %"class.std::__1::__libcpp_compressed_pair_imp.3"** %514, align 8, !noalias !2
  %580 = load %"class.std::__1::__libcpp_compressed_pair_imp.3"*, %"class.std::__1::__libcpp_compressed_pair_imp.3"** %514, align 8, !noalias !2
  %581 = getelementptr inbounds %"class.std::__1::__libcpp_compressed_pair_imp.3", %"class.std::__1::__libcpp_compressed_pair_imp.3"* %580, i32 0, i32 0
  %582 = getelementptr inbounds %"struct.std::__1::basic_string<char, std::__1::char_traits<char>, std::__1::allocator<char> >::__rep", %"struct.std::__1::basic_string<char, std::__1::char_traits<char>, std::__1::allocator<char> >::__rep"* %581, i32 0, i32 0
  %583 = bitcast %union.anon* %582 to %"struct.std::__1::basic_string<char, std::__1::char_traits<char>, std::__1::allocator<char> >::__raw"*
  %584 = getelementptr inbounds %"struct.std::__1::basic_string<char, std::__1::char_traits<char>, std::__1::allocator<char> >::__raw", %"struct.std::__1::basic_string<char, std::__1::char_traits<char>, std::__1::allocator<char> >::__raw"* %583, i32 0, i32 0
  store [3 x i64]* %584, [3 x i64]** %517, align 8, !noalias !2
  store i32 0, i32* %518, align 4, !noalias !2
  br label %585

; <label>:585:                                    ; preds = %588, %563
  %586 = load i32, i32* %518, align 4, !noalias !2
  %587 = icmp ult i32 %586, 3
  br i1 %587, label %588, label %595

; <label>:588:                                    ; preds = %585
  %589 = load i32, i32* %518, align 4, !noalias !2
  %590 = zext i32 %589 to i64
  %591 = load [3 x i64]*, [3 x i64]** %517, align 8, !noalias !2
  %592 = getelementptr inbounds [3 x i64], [3 x i64]* %591, i64 0, i64 %590
  store i64 0, i64* %592, align 8
  %593 = load i32, i32* %518, align 4, !noalias !2
  %594 = add i32 %593, 1
  store i32 %594, i32* %518, align 4, !noalias !2
  br label %585

; <label>:595:                                    ; preds = %585
  br label %596

; <label>:596:                                    ; preds = %595
  store %"class.std::__1::basic_string"* %530, %"class.std::__1::basic_string"** %512, align 8, !noalias !5
  store %"class.std::__1::basic_string"* %1, %"class.std::__1::basic_string"** %513, align 8, !noalias !5
  %597 = load %"class.std::__1::basic_string"*, %"class.std::__1::basic_string"** %512, align 8, !noalias !5
  %598 = load %"class.std::__1::basic_string"*, %"class.std::__1::basic_string"** %513, align 8, !noalias !5
  store %"class.std::__1::basic_string"* %597, %"class.std::__1::basic_string"** %510, align 8, !noalias !5
  store %"class.std::__1::basic_string"* %598, %"class.std::__1::basic_string"** %511, align 8, !noalias !5
  %599 = load %"class.std::__1::basic_string"*, %"class.std::__1::basic_string"** %510, align 8, !noalias !5
  %600 = load %"class.std::__1::basic_string"*, %"class.std::__1::basic_string"** %511, align 8, !noalias !5
  store %"class.std::__1::basic_string"* %600, %"class.std::__1::basic_string"** %509, align 8, !noalias !5
  %601 = load %"class.std::__1::basic_string"*, %"class.std::__1::basic_string"** %509, align 8, !noalias !5
  store %"class.std::__1::basic_string"* %601, %"class.std::__1::basic_string"** %508, align 8, !noalias !5
  %602 = load %"class.std::__1::basic_string"*, %"class.std::__1::basic_string"** %508, align 8, !noalias !5
  store %"class.std::__1::basic_string"* %602, %"class.std::__1::basic_string"** %507, align 8, !noalias !5
  %603 = load %"class.std::__1::basic_string"*, %"class.std::__1::basic_string"** %507, align 8, !noalias !5
  %604 = getelementptr inbounds %"class.std::__1::basic_string", %"class.std::__1::basic_string"* %603, i32 0, i32 0
  store %"class.std::__1::__compressed_pair.2"* %604, %"class.std::__1::__compressed_pair.2"** %506, align 8, !noalias !5
  %605 = load %"class.std::__1::__compressed_pair.2"*, %"class.std::__1::__compressed_pair.2"** %506, align 8, !noalias !5
  %606 = bitcast %"class.std::__1::__compressed_pair.2"* %605 to %"class.std::__1::__libcpp_compressed_pair_imp.3"*
  store %"class.std::__1::__libcpp_compressed_pair_imp.3"* %606, %"class.std::__1::__libcpp_compressed_pair_imp.3"** %505, align 8, !noalias !5
  %607 = load %"class.std::__1::__libcpp_compressed_pair_imp.3"*, %"class.std::__1::__libcpp_compressed_pair_imp.3"** %505, align 8, !noalias !5
  %608 = getelementptr inbounds %"class.std::__1::__libcpp_compressed_pair_imp.3", %"class.std::__1::__libcpp_compressed_pair_imp.3"* %607, i32 0, i32 0
  %609 = getelementptr inbounds %"struct.std::__1::basic_string<char, std::__1::char_traits<char>, std::__1::allocator<char> >::__rep", %"struct.std::__1::basic_string<char, std::__1::char_traits<char>, std::__1::allocator<char> >::__rep"* %608, i32 0, i32 0
  %610 = bitcast %union.anon* %609 to %"struct.std::__1::basic_string<char, std::__1::char_traits<char>, std::__1::allocator<char> >::__short"*
  %611 = getelementptr inbounds %"struct.std::__1::basic_string<char, std::__1::char_traits<char>, std::__1::allocator<char> >::__short", %"struct.std::__1::basic_string<char, std::__1::char_traits<char>, std::__1::allocator<char> >::__short"* %610, i32 0, i32 0
  %612 = bitcast %union.anon.6* %611 to i8*
  %613 = load i8, i8* %612, align 8, !noalias !5
  %614 = zext i8 %613 to i32
  %615 = and i32 %614, 1
  %616 = icmp ne i32 %615, 0
  br i1 %616, label %617, label %628

; <label>:617:                                    ; preds = %596
  store %"class.std::__1::basic_string"* %602, %"class.std::__1::basic_string"** %499, align 8, !noalias !5
  %618 = load %"class.std::__1::basic_string"*, %"class.std::__1::basic_string"** %499, align 8, !noalias !5
  %619 = getelementptr inbounds %"class.std::__1::basic_string", %"class.std::__1::basic_string"* %618, i32 0, i32 0
  store %"class.std::__1::__compressed_pair.2"* %619, %"class.std::__1::__compressed_pair.2"** %498, align 8, !noalias !5
  %620 = load %"class.std::__1::__compressed_pair.2"*, %"class.std::__1::__compressed_pair.2"** %498, align 8, !noalias !5
  %621 = bitcast %"class.std::__1::__compressed_pair.2"* %620 to %"class.std::__1::__libcpp_compressed_pair_imp.3"*
  store %"class.std::__1::__libcpp_compressed_pair_imp.3"* %621, %"class.std::__1::__libcpp_compressed_pair_imp.3"** %497, align 8, !noalias !5
  %622 = load %"class.std::__1::__libcpp_compressed_pair_imp.3"*, %"class.std::__1::__libcpp_compressed_pair_imp.3"** %497, align 8, !noalias !5
  %623 = getelementptr inbounds %"class.std::__1::__libcpp_compressed_pair_imp.3", %"class.std::__1::__libcpp_compressed_pair_imp.3"* %622, i32 0, i32 0
  %624 = getelementptr inbounds %"struct.std::__1::basic_string<char, std::__1::char_traits<char>, std::__1::allocator<char> >::__rep", %"struct.std::__1::basic_string<char, std::__1::char_traits<char>, std::__1::allocator<char> >::__rep"* %623, i32 0, i32 0
  %625 = bitcast %union.anon* %624 to %"struct.std::__1::basic_string<char, std::__1::char_traits<char>, std::__1::allocator<char> >::__long"*
  %626 = getelementptr inbounds %"struct.std::__1::basic_string<char, std::__1::char_traits<char>, std::__1::allocator<char> >::__long", %"struct.std::__1::basic_string<char, std::__1::char_traits<char>, std::__1::allocator<char> >::__long"* %625, i32 0, i32 2
  %627 = load i8*, i8** %626, align 8
  br label %641

; <label>:628:                                    ; preds = %596
  store %"class.std::__1::basic_string"* %602, %"class.std::__1::basic_string"** %504, align 8, !noalias !5
  %629 = load %"class.std::__1::basic_string"*, %"class.std::__1::basic_string"** %504, align 8, !noalias !5
  %630 = getelementptr inbounds %"class.std::__1::basic_string", %"class.std::__1::basic_string"* %629, i32 0, i32 0
  store %"class.std::__1::__compressed_pair.2"* %630, %"class.std::__1::__compressed_pair.2"** %503, align 8, !noalias !5
  %631 = load %"class.std::__1::__compressed_pair.2"*, %"class.std::__1::__compressed_pair.2"** %503, align 8, !noalias !5
  %632 = bitcast %"class.std::__1::__compressed_pair.2"* %631 to %"class.std::__1::__libcpp_compressed_pair_imp.3"*
  store %"class.std::__1::__libcpp_compressed_pair_imp.3"* %632, %"class.std::__1::__libcpp_compressed_pair_imp.3"** %502, align 8, !noalias !5
  %633 = load %"class.std::__1::__libcpp_compressed_pair_imp.3"*, %"class.std::__1::__libcpp_compressed_pair_imp.3"** %502, align 8, !noalias !5
  %634 = getelementptr inbounds %"class.std::__1::__libcpp_compressed_pair_imp.3", %"class.std::__1::__libcpp_compressed_pair_imp.3"* %633, i32 0, i32 0
  %635 = getelementptr inbounds %"struct.std::__1::basic_string<char, std::__1::char_traits<char>, std::__1::allocator<char> >::__rep", %"struct.std::__1::basic_string<char, std::__1::char_traits<char>, std::__1::allocator<char> >::__rep"* %634, i32 0, i32 0
  %636 = bitcast %union.anon* %635 to %"struct.std::__1::basic_string<char, std::__1::char_traits<char>, std::__1::allocator<char> >::__short"*
  %637 = getelementptr inbounds %"struct.std::__1::basic_string<char, std::__1::char_traits<char>, std::__1::allocator<char> >::__short", %"struct.std::__1::basic_string<char, std::__1::char_traits<char>, std::__1::allocator<char> >::__short"* %636, i32 0, i32 1
  %638 = getelementptr inbounds [23 x i8], [23 x i8]* %637, i64 0, i64 0
  store i8* %638, i8** %501, align 8, !noalias !5
  %639 = load i8*, i8** %501, align 8, !noalias !5
  store i8* %639, i8** %500, align 8, !noalias !5
  %640 = load i8*, i8** %500, align 8, !noalias !5
  br label %641

; <label>:641:                                    ; preds = %628, %617
  %642 = phi i8* [ %627, %617 ], [ %640, %628 ]
  store i8* %642, i8** %496, align 8, !noalias !5
  %643 = load i8*, i8** %496, align 8, !noalias !5
  %644 = load %"class.std::__1::basic_string"*, %"class.std::__1::basic_string"** %511, align 8, !noalias !5
  store %"class.std::__1::basic_string"* %644, %"class.std::__1::basic_string"** %495, align 8, !noalias !5
  %645 = load %"class.std::__1::basic_string"*, %"class.std::__1::basic_string"** %495, align 8, !noalias !5
  store %"class.std::__1::basic_string"* %645, %"class.std::__1::basic_string"** %494, align 8, !noalias !5
  %646 = load %"class.std::__1::basic_string"*, %"class.std::__1::basic_string"** %494, align 8, !noalias !5
  %647 = getelementptr inbounds %"class.std::__1::basic_string", %"class.std::__1::basic_string"* %646, i32 0, i32 0
  store %"class.std::__1::__compressed_pair.2"* %647, %"class.std::__1::__compressed_pair.2"** %493, align 8, !noalias !5
  %648 = load %"class.std::__1::__compressed_pair.2"*, %"class.std::__1::__compressed_pair.2"** %493, align 8, !noalias !5
  %649 = bitcast %"class.std::__1::__compressed_pair.2"* %648 to %"class.std::__1::__libcpp_compressed_pair_imp.3"*
  store %"class.std::__1::__libcpp_compressed_pair_imp.3"* %649, %"class.std::__1::__libcpp_compressed_pair_imp.3"** %492, align 8, !noalias !5
  %650 = load %"class.std::__1::__libcpp_compressed_pair_imp.3"*, %"class.std::__1::__libcpp_compressed_pair_imp.3"** %492, align 8, !noalias !5
  %651 = getelementptr inbounds %"class.std::__1::__libcpp_compressed_pair_imp.3", %"class.std::__1::__libcpp_compressed_pair_imp.3"* %650, i32 0, i32 0
  %652 = getelementptr inbounds %"struct.std::__1::basic_string<char, std::__1::char_traits<char>, std::__1::allocator<char> >::__rep", %"struct.std::__1::basic_string<char, std::__1::char_traits<char>, std::__1::allocator<char> >::__rep"* %651, i32 0, i32 0
  %653 = bitcast %union.anon* %652 to %"struct.std::__1::basic_string<char, std::__1::char_traits<char>, std::__1::allocator<char> >::__short"*
  %654 = getelementptr inbounds %"struct.std::__1::basic_string<char, std::__1::char_traits<char>, std::__1::allocator<char> >::__short", %"struct.std::__1::basic_string<char, std::__1::char_traits<char>, std::__1::allocator<char> >::__short"* %653, i32 0, i32 0
  %655 = bitcast %union.anon.6* %654 to i8*
  %656 = load i8, i8* %655, align 8, !noalias !5
  %657 = zext i8 %656 to i32
  %658 = and i32 %657, 1
  %659 = icmp ne i32 %658, 0
  br i1 %659, label %660, label %671

; <label>:660:                                    ; preds = %641
  store %"class.std::__1::basic_string"* %645, %"class.std::__1::basic_string"** %488, align 8, !noalias !5
  %661 = load %"class.std::__1::basic_string"*, %"class.std::__1::basic_string"** %488, align 8, !noalias !5
  %662 = getelementptr inbounds %"class.std::__1::basic_string", %"class.std::__1::basic_string"* %661, i32 0, i32 0
  store %"class.std::__1::__compressed_pair.2"* %662, %"class.std::__1::__compressed_pair.2"** %487, align 8, !noalias !5
  %663 = load %"class.std::__1::__compressed_pair.2"*, %"class.std::__1::__compressed_pair.2"** %487, align 8, !noalias !5
  %664 = bitcast %"class.std::__1::__compressed_pair.2"* %663 to %"class.std::__1::__libcpp_compressed_pair_imp.3"*
  store %"class.std::__1::__libcpp_compressed_pair_imp.3"* %664, %"class.std::__1::__libcpp_compressed_pair_imp.3"** %486, align 8, !noalias !5
  %665 = load %"class.std::__1::__libcpp_compressed_pair_imp.3"*, %"class.std::__1::__libcpp_compressed_pair_imp.3"** %486, align 8, !noalias !5
  %666 = getelementptr inbounds %"class.std::__1::__libcpp_compressed_pair_imp.3", %"class.std::__1::__libcpp_compressed_pair_imp.3"* %665, i32 0, i32 0
  %667 = getelementptr inbounds %"struct.std::__1::basic_string<char, std::__1::char_traits<char>, std::__1::allocator<char> >::__rep", %"struct.std::__1::basic_string<char, std::__1::char_traits<char>, std::__1::allocator<char> >::__rep"* %666, i32 0, i32 0
  %668 = bitcast %union.anon* %667 to %"struct.std::__1::basic_string<char, std::__1::char_traits<char>, std::__1::allocator<char> >::__long"*
  %669 = getelementptr inbounds %"struct.std::__1::basic_string<char, std::__1::char_traits<char>, std::__1::allocator<char> >::__long", %"struct.std::__1::basic_string<char, std::__1::char_traits<char>, std::__1::allocator<char> >::__long"* %668, i32 0, i32 1
  %670 = load i64, i64* %669, align 8
  br label %686

; <label>:671:                                    ; preds = %641
  store %"class.std::__1::basic_string"* %645, %"class.std::__1::basic_string"** %491, align 8, !noalias !5
  %672 = load %"class.std::__1::basic_string"*, %"class.std::__1::basic_string"** %491, align 8, !noalias !5
  %673 = getelementptr inbounds %"class.std::__1::basic_string", %"class.std::__1::basic_string"* %672, i32 0, i32 0
  store %"class.std::__1::__compressed_pair.2"* %673, %"class.std::__1::__compressed_pair.2"** %490, align 8, !noalias !5
  %674 = load %"class.std::__1::__compressed_pair.2"*, %"class.std::__1::__compressed_pair.2"** %490, align 8, !noalias !5
  %675 = bitcast %"class.std::__1::__compressed_pair.2"* %674 to %"class.std::__1::__libcpp_compressed_pair_imp.3"*
  store %"class.std::__1::__libcpp_compressed_pair_imp.3"* %675, %"class.std::__1::__libcpp_compressed_pair_imp.3"** %489, align 8, !noalias !5
  %676 = load %"class.std::__1::__libcpp_compressed_pair_imp.3"*, %"class.std::__1::__libcpp_compressed_pair_imp.3"** %489, align 8, !noalias !5
  %677 = getelementptr inbounds %"class.std::__1::__libcpp_compressed_pair_imp.3", %"class.std::__1::__libcpp_compressed_pair_imp.3"* %676, i32 0, i32 0
  %678 = getelementptr inbounds %"struct.std::__1::basic_string<char, std::__1::char_traits<char>, std::__1::allocator<char> >::__rep", %"struct.std::__1::basic_string<char, std::__1::char_traits<char>, std::__1::allocator<char> >::__rep"* %677, i32 0, i32 0
  %679 = bitcast %union.anon* %678 to %"struct.std::__1::basic_string<char, std::__1::char_traits<char>, std::__1::allocator<char> >::__short"*
  %680 = getelementptr inbounds %"struct.std::__1::basic_string<char, std::__1::char_traits<char>, std::__1::allocator<char> >::__short", %"struct.std::__1::basic_string<char, std::__1::char_traits<char>, std::__1::allocator<char> >::__short"* %679, i32 0, i32 0
  %681 = bitcast %union.anon.6* %680 to i8*
  %682 = load i8, i8* %681, align 8
  %683 = zext i8 %682 to i32
  %684 = ashr i32 %683, 1
  %685 = sext i32 %684 to i64
  br label %686

; <label>:686:                                    ; preds = %671, %660
  %687 = phi i64 [ %670, %660 ], [ %685, %671 ]
  %688 = invoke dereferenceable(24) %"class.std::__1::basic_string"* @_ZNSt3__112basic_stringIcNS_11char_traitsIcEENS_9allocatorIcEEE6appendEPKcm(%"class.std::__1::basic_string"* %599, i8* %643, i64 %687)
          to label %689 unwind label %800

; <label>:689:                                    ; preds = %686
  store %"class.std::__1::basic_string"* %688, %"class.std::__1::basic_string"** %485, align 8, !noalias !5
  %690 = load %"class.std::__1::basic_string"*, %"class.std::__1::basic_string"** %485, align 8, !noalias !5
  store %"class.std::__1::basic_string"* %529, %"class.std::__1::basic_string"** %483, align 8, !noalias !5
  store %"class.std::__1::basic_string"* %690, %"class.std::__1::basic_string"** %484, align 8, !noalias !5
  %691 = load %"class.std::__1::basic_string"*, %"class.std::__1::basic_string"** %483, align 8, !noalias !5
  %692 = load %"class.std::__1::basic_string"*, %"class.std::__1::basic_string"** %484, align 8, !noalias !5
  store %"class.std::__1::basic_string"* %691, %"class.std::__1::basic_string"** %481, align 8, !noalias !5
  store %"class.std::__1::basic_string"* %692, %"class.std::__1::basic_string"** %482, align 8, !noalias !5
  %693 = load %"class.std::__1::basic_string"*, %"class.std::__1::basic_string"** %481, align 8, !noalias !5
  %694 = bitcast %"class.std::__1::basic_string"* %693 to %"class.std::__1::__basic_string_common"*
  %695 = getelementptr inbounds %"class.std::__1::basic_string", %"class.std::__1::basic_string"* %693, i32 0, i32 0
  %696 = load %"class.std::__1::basic_string"*, %"class.std::__1::basic_string"** %482, align 8, !noalias !5
  %697 = getelementptr inbounds %"class.std::__1::basic_string", %"class.std::__1::basic_string"* %696, i32 0, i32 0
  store %"class.std::__1::__compressed_pair.2"* %697, %"class.std::__1::__compressed_pair.2"** %480, align 8, !noalias !5
  %698 = load %"class.std::__1::__compressed_pair.2"*, %"class.std::__1::__compressed_pair.2"** %480, align 8, !noalias !5
  %699 = bitcast %"class.std::__1::__compressed_pair.2"* %695 to i8*
  %700 = bitcast %"class.std::__1::__compressed_pair.2"* %698 to i8*
  call void @llvm.memcpy.p0i8.p0i8.i64(i8* %699, i8* %700, i64 24, i32 8, i1 false) #2
  %701 = load %"class.std::__1::basic_string"*, %"class.std::__1::basic_string"** %482, align 8, !noalias !5
  store %"class.std::__1::basic_string"* %701, %"class.std::__1::basic_string"** %477, align 8, !noalias !5
  %702 = load %"class.std::__1::basic_string"*, %"class.std::__1::basic_string"** %477, align 8, !noalias !5
  %703 = getelementptr inbounds %"class.std::__1::basic_string", %"class.std::__1::basic_string"* %702, i32 0, i32 0
  store %"class.std::__1::__compressed_pair.2"* %703, %"class.std::__1::__compressed_pair.2"** %476, align 8, !noalias !5
  %704 = load %"class.std::__1::__compressed_pair.2"*, %"class.std::__1::__compressed_pair.2"** %476, align 8, !noalias !5
  %705 = bitcast %"class.std::__1::__compressed_pair.2"* %704 to %"class.std::__1::__libcpp_compressed_pair_imp.3"*
  store %"class.std::__1::__libcpp_compressed_pair_imp.3"* %705, %"class.std::__1::__libcpp_compressed_pair_imp.3"** %475, align 8, !noalias !5
  %706 = load %"class.std::__1::__libcpp_compressed_pair_imp.3"*, %"class.std::__1::__libcpp_compressed_pair_imp.3"** %475, align 8, !noalias !5
  %707 = getelementptr inbounds %"class.std::__1::__libcpp_compressed_pair_imp.3", %"class.std::__1::__libcpp_compressed_pair_imp.3"* %706, i32 0, i32 0
  %708 = getelementptr inbounds %"struct.std::__1::basic_string<char, std::__1::char_traits<char>, std::__1::allocator<char> >::__rep", %"struct.std::__1::basic_string<char, std::__1::char_traits<char>, std::__1::allocator<char> >::__rep"* %707, i32 0, i32 0
  %709 = bitcast %union.anon* %708 to %"struct.std::__1::basic_string<char, std::__1::char_traits<char>, std::__1::allocator<char> >::__raw"*
  %710 = getelementptr inbounds %"struct.std::__1::basic_string<char, std::__1::char_traits<char>, std::__1::allocator<char> >::__raw", %"struct.std::__1::basic_string<char, std::__1::char_traits<char>, std::__1::allocator<char> >::__raw"* %709, i32 0, i32 0
  store [3 x i64]* %710, [3 x i64]** %478, align 8, !noalias !5
  store i32 0, i32* %479, align 4, !noalias !5
  br label %711

; <label>:711:                                    ; preds = %714, %689
  %712 = load i32, i32* %479, align 4, !noalias !5
  %713 = icmp ult i32 %712, 3
  br i1 %713, label %714, label %721

; <label>:714:                                    ; preds = %711
  %715 = load i32, i32* %479, align 4, !noalias !5
  %716 = zext i32 %715 to i64
  %717 = load [3 x i64]*, [3 x i64]** %478, align 8, !noalias !5
  %718 = getelementptr inbounds [3 x i64], [3 x i64]* %717, i64 0, i64 %716
  store i64 0, i64* %718, align 8
  %719 = load i32, i32* %479, align 4, !noalias !5
  %720 = add i32 %719, 1
  store i32 %720, i32* %479, align 4, !noalias !5
  br label %711

; <label>:721:                                    ; preds = %711
  br label %722

; <label>:722:                                    ; preds = %721
  call void @_ZNSt3__112basic_stringIcNS_11char_traitsIcEENS_9allocatorIcEEED1Ev(%"class.std::__1::basic_string"* %530) #2
  call void @_ZNSt3__112basic_stringIcNS_11char_traitsIcEENS_9allocatorIcEEED1Ev(%"class.std::__1::basic_string"* %531) #2
  %723 = load %class.Lexer*, %class.Lexer** %528, align 8
  %724 = icmp ne %class.Lexer* %723, null
  br i1 %724, label %725, label %2348

; <label>:725:                                    ; preds = %722
  %726 = load %class.Lexer*, %class.Lexer** %528, align 8
  %727 = getelementptr inbounds %class.Lexer, %class.Lexer* %726, i32 0, i32 8
  invoke void @_ZNSt3__112basic_stringIcNS_11char_traitsIcEENS_9allocatorIcEEEC1ERKS5_(%"class.std::__1::basic_string"* %534, %"class.std::__1::basic_string"* dereferenceable(24) %727)
          to label %728 unwind label %805

; <label>:728:                                    ; preds = %725
  %729 = load %class.Lexer*, %class.Lexer** %528, align 8
  %730 = getelementptr inbounds %class.Lexer, %class.Lexer* %729, i32 0, i32 6
  %731 = invoke i32 @_ZNK5Token9get_startEv(%class.Token* %730)
          to label %732 unwind label %809

; <label>:732:                                    ; preds = %728
  store i32 %731, i32* %535, align 4
  %733 = load %class.Lexer*, %class.Lexer** %528, align 8
  %734 = getelementptr inbounds %class.Lexer, %class.Lexer* %733, i32 0, i32 6
  %735 = invoke i32 @_ZNK5Token7get_endEv(%class.Token* %734)
          to label %736 unwind label %809

; <label>:736:                                    ; preds = %732
  store i32 %735, i32* %536, align 4
  store i32 1, i32* %537, align 4
  store i32 0, i32* %538, align 4
  store i32 0, i32* %539, align 4
  br label %737

; <label>:737:                                    ; preds = %814, %736
  %738 = load i32, i32* %539, align 4
  %739 = load i32, i32* %535, align 4
  %740 = icmp slt i32 %738, %739
  br i1 %740, label %741, label %817

; <label>:741:                                    ; preds = %737
  %742 = load i32, i32* %539, align 4
  %743 = sext i32 %742 to i64
  store %"class.std::__1::basic_string"* %534, %"class.std::__1::basic_string"** %473, align 8
  store i64 %743, i64* %474, align 8
  %744 = load %"class.std::__1::basic_string"*, %"class.std::__1::basic_string"** %473, align 8
  store %"class.std::__1::basic_string"* %744, %"class.std::__1::basic_string"** %472, align 8
  %745 = load %"class.std::__1::basic_string"*, %"class.std::__1::basic_string"** %472, align 8
  store %"class.std::__1::basic_string"* %745, %"class.std::__1::basic_string"** %471, align 8
  %746 = load %"class.std::__1::basic_string"*, %"class.std::__1::basic_string"** %471, align 8
  %747 = getelementptr inbounds %"class.std::__1::basic_string", %"class.std::__1::basic_string"* %746, i32 0, i32 0
  store %"class.std::__1::__compressed_pair.2"* %747, %"class.std::__1::__compressed_pair.2"** %470, align 8
  %748 = load %"class.std::__1::__compressed_pair.2"*, %"class.std::__1::__compressed_pair.2"** %470, align 8
  %749 = bitcast %"class.std::__1::__compressed_pair.2"* %748 to %"class.std::__1::__libcpp_compressed_pair_imp.3"*
  store %"class.std::__1::__libcpp_compressed_pair_imp.3"* %749, %"class.std::__1::__libcpp_compressed_pair_imp.3"** %469, align 8
  %750 = load %"class.std::__1::__libcpp_compressed_pair_imp.3"*, %"class.std::__1::__libcpp_compressed_pair_imp.3"** %469, align 8
  %751 = getelementptr inbounds %"class.std::__1::__libcpp_compressed_pair_imp.3", %"class.std::__1::__libcpp_compressed_pair_imp.3"* %750, i32 0, i32 0
  %752 = getelementptr inbounds %"struct.std::__1::basic_string<char, std::__1::char_traits<char>, std::__1::allocator<char> >::__rep", %"struct.std::__1::basic_string<char, std::__1::char_traits<char>, std::__1::allocator<char> >::__rep"* %751, i32 0, i32 0
  %753 = bitcast %union.anon* %752 to %"struct.std::__1::basic_string<char, std::__1::char_traits<char>, std::__1::allocator<char> >::__short"*
  %754 = getelementptr inbounds %"struct.std::__1::basic_string<char, std::__1::char_traits<char>, std::__1::allocator<char> >::__short", %"struct.std::__1::basic_string<char, std::__1::char_traits<char>, std::__1::allocator<char> >::__short"* %753, i32 0, i32 0
  %755 = bitcast %union.anon.6* %754 to i8*
  %756 = load i8, i8* %755, align 8
  %757 = zext i8 %756 to i32
  %758 = and i32 %757, 1
  %759 = icmp ne i32 %758, 0
  br i1 %759, label %760, label %771

; <label>:760:                                    ; preds = %741
  store %"class.std::__1::basic_string"* %745, %"class.std::__1::basic_string"** %463, align 8
  %761 = load %"class.std::__1::basic_string"*, %"class.std::__1::basic_string"** %463, align 8
  %762 = getelementptr inbounds %"class.std::__1::basic_string", %"class.std::__1::basic_string"* %761, i32 0, i32 0
  store %"class.std::__1::__compressed_pair.2"* %762, %"class.std::__1::__compressed_pair.2"** %462, align 8
  %763 = load %"class.std::__1::__compressed_pair.2"*, %"class.std::__1::__compressed_pair.2"** %462, align 8
  %764 = bitcast %"class.std::__1::__compressed_pair.2"* %763 to %"class.std::__1::__libcpp_compressed_pair_imp.3"*
  store %"class.std::__1::__libcpp_compressed_pair_imp.3"* %764, %"class.std::__1::__libcpp_compressed_pair_imp.3"** %461, align 8
  %765 = load %"class.std::__1::__libcpp_compressed_pair_imp.3"*, %"class.std::__1::__libcpp_compressed_pair_imp.3"** %461, align 8
  %766 = getelementptr inbounds %"class.std::__1::__libcpp_compressed_pair_imp.3", %"class.std::__1::__libcpp_compressed_pair_imp.3"* %765, i32 0, i32 0
  %767 = getelementptr inbounds %"struct.std::__1::basic_string<char, std::__1::char_traits<char>, std::__1::allocator<char> >::__rep", %"struct.std::__1::basic_string<char, std::__1::char_traits<char>, std::__1::allocator<char> >::__rep"* %766, i32 0, i32 0
  %768 = bitcast %union.anon* %767 to %"struct.std::__1::basic_string<char, std::__1::char_traits<char>, std::__1::allocator<char> >::__long"*
  %769 = getelementptr inbounds %"struct.std::__1::basic_string<char, std::__1::char_traits<char>, std::__1::allocator<char> >::__long", %"struct.std::__1::basic_string<char, std::__1::char_traits<char>, std::__1::allocator<char> >::__long"* %768, i32 0, i32 2
  %770 = load i8*, i8** %769, align 8
  br label %784

; <label>:771:                                    ; preds = %741
  store %"class.std::__1::basic_string"* %745, %"class.std::__1::basic_string"** %468, align 8
  %772 = load %"class.std::__1::basic_string"*, %"class.std::__1::basic_string"** %468, align 8
  %773 = getelementptr inbounds %"class.std::__1::basic_string", %"class.std::__1::basic_string"* %772, i32 0, i32 0
  store %"class.std::__1::__compressed_pair.2"* %773, %"class.std::__1::__compressed_pair.2"** %467, align 8
  %774 = load %"class.std::__1::__compressed_pair.2"*, %"class.std::__1::__compressed_pair.2"** %467, align 8
  %775 = bitcast %"class.std::__1::__compressed_pair.2"* %774 to %"class.std::__1::__libcpp_compressed_pair_imp.3"*
  store %"class.std::__1::__libcpp_compressed_pair_imp.3"* %775, %"class.std::__1::__libcpp_compressed_pair_imp.3"** %466, align 8
  %776 = load %"class.std::__1::__libcpp_compressed_pair_imp.3"*, %"class.std::__1::__libcpp_compressed_pair_imp.3"** %466, align 8
  %777 = getelementptr inbounds %"class.std::__1::__libcpp_compressed_pair_imp.3", %"class.std::__1::__libcpp_compressed_pair_imp.3"* %776, i32 0, i32 0
  %778 = getelementptr inbounds %"struct.std::__1::basic_string<char, std::__1::char_traits<char>, std::__1::allocator<char> >::__rep", %"struct.std::__1::basic_string<char, std::__1::char_traits<char>, std::__1::allocator<char> >::__rep"* %777, i32 0, i32 0
  %779 = bitcast %union.anon* %778 to %"struct.std::__1::basic_string<char, std::__1::char_traits<char>, std::__1::allocator<char> >::__short"*
  %780 = getelementptr inbounds %"struct.std::__1::basic_string<char, std::__1::char_traits<char>, std::__1::allocator<char> >::__short", %"struct.std::__1::basic_string<char, std::__1::char_traits<char>, std::__1::allocator<char> >::__short"* %779, i32 0, i32 1
  %781 = getelementptr inbounds [23 x i8], [23 x i8]* %780, i64 0, i64 0
  store i8* %781, i8** %465, align 8
  %782 = load i8*, i8** %465, align 8
  store i8* %782, i8** %464, align 8
  %783 = load i8*, i8** %464, align 8
  br label %784

; <label>:784:                                    ; preds = %760, %771
  %785 = phi i8* [ %770, %760 ], [ %783, %771 ]
  %786 = load i64, i64* %474, align 8
  %787 = getelementptr inbounds i8, i8* %785, i64 %786
  br label %788

; <label>:788:                                    ; preds = %784
  %789 = load i8, i8* %787, align 1
  %790 = sext i8 %789 to i32
  %791 = icmp eq i32 %790, 10
  br i1 %791, label %792, label %813

; <label>:792:                                    ; preds = %788
  %793 = load i32, i32* %537, align 4
  %794 = add nsw i32 %793, 1
  store i32 %794, i32* %537, align 4
  %795 = load i32, i32* %539, align 4
  store i32 %795, i32* %538, align 4
  br label %813

; <label>:796:                                    ; preds = %3
  %797 = landingpad { i8*, i32 }
          cleanup
  %798 = extractvalue { i8*, i32 } %797, 0
  store i8* %798, i8** %532, align 8
  %799 = extractvalue { i8*, i32 } %797, 1
  store i32 %799, i32* %533, align 4
  br label %804

; <label>:800:                                    ; preds = %686
  %801 = landingpad { i8*, i32 }
          cleanup
  %802 = extractvalue { i8*, i32 } %801, 0
  store i8* %802, i8** %532, align 8
  %803 = extractvalue { i8*, i32 } %801, 1
  store i32 %803, i32* %533, align 4
  call void @_ZNSt3__112basic_stringIcNS_11char_traitsIcEENS_9allocatorIcEEED1Ev(%"class.std::__1::basic_string"* %530) #2
  br label %804

; <label>:804:                                    ; preds = %800, %796
  call void @_ZNSt3__112basic_stringIcNS_11char_traitsIcEENS_9allocatorIcEEED1Ev(%"class.std::__1::basic_string"* %531) #2
  br label %2367

; <label>:805:                                    ; preds = %725
  %806 = landingpad { i8*, i32 }
          cleanup
  %807 = extractvalue { i8*, i32 } %806, 0
  store i8* %807, i8** %532, align 8
  %808 = extractvalue { i8*, i32 } %806, 1
  store i32 %808, i32* %533, align 4
  br label %2365

; <label>:809:                                    ; preds = %1352, %817, %732, %728
  %810 = landingpad { i8*, i32 }
          cleanup
  %811 = extractvalue { i8*, i32 } %810, 0
  store i8* %811, i8** %532, align 8
  %812 = extractvalue { i8*, i32 } %810, 1
  store i32 %812, i32* %533, align 4
  br label %2347

; <label>:813:                                    ; preds = %792, %788
  br label %814

; <label>:814:                                    ; preds = %813
  %815 = load i32, i32* %539, align 4
  %816 = add nsw i32 %815, 1
  store i32 %816, i32* %539, align 4
  br label %737

; <label>:817:                                    ; preds = %737
  %818 = load i32, i32* %537, align 4
  invoke void @_ZNSt3__19to_stringEi(%"class.std::__1::basic_string"* sret %544, i32 %818)
          to label %819 unwind label %809

; <label>:819:                                    ; preds = %817
  store i8* getelementptr inbounds ([3 x i8], [3 x i8]* @.str.17, i32 0, i32 0), i8** %459, align 8, !noalias !8
  store %"class.std::__1::basic_string"* %544, %"class.std::__1::basic_string"** %460, align 8, !noalias !8
  %820 = load %"class.std::__1::basic_string"*, %"class.std::__1::basic_string"** %460, align 8, !noalias !8
  %821 = load i8*, i8** %459, align 8, !noalias !8
  %822 = invoke dereferenceable(24) %"class.std::__1::basic_string"* @_ZNSt3__112basic_stringIcNS_11char_traitsIcEENS_9allocatorIcEEE6insertEmPKc(%"class.std::__1::basic_string"* %820, i64 0, i8* %821)
          to label %823 unwind label %1215

; <label>:823:                                    ; preds = %819
  store %"class.std::__1::basic_string"* %822, %"class.std::__1::basic_string"** %458, align 8, !noalias !8
  %824 = load %"class.std::__1::basic_string"*, %"class.std::__1::basic_string"** %458, align 8, !noalias !8
  store %"class.std::__1::basic_string"* %543, %"class.std::__1::basic_string"** %456, align 8, !noalias !8
  store %"class.std::__1::basic_string"* %824, %"class.std::__1::basic_string"** %457, align 8, !noalias !8
  %825 = load %"class.std::__1::basic_string"*, %"class.std::__1::basic_string"** %456, align 8, !noalias !8
  %826 = load %"class.std::__1::basic_string"*, %"class.std::__1::basic_string"** %457, align 8, !noalias !8
  store %"class.std::__1::basic_string"* %825, %"class.std::__1::basic_string"** %454, align 8, !noalias !8
  store %"class.std::__1::basic_string"* %826, %"class.std::__1::basic_string"** %455, align 8, !noalias !8
  %827 = load %"class.std::__1::basic_string"*, %"class.std::__1::basic_string"** %454, align 8, !noalias !8
  %828 = bitcast %"class.std::__1::basic_string"* %827 to %"class.std::__1::__basic_string_common"*
  %829 = getelementptr inbounds %"class.std::__1::basic_string", %"class.std::__1::basic_string"* %827, i32 0, i32 0
  %830 = load %"class.std::__1::basic_string"*, %"class.std::__1::basic_string"** %455, align 8, !noalias !8
  %831 = getelementptr inbounds %"class.std::__1::basic_string", %"class.std::__1::basic_string"* %830, i32 0, i32 0
  store %"class.std::__1::__compressed_pair.2"* %831, %"class.std::__1::__compressed_pair.2"** %453, align 8, !noalias !8
  %832 = load %"class.std::__1::__compressed_pair.2"*, %"class.std::__1::__compressed_pair.2"** %453, align 8, !noalias !8
  %833 = bitcast %"class.std::__1::__compressed_pair.2"* %829 to i8*
  %834 = bitcast %"class.std::__1::__compressed_pair.2"* %832 to i8*
  call void @llvm.memcpy.p0i8.p0i8.i64(i8* %833, i8* %834, i64 24, i32 8, i1 false) #2
  %835 = load %"class.std::__1::basic_string"*, %"class.std::__1::basic_string"** %455, align 8, !noalias !8
  store %"class.std::__1::basic_string"* %835, %"class.std::__1::basic_string"** %450, align 8, !noalias !8
  %836 = load %"class.std::__1::basic_string"*, %"class.std::__1::basic_string"** %450, align 8, !noalias !8
  %837 = getelementptr inbounds %"class.std::__1::basic_string", %"class.std::__1::basic_string"* %836, i32 0, i32 0
  store %"class.std::__1::__compressed_pair.2"* %837, %"class.std::__1::__compressed_pair.2"** %449, align 8, !noalias !8
  %838 = load %"class.std::__1::__compressed_pair.2"*, %"class.std::__1::__compressed_pair.2"** %449, align 8, !noalias !8
  %839 = bitcast %"class.std::__1::__compressed_pair.2"* %838 to %"class.std::__1::__libcpp_compressed_pair_imp.3"*
  store %"class.std::__1::__libcpp_compressed_pair_imp.3"* %839, %"class.std::__1::__libcpp_compressed_pair_imp.3"** %448, align 8, !noalias !8
  %840 = load %"class.std::__1::__libcpp_compressed_pair_imp.3"*, %"class.std::__1::__libcpp_compressed_pair_imp.3"** %448, align 8, !noalias !8
  %841 = getelementptr inbounds %"class.std::__1::__libcpp_compressed_pair_imp.3", %"class.std::__1::__libcpp_compressed_pair_imp.3"* %840, i32 0, i32 0
  %842 = getelementptr inbounds %"struct.std::__1::basic_string<char, std::__1::char_traits<char>, std::__1::allocator<char> >::__rep", %"struct.std::__1::basic_string<char, std::__1::char_traits<char>, std::__1::allocator<char> >::__rep"* %841, i32 0, i32 0
  %843 = bitcast %union.anon* %842 to %"struct.std::__1::basic_string<char, std::__1::char_traits<char>, std::__1::allocator<char> >::__raw"*
  %844 = getelementptr inbounds %"struct.std::__1::basic_string<char, std::__1::char_traits<char>, std::__1::allocator<char> >::__raw", %"struct.std::__1::basic_string<char, std::__1::char_traits<char>, std::__1::allocator<char> >::__raw"* %843, i32 0, i32 0
  store [3 x i64]* %844, [3 x i64]** %451, align 8, !noalias !8
  store i32 0, i32* %452, align 4, !noalias !8
  br label %845

; <label>:845:                                    ; preds = %848, %823
  %846 = load i32, i32* %452, align 4, !noalias !8
  %847 = icmp ult i32 %846, 3
  br i1 %847, label %848, label %855

; <label>:848:                                    ; preds = %845
  %849 = load i32, i32* %452, align 4, !noalias !8
  %850 = zext i32 %849 to i64
  %851 = load [3 x i64]*, [3 x i64]** %451, align 8, !noalias !8
  %852 = getelementptr inbounds [3 x i64], [3 x i64]* %851, i64 0, i64 %850
  store i64 0, i64* %852, align 8
  %853 = load i32, i32* %452, align 4, !noalias !8
  %854 = add i32 %853, 1
  store i32 %854, i32* %452, align 4, !noalias !8
  br label %845

; <label>:855:                                    ; preds = %845
  br label %856

; <label>:856:                                    ; preds = %855
  store %"class.std::__1::basic_string"* %543, %"class.std::__1::basic_string"** %446, align 8, !noalias !11
  store i8* getelementptr inbounds ([2 x i8], [2 x i8]* @.str.18, i32 0, i32 0), i8** %447, align 8, !noalias !11
  %857 = load %"class.std::__1::basic_string"*, %"class.std::__1::basic_string"** %446, align 8, !noalias !11
  %858 = load i8*, i8** %447, align 8, !noalias !11
  %859 = invoke dereferenceable(24) %"class.std::__1::basic_string"* @_ZNSt3__112basic_stringIcNS_11char_traitsIcEENS_9allocatorIcEEE6appendEPKc(%"class.std::__1::basic_string"* %857, i8* %858)
          to label %860 unwind label %1219

; <label>:860:                                    ; preds = %856
  store %"class.std::__1::basic_string"* %859, %"class.std::__1::basic_string"** %445, align 8, !noalias !11
  %861 = load %"class.std::__1::basic_string"*, %"class.std::__1::basic_string"** %445, align 8, !noalias !11
  store %"class.std::__1::basic_string"* %542, %"class.std::__1::basic_string"** %443, align 8, !noalias !11
  store %"class.std::__1::basic_string"* %861, %"class.std::__1::basic_string"** %444, align 8, !noalias !11
  %862 = load %"class.std::__1::basic_string"*, %"class.std::__1::basic_string"** %443, align 8, !noalias !11
  %863 = load %"class.std::__1::basic_string"*, %"class.std::__1::basic_string"** %444, align 8, !noalias !11
  store %"class.std::__1::basic_string"* %862, %"class.std::__1::basic_string"** %441, align 8, !noalias !11
  store %"class.std::__1::basic_string"* %863, %"class.std::__1::basic_string"** %442, align 8, !noalias !11
  %864 = load %"class.std::__1::basic_string"*, %"class.std::__1::basic_string"** %441, align 8, !noalias !11
  %865 = bitcast %"class.std::__1::basic_string"* %864 to %"class.std::__1::__basic_string_common"*
  %866 = getelementptr inbounds %"class.std::__1::basic_string", %"class.std::__1::basic_string"* %864, i32 0, i32 0
  %867 = load %"class.std::__1::basic_string"*, %"class.std::__1::basic_string"** %442, align 8, !noalias !11
  %868 = getelementptr inbounds %"class.std::__1::basic_string", %"class.std::__1::basic_string"* %867, i32 0, i32 0
  store %"class.std::__1::__compressed_pair.2"* %868, %"class.std::__1::__compressed_pair.2"** %440, align 8, !noalias !11
  %869 = load %"class.std::__1::__compressed_pair.2"*, %"class.std::__1::__compressed_pair.2"** %440, align 8, !noalias !11
  %870 = bitcast %"class.std::__1::__compressed_pair.2"* %866 to i8*
  %871 = bitcast %"class.std::__1::__compressed_pair.2"* %869 to i8*
  call void @llvm.memcpy.p0i8.p0i8.i64(i8* %870, i8* %871, i64 24, i32 8, i1 false) #2
  %872 = load %"class.std::__1::basic_string"*, %"class.std::__1::basic_string"** %442, align 8, !noalias !11
  store %"class.std::__1::basic_string"* %872, %"class.std::__1::basic_string"** %437, align 8, !noalias !11
  %873 = load %"class.std::__1::basic_string"*, %"class.std::__1::basic_string"** %437, align 8, !noalias !11
  %874 = getelementptr inbounds %"class.std::__1::basic_string", %"class.std::__1::basic_string"* %873, i32 0, i32 0
  store %"class.std::__1::__compressed_pair.2"* %874, %"class.std::__1::__compressed_pair.2"** %436, align 8, !noalias !11
  %875 = load %"class.std::__1::__compressed_pair.2"*, %"class.std::__1::__compressed_pair.2"** %436, align 8, !noalias !11
  %876 = bitcast %"class.std::__1::__compressed_pair.2"* %875 to %"class.std::__1::__libcpp_compressed_pair_imp.3"*
  store %"class.std::__1::__libcpp_compressed_pair_imp.3"* %876, %"class.std::__1::__libcpp_compressed_pair_imp.3"** %435, align 8, !noalias !11
  %877 = load %"class.std::__1::__libcpp_compressed_pair_imp.3"*, %"class.std::__1::__libcpp_compressed_pair_imp.3"** %435, align 8, !noalias !11
  %878 = getelementptr inbounds %"class.std::__1::__libcpp_compressed_pair_imp.3", %"class.std::__1::__libcpp_compressed_pair_imp.3"* %877, i32 0, i32 0
  %879 = getelementptr inbounds %"struct.std::__1::basic_string<char, std::__1::char_traits<char>, std::__1::allocator<char> >::__rep", %"struct.std::__1::basic_string<char, std::__1::char_traits<char>, std::__1::allocator<char> >::__rep"* %878, i32 0, i32 0
  %880 = bitcast %union.anon* %879 to %"struct.std::__1::basic_string<char, std::__1::char_traits<char>, std::__1::allocator<char> >::__raw"*
  %881 = getelementptr inbounds %"struct.std::__1::basic_string<char, std::__1::char_traits<char>, std::__1::allocator<char> >::__raw", %"struct.std::__1::basic_string<char, std::__1::char_traits<char>, std::__1::allocator<char> >::__raw"* %880, i32 0, i32 0
  store [3 x i64]* %881, [3 x i64]** %438, align 8, !noalias !11
  store i32 0, i32* %439, align 4, !noalias !11
  br label %882

; <label>:882:                                    ; preds = %885, %860
  %883 = load i32, i32* %439, align 4, !noalias !11
  %884 = icmp ult i32 %883, 3
  br i1 %884, label %885, label %892

; <label>:885:                                    ; preds = %882
  %886 = load i32, i32* %439, align 4, !noalias !11
  %887 = zext i32 %886 to i64
  %888 = load [3 x i64]*, [3 x i64]** %438, align 8, !noalias !11
  %889 = getelementptr inbounds [3 x i64], [3 x i64]* %888, i64 0, i64 %887
  store i64 0, i64* %889, align 8
  %890 = load i32, i32* %439, align 4, !noalias !11
  %891 = add i32 %890, 1
  store i32 %891, i32* %439, align 4, !noalias !11
  br label %882

; <label>:892:                                    ; preds = %882
  br label %893

; <label>:893:                                    ; preds = %892
  %894 = load i32, i32* %535, align 4
  %895 = load i32, i32* %538, align 4
  %896 = sub nsw i32 %894, %895
  invoke void @_ZNSt3__19to_stringEi(%"class.std::__1::basic_string"* sret %545, i32 %896)
          to label %897 unwind label %1223

; <label>:897:                                    ; preds = %893
  store %"class.std::__1::basic_string"* %542, %"class.std::__1::basic_string"** %433, align 8, !noalias !14
  store %"class.std::__1::basic_string"* %545, %"class.std::__1::basic_string"** %434, align 8, !noalias !14
  %898 = load %"class.std::__1::basic_string"*, %"class.std::__1::basic_string"** %433, align 8, !noalias !14
  %899 = load %"class.std::__1::basic_string"*, %"class.std::__1::basic_string"** %434, align 8, !noalias !14
  store %"class.std::__1::basic_string"* %898, %"class.std::__1::basic_string"** %431, align 8, !noalias !14
  store %"class.std::__1::basic_string"* %899, %"class.std::__1::basic_string"** %432, align 8, !noalias !14
  %900 = load %"class.std::__1::basic_string"*, %"class.std::__1::basic_string"** %431, align 8, !noalias !14
  %901 = load %"class.std::__1::basic_string"*, %"class.std::__1::basic_string"** %432, align 8, !noalias !14
  store %"class.std::__1::basic_string"* %901, %"class.std::__1::basic_string"** %430, align 8, !noalias !14
  %902 = load %"class.std::__1::basic_string"*, %"class.std::__1::basic_string"** %430, align 8, !noalias !14
  store %"class.std::__1::basic_string"* %902, %"class.std::__1::basic_string"** %429, align 8, !noalias !14
  %903 = load %"class.std::__1::basic_string"*, %"class.std::__1::basic_string"** %429, align 8, !noalias !14
  store %"class.std::__1::basic_string"* %903, %"class.std::__1::basic_string"** %428, align 8, !noalias !14
  %904 = load %"class.std::__1::basic_string"*, %"class.std::__1::basic_string"** %428, align 8, !noalias !14
  %905 = getelementptr inbounds %"class.std::__1::basic_string", %"class.std::__1::basic_string"* %904, i32 0, i32 0
  store %"class.std::__1::__compressed_pair.2"* %905, %"class.std::__1::__compressed_pair.2"** %427, align 8, !noalias !14
  %906 = load %"class.std::__1::__compressed_pair.2"*, %"class.std::__1::__compressed_pair.2"** %427, align 8, !noalias !14
  %907 = bitcast %"class.std::__1::__compressed_pair.2"* %906 to %"class.std::__1::__libcpp_compressed_pair_imp.3"*
  store %"class.std::__1::__libcpp_compressed_pair_imp.3"* %907, %"class.std::__1::__libcpp_compressed_pair_imp.3"** %426, align 8, !noalias !14
  %908 = load %"class.std::__1::__libcpp_compressed_pair_imp.3"*, %"class.std::__1::__libcpp_compressed_pair_imp.3"** %426, align 8, !noalias !14
  %909 = getelementptr inbounds %"class.std::__1::__libcpp_compressed_pair_imp.3", %"class.std::__1::__libcpp_compressed_pair_imp.3"* %908, i32 0, i32 0
  %910 = getelementptr inbounds %"struct.std::__1::basic_string<char, std::__1::char_traits<char>, std::__1::allocator<char> >::__rep", %"struct.std::__1::basic_string<char, std::__1::char_traits<char>, std::__1::allocator<char> >::__rep"* %909, i32 0, i32 0
  %911 = bitcast %union.anon* %910 to %"struct.std::__1::basic_string<char, std::__1::char_traits<char>, std::__1::allocator<char> >::__short"*
  %912 = getelementptr inbounds %"struct.std::__1::basic_string<char, std::__1::char_traits<char>, std::__1::allocator<char> >::__short", %"struct.std::__1::basic_string<char, std::__1::char_traits<char>, std::__1::allocator<char> >::__short"* %911, i32 0, i32 0
  %913 = bitcast %union.anon.6* %912 to i8*
  %914 = load i8, i8* %913, align 8, !noalias !14
  %915 = zext i8 %914 to i32
  %916 = and i32 %915, 1
  %917 = icmp ne i32 %916, 0
  br i1 %917, label %918, label %929

; <label>:918:                                    ; preds = %897
  store %"class.std::__1::basic_string"* %903, %"class.std::__1::basic_string"** %420, align 8, !noalias !14
  %919 = load %"class.std::__1::basic_string"*, %"class.std::__1::basic_string"** %420, align 8, !noalias !14
  %920 = getelementptr inbounds %"class.std::__1::basic_string", %"class.std::__1::basic_string"* %919, i32 0, i32 0
  store %"class.std::__1::__compressed_pair.2"* %920, %"class.std::__1::__compressed_pair.2"** %419, align 8, !noalias !14
  %921 = load %"class.std::__1::__compressed_pair.2"*, %"class.std::__1::__compressed_pair.2"** %419, align 8, !noalias !14
  %922 = bitcast %"class.std::__1::__compressed_pair.2"* %921 to %"class.std::__1::__libcpp_compressed_pair_imp.3"*
  store %"class.std::__1::__libcpp_compressed_pair_imp.3"* %922, %"class.std::__1::__libcpp_compressed_pair_imp.3"** %418, align 8, !noalias !14
  %923 = load %"class.std::__1::__libcpp_compressed_pair_imp.3"*, %"class.std::__1::__libcpp_compressed_pair_imp.3"** %418, align 8, !noalias !14
  %924 = getelementptr inbounds %"class.std::__1::__libcpp_compressed_pair_imp.3", %"class.std::__1::__libcpp_compressed_pair_imp.3"* %923, i32 0, i32 0
  %925 = getelementptr inbounds %"struct.std::__1::basic_string<char, std::__1::char_traits<char>, std::__1::allocator<char> >::__rep", %"struct.std::__1::basic_string<char, std::__1::char_traits<char>, std::__1::allocator<char> >::__rep"* %924, i32 0, i32 0
  %926 = bitcast %union.anon* %925 to %"struct.std::__1::basic_string<char, std::__1::char_traits<char>, std::__1::allocator<char> >::__long"*
  %927 = getelementptr inbounds %"struct.std::__1::basic_string<char, std::__1::char_traits<char>, std::__1::allocator<char> >::__long", %"struct.std::__1::basic_string<char, std::__1::char_traits<char>, std::__1::allocator<char> >::__long"* %926, i32 0, i32 2
  %928 = load i8*, i8** %927, align 8
  br label %942

; <label>:929:                                    ; preds = %897
  store %"class.std::__1::basic_string"* %903, %"class.std::__1::basic_string"** %425, align 8, !noalias !14
  %930 = load %"class.std::__1::basic_string"*, %"class.std::__1::basic_string"** %425, align 8, !noalias !14
  %931 = getelementptr inbounds %"class.std::__1::basic_string", %"class.std::__1::basic_string"* %930, i32 0, i32 0
  store %"class.std::__1::__compressed_pair.2"* %931, %"class.std::__1::__compressed_pair.2"** %424, align 8, !noalias !14
  %932 = load %"class.std::__1::__compressed_pair.2"*, %"class.std::__1::__compressed_pair.2"** %424, align 8, !noalias !14
  %933 = bitcast %"class.std::__1::__compressed_pair.2"* %932 to %"class.std::__1::__libcpp_compressed_pair_imp.3"*
  store %"class.std::__1::__libcpp_compressed_pair_imp.3"* %933, %"class.std::__1::__libcpp_compressed_pair_imp.3"** %423, align 8, !noalias !14
  %934 = load %"class.std::__1::__libcpp_compressed_pair_imp.3"*, %"class.std::__1::__libcpp_compressed_pair_imp.3"** %423, align 8, !noalias !14
  %935 = getelementptr inbounds %"class.std::__1::__libcpp_compressed_pair_imp.3", %"class.std::__1::__libcpp_compressed_pair_imp.3"* %934, i32 0, i32 0
  %936 = getelementptr inbounds %"struct.std::__1::basic_string<char, std::__1::char_traits<char>, std::__1::allocator<char> >::__rep", %"struct.std::__1::basic_string<char, std::__1::char_traits<char>, std::__1::allocator<char> >::__rep"* %935, i32 0, i32 0
  %937 = bitcast %union.anon* %936 to %"struct.std::__1::basic_string<char, std::__1::char_traits<char>, std::__1::allocator<char> >::__short"*
  %938 = getelementptr inbounds %"struct.std::__1::basic_string<char, std::__1::char_traits<char>, std::__1::allocator<char> >::__short", %"struct.std::__1::basic_string<char, std::__1::char_traits<char>, std::__1::allocator<char> >::__short"* %937, i32 0, i32 1
  %939 = getelementptr inbounds [23 x i8], [23 x i8]* %938, i64 0, i64 0
  store i8* %939, i8** %422, align 8, !noalias !14
  %940 = load i8*, i8** %422, align 8, !noalias !14
  store i8* %940, i8** %421, align 8, !noalias !14
  %941 = load i8*, i8** %421, align 8, !noalias !14
  br label %942

; <label>:942:                                    ; preds = %929, %918
  %943 = phi i8* [ %928, %918 ], [ %941, %929 ]
  store i8* %943, i8** %417, align 8, !noalias !14
  %944 = load i8*, i8** %417, align 8, !noalias !14
  %945 = load %"class.std::__1::basic_string"*, %"class.std::__1::basic_string"** %432, align 8, !noalias !14
  store %"class.std::__1::basic_string"* %945, %"class.std::__1::basic_string"** %416, align 8, !noalias !14
  %946 = load %"class.std::__1::basic_string"*, %"class.std::__1::basic_string"** %416, align 8, !noalias !14
  store %"class.std::__1::basic_string"* %946, %"class.std::__1::basic_string"** %415, align 8, !noalias !14
  %947 = load %"class.std::__1::basic_string"*, %"class.std::__1::basic_string"** %415, align 8, !noalias !14
  %948 = getelementptr inbounds %"class.std::__1::basic_string", %"class.std::__1::basic_string"* %947, i32 0, i32 0
  store %"class.std::__1::__compressed_pair.2"* %948, %"class.std::__1::__compressed_pair.2"** %414, align 8, !noalias !14
  %949 = load %"class.std::__1::__compressed_pair.2"*, %"class.std::__1::__compressed_pair.2"** %414, align 8, !noalias !14
  %950 = bitcast %"class.std::__1::__compressed_pair.2"* %949 to %"class.std::__1::__libcpp_compressed_pair_imp.3"*
  store %"class.std::__1::__libcpp_compressed_pair_imp.3"* %950, %"class.std::__1::__libcpp_compressed_pair_imp.3"** %413, align 8, !noalias !14
  %951 = load %"class.std::__1::__libcpp_compressed_pair_imp.3"*, %"class.std::__1::__libcpp_compressed_pair_imp.3"** %413, align 8, !noalias !14
  %952 = getelementptr inbounds %"class.std::__1::__libcpp_compressed_pair_imp.3", %"class.std::__1::__libcpp_compressed_pair_imp.3"* %951, i32 0, i32 0
  %953 = getelementptr inbounds %"struct.std::__1::basic_string<char, std::__1::char_traits<char>, std::__1::allocator<char> >::__rep", %"struct.std::__1::basic_string<char, std::__1::char_traits<char>, std::__1::allocator<char> >::__rep"* %952, i32 0, i32 0
  %954 = bitcast %union.anon* %953 to %"struct.std::__1::basic_string<char, std::__1::char_traits<char>, std::__1::allocator<char> >::__short"*
  %955 = getelementptr inbounds %"struct.std::__1::basic_string<char, std::__1::char_traits<char>, std::__1::allocator<char> >::__short", %"struct.std::__1::basic_string<char, std::__1::char_traits<char>, std::__1::allocator<char> >::__short"* %954, i32 0, i32 0
  %956 = bitcast %union.anon.6* %955 to i8*
  %957 = load i8, i8* %956, align 8, !noalias !14
  %958 = zext i8 %957 to i32
  %959 = and i32 %958, 1
  %960 = icmp ne i32 %959, 0
  br i1 %960, label %961, label %972

; <label>:961:                                    ; preds = %942
  store %"class.std::__1::basic_string"* %946, %"class.std::__1::basic_string"** %409, align 8, !noalias !14
  %962 = load %"class.std::__1::basic_string"*, %"class.std::__1::basic_string"** %409, align 8, !noalias !14
  %963 = getelementptr inbounds %"class.std::__1::basic_string", %"class.std::__1::basic_string"* %962, i32 0, i32 0
  store %"class.std::__1::__compressed_pair.2"* %963, %"class.std::__1::__compressed_pair.2"** %408, align 8, !noalias !14
  %964 = load %"class.std::__1::__compressed_pair.2"*, %"class.std::__1::__compressed_pair.2"** %408, align 8, !noalias !14
  %965 = bitcast %"class.std::__1::__compressed_pair.2"* %964 to %"class.std::__1::__libcpp_compressed_pair_imp.3"*
  store %"class.std::__1::__libcpp_compressed_pair_imp.3"* %965, %"class.std::__1::__libcpp_compressed_pair_imp.3"** %407, align 8, !noalias !14
  %966 = load %"class.std::__1::__libcpp_compressed_pair_imp.3"*, %"class.std::__1::__libcpp_compressed_pair_imp.3"** %407, align 8, !noalias !14
  %967 = getelementptr inbounds %"class.std::__1::__libcpp_compressed_pair_imp.3", %"class.std::__1::__libcpp_compressed_pair_imp.3"* %966, i32 0, i32 0
  %968 = getelementptr inbounds %"struct.std::__1::basic_string<char, std::__1::char_traits<char>, std::__1::allocator<char> >::__rep", %"struct.std::__1::basic_string<char, std::__1::char_traits<char>, std::__1::allocator<char> >::__rep"* %967, i32 0, i32 0
  %969 = bitcast %union.anon* %968 to %"struct.std::__1::basic_string<char, std::__1::char_traits<char>, std::__1::allocator<char> >::__long"*
  %970 = getelementptr inbounds %"struct.std::__1::basic_string<char, std::__1::char_traits<char>, std::__1::allocator<char> >::__long", %"struct.std::__1::basic_string<char, std::__1::char_traits<char>, std::__1::allocator<char> >::__long"* %969, i32 0, i32 1
  %971 = load i64, i64* %970, align 8
  br label %987

; <label>:972:                                    ; preds = %942
  store %"class.std::__1::basic_string"* %946, %"class.std::__1::basic_string"** %412, align 8, !noalias !14
  %973 = load %"class.std::__1::basic_string"*, %"class.std::__1::basic_string"** %412, align 8, !noalias !14
  %974 = getelementptr inbounds %"class.std::__1::basic_string", %"class.std::__1::basic_string"* %973, i32 0, i32 0
  store %"class.std::__1::__compressed_pair.2"* %974, %"class.std::__1::__compressed_pair.2"** %411, align 8, !noalias !14
  %975 = load %"class.std::__1::__compressed_pair.2"*, %"class.std::__1::__compressed_pair.2"** %411, align 8, !noalias !14
  %976 = bitcast %"class.std::__1::__compressed_pair.2"* %975 to %"class.std::__1::__libcpp_compressed_pair_imp.3"*
  store %"class.std::__1::__libcpp_compressed_pair_imp.3"* %976, %"class.std::__1::__libcpp_compressed_pair_imp.3"** %410, align 8, !noalias !14
  %977 = load %"class.std::__1::__libcpp_compressed_pair_imp.3"*, %"class.std::__1::__libcpp_compressed_pair_imp.3"** %410, align 8, !noalias !14
  %978 = getelementptr inbounds %"class.std::__1::__libcpp_compressed_pair_imp.3", %"class.std::__1::__libcpp_compressed_pair_imp.3"* %977, i32 0, i32 0
  %979 = getelementptr inbounds %"struct.std::__1::basic_string<char, std::__1::char_traits<char>, std::__1::allocator<char> >::__rep", %"struct.std::__1::basic_string<char, std::__1::char_traits<char>, std::__1::allocator<char> >::__rep"* %978, i32 0, i32 0
  %980 = bitcast %union.anon* %979 to %"struct.std::__1::basic_string<char, std::__1::char_traits<char>, std::__1::allocator<char> >::__short"*
  %981 = getelementptr inbounds %"struct.std::__1::basic_string<char, std::__1::char_traits<char>, std::__1::allocator<char> >::__short", %"struct.std::__1::basic_string<char, std::__1::char_traits<char>, std::__1::allocator<char> >::__short"* %980, i32 0, i32 0
  %982 = bitcast %union.anon.6* %981 to i8*
  %983 = load i8, i8* %982, align 8
  %984 = zext i8 %983 to i32
  %985 = ashr i32 %984, 1
  %986 = sext i32 %985 to i64
  br label %987

; <label>:987:                                    ; preds = %972, %961
  %988 = phi i64 [ %971, %961 ], [ %986, %972 ]
  %989 = invoke dereferenceable(24) %"class.std::__1::basic_string"* @_ZNSt3__112basic_stringIcNS_11char_traitsIcEENS_9allocatorIcEEE6appendEPKcm(%"class.std::__1::basic_string"* %900, i8* %944, i64 %988)
          to label %990 unwind label %1227

; <label>:990:                                    ; preds = %987
  store %"class.std::__1::basic_string"* %989, %"class.std::__1::basic_string"** %406, align 8, !noalias !14
  %991 = load %"class.std::__1::basic_string"*, %"class.std::__1::basic_string"** %406, align 8, !noalias !14
  store %"class.std::__1::basic_string"* %541, %"class.std::__1::basic_string"** %404, align 8, !noalias !14
  store %"class.std::__1::basic_string"* %991, %"class.std::__1::basic_string"** %405, align 8, !noalias !14
  %992 = load %"class.std::__1::basic_string"*, %"class.std::__1::basic_string"** %404, align 8, !noalias !14
  %993 = load %"class.std::__1::basic_string"*, %"class.std::__1::basic_string"** %405, align 8, !noalias !14
  store %"class.std::__1::basic_string"* %992, %"class.std::__1::basic_string"** %402, align 8, !noalias !14
  store %"class.std::__1::basic_string"* %993, %"class.std::__1::basic_string"** %403, align 8, !noalias !14
  %994 = load %"class.std::__1::basic_string"*, %"class.std::__1::basic_string"** %402, align 8, !noalias !14
  %995 = bitcast %"class.std::__1::basic_string"* %994 to %"class.std::__1::__basic_string_common"*
  %996 = getelementptr inbounds %"class.std::__1::basic_string", %"class.std::__1::basic_string"* %994, i32 0, i32 0
  %997 = load %"class.std::__1::basic_string"*, %"class.std::__1::basic_string"** %403, align 8, !noalias !14
  %998 = getelementptr inbounds %"class.std::__1::basic_string", %"class.std::__1::basic_string"* %997, i32 0, i32 0
  store %"class.std::__1::__compressed_pair.2"* %998, %"class.std::__1::__compressed_pair.2"** %401, align 8, !noalias !14
