; ModuleID = '/Users/Jonas/CLionProjects/HackerRank/XtremeJonasScript/src/Message/Warning.cpp'
source_filename = "/Users/Jonas/CLionProjects/HackerRank/XtremeJonasScript/src/Message/Warning.cpp"
target datalayout = "e-m:o-i64:64-f80:128-n8:16:32:64-S128"
target triple = "x86_64-apple-macosx10.12.0"

%"class.std::__1::basic_ostream" = type { i32 (...)**, %"class.std::__1::basic_ios.base" }
%"class.std::__1::basic_ios.base" = type <{ %"class.std::__1::ios_base", %"class.std::__1::basic_ostream"*, i32 }>
%"class.std::__1::ios_base" = type { i32 (...)**, i32, i64, i64, i32, i32, i8*, i8*, void (i32, %"class.std::__1::ios_base"*, i32)**, i32*, i64, i64, i64*, i64, i64, i8**, i64, i64 }
%"class.std::__1::locale::id" = type <{ %"struct.std::__1::once_flag", i32, [4 x i8] }>
%"struct.std::__1::once_flag" = type { i64 }
%"class.std::__1::basic_string" = type { %"class.std::__1::__compressed_pair" }
%"class.std::__1::__compressed_pair" = type { %"class.std::__1::__libcpp_compressed_pair_imp" }
%"class.std::__1::__libcpp_compressed_pair_imp" = type { %"struct.std::__1::basic_string<char, std::__1::char_traits<char>, std::__1::allocator<char> >::__rep" }
%"struct.std::__1::basic_string<char, std::__1::char_traits<char>, std::__1::allocator<char> >::__rep" = type { %union.anon }
%union.anon = type { %"struct.std::__1::basic_string<char, std::__1::char_traits<char>, std::__1::allocator<char> >::__long" }
%"struct.std::__1::basic_string<char, std::__1::char_traits<char>, std::__1::allocator<char> >::__long" = type { i64, i64, i8* }
%class.AstNode = type <{ i32 (...)**, i32, i32, i64, %class.AstNode*, %class.DeclStmt*, i8, [3 x i8], i32, %"class.std::__1::vector", %struct.TypeSpecifier, %struct.TypeSpecifier, i8, [7 x i8], %"class.std::__1::basic_string", i8, i8, [6 x i8] }>
%class.DeclStmt = type opaque
%"class.std::__1::vector" = type { %"class.std::__1::__vector_base" }
%"class.std::__1::__vector_base" = type { %"class.std::__1::basic_string"*, %"class.std::__1::basic_string"*, %"class.std::__1::__compressed_pair.1" }
%"class.std::__1::__compressed_pair.1" = type { %"class.std::__1::__libcpp_compressed_pair_imp.2" }
%"class.std::__1::__libcpp_compressed_pair_imp.2" = type { %"class.std::__1::basic_string"* }
%struct.TypeSpecifier = type { i32, %"class.std::__1::basic_string", %"class.std::__1::shared_ptr", i8, i8, i8, i8, i64, i32, i8, i8, %"class.std::__1::basic_string", i8, [7 x i8], %"class.std::__1::unordered_map", i8, i8, i8, i8, i8, i8, i8, i32, %"class.std::__1::vector", %"class.std::__1::vector.19", %union.anon.25 }
%"class.std::__1::shared_ptr" = type { %class.Expression*, %"class.std::__1::__shared_weak_count"* }
%class.Expression = type opaque
%"class.std::__1::__shared_weak_count" = type { %"class.std::__1::__shared_count", i64 }
%"class.std::__1::__shared_count" = type { i32 (...)**, i64 }
%"class.std::__1::unordered_map" = type { %"class.std::__1::__hash_table" }
%"class.std::__1::__hash_table" = type <{ %"class.std::__1::unique_ptr", %"class.std::__1::__compressed_pair.11", %"class.std::__1::__compressed_pair.15", %"class.std::__1::__compressed_pair.17", [4 x i8] }>
%"class.std::__1::unique_ptr" = type { %"class.std::__1::__compressed_pair.5" }
%"class.std::__1::__compressed_pair.5" = type { %"class.std::__1::__libcpp_compressed_pair_imp.6" }
%"class.std::__1::__libcpp_compressed_pair_imp.6" = type { %"struct.std::__1::__hash_node_base"**, %"class.std::__1::__bucket_list_deallocator" }
%"struct.std::__1::__hash_node_base" = type { %"struct.std::__1::__hash_node_base"* }
%"class.std::__1::__bucket_list_deallocator" = type { %"class.std::__1::__compressed_pair.7" }
%"class.std::__1::__compressed_pair.7" = type { %"class.std::__1::__libcpp_compressed_pair_imp.8" }
%"class.std::__1::__libcpp_compressed_pair_imp.8" = type { i64 }
%"class.std::__1::__compressed_pair.11" = type { %"class.std::__1::__libcpp_compressed_pair_imp.12" }
%"class.std::__1::__libcpp_compressed_pair_imp.12" = type { %"struct.std::__1::__hash_node_base" }
%"class.std::__1::__compressed_pair.15" = type { %"class.std::__1::__libcpp_compressed_pair_imp.16" }
%"class.std::__1::__libcpp_compressed_pair_imp.16" = type { i64 }
%"class.std::__1::__compressed_pair.17" = type { %"class.std::__1::__libcpp_compressed_pair_imp.18" }
%"class.std::__1::__libcpp_compressed_pair_imp.18" = type { float }
%"class.std::__1::vector.19" = type { %"class.std::__1::__vector_base.20" }
%"class.std::__1::__vector_base.20" = type { %struct.TypeSpecifier*, %struct.TypeSpecifier*, %"class.std::__1::__compressed_pair.21" }
%"class.std::__1::__compressed_pair.21" = type { %"class.std::__1::__libcpp_compressed_pair_imp.22" }
%"class.std::__1::__libcpp_compressed_pair_imp.22" = type { %struct.TypeSpecifier* }
%union.anon.25 = type { %struct.TypeSpecifier* }
%"class.std::__1::allocator" = type { i8 }
%"class.std::__1::__basic_string_common" = type { i8 }
%"struct.std::__1::basic_string<char, std::__1::char_traits<char>, std::__1::allocator<char> >::__short" = type { %union.anon.0, [23 x i8] }
%union.anon.0 = type { i8 }
%"struct.std::__1::basic_string<char, std::__1::char_traits<char>, std::__1::allocator<char> >::__raw" = type { [3 x i64] }
%"class.std::__1::ctype" = type <{ %"class.std::__1::locale::facet", i32*, i8, [7 x i8] }>
%"class.std::__1::locale::facet" = type { %"class.std::__1::__shared_count" }
%"class.std::__1::locale" = type { %"class.std::__1::locale::__imp"* }
%"class.std::__1::locale::__imp" = type opaque
%"class.std::__1::basic_ios" = type <{ %"class.std::__1::ios_base", %"class.std::__1::basic_ostream"*, i32, [4 x i8] }>
%"class.std::__1::ostreambuf_iterator" = type { %"class.std::__1::basic_streambuf"* }
%"class.std::__1::basic_streambuf" = type { i32 (...)**, %"class.std::__1::locale", i8*, i8*, i8*, i8*, i8*, i8* }
%"class.std::__1::basic_ostream<char, std::__1::char_traits<char> >::sentry" = type { i8, %"class.std::__1::basic_ostream"* }
%"struct.std::__1::iterator" = type { i8 }

@_ZN4llvm24DisableABIBreakingChecksE = external global i32, align 4
@_ZN4llvm30VerifyDisableABIBreakingChecksE = weak hidden global i32* @_ZN4llvm24DisableABIBreakingChecksE, align 8
@.str = private unnamed_addr constant [13 x i8] c"\1B[33mWarning\00", align 1
@.str.1 = private unnamed_addr constant [11 x i8] c" (Severe):\00", align 1
@.str.2 = private unnamed_addr constant [3 x i8] c": \00", align 1
@.str.3 = private unnamed_addr constant [3 x i8] c" (\00", align 1
@.str.4 = private unnamed_addr constant [2 x i8] c":\00", align 1
@.str.5 = private unnamed_addr constant [3 x i8] c")\0A\00", align 1
@.str.6 = private unnamed_addr constant [4 x i8] c" | \00", align 1
@.str.7 = private unnamed_addr constant [2 x i8] c"\0A\00", align 1
@.str.8 = private unnamed_addr constant [2 x i8] c" \00", align 1
@.str.9 = private unnamed_addr constant [2 x i8] c"^\00", align 1
@_ZNSt3__14coutE = external global %"class.std::__1::basic_ostream", align 8
@.str.10 = private unnamed_addr constant [5 x i8] c"\1B[0m\00", align 1
@_ZNSt3__15ctypeIcE2idE = external global %"class.std::__1::locale::id", align 8

; Function Attrs: ssp uwtable
define void @_ZN7Warning5issueENSt3__112basic_stringIcNS0_11char_traitsIcEENS0_9allocatorIcEEEEP7AstNode12WarningLevel(%"class.std::__1::basic_string"*, %class.AstNode*, i32) #0 align 2 personality i8* bitcast (i32 (...)* @__gxx_personality_v0 to i8*) {
  %4 = alloca %"class.std::__1::basic_string"*, align 8
  %5 = alloca i8*, align 8
  %6 = alloca %"class.std::__1::__libcpp_compressed_pair_imp"*, align 8
  %7 = alloca %"class.std::__1::__compressed_pair"*, align 8
  %8 = alloca %"class.std::__1::basic_string"*, align 8
  %9 = alloca %"class.std::__1::__libcpp_compressed_pair_imp"*, align 8
  %10 = alloca %"class.std::__1::__compressed_pair"*, align 8
  %11 = alloca %"class.std::__1::basic_string"*, align 8
  %12 = alloca %"class.std::__1::__libcpp_compressed_pair_imp"*, align 8
  %13 = alloca %"class.std::__1::__compressed_pair"*, align 8
  %14 = alloca %"class.std::__1::basic_string"*, align 8
  %15 = alloca %"class.std::__1::basic_string"*, align 8
  %16 = alloca %"class.std::__1::basic_string"*, align 8
  %17 = alloca %"class.std::__1::basic_string"*, align 8
  %18 = alloca i8*, align 8
  %19 = alloca %"class.std::__1::__libcpp_compressed_pair_imp"*, align 8
  %20 = alloca %"class.std::__1::__compressed_pair"*, align 8
  %21 = alloca %"class.std::__1::basic_string"*, align 8
  %22 = alloca i8*, align 8
  %23 = alloca i8*, align 8
  %24 = alloca %"class.std::__1::__libcpp_compressed_pair_imp"*, align 8
  %25 = alloca %"class.std::__1::__compressed_pair"*, align 8
  %26 = alloca %"class.std::__1::basic_string"*, align 8
  %27 = alloca %"class.std::__1::__libcpp_compressed_pair_imp"*, align 8
  %28 = alloca %"class.std::__1::__compressed_pair"*, align 8
  %29 = alloca %"class.std::__1::basic_string"*, align 8
  %30 = alloca %"class.std::__1::basic_string"*, align 8
  %31 = alloca %"class.std::__1::basic_string"*, align 8
  %32 = alloca i64, align 8
  %33 = alloca %"class.std::__1::__libcpp_compressed_pair_imp"*, align 8
  %34 = alloca %"class.std::__1::__compressed_pair"*, align 8
  %35 = alloca %"class.std::__1::basic_string"*, align 8
  %36 = alloca %"class.std::__1::__libcpp_compressed_pair_imp"*, align 8
  %37 = alloca %"class.std::__1::__compressed_pair"*, align 8
  %38 = alloca %"class.std::__1::basic_string"*, align 8
  %39 = alloca %"class.std::__1::__libcpp_compressed_pair_imp"*, align 8
  %40 = alloca %"class.std::__1::__compressed_pair"*, align 8
  %41 = alloca %"class.std::__1::basic_string"*, align 8
  %42 = alloca %"class.std::__1::basic_string"*, align 8
  %43 = alloca i8*, align 8
  %44 = alloca %"class.std::__1::__libcpp_compressed_pair_imp"*, align 8
  %45 = alloca %"class.std::__1::__compressed_pair"*, align 8
  %46 = alloca %"class.std::__1::basic_string"*, align 8
  %47 = alloca i8*, align 8
  %48 = alloca i8*, align 8
  %49 = alloca %"class.std::__1::__libcpp_compressed_pair_imp"*, align 8
  %50 = alloca %"class.std::__1::__compressed_pair"*, align 8
  %51 = alloca %"class.std::__1::basic_string"*, align 8
  %52 = alloca %"class.std::__1::__libcpp_compressed_pair_imp"*, align 8
  %53 = alloca %"class.std::__1::__compressed_pair"*, align 8
  %54 = alloca %"class.std::__1::basic_string"*, align 8
  %55 = alloca %"class.std::__1::basic_string"*, align 8
  %56 = alloca %"class.std::__1::basic_string"*, align 8
  %57 = alloca %"class.std::__1::basic_string"*, align 8
  %58 = alloca %"class.std::__1::basic_string"*, align 8
  %59 = alloca %"class.std::__1::basic_string"*, align 8
  %60 = alloca %"class.std::__1::basic_string"*, align 8
  %61 = alloca %"class.std::__1::__libcpp_compressed_pair_imp"*, align 8
  %62 = alloca %"class.std::__1::__compressed_pair"*, align 8
  %63 = alloca %"class.std::__1::basic_string"*, align 8
  %64 = alloca %"class.std::__1::__libcpp_compressed_pair_imp"*, align 8
  %65 = alloca %"class.std::__1::__compressed_pair"*, align 8
  %66 = alloca %"class.std::__1::basic_string"*, align 8
  %67 = alloca %"class.std::__1::__libcpp_compressed_pair_imp"*, align 8
  %68 = alloca %"class.std::__1::__compressed_pair"*, align 8
  %69 = alloca %"class.std::__1::basic_string"*, align 8
  %70 = alloca %"class.std::__1::basic_string"*, align 8
  %71 = alloca %"class.std::__1::basic_string"*, align 8
  %72 = alloca %"class.std::__1::__libcpp_compressed_pair_imp"*, align 8
  %73 = alloca %"class.std::__1::__compressed_pair"*, align 8
  %74 = alloca %"class.std::__1::basic_string"*, align 8
  %75 = alloca [3 x i64]*, align 8
  %76 = alloca i32, align 4
  %77 = alloca %"class.std::__1::__compressed_pair"*, align 8
  %78 = alloca %"class.std::__1::basic_string"*, align 8
  %79 = alloca %"class.std::__1::basic_string"*, align 8
  %80 = alloca %"class.std::__1::basic_string"*, align 8
  %81 = alloca %"class.std::__1::basic_string"*, align 8
  %82 = alloca %"class.std::__1::basic_string"*, align 8
  %83 = alloca %"class.std::__1::basic_string"*, align 8
  %84 = alloca i8*, align 8
  %85 = alloca %"class.std::__1::__libcpp_compressed_pair_imp"*, align 8
  %86 = alloca %"class.std::__1::__compressed_pair"*, align 8
  %87 = alloca %"class.std::__1::basic_string"*, align 8
  %88 = alloca [3 x i64]*, align 8
  %89 = alloca i32, align 4
  %90 = alloca %"class.std::__1::__compressed_pair"*, align 8
  %91 = alloca %"class.std::__1::basic_string"*, align 8
  %92 = alloca %"class.std::__1::basic_string"*, align 8
  %93 = alloca %"class.std::__1::basic_string"*, align 8
  %94 = alloca %"class.std::__1::basic_string"*, align 8
  %95 = alloca %"class.std::__1::basic_string"*, align 8
  %96 = alloca %"class.std::__1::__libcpp_compressed_pair_imp"*, align 8
  %97 = alloca %"class.std::__1::__compressed_pair"*, align 8
  %98 = alloca %"class.std::__1::basic_string"*, align 8
  %99 = alloca %"class.std::__1::__libcpp_compressed_pair_imp"*, align 8
  %100 = alloca %"class.std::__1::__compressed_pair"*, align 8
  %101 = alloca %"class.std::__1::basic_string"*, align 8
  %102 = alloca %"class.std::__1::__libcpp_compressed_pair_imp"*, align 8
  %103 = alloca %"class.std::__1::__compressed_pair"*, align 8
  %104 = alloca %"class.std::__1::basic_string"*, align 8
  %105 = alloca %"class.std::__1::basic_string"*, align 8
  %106 = alloca i8*, align 8
  %107 = alloca %"class.std::__1::__libcpp_compressed_pair_imp"*, align 8
  %108 = alloca %"class.std::__1::__compressed_pair"*, align 8
  %109 = alloca %"class.std::__1::basic_string"*, align 8
  %110 = alloca i8*, align 8
  %111 = alloca i8*, align 8
  %112 = alloca %"class.std::__1::__libcpp_compressed_pair_imp"*, align 8
  %113 = alloca %"class.std::__1::__compressed_pair"*, align 8
  %114 = alloca %"class.std::__1::basic_string"*, align 8
  %115 = alloca %"class.std::__1::__libcpp_compressed_pair_imp"*, align 8
  %116 = alloca %"class.std::__1::__compressed_pair"*, align 8
  %117 = alloca %"class.std::__1::basic_string"*, align 8
  %118 = alloca %"class.std::__1::basic_string"*, align 8
  %119 = alloca %"class.std::__1::basic_string"*, align 8
  %120 = alloca %"class.std::__1::basic_string"*, align 8
  %121 = alloca i64, align 8
  %122 = alloca %"class.std::__1::basic_string"*, align 8
  %123 = alloca %"class.std::__1::basic_string"*, align 8
  %124 = alloca %"class.std::__1::basic_string"*, align 8
  %125 = alloca %"class.std::__1::__libcpp_compressed_pair_imp"*, align 8
  %126 = alloca %"class.std::__1::__compressed_pair"*, align 8
  %127 = alloca %"class.std::__1::basic_string"*, align 8
  %128 = alloca %"class.std::__1::basic_string"*, align 8
  %129 = alloca i64, align 8
  %130 = alloca i64, align 8
  %131 = alloca %"class.std::__1::__libcpp_compressed_pair_imp"*, align 8
  %132 = alloca %"class.std::__1::__compressed_pair"*, align 8
  %133 = alloca %"class.std::__1::basic_string"*, align 8
  %134 = alloca [3 x i64]*, align 8
  %135 = alloca i32, align 4
  %136 = alloca %"class.std::__1::__compressed_pair"*, align 8
  %137 = alloca %"class.std::__1::basic_string"*, align 8
  %138 = alloca %"class.std::__1::basic_string"*, align 8
  %139 = alloca %"class.std::__1::basic_string"*, align 8
  %140 = alloca %"class.std::__1::basic_string"*, align 8
  %141 = alloca %"class.std::__1::basic_string"*, align 8
  %142 = alloca %"class.std::__1::basic_string"*, align 8
  %143 = alloca i8*, align 8
  %144 = alloca %"class.std::__1::__libcpp_compressed_pair_imp"*, align 8
  %145 = alloca %"class.std::__1::__compressed_pair"*, align 8
  %146 = alloca %"class.std::__1::basic_string"*, align 8
  %147 = alloca %"class.std::__1::__libcpp_compressed_pair_imp"*, align 8
  %148 = alloca %"class.std::__1::__compressed_pair"*, align 8
  %149 = alloca %"class.std::__1::basic_string"*, align 8
  %150 = alloca %"class.std::__1::__libcpp_compressed_pair_imp"*, align 8
  %151 = alloca %"class.std::__1::__compressed_pair"*, align 8
  %152 = alloca %"class.std::__1::basic_string"*, align 8
  %153 = alloca %"class.std::__1::basic_string"*, align 8
  %154 = alloca %"class.std::__1::basic_string"*, align 8
  %155 = alloca %"class.std::__1::__libcpp_compressed_pair_imp"*, align 8
  %156 = alloca %"class.std::__1::__compressed_pair"*, align 8
  %157 = alloca %"class.std::__1::basic_string"*, align 8
  %158 = alloca i8*, align 8
  %159 = alloca i8*, align 8
  %160 = alloca %"class.std::__1::__libcpp_compressed_pair_imp"*, align 8
  %161 = alloca %"class.std::__1::__compressed_pair"*, align 8
  %162 = alloca %"class.std::__1::basic_string"*, align 8
  %163 = alloca %"class.std::__1::__libcpp_compressed_pair_imp"*, align 8
  %164 = alloca %"class.std::__1::__compressed_pair"*, align 8
  %165 = alloca %"class.std::__1::basic_string"*, align 8
  %166 = alloca %"class.std::__1::basic_string"*, align 8
  %167 = alloca %"class.std::__1::basic_string"*, align 8
  %168 = alloca i64, align 8
  %169 = alloca %"class.std::__1::basic_ostream"*, align 8
  %170 = alloca %"class.std::__1::basic_ostream"* (%"class.std::__1::basic_ostream"*)*, align 8
  %171 = alloca %"class.std::__1::__libcpp_compressed_pair_imp"*, align 8
  %172 = alloca %"class.std::__1::__compressed_pair"*, align 8
  %173 = alloca %"class.std::__1::basic_string"*, align 8
  %174 = alloca i8*, align 8
  %175 = alloca i8*, align 8
  %176 = alloca %"class.std::__1::__libcpp_compressed_pair_imp"*, align 8
  %177 = alloca %"class.std::__1::__compressed_pair"*, align 8
  %178 = alloca %"class.std::__1::basic_string"*, align 8
  %179 = alloca %"class.std::__1::__libcpp_compressed_pair_imp"*, align 8
  %180 = alloca %"class.std::__1::__compressed_pair"*, align 8
  %181 = alloca %"class.std::__1::basic_string"*, align 8
  %182 = alloca %"class.std::__1::basic_string"*, align 8
  %183 = alloca %"class.std::__1::basic_string"*, align 8
  %184 = alloca i64, align 8
  %185 = alloca %"class.std::__1::__libcpp_compressed_pair_imp"*, align 8
  %186 = alloca %"class.std::__1::__compressed_pair"*, align 8
  %187 = alloca %"class.std::__1::basic_string"*, align 8
  %188 = alloca %"class.std::__1::__libcpp_compressed_pair_imp"*, align 8
  %189 = alloca %"class.std::__1::__compressed_pair"*, align 8
  %190 = alloca %"class.std::__1::basic_string"*, align 8
  %191 = alloca %"class.std::__1::__libcpp_compressed_pair_imp"*, align 8
  %192 = alloca %"class.std::__1::__compressed_pair"*, align 8
  %193 = alloca %"class.std::__1::basic_string"*, align 8
  %194 = alloca %"class.std::__1::basic_string"*, align 8
  %195 = alloca i8*, align 8
  %196 = alloca %"class.std::__1::__libcpp_compressed_pair_imp"*, align 8
  %197 = alloca %"class.std::__1::__compressed_pair"*, align 8
  %198 = alloca %"class.std::__1::basic_string"*, align 8
  %199 = alloca i8*, align 8
  %200 = alloca i8*, align 8
  %201 = alloca %"class.std::__1::__libcpp_compressed_pair_imp"*, align 8
  %202 = alloca %"class.std::__1::__compressed_pair"*, align 8
  %203 = alloca %"class.std::__1::basic_string"*, align 8
  %204 = alloca %"class.std::__1::__libcpp_compressed_pair_imp"*, align 8
  %205 = alloca %"class.std::__1::__compressed_pair"*, align 8
  %206 = alloca %"class.std::__1::basic_string"*, align 8
  %207 = alloca %"class.std::__1::basic_string"*, align 8
  %208 = alloca %"class.std::__1::basic_string"*, align 8
  %209 = alloca %"class.std::__1::basic_string"*, align 8
  %210 = alloca %"class.std::__1::basic_string"*, align 8
  %211 = alloca %"class.std::__1::basic_string"*, align 8
  %212 = alloca %"class.std::__1::basic_string"*, align 8
  %213 = alloca %"class.std::__1::__libcpp_compressed_pair_imp"*, align 8
  %214 = alloca %"class.std::__1::__compressed_pair"*, align 8
  %215 = alloca %"class.std::__1::basic_string"*, align 8
  %216 = alloca [3 x i64]*, align 8
  %217 = alloca i32, align 4
  %218 = alloca %"class.std::__1::__compressed_pair"*, align 8
  %219 = alloca %"class.std::__1::basic_string"*, align 8
  %220 = alloca %"class.std::__1::basic_string"*, align 8
  %221 = alloca %"class.std::__1::basic_string"*, align 8
  %222 = alloca %"class.std::__1::basic_string"*, align 8
  %223 = alloca %"class.std::__1::basic_string"*, align 8
  %224 = alloca %"class.std::__1::basic_string"*, align 8
  %225 = alloca i8*, align 8
  %226 = alloca %"class.std::__1::__libcpp_compressed_pair_imp"*, align 8
  %227 = alloca %"class.std::__1::__compressed_pair"*, align 8
  %228 = alloca %"class.std::__1::basic_string"*, align 8
  %229 = alloca [3 x i64]*, align 8
  %230 = alloca i32, align 4
  %231 = alloca %"class.std::__1::__compressed_pair"*, align 8
  %232 = alloca %"class.std::__1::basic_string"*, align 8
  %233 = alloca %"class.std::__1::basic_string"*, align 8
  %234 = alloca %"class.std::__1::basic_string"*, align 8
  %235 = alloca %"class.std::__1::basic_string"*, align 8
  %236 = alloca %"class.std::__1::basic_string"*, align 8
  %237 = alloca %"class.std::__1::__libcpp_compressed_pair_imp"*, align 8
  %238 = alloca %"class.std::__1::__compressed_pair"*, align 8
  %239 = alloca %"class.std::__1::basic_string"*, align 8
  %240 = alloca %"class.std::__1::__libcpp_compressed_pair_imp"*, align 8
  %241 = alloca %"class.std::__1::__compressed_pair"*, align 8
  %242 = alloca %"class.std::__1::basic_string"*, align 8
  %243 = alloca %"class.std::__1::__libcpp_compressed_pair_imp"*, align 8
  %244 = alloca %"class.std::__1::__compressed_pair"*, align 8
  %245 = alloca %"class.std::__1::basic_string"*, align 8
  %246 = alloca %"class.std::__1::basic_string"*, align 8
  %247 = alloca i8*, align 8
  %248 = alloca %"class.std::__1::__libcpp_compressed_pair_imp"*, align 8
  %249 = alloca %"class.std::__1::__compressed_pair"*, align 8
  %250 = alloca %"class.std::__1::basic_string"*, align 8
  %251 = alloca i8*, align 8
  %252 = alloca i8*, align 8
  %253 = alloca %"class.std::__1::__libcpp_compressed_pair_imp"*, align 8
  %254 = alloca %"class.std::__1::__compressed_pair"*, align 8
  %255 = alloca %"class.std::__1::basic_string"*, align 8
  %256 = alloca %"class.std::__1::__libcpp_compressed_pair_imp"*, align 8
  %257 = alloca %"class.std::__1::__compressed_pair"*, align 8
  %258 = alloca %"class.std::__1::basic_string"*, align 8
  %259 = alloca %"class.std::__1::basic_string"*, align 8
  %260 = alloca %"class.std::__1::basic_string"*, align 8
  %261 = alloca %"class.std::__1::basic_string"*, align 8
  %262 = alloca %"class.std::__1::basic_string"*, align 8
  %263 = alloca %"class.std::__1::basic_string"*, align 8
  %264 = alloca %"class.std::__1::basic_string"*, align 8
  %265 = alloca %"class.std::__1::__libcpp_compressed_pair_imp"*, align 8
  %266 = alloca %"class.std::__1::__compressed_pair"*, align 8
  %267 = alloca %"class.std::__1::basic_string"*, align 8
  %268 = alloca [3 x i64]*, align 8
  %269 = alloca i32, align 4
  %270 = alloca %"class.std::__1::__compressed_pair"*, align 8
  %271 = alloca %"class.std::__1::basic_string"*, align 8
  %272 = alloca %"class.std::__1::basic_string"*, align 8
  %273 = alloca %"class.std::__1::basic_string"*, align 8
  %274 = alloca %"class.std::__1::basic_string"*, align 8
  %275 = alloca %"class.std::__1::basic_string"*, align 8
  %276 = alloca %"class.std::__1::basic_string"*, align 8
  %277 = alloca i8*, align 8
  %278 = alloca %"class.std::__1::__libcpp_compressed_pair_imp"*, align 8
  %279 = alloca %"class.std::__1::__compressed_pair"*, align 8
  %280 = alloca %"class.std::__1::basic_string"*, align 8
  %281 = alloca [3 x i64]*, align 8
  %282 = alloca i32, align 4
  %283 = alloca %"class.std::__1::__compressed_pair"*, align 8
  %284 = alloca %"class.std::__1::basic_string"*, align 8
  %285 = alloca %"class.std::__1::basic_string"*, align 8
  %286 = alloca %"class.std::__1::basic_string"*, align 8
  %287 = alloca %"class.std::__1::basic_string"*, align 8
  %288 = alloca %"class.std::__1::basic_string"*, align 8
  %289 = alloca i8*, align 8
  %290 = alloca %"class.std::__1::basic_string"*, align 8
  %291 = alloca %"class.std::__1::__libcpp_compressed_pair_imp"*, align 8
  %292 = alloca %"class.std::__1::__compressed_pair"*, align 8
  %293 = alloca %"class.std::__1::basic_string"*, align 8
  %294 = alloca i8*, align 8
  %295 = alloca i8*, align 8
  %296 = alloca %"class.std::__1::__libcpp_compressed_pair_imp"*, align 8
  %297 = alloca %"class.std::__1::__compressed_pair"*, align 8
  %298 = alloca %"class.std::__1::basic_string"*, align 8
  %299 = alloca %"class.std::__1::__libcpp_compressed_pair_imp"*, align 8
  %300 = alloca %"class.std::__1::__compressed_pair"*, align 8
  %301 = alloca %"class.std::__1::basic_string"*, align 8
  %302 = alloca %"class.std::__1::basic_string"*, align 8
  %303 = alloca %"class.std::__1::basic_string"*, align 8
  %304 = alloca i64, align 8
  %305 = alloca %"class.std::__1::__libcpp_compressed_pair_imp"*, align 8
  %306 = alloca %"class.std::__1::__compressed_pair"*, align 8
  %307 = alloca %"class.std::__1::basic_string"*, align 8
  %308 = alloca %"class.std::__1::__libcpp_compressed_pair_imp"*, align 8
  %309 = alloca %"class.std::__1::__compressed_pair"*, align 8
  %310 = alloca %"class.std::__1::basic_string"*, align 8
  %311 = alloca %"class.std::__1::__libcpp_compressed_pair_imp"*, align 8
  %312 = alloca %"class.std::__1::__compressed_pair"*, align 8
  %313 = alloca %"class.std::__1::basic_string"*, align 8
  %314 = alloca %"class.std::__1::basic_string"*, align 8
  %315 = alloca i8*, align 8
  %316 = alloca %"class.std::__1::__libcpp_compressed_pair_imp"*, align 8
  %317 = alloca %"class.std::__1::__compressed_pair"*, align 8
  %318 = alloca %"class.std::__1::basic_string"*, align 8
  %319 = alloca i8*, align 8
  %320 = alloca i8*, align 8
  %321 = alloca %"class.std::__1::__libcpp_compressed_pair_imp"*, align 8
  %322 = alloca %"class.std::__1::__compressed_pair"*, align 8
  %323 = alloca %"class.std::__1::basic_string"*, align 8
  %324 = alloca %"class.std::__1::__libcpp_compressed_pair_imp"*, align 8
  %325 = alloca %"class.std::__1::__compressed_pair"*, align 8
  %326 = alloca %"class.std::__1::basic_string"*, align 8
  %327 = alloca %"class.std::__1::basic_string"*, align 8
  %328 = alloca %"class.std::__1::basic_string"*, align 8
  %329 = alloca %"class.std::__1::basic_string"*, align 8
  %330 = alloca %"class.std::__1::basic_string"*, align 8
  %331 = alloca %"class.std::__1::basic_string"*, align 8
  %332 = alloca %"class.std::__1::basic_string"*, align 8
  %333 = alloca %"class.std::__1::basic_string"*, align 8
  %334 = alloca i8*, align 8
  %335 = alloca %"class.std::__1::basic_string"*, align 8
  %336 = alloca i8*, align 8
  %337 = alloca %"class.std::__1::allocator"*, align 8
  %338 = alloca %"class.std::__1::__libcpp_compressed_pair_imp"*, align 8
  %339 = alloca %"class.std::__1::__compressed_pair"*, align 8
  %340 = alloca %"class.std::__1::__compressed_pair"*, align 8
  %341 = alloca %"class.std::__1::basic_string"*, align 8
  %342 = alloca i8*, align 8
  %343 = alloca %"class.std::__1::basic_string"*, align 8
  %344 = alloca i8*, align 8
  %345 = alloca %class.AstNode*, align 8
  %346 = alloca i32, align 4
  %347 = alloca %"class.std::__1::basic_string", align 8
  %348 = alloca i8*
  %349 = alloca i32
  %350 = alloca %"class.std::__1::basic_string", align 8
  %351 = alloca i32, align 4
  %352 = alloca i32, align 4
  %353 = alloca i32, align 4
  %354 = alloca i32, align 4
  %355 = alloca i32, align 4
  %356 = alloca %"class.std::__1::basic_string", align 8
  %357 = alloca %"class.std::__1::basic_string", align 8
  %358 = alloca %"class.std::__1::basic_string", align 8
  %359 = alloca %"class.std::__1::basic_string", align 8
  %360 = alloca %"class.std::__1::basic_string", align 8
  %361 = alloca %"class.std::__1::basic_string", align 8
  %362 = alloca i32, align 4
  %363 = alloca i32, align 4
  %364 = alloca %"class.std::__1::basic_string", align 8
  %365 = alloca %"class.std::__1::basic_string", align 8
  %366 = alloca %"class.std::__1::basic_string", align 8
  %367 = alloca %"class.std::__1::basic_string", align 8
  %368 = alloca %"class.std::__1::basic_string", align 8
  %369 = alloca i32, align 4
  store %class.AstNode* %1, %class.AstNode** %345, align 8
  store i32 %2, i32* %346, align 4
  store %"class.std::__1::basic_string"* %347, %"class.std::__1::basic_string"** %343, align 8
  store i8* getelementptr inbounds ([13 x i8], [13 x i8]* @.str, i32 0, i32 0), i8** %344, align 8
  %370 = load %"class.std::__1::basic_string"*, %"class.std::__1::basic_string"** %343, align 8
  %371 = load i8*, i8** %344, align 8
  store %"class.std::__1::basic_string"* %370, %"class.std::__1::basic_string"** %341, align 8
  store i8* %371, i8** %342, align 8
  %372 = load %"class.std::__1::basic_string"*, %"class.std::__1::basic_string"** %341, align 8
  %373 = bitcast %"class.std::__1::basic_string"* %372 to %"class.std::__1::__basic_string_common"*
  %374 = getelementptr inbounds %"class.std::__1::basic_string", %"class.std::__1::basic_string"* %372, i32 0, i32 0
  store %"class.std::__1::__compressed_pair"* %374, %"class.std::__1::__compressed_pair"** %340, align 8
  %375 = load %"class.std::__1::__compressed_pair"*, %"class.std::__1::__compressed_pair"** %340, align 8
  store %"class.std::__1::__compressed_pair"* %375, %"class.std::__1::__compressed_pair"** %339, align 8
  %376 = load %"class.std::__1::__compressed_pair"*, %"class.std::__1::__compressed_pair"** %339, align 8
  %377 = bitcast %"class.std::__1::__compressed_pair"* %376 to %"class.std::__1::__libcpp_compressed_pair_imp"*
  store %"class.std::__1::__libcpp_compressed_pair_imp"* %377, %"class.std::__1::__libcpp_compressed_pair_imp"** %338, align 8
  %378 = load %"class.std::__1::__libcpp_compressed_pair_imp"*, %"class.std::__1::__libcpp_compressed_pair_imp"** %338, align 8
  %379 = bitcast %"class.std::__1::__libcpp_compressed_pair_imp"* %378 to %"class.std::__1::allocator"*
  store %"class.std::__1::allocator"* %379, %"class.std::__1::allocator"** %337, align 8
  %380 = load %"class.std::__1::allocator"*, %"class.std::__1::allocator"** %337, align 8
  %381 = getelementptr inbounds %"class.std::__1::__libcpp_compressed_pair_imp", %"class.std::__1::__libcpp_compressed_pair_imp"* %378, i32 0, i32 0
  %382 = bitcast %"struct.std::__1::basic_string<char, std::__1::char_traits<char>, std::__1::allocator<char> >::__rep"* %381 to i8*
  call void @llvm.memset.p0i8.i64(i8* %382, i8 0, i64 24, i32 8, i1 false) #8
  %383 = load i8*, i8** %342, align 8
  %384 = load i8*, i8** %342, align 8
  %385 = call i64 @_ZNSt3__111char_traitsIcE6lengthEPKc(i8* %384)
  call void @_ZNSt3__112basic_stringIcNS_11char_traitsIcEENS_9allocatorIcEEE6__initEPKcm(%"class.std::__1::basic_string"* %372, i8* %383, i64 %385)
  %386 = load i32, i32* %346, align 4
  %387 = icmp eq i32 %386, 0
  br i1 %387, label %388, label %398

; <label>:388:                                    ; preds = %3
  store %"class.std::__1::basic_string"* %347, %"class.std::__1::basic_string"** %335, align 8
  store i8* getelementptr inbounds ([11 x i8], [11 x i8]* @.str.1, i32 0, i32 0), i8** %336, align 8
  %389 = load %"class.std::__1::basic_string"*, %"class.std::__1::basic_string"** %335, align 8
  %390 = load i8*, i8** %336, align 8
  %391 = invoke dereferenceable(24) %"class.std::__1::basic_string"* @_ZNSt3__112basic_stringIcNS_11char_traitsIcEENS_9allocatorIcEEE6appendEPKc(%"class.std::__1::basic_string"* %389, i8* %390)
          to label %392 unwind label %394

; <label>:392:                                    ; preds = %388
  br label %393

; <label>:393:                                    ; preds = %392
  br label %404

; <label>:394:                                    ; preds = %1636, %494, %398, %388, %1634, %1632, %501
  %395 = landingpad { i8*, i32 }
          cleanup
  %396 = extractvalue { i8*, i32 } %395, 0
  store i8* %396, i8** %348, align 8
  %397 = extractvalue { i8*, i32 } %395, 1
  store i32 %397, i32* %349, align 4
  br label %1642

; <label>:398:                                    ; preds = %3
  store %"class.std::__1::basic_string"* %347, %"class.std::__1::basic_string"** %333, align 8
  store i8* getelementptr inbounds ([3 x i8], [3 x i8]* @.str.2, i32 0, i32 0), i8** %334, align 8
  %399 = load %"class.std::__1::basic_string"*, %"class.std::__1::basic_string"** %333, align 8
  %400 = load i8*, i8** %334, align 8
  %401 = invoke dereferenceable(24) %"class.std::__1::basic_string"* @_ZNSt3__112basic_stringIcNS_11char_traitsIcEENS_9allocatorIcEEE6appendEPKc(%"class.std::__1::basic_string"* %399, i8* %400)
          to label %402 unwind label %394

; <label>:402:                                    ; preds = %398
  br label %403

; <label>:403:                                    ; preds = %402
  br label %404

; <label>:404:                                    ; preds = %403, %393
  store %"class.std::__1::basic_string"* %347, %"class.std::__1::basic_string"** %331, align 8
  store %"class.std::__1::basic_string"* %0, %"class.std::__1::basic_string"** %332, align 8
  %405 = load %"class.std::__1::basic_string"*, %"class.std::__1::basic_string"** %331, align 8
  %406 = load %"class.std::__1::basic_string"*, %"class.std::__1::basic_string"** %332, align 8
  store %"class.std::__1::basic_string"* %405, %"class.std::__1::basic_string"** %329, align 8
  store %"class.std::__1::basic_string"* %406, %"class.std::__1::basic_string"** %330, align 8
  %407 = load %"class.std::__1::basic_string"*, %"class.std::__1::basic_string"** %329, align 8
  %408 = load %"class.std::__1::basic_string"*, %"class.std::__1::basic_string"** %330, align 8
  store %"class.std::__1::basic_string"* %408, %"class.std::__1::basic_string"** %328, align 8
  %409 = load %"class.std::__1::basic_string"*, %"class.std::__1::basic_string"** %328, align 8
  store %"class.std::__1::basic_string"* %409, %"class.std::__1::basic_string"** %327, align 8
  %410 = load %"class.std::__1::basic_string"*, %"class.std::__1::basic_string"** %327, align 8
  store %"class.std::__1::basic_string"* %410, %"class.std::__1::basic_string"** %326, align 8
  %411 = load %"class.std::__1::basic_string"*, %"class.std::__1::basic_string"** %326, align 8
  %412 = getelementptr inbounds %"class.std::__1::basic_string", %"class.std::__1::basic_string"* %411, i32 0, i32 0
  store %"class.std::__1::__compressed_pair"* %412, %"class.std::__1::__compressed_pair"** %325, align 8
  %413 = load %"class.std::__1::__compressed_pair"*, %"class.std::__1::__compressed_pair"** %325, align 8
  %414 = bitcast %"class.std::__1::__compressed_pair"* %413 to %"class.std::__1::__libcpp_compressed_pair_imp"*
  store %"class.std::__1::__libcpp_compressed_pair_imp"* %414, %"class.std::__1::__libcpp_compressed_pair_imp"** %324, align 8
  %415 = load %"class.std::__1::__libcpp_compressed_pair_imp"*, %"class.std::__1::__libcpp_compressed_pair_imp"** %324, align 8
  %416 = getelementptr inbounds %"class.std::__1::__libcpp_compressed_pair_imp", %"class.std::__1::__libcpp_compressed_pair_imp"* %415, i32 0, i32 0
  %417 = getelementptr inbounds %"struct.std::__1::basic_string<char, std::__1::char_traits<char>, std::__1::allocator<char> >::__rep", %"struct.std::__1::basic_string<char, std::__1::char_traits<char>, std::__1::allocator<char> >::__rep"* %416, i32 0, i32 0
  %418 = bitcast %union.anon* %417 to %"struct.std::__1::basic_string<char, std::__1::char_traits<char>, std::__1::allocator<char> >::__short"*
  %419 = getelementptr inbounds %"struct.std::__1::basic_string<char, std::__1::char_traits<char>, std::__1::allocator<char> >::__short", %"struct.std::__1::basic_string<char, std::__1::char_traits<char>, std::__1::allocator<char> >::__short"* %418, i32 0, i32 0
  %420 = bitcast %union.anon.0* %419 to i8*
  %421 = load i8, i8* %420, align 8
  %422 = zext i8 %421 to i32
  %423 = and i32 %422, 1
  %424 = icmp ne i32 %423, 0
  br i1 %424, label %425, label %436

; <label>:425:                                    ; preds = %404
  store %"class.std::__1::basic_string"* %410, %"class.std::__1::basic_string"** %318, align 8
  %426 = load %"class.std::__1::basic_string"*, %"class.std::__1::basic_string"** %318, align 8
  %427 = getelementptr inbounds %"class.std::__1::basic_string", %"class.std::__1::basic_string"* %426, i32 0, i32 0
  store %"class.std::__1::__compressed_pair"* %427, %"class.std::__1::__compressed_pair"** %317, align 8
  %428 = load %"class.std::__1::__compressed_pair"*, %"class.std::__1::__compressed_pair"** %317, align 8
  %429 = bitcast %"class.std::__1::__compressed_pair"* %428 to %"class.std::__1::__libcpp_compressed_pair_imp"*
  store %"class.std::__1::__libcpp_compressed_pair_imp"* %429, %"class.std::__1::__libcpp_compressed_pair_imp"** %316, align 8
  %430 = load %"class.std::__1::__libcpp_compressed_pair_imp"*, %"class.std::__1::__libcpp_compressed_pair_imp"** %316, align 8
  %431 = getelementptr inbounds %"class.std::__1::__libcpp_compressed_pair_imp", %"class.std::__1::__libcpp_compressed_pair_imp"* %430, i32 0, i32 0
  %432 = getelementptr inbounds %"struct.std::__1::basic_string<char, std::__1::char_traits<char>, std::__1::allocator<char> >::__rep", %"struct.std::__1::basic_string<char, std::__1::char_traits<char>, std::__1::allocator<char> >::__rep"* %431, i32 0, i32 0
  %433 = bitcast %union.anon* %432 to %"struct.std::__1::basic_string<char, std::__1::char_traits<char>, std::__1::allocator<char> >::__long"*
  %434 = getelementptr inbounds %"struct.std::__1::basic_string<char, std::__1::char_traits<char>, std::__1::allocator<char> >::__long", %"struct.std::__1::basic_string<char, std::__1::char_traits<char>, std::__1::allocator<char> >::__long"* %433, i32 0, i32 2
  %435 = load i8*, i8** %434, align 8
  br label %449

; <label>:436:                                    ; preds = %404
  store %"class.std::__1::basic_string"* %410, %"class.std::__1::basic_string"** %323, align 8
  %437 = load %"class.std::__1::basic_string"*, %"class.std::__1::basic_string"** %323, align 8
  %438 = getelementptr inbounds %"class.std::__1::basic_string", %"class.std::__1::basic_string"* %437, i32 0, i32 0
  store %"class.std::__1::__compressed_pair"* %438, %"class.std::__1::__compressed_pair"** %322, align 8
  %439 = load %"class.std::__1::__compressed_pair"*, %"class.std::__1::__compressed_pair"** %322, align 8
  %440 = bitcast %"class.std::__1::__compressed_pair"* %439 to %"class.std::__1::__libcpp_compressed_pair_imp"*
  store %"class.std::__1::__libcpp_compressed_pair_imp"* %440, %"class.std::__1::__libcpp_compressed_pair_imp"** %321, align 8
  %441 = load %"class.std::__1::__libcpp_compressed_pair_imp"*, %"class.std::__1::__libcpp_compressed_pair_imp"** %321, align 8
  %442 = getelementptr inbounds %"class.std::__1::__libcpp_compressed_pair_imp", %"class.std::__1::__libcpp_compressed_pair_imp"* %441, i32 0, i32 0
  %443 = getelementptr inbounds %"struct.std::__1::basic_string<char, std::__1::char_traits<char>, std::__1::allocator<char> >::__rep", %"struct.std::__1::basic_string<char, std::__1::char_traits<char>, std::__1::allocator<char> >::__rep"* %442, i32 0, i32 0
  %444 = bitcast %union.anon* %443 to %"struct.std::__1::basic_string<char, std::__1::char_traits<char>, std::__1::allocator<char> >::__short"*
  %445 = getelementptr inbounds %"struct.std::__1::basic_string<char, std::__1::char_traits<char>, std::__1::allocator<char> >::__short", %"struct.std::__1::basic_string<char, std::__1::char_traits<char>, std::__1::allocator<char> >::__short"* %444, i32 0, i32 1
  %446 = getelementptr inbounds [23 x i8], [23 x i8]* %445, i64 0, i64 0
  store i8* %446, i8** %320, align 8
  %447 = load i8*, i8** %320, align 8
  store i8* %447, i8** %319, align 8
  %448 = load i8*, i8** %319, align 8
  br label %449

; <label>:449:                                    ; preds = %436, %425
  %450 = phi i8* [ %435, %425 ], [ %448, %436 ]
  store i8* %450, i8** %315, align 8
  %451 = load i8*, i8** %315, align 8
  %452 = load %"class.std::__1::basic_string"*, %"class.std::__1::basic_string"** %330, align 8
  store %"class.std::__1::basic_string"* %452, %"class.std::__1::basic_string"** %314, align 8
  %453 = load %"class.std::__1::basic_string"*, %"class.std::__1::basic_string"** %314, align 8
  store %"class.std::__1::basic_string"* %453, %"class.std::__1::basic_string"** %313, align 8
  %454 = load %"class.std::__1::basic_string"*, %"class.std::__1::basic_string"** %313, align 8
  %455 = getelementptr inbounds %"class.std::__1::basic_string", %"class.std::__1::basic_string"* %454, i32 0, i32 0
  store %"class.std::__1::__compressed_pair"* %455, %"class.std::__1::__compressed_pair"** %312, align 8
  %456 = load %"class.std::__1::__compressed_pair"*, %"class.std::__1::__compressed_pair"** %312, align 8
  %457 = bitcast %"class.std::__1::__compressed_pair"* %456 to %"class.std::__1::__libcpp_compressed_pair_imp"*
  store %"class.std::__1::__libcpp_compressed_pair_imp"* %457, %"class.std::__1::__libcpp_compressed_pair_imp"** %311, align 8
  %458 = load %"class.std::__1::__libcpp_compressed_pair_imp"*, %"class.std::__1::__libcpp_compressed_pair_imp"** %311, align 8
  %459 = getelementptr inbounds %"class.std::__1::__libcpp_compressed_pair_imp", %"class.std::__1::__libcpp_compressed_pair_imp"* %458, i32 0, i32 0
  %460 = getelementptr inbounds %"struct.std::__1::basic_string<char, std::__1::char_traits<char>, std::__1::allocator<char> >::__rep", %"struct.std::__1::basic_string<char, std::__1::char_traits<char>, std::__1::allocator<char> >::__rep"* %459, i32 0, i32 0
  %461 = bitcast %union.anon* %460 to %"struct.std::__1::basic_string<char, std::__1::char_traits<char>, std::__1::allocator<char> >::__short"*
  %462 = getelementptr inbounds %"struct.std::__1::basic_string<char, std::__1::char_traits<char>, std::__1::allocator<char> >::__short", %"struct.std::__1::basic_string<char, std::__1::char_traits<char>, std::__1::allocator<char> >::__short"* %461, i32 0, i32 0
  %463 = bitcast %union.anon.0* %462 to i8*
  %464 = load i8, i8* %463, align 8
  %465 = zext i8 %464 to i32
  %466 = and i32 %465, 1
  %467 = icmp ne i32 %466, 0
  br i1 %467, label %468, label %479

; <label>:468:                                    ; preds = %449
  store %"class.std::__1::basic_string"* %453, %"class.std::__1::basic_string"** %307, align 8
  %469 = load %"class.std::__1::basic_string"*, %"class.std::__1::basic_string"** %307, align 8
  %470 = getelementptr inbounds %"class.std::__1::basic_string", %"class.std::__1::basic_string"* %469, i32 0, i32 0
  store %"class.std::__1::__compressed_pair"* %470, %"class.std::__1::__compressed_pair"** %306, align 8
  %471 = load %"class.std::__1::__compressed_pair"*, %"class.std::__1::__compressed_pair"** %306, align 8
  %472 = bitcast %"class.std::__1::__compressed_pair"* %471 to %"class.std::__1::__libcpp_compressed_pair_imp"*
  store %"class.std::__1::__libcpp_compressed_pair_imp"* %472, %"class.std::__1::__libcpp_compressed_pair_imp"** %305, align 8
  %473 = load %"class.std::__1::__libcpp_compressed_pair_imp"*, %"class.std::__1::__libcpp_compressed_pair_imp"** %305, align 8
  %474 = getelementptr inbounds %"class.std::__1::__libcpp_compressed_pair_imp", %"class.std::__1::__libcpp_compressed_pair_imp"* %473, i32 0, i32 0
  %475 = getelementptr inbounds %"struct.std::__1::basic_string<char, std::__1::char_traits<char>, std::__1::allocator<char> >::__rep", %"struct.std::__1::basic_string<char, std::__1::char_traits<char>, std::__1::allocator<char> >::__rep"* %474, i32 0, i32 0
  %476 = bitcast %union.anon* %475 to %"struct.std::__1::basic_string<char, std::__1::char_traits<char>, std::__1::allocator<char> >::__long"*
  %477 = getelementptr inbounds %"struct.std::__1::basic_string<char, std::__1::char_traits<char>, std::__1::allocator<char> >::__long", %"struct.std::__1::basic_string<char, std::__1::char_traits<char>, std::__1::allocator<char> >::__long"* %476, i32 0, i32 1
  %478 = load i64, i64* %477, align 8
  br label %494

; <label>:479:                                    ; preds = %449
  store %"class.std::__1::basic_string"* %453, %"class.std::__1::basic_string"** %310, align 8
  %480 = load %"class.std::__1::basic_string"*, %"class.std::__1::basic_string"** %310, align 8
  %481 = getelementptr inbounds %"class.std::__1::basic_string", %"class.std::__1::basic_string"* %480, i32 0, i32 0
  store %"class.std::__1::__compressed_pair"* %481, %"class.std::__1::__compressed_pair"** %309, align 8
  %482 = load %"class.std::__1::__compressed_pair"*, %"class.std::__1::__compressed_pair"** %309, align 8
  %483 = bitcast %"class.std::__1::__compressed_pair"* %482 to %"class.std::__1::__libcpp_compressed_pair_imp"*
  store %"class.std::__1::__libcpp_compressed_pair_imp"* %483, %"class.std::__1::__libcpp_compressed_pair_imp"** %308, align 8
  %484 = load %"class.std::__1::__libcpp_compressed_pair_imp"*, %"class.std::__1::__libcpp_compressed_pair_imp"** %308, align 8
  %485 = getelementptr inbounds %"class.std::__1::__libcpp_compressed_pair_imp", %"class.std::__1::__libcpp_compressed_pair_imp"* %484, i32 0, i32 0
  %486 = getelementptr inbounds %"struct.std::__1::basic_string<char, std::__1::char_traits<char>, std::__1::allocator<char> >::__rep", %"struct.std::__1::basic_string<char, std::__1::char_traits<char>, std::__1::allocator<char> >::__rep"* %485, i32 0, i32 0
  %487 = bitcast %union.anon* %486 to %"struct.std::__1::basic_string<char, std::__1::char_traits<char>, std::__1::allocator<char> >::__short"*
  %488 = getelementptr inbounds %"struct.std::__1::basic_string<char, std::__1::char_traits<char>, std::__1::allocator<char> >::__short", %"struct.std::__1::basic_string<char, std::__1::char_traits<char>, std::__1::allocator<char> >::__short"* %487, i32 0, i32 0
  %489 = bitcast %union.anon.0* %488 to i8*
  %490 = load i8, i8* %489, align 8
  %491 = zext i8 %490 to i32
  %492 = ashr i32 %491, 1
  %493 = sext i32 %492 to i64
  br label %494

; <label>:494:                                    ; preds = %479, %468
  %495 = phi i64 [ %478, %468 ], [ %493, %479 ]
  %496 = invoke dereferenceable(24) %"class.std::__1::basic_string"* @_ZNSt3__112basic_stringIcNS_11char_traitsIcEENS_9allocatorIcEEE6appendEPKcm(%"class.std::__1::basic_string"* %407, i8* %451, i64 %495)
          to label %497 unwind label %394

; <label>:497:                                    ; preds = %494
  br label %498

; <label>:498:                                    ; preds = %497
  %499 = load %class.AstNode*, %class.AstNode** %345, align 8
  %500 = icmp ne %class.AstNode* %499, null
  br i1 %500, label %501, label %1632

; <label>:501:                                    ; preds = %498
  %502 = load %class.AstNode*, %class.AstNode** %345, align 8
  %503 = bitcast %class.AstNode* %502 to void (%"class.std::__1::basic_string"*, %class.AstNode*)***
  %504 = load void (%"class.std::__1::basic_string"*, %class.AstNode*)**, void (%"class.std::__1::basic_string"*, %class.AstNode*)*** %503, align 8
  %505 = getelementptr inbounds void (%"class.std::__1::basic_string"*, %class.AstNode*)*, void (%"class.std::__1::basic_string"*, %class.AstNode*)** %504, i64 14
  %506 = load void (%"class.std::__1::basic_string"*, %class.AstNode*)*, void (%"class.std::__1::basic_string"*, %class.AstNode*)** %505, align 8
  invoke void %506(%"class.std::__1::basic_string"* sret %350, %class.AstNode* %502)
          to label %507 unwind label %394

; <label>:507:                                    ; preds = %501
  %508 = load %class.AstNode*, %class.AstNode** %345, align 8
  %509 = bitcast %class.AstNode* %508 to i32 (%class.AstNode*)***
  %510 = load i32 (%class.AstNode*)**, i32 (%class.AstNode*)*** %509, align 8
  %511 = getelementptr inbounds i32 (%class.AstNode*)*, i32 (%class.AstNode*)** %510, i64 6
  %512 = load i32 (%class.AstNode*)*, i32 (%class.AstNode*)** %511, align 8
  %513 = invoke i32 %512(%class.AstNode* %508)
          to label %514 unwind label %581

; <label>:514:                                    ; preds = %507
  store i32 %513, i32* %351, align 4
  %515 = load %class.AstNode*, %class.AstNode** %345, align 8
  %516 = bitcast %class.AstNode* %515 to i32 (%class.AstNode*)***
  %517 = load i32 (%class.AstNode*)**, i32 (%class.AstNode*)*** %516, align 8
  %518 = getelementptr inbounds i32 (%class.AstNode*)*, i32 (%class.AstNode*)** %517, i64 7
  %519 = load i32 (%class.AstNode*)*, i32 (%class.AstNode*)** %518, align 8
  %520 = invoke i32 %519(%class.AstNode* %515)
          to label %521 unwind label %581

; <label>:521:                                    ; preds = %514
  store i32 %520, i32* %352, align 4
  store i32 1, i32* %353, align 4
  store i32 0, i32* %354, align 4
  store i32 0, i32* %355, align 4
  br label %522

; <label>:522:                                    ; preds = %586, %521
  %523 = load i32, i32* %355, align 4
  %524 = load i32, i32* %351, align 4
  %525 = icmp slt i32 %523, %524
  br i1 %525, label %526, label %589

; <label>:526:                                    ; preds = %522
  %527 = load i32, i32* %355, align 4
  %528 = sext i32 %527 to i64
  store %"class.std::__1::basic_string"* %350, %"class.std::__1::basic_string"** %303, align 8
  store i64 %528, i64* %304, align 8
  %529 = load %"class.std::__1::basic_string"*, %"class.std::__1::basic_string"** %303, align 8
  store %"class.std::__1::basic_string"* %529, %"class.std::__1::basic_string"** %302, align 8
  %530 = load %"class.std::__1::basic_string"*, %"class.std::__1::basic_string"** %302, align 8
  store %"class.std::__1::basic_string"* %530, %"class.std::__1::basic_string"** %301, align 8
  %531 = load %"class.std::__1::basic_string"*, %"class.std::__1::basic_string"** %301, align 8
  %532 = getelementptr inbounds %"class.std::__1::basic_string", %"class.std::__1::basic_string"* %531, i32 0, i32 0
  store %"class.std::__1::__compressed_pair"* %532, %"class.std::__1::__compressed_pair"** %300, align 8
  %533 = load %"class.std::__1::__compressed_pair"*, %"class.std::__1::__compressed_pair"** %300, align 8
  %534 = bitcast %"class.std::__1::__compressed_pair"* %533 to %"class.std::__1::__libcpp_compressed_pair_imp"*
  store %"class.std::__1::__libcpp_compressed_pair_imp"* %534, %"class.std::__1::__libcpp_compressed_pair_imp"** %299, align 8
  %535 = load %"class.std::__1::__libcpp_compressed_pair_imp"*, %"class.std::__1::__libcpp_compressed_pair_imp"** %299, align 8
  %536 = getelementptr inbounds %"class.std::__1::__libcpp_compressed_pair_imp", %"class.std::__1::__libcpp_compressed_pair_imp"* %535, i32 0, i32 0
  %537 = getelementptr inbounds %"struct.std::__1::basic_string<char, std::__1::char_traits<char>, std::__1::allocator<char> >::__rep", %"struct.std::__1::basic_string<char, std::__1::char_traits<char>, std::__1::allocator<char> >::__rep"* %536, i32 0, i32 0
  %538 = bitcast %union.anon* %537 to %"struct.std::__1::basic_string<char, std::__1::char_traits<char>, std::__1::allocator<char> >::__short"*
  %539 = getelementptr inbounds %"struct.std::__1::basic_string<char, std::__1::char_traits<char>, std::__1::allocator<char> >::__short", %"struct.std::__1::basic_string<char, std::__1::char_traits<char>, std::__1::allocator<char> >::__short"* %538, i32 0, i32 0
  %540 = bitcast %union.anon.0* %539 to i8*
  %541 = load i8, i8* %540, align 8
  %542 = zext i8 %541 to i32
  %543 = and i32 %542, 1
  %544 = icmp ne i32 %543, 0
  br i1 %544, label %545, label %556

; <label>:545:                                    ; preds = %526
  store %"class.std::__1::basic_string"* %530, %"class.std::__1::basic_string"** %293, align 8
  %546 = load %"class.std::__1::basic_string"*, %"class.std::__1::basic_string"** %293, align 8
  %547 = getelementptr inbounds %"class.std::__1::basic_string", %"class.std::__1::basic_string"* %546, i32 0, i32 0
  store %"class.std::__1::__compressed_pair"* %547, %"class.std::__1::__compressed_pair"** %292, align 8
  %548 = load %"class.std::__1::__compressed_pair"*, %"class.std::__1::__compressed_pair"** %292, align 8
  %549 = bitcast %"class.std::__1::__compressed_pair"* %548 to %"class.std::__1::__libcpp_compressed_pair_imp"*
  store %"class.std::__1::__libcpp_compressed_pair_imp"* %549, %"class.std::__1::__libcpp_compressed_pair_imp"** %291, align 8
  %550 = load %"class.std::__1::__libcpp_compressed_pair_imp"*, %"class.std::__1::__libcpp_compressed_pair_imp"** %291, align 8
  %551 = getelementptr inbounds %"class.std::__1::__libcpp_compressed_pair_imp", %"class.std::__1::__libcpp_compressed_pair_imp"* %550, i32 0, i32 0
  %552 = getelementptr inbounds %"struct.std::__1::basic_string<char, std::__1::char_traits<char>, std::__1::allocator<char> >::__rep", %"struct.std::__1::basic_string<char, std::__1::char_traits<char>, std::__1::allocator<char> >::__rep"* %551, i32 0, i32 0
  %553 = bitcast %union.anon* %552 to %"struct.std::__1::basic_string<char, std::__1::char_traits<char>, std::__1::allocator<char> >::__long"*
  %554 = getelementptr inbounds %"struct.std::__1::basic_string<char, std::__1::char_traits<char>, std::__1::allocator<char> >::__long", %"struct.std::__1::basic_string<char, std::__1::char_traits<char>, std::__1::allocator<char> >::__long"* %553, i32 0, i32 2
  %555 = load i8*, i8** %554, align 8
  br label %569

; <label>:556:                                    ; preds = %526
  store %"class.std::__1::basic_string"* %530, %"class.std::__1::basic_string"** %298, align 8
  %557 = load %"class.std::__1::basic_string"*, %"class.std::__1::basic_string"** %298, align 8
  %558 = getelementptr inbounds %"class.std::__1::basic_string", %"class.std::__1::basic_string"* %557, i32 0, i32 0
  store %"class.std::__1::__compressed_pair"* %558, %"class.std::__1::__compressed_pair"** %297, align 8
  %559 = load %"class.std::__1::__compressed_pair"*, %"class.std::__1::__compressed_pair"** %297, align 8
  %560 = bitcast %"class.std::__1::__compressed_pair"* %559 to %"class.std::__1::__libcpp_compressed_pair_imp"*
  store %"class.std::__1::__libcpp_compressed_pair_imp"* %560, %"class.std::__1::__libcpp_compressed_pair_imp"** %296, align 8
  %561 = load %"class.std::__1::__libcpp_compressed_pair_imp"*, %"class.std::__1::__libcpp_compressed_pair_imp"** %296, align 8
  %562 = getelementptr inbounds %"class.std::__1::__libcpp_compressed_pair_imp", %"class.std::__1::__libcpp_compressed_pair_imp"* %561, i32 0, i32 0
  %563 = getelementptr inbounds %"struct.std::__1::basic_string<char, std::__1::char_traits<char>, std::__1::allocator<char> >::__rep", %"struct.std::__1::basic_string<char, std::__1::char_traits<char>, std::__1::allocator<char> >::__rep"* %562, i32 0, i32 0
  %564 = bitcast %union.anon* %563 to %"struct.std::__1::basic_string<char, std::__1::char_traits<char>, std::__1::allocator<char> >::__short"*
  %565 = getelementptr inbounds %"struct.std::__1::basic_string<char, std::__1::char_traits<char>, std::__1::allocator<char> >::__short", %"struct.std::__1::basic_string<char, std::__1::char_traits<char>, std::__1::allocator<char> >::__short"* %564, i32 0, i32 1
  %566 = getelementptr inbounds [23 x i8], [23 x i8]* %565, i64 0, i64 0
  store i8* %566, i8** %295, align 8
  %567 = load i8*, i8** %295, align 8
  store i8* %567, i8** %294, align 8
  %568 = load i8*, i8** %294, align 8
  br label %569

; <label>:569:                                    ; preds = %545, %556
  %570 = phi i8* [ %555, %545 ], [ %568, %556 ]
  %571 = load i64, i64* %304, align 8
  %572 = getelementptr inbounds i8, i8* %570, i64 %571
  br label %573

; <label>:573:                                    ; preds = %569
  %574 = load i8, i8* %572, align 1
  %575 = sext i8 %574 to i32
  %576 = icmp eq i32 %575, 10
  br i1 %576, label %577, label %585

; <label>:577:                                    ; preds = %573
  %578 = load i32, i32* %353, align 4
  %579 = add nsw i32 %578, 1
  store i32 %579, i32* %353, align 4
  %580 = load i32, i32* %355, align 4
  store i32 %580, i32* %354, align 4
  br label %585

; <label>:581:                                    ; preds = %1124, %589, %514, %507
  %582 = landingpad { i8*, i32 }
          cleanup
  %583 = extractvalue { i8*, i32 } %582, 0
  store i8* %583, i8** %348, align 8
  %584 = extractvalue { i8*, i32 } %582, 1
  store i32 %584, i32* %349, align 4
  br label %1631

; <label>:585:                                    ; preds = %577, %573
  br label %586

; <label>:586:                                    ; preds = %585
  %587 = load i32, i32* %355, align 4
  %588 = add nsw i32 %587, 1
  store i32 %588, i32* %355, align 4
  br label %522

; <label>:589:                                    ; preds = %522
  %590 = load i32, i32* %353, align 4
  invoke void @_ZNSt3__19to_stringEi(%"class.std::__1::basic_string"* sret %360, i32 %590)
          to label %591 unwind label %581

; <label>:591:                                    ; preds = %589
  store i8* getelementptr inbounds ([3 x i8], [3 x i8]* @.str.3, i32 0, i32 0), i8** %289, align 8, !noalias !2
  store %"class.std::__1::basic_string"* %360, %"class.std::__1::basic_string"** %290, align 8, !noalias !2
  %592 = load %"class.std::__1::basic_string"*, %"class.std::__1::basic_string"** %290, align 8, !noalias !2
  %593 = load i8*, i8** %289, align 8, !noalias !2
  %594 = invoke dereferenceable(24) %"class.std::__1::basic_string"* @_ZNSt3__112basic_stringIcNS_11char_traitsIcEENS_9allocatorIcEEE6insertEmPKc(%"class.std::__1::basic_string"* %592, i64 0, i8* %593)
          to label %595 unwind label %987

; <label>:595:                                    ; preds = %591
  store %"class.std::__1::basic_string"* %594, %"class.std::__1::basic_string"** %288, align 8, !noalias !2
  %596 = load %"class.std::__1::basic_string"*, %"class.std::__1::basic_string"** %288, align 8, !noalias !2
  store %"class.std::__1::basic_string"* %359, %"class.std::__1::basic_string"** %286, align 8, !noalias !2
  store %"class.std::__1::basic_string"* %596, %"class.std::__1::basic_string"** %287, align 8, !noalias !2
  %597 = load %"class.std::__1::basic_string"*, %"class.std::__1::basic_string"** %286, align 8, !noalias !2
  %598 = load %"class.std::__1::basic_string"*, %"class.std::__1::basic_string"** %287, align 8, !noalias !2
  store %"class.std::__1::basic_string"* %597, %"class.std::__1::basic_string"** %284, align 8, !noalias !2
  store %"class.std::__1::basic_string"* %598, %"class.std::__1::basic_string"** %285, align 8, !noalias !2
  %599 = load %"class.std::__1::basic_string"*, %"class.std::__1::basic_string"** %284, align 8, !noalias !2
  %600 = bitcast %"class.std::__1::basic_string"* %599 to %"class.std::__1::__basic_string_common"*
  %601 = getelementptr inbounds %"class.std::__1::basic_string", %"class.std::__1::basic_string"* %599, i32 0, i32 0
  %602 = load %"class.std::__1::basic_string"*, %"class.std::__1::basic_string"** %285, align 8, !noalias !2
  %603 = getelementptr inbounds %"class.std::__1::basic_string", %"class.std::__1::basic_string"* %602, i32 0, i32 0
  store %"class.std::__1::__compressed_pair"* %603, %"class.std::__1::__compressed_pair"** %283, align 8, !noalias !2
  %604 = load %"class.std::__1::__compressed_pair"*, %"class.std::__1::__compressed_pair"** %283, align 8, !noalias !2
  %605 = bitcast %"class.std::__1::__compressed_pair"* %601 to i8*
  %606 = bitcast %"class.std::__1::__compressed_pair"* %604 to i8*
  call void @llvm.memcpy.p0i8.p0i8.i64(i8* %605, i8* %606, i64 24, i32 8, i1 false) #8
  %607 = load %"class.std::__1::basic_string"*, %"class.std::__1::basic_string"** %285, align 8, !noalias !2
  store %"class.std::__1::basic_string"* %607, %"class.std::__1::basic_string"** %280, align 8, !noalias !2
  %608 = load %"class.std::__1::basic_string"*, %"class.std::__1::basic_string"** %280, align 8, !noalias !2
  %609 = getelementptr inbounds %"class.std::__1::basic_string", %"class.std::__1::basic_string"* %608, i32 0, i32 0
  store %"class.std::__1::__compressed_pair"* %609, %"class.std::__1::__compressed_pair"** %279, align 8, !noalias !2
  %610 = load %"class.std::__1::__compressed_pair"*, %"class.std::__1::__compressed_pair"** %279, align 8, !noalias !2
  %611 = bitcast %"class.std::__1::__compressed_pair"* %610 to %"class.std::__1::__libcpp_compressed_pair_imp"*
  store %"class.std::__1::__libcpp_compressed_pair_imp"* %611, %"class.std::__1::__libcpp_compressed_pair_imp"** %278, align 8, !noalias !2
  %612 = load %"class.std::__1::__libcpp_compressed_pair_imp"*, %"class.std::__1::__libcpp_compressed_pair_imp"** %278, align 8, !noalias !2
  %613 = getelementptr inbounds %"class.std::__1::__libcpp_compressed_pair_imp", %"class.std::__1::__libcpp_compressed_pair_imp"* %612, i32 0, i32 0
  %614 = getelementptr inbounds %"struct.std::__1::basic_string<char, std::__1::char_traits<char>, std::__1::allocator<char> >::__rep", %"struct.std::__1::basic_string<char, std::__1::char_traits<char>, std::__1::allocator<char> >::__rep"* %613, i32 0, i32 0
  %615 = bitcast %union.anon* %614 to %"struct.std::__1::basic_string<char, std::__1::char_traits<char>, std::__1::allocator<char> >::__raw"*
  %616 = getelementptr inbounds %"struct.std::__1::basic_string<char, std::__1::char_traits<char>, std::__1::allocator<char> >::__raw", %"struct.std::__1::basic_string<char, std::__1::char_traits<char>, std::__1::allocator<char> >::__raw"* %615, i32 0, i32 0
  store [3 x i64]* %616, [3 x i64]** %281, align 8, !noalias !2
  store i32 0, i32* %282, align 4, !noalias !2
  br label %617

; <label>:617:                                    ; preds = %620, %595
  %618 = load i32, i32* %282, align 4, !noalias !2
  %619 = icmp ult i32 %618, 3
  br i1 %619, label %620, label %627

; <label>:620:                                    ; preds = %617
  %621 = load i32, i32* %282, align 4, !noalias !2
  %622 = zext i32 %621 to i64
  %623 = load [3 x i64]*, [3 x i64]** %281, align 8, !noalias !2
  %624 = getelementptr inbounds [3 x i64], [3 x i64]* %623, i64 0, i64 %622
  store i64 0, i64* %624, align 8
  %625 = load i32, i32* %282, align 4, !noalias !2
  %626 = add i32 %625, 1
  store i32 %626, i32* %282, align 4, !noalias !2
  br label %617

; <label>:627:                                    ; preds = %617
  br label %628

; <label>:628:                                    ; preds = %627
  store %"class.std::__1::basic_string"* %359, %"class.std::__1::basic_string"** %276, align 8, !noalias !5
  store i8* getelementptr inbounds ([2 x i8], [2 x i8]* @.str.4, i32 0, i32 0), i8** %277, align 8, !noalias !5
  %629 = load %"class.std::__1::basic_string"*, %"class.std::__1::basic_string"** %276, align 8, !noalias !5
  %630 = load i8*, i8** %277, align 8, !noalias !5
  %631 = invoke dereferenceable(24) %"class.std::__1::basic_string"* @_ZNSt3__112basic_stringIcNS_11char_traitsIcEENS_9allocatorIcEEE6appendEPKc(%"class.std::__1::basic_string"* %629, i8* %630)
          to label %632 unwind label %991

; <label>:632:                                    ; preds = %628
  store %"class.std::__1::basic_string"* %631, %"class.std::__1::basic_string"** %275, align 8, !noalias !5
  %633 = load %"class.std::__1::basic_string"*, %"class.std::__1::basic_string"** %275, align 8, !noalias !5
  store %"class.std::__1::basic_string"* %358, %"class.std::__1::basic_string"** %273, align 8, !noalias !5
  store %"class.std::__1::basic_string"* %633, %"class.std::__1::basic_string"** %274, align 8, !noalias !5
  %634 = load %"class.std::__1::basic_string"*, %"class.std::__1::basic_string"** %273, align 8, !noalias !5
  %635 = load %"class.std::__1::basic_string"*, %"class.std::__1::basic_string"** %274, align 8, !noalias !5
  store %"class.std::__1::basic_string"* %634, %"class.std::__1::basic_string"** %271, align 8, !noalias !5
  store %"class.std::__1::basic_string"* %635, %"class.std::__1::basic_string"** %272, align 8, !noalias !5
  %636 = load %"class.std::__1::basic_string"*, %"class.std::__1::basic_string"** %271, align 8, !noalias !5
  %637 = bitcast %"class.std::__1::basic_string"* %636 to %"class.std::__1::__basic_string_common"*
  %638 = getelementptr inbounds %"class.std::__1::basic_string", %"class.std::__1::basic_string"* %636, i32 0, i32 0
  %639 = load %"class.std::__1::basic_string"*, %"class.std::__1::basic_string"** %272, align 8, !noalias !5
  %640 = getelementptr inbounds %"class.std::__1::basic_string", %"class.std::__1::basic_string"* %639, i32 0, i32 0
  store %"class.std::__1::__compressed_pair"* %640, %"class.std::__1::__compressed_pair"** %270, align 8, !noalias !5
  %641 = load %"class.std::__1::__compressed_pair"*, %"class.std::__1::__compressed_pair"** %270, align 8, !noalias !5
  %642 = bitcast %"class.std::__1::__compressed_pair"* %638 to i8*
  %643 = bitcast %"class.std::__1::__compressed_pair"* %641 to i8*
  call void @llvm.memcpy.p0i8.p0i8.i64(i8* %642, i8* %643, i64 24, i32 8, i1 false) #8
  %644 = load %"class.std::__1::basic_string"*, %"class.std::__1::basic_string"** %272, align 8, !noalias !5
  store %"class.std::__1::basic_string"* %644, %"class.std::__1::basic_string"** %267, align 8, !noalias !5
  %645 = load %"class.std::__1::basic_string"*, %"class.std::__1::basic_string"** %267, align 8, !noalias !5
  %646 = getelementptr inbounds %"class.std::__1::basic_string", %"class.std::__1::basic_string"* %645, i32 0, i32 0
  store %"class.std::__1::__compressed_pair"* %646, %"class.std::__1::__compressed_pair"** %266, align 8, !noalias !5
  %647 = load %"class.std::__1::__compressed_pair"*, %"class.std::__1::__compressed_pair"** %266, align 8, !noalias !5
  %648 = bitcast %"class.std::__1::__compressed_pair"* %647 to %"class.std::__1::__libcpp_compressed_pair_imp"*
  store %"class.std::__1::__libcpp_compressed_pair_imp"* %648, %"class.std::__1::__libcpp_compressed_pair_imp"** %265, align 8, !noalias !5
  %649 = load %"class.std::__1::__libcpp_compressed_pair_imp"*, %"class.std::__1::__libcpp_compressed_pair_imp"** %265, align 8, !noalias !5
  %650 = getelementptr inbounds %"class.std::__1::__libcpp_compressed_pair_imp", %"class.std::__1::__libcpp_compressed_pair_imp"* %649, i32 0, i32 0
  %651 = getelementptr inbounds %"struct.std::__1::basic_string<char, std::__1::char_traits<char>, std::__1::allocator<char> >::__rep", %"struct.std::__1::basic_string<char, std::__1::char_traits<char>, std::__1::allocator<char> >::__rep"* %650, i32 0, i32 0
  %652 = bitcast %union.anon* %651 to %"struct.std::__1::basic_string<char, std::__1::char_traits<char>, std::__1::allocator<char> >::__raw"*
  %653 = getelementptr inbounds %"struct.std::__1::basic_string<char, std::__1::char_traits<char>, std::__1::allocator<char> >::__raw", %"struct.std::__1::basic_string<char, std::__1::char_traits<char>, std::__1::allocator<char> >::__raw"* %652, i32 0, i32 0
  store [3 x i64]* %653, [3 x i64]** %268, align 8, !noalias !5
  store i32 0, i32* %269, align 4, !noalias !5
  br label %654

; <label>:654:                                    ; preds = %657, %632
  %655 = load i32, i32* %269, align 4, !noalias !5
  %656 = icmp ult i32 %655, 3
  br i1 %656, label %657, label %664

; <label>:657:                                    ; preds = %654
  %658 = load i32, i32* %269, align 4, !noalias !5
  %659 = zext i32 %658 to i64
  %660 = load [3 x i64]*, [3 x i64]** %268, align 8, !noalias !5
  %661 = getelementptr inbounds [3 x i64], [3 x i64]* %660, i64 0, i64 %659
  store i64 0, i64* %661, align 8
  %662 = load i32, i32* %269, align 4, !noalias !5
  %663 = add i32 %662, 1
  store i32 %663, i32* %269, align 4, !noalias !5
  br label %654

; <label>:664:                                    ; preds = %654
  br label %665

; <label>:665:                                    ; preds = %664
  %666 = load i32, i32* %351, align 4
  %667 = load i32, i32* %354, align 4
  %668 = sub nsw i32 %666, %667
  invoke void @_ZNSt3__19to_stringEi(%"class.std::__1::basic_string"* sret %361, i32 %668)
          to label %669 unwind label %995

; <label>:669:                                    ; preds = %665
  store %"class.std::__1::basic_string"* %358, %"class.std::__1::basic_string"** %263, align 8, !noalias !8
  store %"class.std::__1::basic_string"* %361, %"class.std::__1::basic_string"** %264, align 8, !noalias !8
  %670 = load %"class.std::__1::basic_string"*, %"class.std::__1::basic_string"** %263, align 8, !noalias !8
  %671 = load %"class.std::__1::basic_string"*, %"class.std::__1::basic_string"** %264, align 8, !noalias !8
  store %"class.std::__1::basic_string"* %670, %"class.std::__1::basic_string"** %261, align 8, !noalias !8
  store %"class.std::__1::basic_string"* %671, %"class.std::__1::basic_string"** %262, align 8, !noalias !8
  %672 = load %"class.std::__1::basic_string"*, %"class.std::__1::basic_string"** %261, align 8, !noalias !8
  %673 = load %"class.std::__1::basic_string"*, %"class.std::__1::basic_string"** %262, align 8, !noalias !8
  store %"class.std::__1::basic_string"* %673, %"class.std::__1::basic_string"** %260, align 8, !noalias !8
  %674 = load %"class.std::__1::basic_string"*, %"class.std::__1::basic_string"** %260, align 8, !noalias !8
  store %"class.std::__1::basic_string"* %674, %"class.std::__1::basic_string"** %259, align 8, !noalias !8
  %675 = load %"class.std::__1::basic_string"*, %"class.std::__1::basic_string"** %259, align 8, !noalias !8
  store %"class.std::__1::basic_string"* %675, %"class.std::__1::basic_string"** %258, align 8, !noalias !8
  %676 = load %"class.std::__1::basic_string"*, %"class.std::__1::basic_string"** %258, align 8, !noalias !8
  %677 = getelementptr inbounds %"class.std::__1::basic_string", %"class.std::__1::basic_string"* %676, i32 0, i32 0
  store %"class.std::__1::__compressed_pair"* %677, %"class.std::__1::__compressed_pair"** %257, align 8, !noalias !8
  %678 = load %"class.std::__1::__compressed_pair"*, %"class.std::__1::__compressed_pair"** %257, align 8, !noalias !8
  %679 = bitcast %"class.std::__1::__compressed_pair"* %678 to %"class.std::__1::__libcpp_compressed_pair_imp"*
  store %"class.std::__1::__libcpp_compressed_pair_imp"* %679, %"class.std::__1::__libcpp_compressed_pair_imp"** %256, align 8, !noalias !8
  %680 = load %"class.std::__1::__libcpp_compressed_pair_imp"*, %"class.std::__1::__libcpp_compressed_pair_imp"** %256, align 8, !noalias !8
  %681 = getelementptr inbounds %"class.std::__1::__libcpp_compressed_pair_imp", %"class.std::__1::__libcpp_compressed_pair_imp"* %680, i32 0, i32 0
  %682 = getelementptr inbounds %"struct.std::__1::basic_string<char, std::__1::char_traits<char>, std::__1::allocator<char> >::__rep", %"struct.std::__1::basic_string<char, std::__1::char_traits<char>, std::__1::allocator<char> >::__rep"* %681, i32 0, i32 0
  %683 = bitcast %union.anon* %682 to %"struct.std::__1::basic_string<char, std::__1::char_traits<char>, std::__1::allocator<char> >::__short"*
  %684 = getelementptr inbounds %"struct.std::__1::basic_string<char, std::__1::char_traits<char>, std::__1::allocator<char> >::__short", %"struct.std::__1::basic_string<char, std::__1::char_traits<char>, std::__1::allocator<char> >::__short"* %683, i32 0, i32 0
  %685 = bitcast %union.anon.0* %684 to i8*
  %686 = load i8, i8* %685, align 8, !noalias !8
  %687 = zext i8 %686 to i32
  %688 = and i32 %687, 1
  %689 = icmp ne i32 %688, 0
  br i1 %689, label %690, label %701

; <label>:690:                                    ; preds = %669
  store %"class.std::__1::basic_string"* %675, %"class.std::__1::basic_string"** %250, align 8, !noalias !8
  %691 = load %"class.std::__1::basic_string"*, %"class.std::__1::basic_string"** %250, align 8, !noalias !8
  %692 = getelementptr inbounds %"class.std::__1::basic_string", %"class.std::__1::basic_string"* %691, i32 0, i32 0
  store %"class.std::__1::__compressed_pair"* %692, %"class.std::__1::__compressed_pair"** %249, align 8, !noalias !8
  %693 = load %"class.std::__1::__compressed_pair"*, %"class.std::__1::__compressed_pair"** %249, align 8, !noalias !8
  %694 = bitcast %"class.std::__1::__compressed_pair"* %693 to %"class.std::__1::__libcpp_compressed_pair_imp"*
  store %"class.std::__1::__libcpp_compressed_pair_imp"* %694, %"class.std::__1::__libcpp_compressed_pair_imp"** %248, align 8, !noalias !8
  %695 = load %"class.std::__1::__libcpp_compressed_pair_imp"*, %"class.std::__1::__libcpp_compressed_pair_imp"** %248, align 8, !noalias !8
  %696 = getelementptr inbounds %"class.std::__1::__libcpp_compressed_pair_imp", %"class.std::__1::__libcpp_compressed_pair_imp"* %695, i32 0, i32 0
  %697 = getelementptr inbounds %"struct.std::__1::basic_string<char, std::__1::char_traits<char>, std::__1::allocator<char> >::__rep", %"struct.std::__1::basic_string<char, std::__1::char_traits<char>, std::__1::allocator<char> >::__rep"* %696, i32 0, i32 0
  %698 = bitcast %union.anon* %697 to %"struct.std::__1::basic_string<char, std::__1::char_traits<char>, std::__1::allocator<char> >::__long"*
  %699 = getelementptr inbounds %"struct.std::__1::basic_string<char, std::__1::char_traits<char>, std::__1::allocator<char> >::__long", %"struct.std::__1::basic_string<char, std::__1::char_traits<char>, std::__1::allocator<char> >::__long"* %698, i32 0, i32 2
  %700 = load i8*, i8** %699, align 8
  br label %714

; <label>:701:                                    ; preds = %669
  store %"class.std::__1::basic_string"* %675, %"class.std::__1::basic_string"** %255, align 8, !noalias !8
  %702 = load %"class.std::__1::basic_string"*, %"class.std::__1::basic_string"** %255, align 8, !noalias !8
  %703 = getelementptr inbounds %"class.std::__1::basic_string", %"class.std::__1::basic_string"* %702, i32 0, i32 0
  store %"class.std::__1::__compressed_pair"* %703, %"class.std::__1::__compressed_pair"** %254, align 8, !noalias !8
  %704 = load %"class.std::__1::__compressed_pair"*, %"class.std::__1::__compressed_pair"** %254, align 8, !noalias !8
  %705 = bitcast %"class.std::__1::__compressed_pair"* %704 to %"class.std::__1::__libcpp_compressed_pair_imp"*
  store %"class.std::__1::__libcpp_compressed_pair_imp"* %705, %"class.std::__1::__libcpp_compressed_pair_imp"** %253, align 8, !noalias !8
  %706 = load %"class.std::__1::__libcpp_compressed_pair_imp"*, %"class.std::__1::__libcpp_compressed_pair_imp"** %253, align 8, !noalias !8
  %707 = getelementptr inbounds %"class.std::__1::__libcpp_compressed_pair_imp", %"class.std::__1::__libcpp_compressed_pair_imp"* %706, i32 0, i32 0
  %708 = getelementptr inbounds %"struct.std::__1::basic_string<char, std::__1::char_traits<char>, std::__1::allocator<char> >::__rep", %"struct.std::__1::basic_string<char, std::__1::char_traits<char>, std::__1::allocator<char> >::__rep"* %707, i32 0, i32 0
  %709 = bitcast %union.anon* %708 to %"struct.std::__1::basic_string<char, std::__1::char_traits<char>, std::__1::allocator<char> >::__short"*
  %710 = getelementptr inbounds %"struct.std::__1::basic_string<char, std::__1::char_traits<char>, std::__1::allocator<char> >::__short", %"struct.std::__1::basic_string<char, std::__1::char_traits<char>, std::__1::allocator<char> >::__short"* %709, i32 0, i32 1
  %711 = getelementptr inbounds [23 x i8], [23 x i8]* %710, i64 0, i64 0
  store i8* %711, i8** %252, align 8, !noalias !8
  %712 = load i8*, i8** %252, align 8, !noalias !8
  store i8* %712, i8** %251, align 8, !noalias !8
  %713 = load i8*, i8** %251, align 8, !noalias !8
  br label %714

; <label>:714:                                    ; preds = %701, %690
  %715 = phi i8* [ %700, %690 ], [ %713, %701 ]
  store i8* %715, i8** %247, align 8, !noalias !8
  %716 = load i8*, i8** %247, align 8, !noalias !8
  %717 = load %"class.std::__1::basic_string"*, %"class.std::__1::basic_string"** %262, align 8, !noalias !8
  store %"class.std::__1::basic_string"* %717, %"class.std::__1::basic_string"** %246, align 8, !noalias !8
  %718 = load %"class.std::__1::basic_string"*, %"class.std::__1::basic_string"** %246, align 8, !noalias !8
  store %"class.std::__1::basic_string"* %718, %"class.std::__1::basic_string"** %245, align 8, !noalias !8
  %719 = load %"class.std::__1::basic_string"*, %"class.std::__1::basic_string"** %245, align 8, !noalias !8
  %720 = getelementptr inbounds %"class.std::__1::basic_string", %"class.std::__1::basic_string"* %719, i32 0, i32 0
  store %"class.std::__1::__compressed_pair"* %720, %"class.std::__1::__compressed_pair"** %244, align 8, !noalias !8
  %721 = load %"class.std::__1::__compressed_pair"*, %"class.std::__1::__compressed_pair"** %244, align 8, !noalias !8
  %722 = bitcast %"class.std::__1::__compressed_pair"* %721 to %"class.std::__1::__libcpp_compressed_pair_imp"*
  store %"class.std::__1::__libcpp_compressed_pair_imp"* %722, %"class.std::__1::__libcpp_compressed_pair_imp"** %243, align 8, !noalias !8
  %723 = load %"class.std::__1::__libcpp_compressed_pair_imp"*, %"class.std::__1::__libcpp_compressed_pair_imp"** %243, align 8, !noalias !8
  %724 = getelementptr inbounds %"class.std::__1::__libcpp_compressed_pair_imp", %"class.std::__1::__libcpp_compressed_pair_imp"* %723, i32 0, i32 0
  %725 = getelementptr inbounds %"struct.std::__1::basic_string<char, std::__1::char_traits<char>, std::__1::allocator<char> >::__rep", %"struct.std::__1::basic_string<char, std::__1::char_traits<char>, std::__1::allocator<char> >::__rep"* %724, i32 0, i32 0
  %726 = bitcast %union.anon* %725 to %"struct.std::__1::basic_string<char, std::__1::char_traits<char>, std::__1::allocator<char> >::__short"*
  %727 = getelementptr inbounds %"struct.std::__1::basic_string<char, std::__1::char_traits<char>, std::__1::allocator<char> >::__short", %"struct.std::__1::basic_string<char, std::__1::char_traits<char>, std::__1::allocator<char> >::__short"* %726, i32 0, i32 0
  %728 = bitcast %union.anon.0* %727 to i8*
  %729 = load i8, i8* %728, align 8, !noalias !8
  %730 = zext i8 %729 to i32
  %731 = and i32 %730, 1
  %732 = icmp ne i32 %731, 0
  br i1 %732, label %733, label %744

; <label>:733:                                    ; preds = %714
  store %"class.std::__1::basic_string"* %718, %"class.std::__1::basic_string"** %239, align 8, !noalias !8
  %734 = load %"class.std::__1::basic_string"*, %"class.std::__1::basic_string"** %239, align 8, !noalias !8
  %735 = getelementptr inbounds %"class.std::__1::basic_string", %"class.std::__1::basic_string"* %734, i32 0, i32 0
  store %"class.std::__1::__compressed_pair"* %735, %"class.std::__1::__compressed_pair"** %238, align 8, !noalias !8
  %736 = load %"class.std::__1::__compressed_pair"*, %"class.std::__1::__compressed_pair"** %238, align 8, !noalias !8
  %737 = bitcast %"class.std::__1::__compressed_pair"* %736 to %"class.std::__1::__libcpp_compressed_pair_imp"*
  store %"class.std::__1::__libcpp_compressed_pair_imp"* %737, %"class.std::__1::__libcpp_compressed_pair_imp"** %237, align 8, !noalias !8
  %738 = load %"class.std::__1::__libcpp_compressed_pair_imp"*, %"class.std::__1::__libcpp_compressed_pair_imp"** %237, align 8, !noalias !8
  %739 = getelementptr inbounds %"class.std::__1::__libcpp_compressed_pair_imp", %"class.std::__1::__libcpp_compressed_pair_imp"* %738, i32 0, i32 0
  %740 = getelementptr inbounds %"struct.std::__1::basic_string<char, std::__1::char_traits<char>, std::__1::allocator<char> >::__rep", %"struct.std::__1::basic_string<char, std::__1::char_traits<char>, std::__1::allocator<char> >::__rep"* %739, i32 0, i32 0
  %741 = bitcast %union.anon* %740 to %"struct.std::__1::basic_string<char, std::__1::char_traits<char>, std::__1::allocator<char> >::__long"*
  %742 = getelementptr inbounds %"struct.std::__1::basic_string<char, std::__1::char_traits<char>, std::__1::allocator<char> >::__long", %"struct.std::__1::basic_string<char, std::__1::char_traits<char>, std::__1::allocator<char> >::__long"* %741, i32 0, i32 1
  %743 = load i64, i64* %742, align 8
  br label %759

; <label>:744:                                    ; preds = %714
  store %"class.std::__1::basic_string"* %718, %"class.std::__1::basic_string"** %242, align 8, !noalias !8
  %745 = load %"class.std::__1::basic_string"*, %"class.std::__1::basic_string"** %242, align 8, !noalias !8
  %746 = getelementptr inbounds %"class.std::__1::basic_string", %"class.std::__1::basic_string"* %745, i32 0, i32 0
  store %"class.std::__1::__compressed_pair"* %746, %"class.std::__1::__compressed_pair"** %241, align 8, !noalias !8
  %747 = load %"class.std::__1::__compressed_pair"*, %"class.std::__1::__compressed_pair"** %241, align 8, !noalias !8
  %748 = bitcast %"class.std::__1::__compressed_pair"* %747 to %"class.std::__1::__libcpp_compressed_pair_imp"*
  store %"class.std::__1::__libcpp_compressed_pair_imp"* %748, %"class.std::__1::__libcpp_compressed_pair_imp"** %240, align 8, !noalias !8
  %749 = load %"class.std::__1::__libcpp_compressed_pair_imp"*, %"class.std::__1::__libcpp_compressed_pair_imp"** %240, align 8, !noalias !8
  %750 = getelementptr inbounds %"class.std::__1::__libcpp_compressed_pair_imp", %"class.std::__1::__libcpp_compressed_pair_imp"* %749, i32 0, i32 0
  %751 = getelementptr inbounds %"struct.std::__1::basic_string<char, std::__1::char_traits<char>, std::__1::allocator<char> >::__rep", %"struct.std::__1::basic_string<char, std::__1::char_traits<char>, std::__1::allocator<char> >::__rep"* %750, i32 0, i32 0
  %752 = bitcast %union.anon* %751 to %"struct.std::__1::basic_string<char, std::__1::char_traits<char>, std::__1::allocator<char> >::__short"*
  %753 = getelementptr inbounds %"struct.std::__1::basic_string<char, std::__1::char_traits<char>, std::__1::allocator<char> >::__short", %"struct.std::__1::basic_string<char, std::__1::char_traits<char>, std::__1::allocator<char> >::__short"* %752, i32 0, i32 0
  %754 = bitcast %union.anon.0* %753 to i8*
  %755 = load i8, i8* %754, align 8
  %756 = zext i8 %755 to i32
  %757 = ashr i32 %756, 1
  %758 = sext i32 %757 to i64
  br label %759

; <label>:759:                                    ; preds = %744, %733
  %760 = phi i64 [ %743, %733 ], [ %758, %744 ]
  %761 = invoke dereferenceable(24) %"class.std::__1::basic_string"* @_ZNSt3__112basic_stringIcNS_11char_traitsIcEENS_9allocatorIcEEE6appendEPKcm(%"class.std::__1::basic_string"* %672, i8* %716, i64 %760)
          to label %762 unwind label %999

; <label>:762:                                    ; preds = %759
  store %"class.std::__1::basic_string"* %761, %"class.std::__1::basic_string"** %236, align 8, !noalias !8
  %763 = load %"class.std::__1::basic_string"*, %"class.std::__1::basic_string"** %236, align 8, !noalias !8
  store %"class.std::__1::basic_string"* %357, %"class.std::__1::basic_string"** %234, align 8, !noalias !8
  store %"class.std::__1::basic_string"* %763, %"class.std::__1::basic_string"** %235, align 8, !noalias !8
  %764 = load %"class.std::__1::basic_string"*, %"class.std::__1::basic_string"** %234, align 8, !noalias !8
  %765 = load %"class.std::__1::basic_string"*, %"class.std::__1::basic_string"** %235, align 8, !noalias !8
  store %"class.std::__1::basic_string"* %764, %"class.std::__1::basic_string"** %232, align 8, !noalias !8
  store %"class.std::__1::basic_string"* %765, %"class.std::__1::basic_string"** %233, align 8, !noalias !8
  %766 = load %"class.std::__1::basic_string"*, %"class.std::__1::basic_string"** %232, align 8, !noalias !8
  %767 = bitcast %"class.std::__1::basic_string"* %766 to %"class.std::__1::__basic_string_common"*
  %768 = getelementptr inbounds %"class.std::__1::basic_string", %"class.std::__1::basic_string"* %766, i32 0, i32 0
  %769 = load %"class.std::__1::basic_string"*, %"class.std::__1::basic_string"** %233, align 8, !noalias !8
  %770 = getelementptr inbounds %"class.std::__1::basic_string", %"class.std::__1::basic_string"* %769, i32 0, i32 0
  store %"class.std::__1::__compressed_pair"* %770, %"class.std::__1::__compressed_pair"** %231, align 8, !noalias !8
  %771 = load %"class.std::__1::__compressed_pair"*, %"class.std::__1::__compressed_pair"** %231, align 8, !noalias !8
  %772 = bitcast %"class.std::__1::__compressed_pair"* %768 to i8*
  %773 = bitcast %"class.std::__1::__compressed_pair"* %771 to i8*
  call void @llvm.memcpy.p0i8.p0i8.i64(i8* %772, i8* %773, i64 24, i32 8, i1 false) #8
  %774 = load %"class.std::__1::basic_string"*, %"class.std::__1::basic_string"** %233, align 8, !noalias !8
  store %"class.std::__1::basic_string"* %774, %"class.std::__1::basic_string"** %228, align 8, !noalias !8
  %775 = load %"class.std::__1::basic_string"*, %"class.std::__1::basic_string"** %228, align 8, !noalias !8
  %776 = getelementptr inbounds %"class.std::__1::basic_string", %"class.std::__1::basic_string"* %775, i32 0, i32 0
  store %"class.std::__1::__compressed_pair"* %776, %"class.std::__1::__compressed_pair"** %227, align 8, !noalias !8
  %777 = load %"class.std::__1::__compressed_pair"*, %"class.std::__1::__compressed_pair"** %227, align 8, !noalias !8
  %778 = bitcast %"class.std::__1::__compressed_pair"* %777 to %"class.std::__1::__libcpp_compressed_pair_imp"*
  store %"class.std::__1::__libcpp_compressed_pair_imp"* %778, %"class.std::__1::__libcpp_compressed_pair_imp"** %226, align 8, !noalias !8
  %779 = load %"class.std::__1::__libcpp_compressed_pair_imp"*, %"class.std::__1::__libcpp_compressed_pair_imp"** %226, align 8, !noalias !8
  %780 = getelementptr inbounds %"class.std::__1::__libcpp_compressed_pair_imp", %"class.std::__1::__libcpp_compressed_pair_imp"* %779, i32 0, i32 0
  %781 = getelementptr inbounds %"struct.std::__1::basic_string<char, std::__1::char_traits<char>, std::__1::allocator<char> >::__rep", %"struct.std::__1::basic_string<char, std::__1::char_traits<char>, std::__1::allocator<char> >::__rep"* %780, i32 0, i32 0
  %782 = bitcast %union.anon* %781 to %"struct.std::__1::basic_string<char, std::__1::char_traits<char>, std::__1::allocator<char> >::__raw"*
  %783 = getelementptr inbounds %"struct.std::__1::basic_string<char, std::__1::char_traits<char>, std::__1::allocator<char> >::__raw", %"struct.std::__1::basic_string<char, std::__1::char_traits<char>, std::__1::allocator<char> >::__raw"* %782, i32 0, i32 0
  store [3 x i64]* %783, [3 x i64]** %229, align 8, !noalias !8
  store i32 0, i32* %230, align 4, !noalias !8
  br label %784

; <label>:784:                                    ; preds = %787, %762
  %785 = load i32, i32* %230, align 4, !noalias !8
  %786 = icmp ult i32 %785, 3
  br i1 %786, label %787, label %794

; <label>:787:                                    ; preds = %784
  %788 = load i32, i32* %230, align 4, !noalias !8
  %789 = zext i32 %788 to i64
  %790 = load [3 x i64]*, [3 x i64]** %229, align 8, !noalias !8
  %791 = getelementptr inbounds [3 x i64], [3 x i64]* %790, i64 0, i64 %789
  store i64 0, i64* %791, align 8
  %792 = load i32, i32* %230, align 4, !noalias !8
  %793 = add i32 %792, 1
  store i32 %793, i32* %230, align 4, !noalias !8
  br label %784

; <label>:794:                                    ; preds = %784
  br label %795

; <label>:795:                                    ; preds = %794
  store %"class.std::__1::basic_string"* %357, %"class.std::__1::basic_string"** %224, align 8, !noalias !11
  store i8* getelementptr inbounds ([3 x i8], [3 x i8]* @.str.5, i32 0, i32 0), i8** %225, align 8, !noalias !11
  %796 = load %"class.std::__1::basic_string"*, %"class.std::__1::basic_string"** %224, align 8, !noalias !11
  %797 = load i8*, i8** %225, align 8, !noalias !11
  %798 = invoke dereferenceable(24) %"class.std::__1::basic_string"* @_ZNSt3__112basic_stringIcNS_11char_traitsIcEENS_9allocatorIcEEE6appendEPKc(%"class.std::__1::basic_string"* %796, i8* %797)
          to label %799 unwind label %1003

; <label>:799:                                    ; preds = %795
  store %"class.std::__1::basic_string"* %798, %"class.std::__1::basic_string"** %223, align 8, !noalias !11
  %800 = load %"class.std::__1::basic_string"*, %"class.std::__1::basic_string"** %223, align 8, !noalias !11
  store %"class.std::__1::basic_string"* %356, %"class.std::__1::basic_string"** %221, align 8, !noalias !11
  store %"class.std::__1::basic_string"* %800, %"class.std::__1::basic_string"** %222, align 8, !noalias !11
  %801 = load %"class.std::__1::basic_string"*, %"class.std::__1::basic_string"** %221, align 8, !noalias !11
  %802 = load %"class.std::__1::basic_string"*, %"class.std::__1::basic_string"** %222, align 8, !noalias !11
  store %"class.std::__1::basic_string"* %801, %"class.std::__1::basic_string"** %219, align 8, !noalias !11
  store %"class.std::__1::basic_string"* %802, %"class.std::__1::basic_string"** %220, align 8, !noalias !11
  %803 = load %"class.std::__1::basic_string"*, %"class.std::__1::basic_string"** %219, align 8, !noalias !11
  %804 = bitcast %"class.std::__1::basic_string"* %803 to %"class.std::__1::__basic_string_common"*
  %805 = getelementptr inbounds %"class.std::__1::basic_string", %"class.std::__1::basic_string"* %803, i32 0, i32 0
  %806 = load %"class.std::__1::basic_string"*, %"class.std::__1::basic_string"** %220, align 8, !noalias !11
  %807 = getelementptr inbounds %"class.std::__1::basic_string", %"class.std::__1::basic_string"* %806, i32 0, i32 0
  store %"class.std::__1::__compressed_pair"* %807, %"class.std::__1::__compressed_pair"** %218, align 8, !noalias !11
  %808 = load %"class.std::__1::__compressed_pair"*, %"class.std::__1::__compressed_pair"** %218, align 8, !noalias !11
  %809 = bitcast %"class.std::__1::__compressed_pair"* %805 to i8*
  %810 = bitcast %"class.std::__1::__compressed_pair"* %808 to i8*
  call void @llvm.memcpy.p0i8.p0i8.i64(i8* %809, i8* %810, i64 24, i32 8, i1 false) #8
  %811 = load %"class.std::__1::basic_string"*, %"class.std::__1::basic_string"** %220, align 8, !noalias !11
  store %"class.std::__1::basic_string"* %811, %"class.std::__1::basic_string"** %215, align 8, !noalias !11
  %812 = load %"class.std::__1::basic_string"*, %"class.std::__1::basic_string"** %215, align 8, !noalias !11
  %813 = getelementptr inbounds %"class.std::__1::basic_string", %"class.std::__1::basic_string"* %812, i32 0, i32 0
  store %"class.std::__1::__compressed_pair"* %813, %"class.std::__1::__compressed_pair"** %214, align 8, !noalias !11
  %814 = load %"class.std::__1::__compressed_pair"*, %"class.std::__1::__compressed_pair"** %214, align 8, !noalias !11
  %815 = bitcast %"class.std::__1::__compressed_pair"* %814 to %"class.std::__1::__libcpp_compressed_pair_imp"*
  store %"class.std::__1::__libcpp_compressed_pair_imp"* %815, %"class.std::__1::__libcpp_compressed_pair_imp"** %213, align 8, !noalias !11
  %816 = load %"class.std::__1::__libcpp_compressed_pair_imp"*, %"class.std::__1::__libcpp_compressed_pair_imp"** %213, align 8, !noalias !11
  %817 = getelementptr inbounds %"class.std::__1::__libcpp_compressed_pair_imp", %"class.std::__1::__libcpp_compressed_pair_imp"* %816, i32 0, i32 0
  %818 = getelementptr inbounds %"struct.std::__1::basic_string<char, std::__1::char_traits<char>, std::__1::allocator<char> >::__rep", %"struct.std::__1::basic_string<char, std::__1::char_traits<char>, std::__1::allocator<char> >::__rep"* %817, i32 0, i32 0
  %819 = bitcast %union.anon* %818 to %"struct.std::__1::basic_string<char, std::__1::char_traits<char>, std::__1::allocator<char> >::__raw"*
  %820 = getelementptr inbounds %"struct.std::__1::basic_string<char, std::__1::char_traits<char>, std::__1::allocator<char> >::__raw", %"struct.std::__1::basic_string<char, std::__1::char_traits<char>, std::__1::allocator<char> >::__raw"* %819, i32 0, i32 0
  store [3 x i64]* %820, [3 x i64]** %216, align 8, !noalias !11
  store i32 0, i32* %217, align 4, !noalias !11
  br label %821

; <label>:821:                                    ; preds = %824, %799
  %822 = load i32, i32* %217, align 4, !noalias !11
  %823 = icmp ult i32 %822, 3
  br i1 %823, label %824, label %831

; <label>:824:                                    ; preds = %821
  %825 = load i32, i32* %217, align 4, !noalias !11
  %826 = zext i32 %825 to i64
  %827 = load [3 x i64]*, [3 x i64]** %216, align 8, !noalias !11
  %828 = getelementptr inbounds [3 x i64], [3 x i64]* %827, i64 0, i64 %826
  store i64 0, i64* %828, align 8
  %829 = load i32, i32* %217, align 4, !noalias !11
  %830 = add i32 %829, 1
  store i32 %830, i32* %217, align 4, !noalias !11
  br label %821

; <label>:831:                                    ; preds = %821
  br label %832

; <label>:832:                                    ; preds = %831
  store %"class.std::__1::basic_string"* %347, %"class.std::__1::basic_string"** %211, align 8
  store %"class.std::__1::basic_string"* %356, %"class.std::__1::basic_string"** %212, align 8
  %833 = load %"class.std::__1::basic_string"*, %"class.std::__1::basic_string"** %211, align 8
  %834 = load %"class.std::__1::basic_string"*, %"class.std::__1::basic_string"** %212, align 8
  store %"class.std::__1::basic_string"* %833, %"class.std::__1::basic_string"** %209, align 8
  store %"class.std::__1::basic_string"* %834, %"class.std::__1::basic_string"** %210, align 8
  %835 = load %"class.std::__1::basic_string"*, %"class.std::__1::basic_string"** %209, align 8
  %836 = load %"class.std::__1::basic_string"*, %"class.std::__1::basic_string"** %210, align 8
  store %"class.std::__1::basic_string"* %836, %"class.std::__1::basic_string"** %208, align 8
  %837 = load %"class.std::__1::basic_string"*, %"class.std::__1::basic_string"** %208, align 8
  store %"class.std::__1::basic_string"* %837, %"class.std::__1::basic_string"** %207, align 8
  %838 = load %"class.std::__1::basic_string"*, %"class.std::__1::basic_string"** %207, align 8
  store %"class.std::__1::basic_string"* %838, %"class.std::__1::basic_string"** %206, align 8
  %839 = load %"class.std::__1::basic_string"*, %"class.std::__1::basic_string"** %206, align 8
  %840 = getelementptr inbounds %"class.std::__1::basic_string", %"class.std::__1::basic_string"* %839, i32 0, i32 0
  store %"class.std::__1::__compressed_pair"* %840, %"class.std::__1::__compressed_pair"** %205, align 8
  %841 = load %"class.std::__1::__compressed_pair"*, %"class.std::__1::__compressed_pair"** %205, align 8
  %842 = bitcast %"class.std::__1::__compressed_pair"* %841 to %"class.std::__1::__libcpp_compressed_pair_imp"*
  store %"class.std::__1::__libcpp_compressed_pair_imp"* %842, %"class.std::__1::__libcpp_compressed_pair_imp"** %204, align 8
  %843 = load %"class.std::__1::__libcpp_compressed_pair_imp"*, %"class.std::__1::__libcpp_compressed_pair_imp"** %204, align 8
  %844 = getelementptr inbounds %"class.std::__1::__libcpp_compressed_pair_imp", %"class.std::__1::__libcpp_compressed_pair_imp"* %843, i32 0, i32 0
  %845 = getelementptr inbounds %"struct.std::__1::basic_string<char, std::__1::char_traits<char>, std::__1::allocator<char> >::__rep", %"struct.std::__1::basic_string<char, std::__1::char_traits<char>, std::__1::allocator<char> >::__rep"* %844, i32 0, i32 0
  %846 = bitcast %union.anon* %845 to %"struct.std::__1::basic_string<char, std::__1::char_traits<char>, std::__1::allocator<char> >::__short"*
  %847 = getelementptr inbounds %"struct.std::__1::basic_string<char, std::__1::char_traits<char>, std::__1::allocator<char> >::__short", %"struct.std::__1::basic_string<char, std::__1::char_traits<char>, std::__1::allocator<char> >::__short"* %846, i32 0, i32 0
  %848 = bitcast %union.anon.0* %847 to i8*
  %849 = load i8, i8* %848, align 8
  %850 = zext i8 %849 to i32
  %851 = and i32 %850, 1
  %852 = icmp ne i32 %851, 0
  br i1 %852, label %853, label %864

; <label>:853:                                    ; preds = %832
  store %"class.std::__1::basic_string"* %838, %"class.std::__1::basic_string"** %198, align 8
  %854 = load %"class.std::__1::basic_string"*, %"class.std::__1::basic_string"** %198, align 8
  %855 = getelementptr inbounds %"class.std::__1::basic_string", %"class.std::__1::basic_string"* %854, i32 0, i32 0
  store %"class.std::__1::__compressed_pair"* %855, %"class.std::__1::__compressed_pair"** %197, align 8
  %856 = load %"class.std::__1::__compressed_pair"*, %"class.std::__1::__compressed_pair"** %197, align 8
  %857 = bitcast %"class.std::__1::__compressed_pair"* %856 to %"class.std::__1::__libcpp_compressed_pair_imp"*
  store %"class.std::__1::__libcpp_compressed_pair_imp"* %857, %"class.std::__1::__libcpp_compressed_pair_imp"** %196, align 8
  %858 = load %"class.std::__1::__libcpp_compressed_pair_imp"*, %"class.std::__1::__libcpp_compressed_pair_imp"** %196, align 8
  %859 = getelementptr inbounds %"class.std::__1::__libcpp_compressed_pair_imp", %"class.std::__1::__libcpp_compressed_pair_imp"* %858, i32 0, i32 0
  %860 = getelementptr inbounds %"struct.std::__1::basic_string<char, std::__1::char_traits<char>, std::__1::allocator<char> >::__rep", %"struct.std::__1::basic_string<char, std::__1::char_traits<char>, std::__1::allocator<char> >::__rep"* %859, i32 0, i32 0
  %861 = bitcast %union.anon* %860 to %"struct.std::__1::basic_string<char, std::__1::char_traits<char>, std::__1::allocator<char> >::__long"*
  %862 = getelementptr inbounds %"struct.std::__1::basic_string<char, std::__1::char_traits<char>, std::__1::allocator<char> >::__long", %"struct.std::__1::basic_string<char, std::__1::char_traits<char>, std::__1::allocator<char> >::__long"* %861, i32 0, i32 2
  %863 = load i8*, i8** %862, align 8
  br label %877

; <label>:864:                                    ; preds = %832
  store %"class.std::__1::basic_string"* %838, %"class.std::__1::basic_string"** %203, align 8
  %865 = load %"class.std::__1::basic_string"*, %"class.std::__1::basic_string"** %203, align 8
  %866 = getelementptr inbounds %"class.std::__1::basic_string", %"class.std::__1::basic_string"* %865, i32 0, i32 0
  store %"class.std::__1::__compressed_pair"* %866, %"class.std::__1::__compressed_pair"** %202, align 8
  %867 = load %"class.std::__1::__compressed_pair"*, %"class.std::__1::__compressed_pair"** %202, align 8
  %868 = bitcast %"class.std::__1::__compressed_pair"* %867 to %"class.std::__1::__libcpp_compressed_pair_imp"*
  store %"class.std::__1::__libcpp_compressed_pair_imp"* %868, %"class.std::__1::__libcpp_compressed_pair_imp"** %201, align 8
  %869 = load %"class.std::__1::__libcpp_compressed_pair_imp"*, %"class.std::__1::__libcpp_compressed_pair_imp"** %201, align 8
  %870 = getelementptr inbounds %"class.std::__1::__libcpp_compressed_pair_imp", %"class.std::__1::__libcpp_compressed_pair_imp"* %869, i32 0, i32 0
  %871 = getelementptr inbounds %"struct.std::__1::basic_string<char, std::__1::char_traits<char>, std::__1::allocator<char> >::__rep", %"struct.std::__1::basic_string<char, std::__1::char_traits<char>, std::__1::allocator<char> >::__rep"* %870, i32 0, i32 0
  %872 = bitcast %union.anon* %871 to %"struct.std::__1::basic_string<char, std::__1::char_traits<char>, std::__1::allocator<char> >::__short"*
  %873 = getelementptr inbounds %"struct.std::__1::basic_string<char, std::__1::char_traits<char>, std::__1::allocator<char> >::__short", %"struct.std::__1::basic_string<char, std::__1::char_traits<char>, std::__1::allocator<char> >::__short"* %872, i32 0, i32 1
  %874 = getelementptr inbounds [23 x i8], [23 x i8]* %873, i64 0, i64 0
  store i8* %874, i8** %200, align 8
  %875 = load i8*, i8** %200, align 8
  store i8* %875, i8** %199, align 8
  %876 = load i8*, i8** %199, align 8
  br label %877

; <label>:877:                                    ; preds = %864, %853
  %878 = phi i8* [ %863, %853 ], [ %876, %864 ]
  store i8* %878, i8** %195, align 8
  %879 = load i8*, i8** %195, align 8
  %880 = load %"class.std::__1::basic_string"*, %"class.std::__1::basic_string"** %210, align 8
  store %"class.std::__1::basic_string"* %880, %"class.std::__1::basic_string"** %194, align 8
  %881 = load %"class.std::__1::basic_string"*, %"class.std::__1::basic_string"** %194, align 8
  store %"class.std::__1::basic_string"* %881, %"class.std::__1::basic_string"** %193, align 8
  %882 = load %"class.std::__1::basic_string"*, %"class.std::__1::basic_string"** %193, align 8
  %883 = getelementptr inbounds %"class.std::__1::basic_string", %"class.std::__1::basic_string"* %882, i32 0, i32 0
  store %"class.std::__1::__compressed_pair"* %883, %"class.std::__1::__compressed_pair"** %192, align 8
  %884 = load %"class.std::__1::__compressed_pair"*, %"class.std::__1::__compressed_pair"** %192, align 8
  %885 = bitcast %"class.std::__1::__compressed_pair"* %884 to %"class.std::__1::__libcpp_compressed_pair_imp"*
  store %"class.std::__1::__libcpp_compressed_pair_imp"* %885, %"class.std::__1::__libcpp_compressed_pair_imp"** %191, align 8
  %886 = load %"class.std::__1::__libcpp_compressed_pair_imp"*, %"class.std::__1::__libcpp_compressed_pair_imp"** %191, align 8
  %887 = getelementptr inbounds %"class.std::__1::__libcpp_compressed_pair_imp", %"class.std::__1::__libcpp_compressed_pair_imp"* %886, i32 0, i32 0
  %888 = getelementptr inbounds %"struct.std::__1::basic_string<char, std::__1::char_traits<char>, std::__1::allocator<char> >::__rep", %"struct.std::__1::basic_string<char, std::__1::char_traits<char>, std::__1::allocator<char> >::__rep"* %887, i32 0, i32 0
  %889 = bitcast %union.anon* %888 to %"struct.std::__1::basic_string<char, std::__1::char_traits<char>, std::__1::allocator<char> >::__short"*
  %890 = getelementptr inbounds %"struct.std::__1::basic_string<char, std::__1::char_traits<char>, std::__1::allocator<char> >::__short", %"struct.std::__1::basic_string<char, std::__1::char_traits<char>, std::__1::allocator<char> >::__short"* %889, i32 0, i32 0
  %891 = bitcast %union.anon.0* %890 to i8*
  %892 = load i8, i8* %891, align 8
  %893 = zext i8 %892 to i32
  %894 = and i32 %893, 1
  %895 = icmp ne i32 %894, 0
  br i1 %895, label %896, label %907

; <label>:896:                                    ; preds = %877
  store %"class.std::__1::basic_string"* %881, %"class.std::__1::basic_string"** %187, align 8
  %897 = load %"class.std::__1::basic_string"*, %"class.std::__1::basic_string"** %187, align 8
  %898 = getelementptr inbounds %"class.std::__1::basic_string", %"class.std::__1::basic_string"* %897, i32 0, i32 0
  store %"class.std::__1::__compressed_pair"* %898, %"class.std::__1::__compressed_pair"** %186, align 8
  %899 = load %"class.std::__1::__compressed_pair"*, %"class.std::__1::__compressed_pair"** %186, align 8
  %900 = bitcast %"class.std::__1::__compressed_pair"* %899 to %"class.std::__1::__libcpp_compressed_pair_imp"*
  store %"class.std::__1::__libcpp_compressed_pair_imp"* %900, %"class.std::__1::__libcpp_compressed_pair_imp"** %185, align 8
  %901 = load %"class.std::__1::__libcpp_compressed_pair_imp"*, %"class.std::__1::__libcpp_compressed_pair_imp"** %185, align 8
  %902 = getelementptr inbounds %"class.std::__1::__libcpp_compressed_pair_imp", %"class.std::__1::__libcpp_compressed_pair_imp"* %901, i32 0, i32 0
  %903 = getelementptr inbounds %"struct.std::__1::basic_string<char, std::__1::char_traits<char>, std::__1::allocator<char> >::__rep", %"struct.std::__1::basic_string<char, std::__1::char_traits<char>, std::__1::allocator<char> >::__rep"* %902, i32 0, i32 0
  %904 = bitcast %union.anon* %903 to %"struct.std::__1::basic_string<char, std::__1::char_traits<char>, std::__1::allocator<char> >::__long"*
  %905 = getelementptr inbounds %"struct.std::__1::basic_string<char, std::__1::char_traits<char>, std::__1::allocator<char> >::__long", %"struct.std::__1::basic_string<char, std::__1::char_traits<char>, std::__1::allocator<char> >::__long"* %904, i32 0, i32 1
  %906 = load i64, i64* %905, align 8
  br label %922

; <label>:907:                                    ; preds = %877
  store %"class.std::__1::basic_string"* %881, %"class.std::__1::basic_string"** %190, align 8
  %908 = load %"class.std::__1::basic_string"*, %"class.std::__1::basic_string"** %190, align 8
  %909 = getelementptr inbounds %"class.std::__1::basic_string", %"class.std::__1::basic_string"* %908, i32 0, i32 0
  store %"class.std::__1::__compressed_pair"* %909, %"class.std::__1::__compressed_pair"** %189, align 8
  %910 = load %"class.std::__1::__compressed_pair"*, %"class.std::__1::__compressed_pair"** %189, align 8
  %911 = bitcast %"class.std::__1::__compressed_pair"* %910 to %"class.std::__1::__libcpp_compressed_pair_imp"*
  store %"class.std::__1::__libcpp_compressed_pair_imp"* %911, %"class.std::__1::__libcpp_compressed_pair_imp"** %188, align 8
  %912 = load %"class.std::__1::__libcpp_compressed_pair_imp"*, %"class.std::__1::__libcpp_compressed_pair_imp"** %188, align 8
  %913 = getelementptr inbounds %"class.std::__1::__libcpp_compressed_pair_imp", %"class.std::__1::__libcpp_compressed_pair_imp"* %912, i32 0, i32 0
  %914 = getelementptr inbounds %"struct.std::__1::basic_string<char, std::__1::char_traits<char>, std::__1::allocator<char> >::__rep", %"struct.std::__1::basic_string<char, std::__1::char_traits<char>, std::__1::allocator<char> >::__rep"* %913, i32 0, i32 0
  %915 = bitcast %union.anon* %914 to %"struct.std::__1::basic_string<char, std::__1::char_traits<char>, std::__1::allocator<char> >::__short"*
  %916 = getelementptr inbounds %"struct.std::__1::basic_string<char, std::__1::char_traits<char>, std::__1::allocator<char> >::__short", %"struct.std::__1::basic_string<char, std::__1::char_traits<char>, std::__1::allocator<char> >::__short"* %915, i32 0, i32 0
  %917 = bitcast %union.anon.0* %916 to i8*
  %918 = load i8, i8* %917, align 8
  %919 = zext i8 %918 to i32
  %920 = ashr i32 %919, 1
  %921 = sext i32 %920 to i64
  br label %922

; <label>:922:                                    ; preds = %907, %896
  %923 = phi i64 [ %906, %896 ], [ %921, %907 ]
  %924 = invoke dereferenceable(24) %"class.std::__1::basic_string"* @_ZNSt3__112basic_stringIcNS_11char_traitsIcEENS_9allocatorIcEEE6appendEPKcm(%"class.std::__1::basic_string"* %835, i8* %879, i64 %923)
          to label %925 unwind label %1007

; <label>:925:                                    ; preds = %922
  br label %926

; <label>:926:                                    ; preds = %925
  call void @_ZNSt3__112basic_stringIcNS_11char_traitsIcEENS_9allocatorIcEEED1Ev(%"class.std::__1::basic_string"* %356) #8
  call void @_ZNSt3__112basic_stringIcNS_11char_traitsIcEENS_9allocatorIcEEED1Ev(%"class.std::__1::basic_string"* %357) #8
  call void @_ZNSt3__112basic_stringIcNS_11char_traitsIcEENS_9allocatorIcEEED1Ev(%"class.std::__1::basic_string"* %361) #8
  call void @_ZNSt3__112basic_stringIcNS_11char_traitsIcEENS_9allocatorIcEEED1Ev(%"class.std::__1::basic_string"* %358) #8
  call void @_ZNSt3__112basic_stringIcNS_11char_traitsIcEENS_9allocatorIcEEED1Ev(%"class.std::__1::basic_string"* %359) #8
  call void @_ZNSt3__112basic_stringIcNS_11char_traitsIcEENS_9allocatorIcEEED1Ev(%"class.std::__1::basic_string"* %360) #8
  %927 = load i32, i32* %351, align 4
  store i32 %927, i32* %362, align 4
  br label %928

; <label>:928:                                    ; preds = %984, %926
  %929 = load i32, i32* %362, align 4
  %930 = sext i32 %929 to i64
  store %"class.std::__1::basic_string"* %350, %"class.std::__1::basic_string"** %183, align 8
  store i64 %930, i64* %184, align 8
  %931 = load %"class.std::__1::basic_string"*, %"class.std::__1::basic_string"** %183, align 8
  store %"class.std::__1::basic_string"* %931, %"class.std::__1::basic_string"** %182, align 8
  %932 = load %"class.std::__1::basic_string"*, %"class.std::__1::basic_string"** %182, align 8
  store %"class.std::__1::basic_string"* %932, %"class.std::__1::basic_string"** %181, align 8
  %933 = load %"class.std::__1::basic_string"*, %"class.std::__1::basic_string"** %181, align 8
  %934 = getelementptr inbounds %"class.std::__1::basic_string", %"class.std::__1::basic_string"* %933, i32 0, i32 0
  store %"class.std::__1::__compressed_pair"* %934, %"class.std::__1::__compressed_pair"** %180, align 8
  %935 = load %"class.std::__1::__compressed_pair"*, %"class.std::__1::__compressed_pair"** %180, align 8
  %936 = bitcast %"class.std::__1::__compressed_pair"* %935 to %"class.std::__1::__libcpp_compressed_pair_imp"*
  store %"class.std::__1::__libcpp_compressed_pair_imp"* %936, %"class.std::__1::__libcpp_compressed_pair_imp"** %179, align 8
  %937 = load %"class.std::__1::__libcpp_compressed_pair_imp"*, %"class.std::__1::__libcpp_compressed_pair_imp"** %179, align 8
  %938 = getelementptr inbounds %"class.std::__1::__libcpp_compressed_pair_imp", %"class.std::__1::__libcpp_compressed_pair_imp"* %937, i32 0, i32 0
  %939 = getelementptr inbounds %"struct.std::__1::basic_string<char, std::__1::char_traits<char>, std::__1::allocator<char> >::__rep", %"struct.std::__1::basic_string<char, std::__1::char_traits<char>, std::__1::allocator<char> >::__rep"* %938, i32 0, i32 0
  %940 = bitcast %union.anon* %939 to %"struct.std::__1::basic_string<char, std::__1::char_traits<char>, std::__1::allocator<char> >::__short"*
  %941 = getelementptr inbounds %"struct.std::__1::basic_string<char, std::__1::char_traits<char>, std::__1::allocator<char> >::__short", %"struct.std::__1::basic_string<char, std::__1::char_traits<char>, std::__1::allocator<char> >::__short"* %940, i32 0, i32 0
  %942 = bitcast %union.anon.0* %941 to i8*
  %943 = load i8, i8* %942, align 8
  %944 = zext i8 %943 to i32
  %945 = and i32 %944, 1
  %946 = icmp ne i32 %945, 0
  br i1 %946, label %947, label %958

; <label>:947:                                    ; preds = %928
  store %"class.std::__1::basic_string"* %932, %"class.std::__1::basic_string"** %173, align 8
  %948 = load %"class.std::__1::basic_string"*, %"class.std::__1::basic_string"** %173, align 8
  %949 = getelementptr inbounds %"class.std::__1::basic_string", %"class.std::__1::basic_string"* %948, i32 0, i32 0
  store %"class.std::__1::__compressed_pair"* %949, %"class.std::__1::__compressed_pair"** %172, align 8
  %950 = load %"class.std::__1::__compressed_pair"*, %"class.std::__1::__compressed_pair"** %172, align 8
  %951 = bitcast %"class.std::__1::__compressed_pair"* %950 to %"class.std::__1::__libcpp_compressed_pair_imp"*
  store %"class.std::__1::__libcpp_compressed_pair_imp"* %951, %"class.std::__1::__libcpp_compressed_pair_imp"** %171, align 8
  %952 = load %"class.std::__1::__libcpp_compressed_pair_imp"*, %"class.std::__1::__libcpp_compressed_pair_imp"** %171, align 8
  %953 = getelementptr inbounds %"class.std::__1::__libcpp_compressed_pair_imp", %"class.std::__1::__libcpp_compressed_pair_imp"* %952, i32 0, i32 0
  %954 = getelementptr inbounds %"struct.std::__1::basic_string<char, std::__1::char_traits<char>, std::__1::allocator<char> >::__rep", %"struct.std::__1::basic_string<char, std::__1::char_traits<char>, std::__1::allocator<char> >::__rep"* %953, i32 0, i32 0
  %955 = bitcast %union.anon* %954 to %"struct.std::__1::basic_string<char, std::__1::char_traits<char>, std::__1::allocator<char> >::__long"*
  %956 = getelementptr inbounds %"struct.std::__1::basic_string<char, std::__1::char_traits<char>, std::__1::allocator<char> >::__long", %"struct.std::__1::basic_string<char, std::__1::char_traits<char>, std::__1::allocator<char> >::__long"* %955, i32 0, i32 2
  %957 = load i8*, i8** %956, align 8
  br label %971

; <label>:958:                                    ; preds = %928
  store %"class.std::__1::basic_string"* %932, %"class.std::__1::basic_string"** %178, align 8
  %959 = load %"class.std::__1::basic_string"*, %"class.std::__1::basic_string"** %178, align 8
  %960 = getelementptr inbounds %"class.std::__1::basic_string", %"class.std::__1::basic_string"* %959, i32 0, i32 0
  store %"class.std::__1::__compressed_pair"* %960, %"class.std::__1::__compressed_pair"** %177, align 8
  %961 = load %"class.std::__1::__compressed_pair"*, %"class.std::__1::__compressed_pair"** %177, align 8
  %962 = bitcast %"class.std::__1::__compressed_pair"* %961 to %"class.std::__1::__libcpp_compressed_pair_imp"*
  store %"class.std::__1::__libcpp_compressed_pair_imp"* %962, %"class.std::__1::__libcpp_compressed_pair_imp"** %176, align 8
  %963 = load %"class.std::__1::__libcpp_compressed_pair_imp"*, %"class.std::__1::__libcpp_compressed_pair_imp"** %176, align 8
  %964 = getelementptr inbounds %"class.std::__1::__libcpp_compressed_pair_imp", %"class.std::__1::__libcpp_compressed_pair_imp"* %963, i32 0, i32 0
  %965 = getelementptr inbounds %"struct.std::__1::basic_string<char, std::__1::char_traits<char>, std::__1::allocator<char> >::__rep", %"struct.std::__1::basic_string<char, std::__1::char_traits<char>, std::__1::allocator<char> >::__rep"* %964, i32 0, i32 0
  %966 = bitcast %union.anon* %965 to %"struct.std::__1::basic_string<char, std::__1::char_traits<char>, std::__1::allocator<char> >::__short"*
  %967 = getelementptr inbounds %"struct.std::__1::basic_string<char, std::__1::char_traits<char>, std::__1::allocator<char> >::__short", %"struct.std::__1::basic_string<char, std::__1::char_traits<char>, std::__1::allocator<char> >::__short"* %966, i32 0, i32 1
  %968 = getelementptr inbounds [23 x i8], [23 x i8]* %967, i64 0, i64 0
  store i8* %968, i8** %175, align 8
  %969 = load i8*, i8** %175, align 8
  store i8* %969, i8** %174, align 8
  %970 = load i8*, i8** %174, align 8
  br label %971

; <label>:971:                                    ; preds = %947, %958
  %972 = phi i8* [ %957, %947 ], [ %970, %958 ]
  %973 = load i64, i64* %184, align 8
  %974 = getelementptr inbounds i8, i8* %972, i64 %973
  br label %975

; <label>:975:                                    ; preds = %971
  %976 = load i8, i8* %974, align 1
  %977 = sext i8 %976 to i32
  %978 = icmp ne i32 %977, 10
  br i1 %978, label %979, label %982

; <label>:979:                                    ; preds = %975
  %980 = load i32, i32* %362, align 4
  %981 = icmp sgt i32 %980, 0
  br label %982

; <label>:982:                                    ; preds = %979, %975
  %983 = phi i1 [ false, %975 ], [ %981, %979 ]
  br i1 %983, label %984, label %1016

; <label>:984:                                    ; preds = %982
  %985 = load i32, i32* %362, align 4
  %986 = add nsw i32 %985, -1
  store i32 %986, i32* %362, align 4
  br label %928

; <label>:987:                                    ; preds = %591
  %988 = landingpad { i8*, i32 }
          cleanup
  %989 = extractvalue { i8*, i32 } %988, 0
  store i8* %989, i8** %348, align 8
  %990 = extractvalue { i8*, i32 } %988, 1
  store i32 %990, i32* %349, align 4
  br label %1015

; <label>:991:                                    ; preds = %628
  %992 = landingpad { i8*, i32 }
          cleanup
  %993 = extractvalue { i8*, i32 } %992, 0
  store i8* %993, i8** %348, align 8
  %994 = extractvalue { i8*, i32 } %992, 1
  store i32 %994, i32* %349, align 4
  br label %1014

; <label>:995:                                    ; preds = %665
  %996 = landingpad { i8*, i32 }
          cleanup
  %997 = extractvalue { i8*, i32 } %996, 0
  store i8* %997, i8** %348, align 8
  %998 = extractvalue { i8*, i32 } %996, 1
  store i32 %998, i32* %349, align 4
  br label %1013

; <label>:999:                                    ; preds = %759
  %1000 = landingpad { i8*, i32 }
          cleanup
  %1001 = extractvalue { i8*, i32 } %1000, 0
  store i8* %1001, i8** %348, align 8
  %1002 = extractvalue { i8*, i32 } %1000, 1
  store i32 %1002, i32* %349, align 4
  br label %1012

; <label>:1003:                                   ; preds = %795
  %1004 = landingpad { i8*, i32 }
          cleanup
  %1005 = extractvalue { i8*, i32 } %1004, 0
  store i8* %1005, i8** %348, align 8
  %1006 = extractvalue { i8*, i32 } %1004, 1
  store i32 %1006, i32* %349, align 4
  br label %1011

; <label>:1007:                                   ; preds = %922
  %1008 = landingpad { i8*, i32 }
          cleanup
  %1009 = extractvalue { i8*, i32 } %1008, 0
  store i8* %1009, i8** %348, align 8
  %1010 = extractvalue { i8*, i32 } %1008, 1
  store i32 %1010, i32* %349, align 4
  call void @_ZNSt3__112basic_stringIcNS_11char_traitsIcEENS_9allocatorIcEEED1Ev(%"class.std::__1::basic_string"* %356) #8
  br label %1011

; <label>:1011:                                   ; preds = %1007, %1003
  call void @_ZNSt3__112basic_stringIcNS_11char_traitsIcEENS_9allocatorIcEEED1Ev(%"class.std::__1::basic_string"* %357) #8
  br label %1012

; <label>:1012:                                   ; preds = %1011, %999
  call void @_ZNSt3__112basic_stringIcNS_11char_traitsIcEENS_9allocatorIcEEED1Ev(%"class.std::__1::basic_string"* %361) #8
  br label %1013

; <label>:1013:                                   ; preds = %1012, %995
  call void @_ZNSt3__112basic_stringIcNS_11char_traitsIcEENS_9allocatorIcEEED1Ev(%"class.std::__1::basic_string"* %358) #8
  br label %1014

; <label>:1014:                                   ; preds = %1013, %991
  call void @_ZNSt3__112basic_stringIcNS_11char_traitsIcEENS_9allocatorIcEEED1Ev(%"class.std::__1::basic_string"* %359) #8
  br label %1015

; <label>:1015:                                   ; preds = %1014, %987
  call void @_ZNSt3__112basic_stringIcNS_11char_traitsIcEENS_9allocatorIcEEED1Ev(%"class.std::__1::basic_string"* %360) #8
  br label %1631

; <label>:1016:                                   ; preds = %982
  %1017 = load i32, i32* %362, align 4
  %1018 = add nsw i32 %1017, 1
  store i32 %1018, i32* %362, align 4
  %1019 = load i32, i32* %351, align 4
  store i32 %1019, i32* %363, align 4
  br label %1020

; <label>:1020:                                   ; preds = %1121, %1016
  %1021 = load i32, i32* %363, align 4
  %1022 = sext i32 %1021 to i64
  store %"class.std::__1::basic_string"* %350, %"class.std::__1::basic_string"** %167, align 8
  store i64 %1022, i64* %168, align 8
  %1023 = load %"class.std::__1::basic_string"*, %"class.std::__1::basic_string"** %167, align 8
  store %"class.std::__1::basic_string"* %1023, %"class.std::__1::basic_string"** %166, align 8
  %1024 = load %"class.std::__1::basic_string"*, %"class.std::__1::basic_string"** %166, align 8
  store %"class.std::__1::basic_string"* %1024, %"class.std::__1::basic_string"** %165, align 8
  %1025 = load %"class.std::__1::basic_string"*, %"class.std::__1::basic_string"** %165, align 8
  %1026 = getelementptr inbounds %"class.std::__1::basic_string", %"class.std::__1::basic_string"* %1025, i32 0, i32 0
  store %"class.std::__1::__compressed_pair"* %1026, %"class.std::__1::__compressed_pair"** %164, align 8
  %1027 = load %"class.std::__1::__compressed_pair"*, %"class.std::__1::__compressed_pair"** %164, align 8
  %1028 = bitcast %"class.std::__1::__compressed_pair"* %1027 to %"class.std::__1::__libcpp_compressed_pair_imp"*
  store %"class.std::__1::__libcpp_compressed_pair_imp"* %1028, %"class.std::__1::__libcpp_compressed_pair_imp"** %163, align 8
  %1029 = load %"class.std::__1::__libcpp_compressed_pair_imp"*, %"class.std::__1::__libcpp_compressed_pair_imp"** %163, align 8
  %1030 = getelementptr inbounds %"class.std::__1::__libcpp_compressed_pair_imp", %"class.std::__1::__libcpp_compressed_pair_imp"* %1029, i32 0, i32 0
  %1031 = getelementptr inbounds %"struct.std::__1::basic_string<char, std::__1::char_traits<char>, std::__1::allocator<char> >::__rep", %"struct.std::__1::basic_string<char, std::__1::char_traits<char>, std::__1::allocator<char> >::__rep"* %1030, i32 0, i32 0
  %1032 = bitcast %union.anon* %1031 to %"struct.std::__1::basic_string<char, std::__1::char_traits<char>, std::__1::allocator<char> >::__short"*
  %1033 = getelementptr inbounds %"struct.std::__1::basic_string<char, std::__1::char_traits<char>, std::__1::allocator<char> >::__short", %"struct.std::__1::basic_string<char, std::__1::char_traits<char>, std::__1::allocator<char> >::__short"* %1032, i32 0, i32 0
  %1034 = bitcast %union.anon.0* %1033 to i8*
  %1035 = load i8, i8* %1034, align 8
  %1036 = zext i8 %1035 to i32
  %1037 = and i32 %1036, 1
  %1038 = icmp ne i32 %1037, 0
  br i1 %1038, label %1039, label %1050

; <label>:1039:                                   ; preds = %1020
  store %"class.std::__1::basic_string"* %1024, %"class.std::__1::basic_string"** %157, align 8
  %1040 = load %"class.std::__1::basic_string"*, %"class.std::__1::basic_string"** %157, align 8
  %1041 = getelementptr inbounds %"class.std::__1::basic_string", %"class.std::__1::basic_string"* %1040, i32 0, i32 0
  store %"class.std::__1::__compressed_pair"* %1041, %"class.std::__1::__compressed_pair"** %156, align 8
  %1042 = load %"class.std::__1::__compressed_pair"*, %"class.std::__1::__compressed_pair"** %156, align 8
  %1043 = bitcast %"class.std::__1::__compressed_pair"* %1042 to %"class.std::__1::__libcpp_compressed_pair_imp"*
  store %"class.std::__1::__libcpp_compressed_pair_imp"* %1043, %"class.std::__1::__libcpp_compressed_pair_imp"** %155, align 8
  %1044 = load %"class.std::__1::__libcpp_compressed_pair_imp"*, %"class.std::__1::__libcpp_compressed_pair_imp"** %155, align 8
  %1045 = getelementptr inbounds %"class.std::__1::__libcpp_compressed_pair_imp", %"class.std::__1::__libcpp_compressed_pair_imp"* %1044, i32 0, i32 0
  %1046 = getelementptr inbounds %"struct.std::__1::basic_string<char, std::__1::char_traits<char>, std::__1::allocator<char> >::__rep", %"struct.std::__1::basic_string<char, std::__1::char_traits<char>, std::__1::allocator<char> >::__rep"* %1045, i32 0, i32 0
  %1047 = bitcast %union.anon* %1046 to %"struct.std::__1::basic_string<char, std::__1::char_traits<char>, std::__1::allocator<char> >::__long"*
  %1048 = getelementptr inbounds %"struct.std::__1::basic_string<char, std::__1::char_traits<char>, std::__1::allocator<char> >::__long", %"struct.std::__1::basic_string<char, std::__1::char_traits<char>, std::__1::allocator<char> >::__long"* %1047, i32 0, i32 2
  %1049 = load i8*, i8** %1048, align 8
  br label %1063

; <label>:1050:                                   ; preds = %1020
  store %"class.std::__1::basic_string"* %1024, %"class.std::__1::basic_string"** %162, align 8
  %1051 = load %"class.std::__1::basic_string"*, %"class.std::__1::basic_string"** %162, align 8
  %1052 = getelementptr inbounds %"class.std::__1::basic_string", %"class.std::__1::basic_string"* %1051, i32 0, i32 0
  store %"class.std::__1::__compressed_pair"* %1052, %"class.std::__1::__compressed_pair"** %161, align 8
  %1053 = load %"class.std::__1::__compressed_pair"*, %"class.std::__1::__compressed_pair"** %161, align 8
  %1054 = bitcast %"class.std::__1::__compressed_pair"* %1053 to %"class.std::__1::__libcpp_compressed_pair_imp"*
  store %"class.std::__1::__libcpp_compressed_pair_imp"* %1054, %"class.std::__1::__libcpp_compressed_pair_imp"** %160, align 8
  %1055 = load %"class.std::__1::__libcpp_compressed_pair_imp"*, %"class.std::__1::__libcpp_compressed_pair_imp"** %160, align 8
  %1056 = getelementptr inbounds %"class.std::__1::__libcpp_compressed_pair_imp", %"class.std::__1::__libcpp_compressed_pair_imp"* %1055, i32 0, i32 0
  %1057 = getelementptr inbounds %"struct.std::__1::basic_string<char, std::__1::char_traits<char>, std::__1::allocator<char> >::__rep", %"struct.std::__1::basic_string<char, std::__1::char_traits<char>, std::__1::allocator<char> >::__rep"* %1056, i32 0, i32 0
  %1058 = bitcast %union.anon* %1057 to %"struct.std::__1::basic_string<char, std::__1::char_traits<char>, std::__1::allocator<char> >::__short"*
  %1059 = getelementptr inbounds %"struct.std::__1::basic_string<char, std::__1::char_traits<char>, std::__1::allocator<char> >::__short", %"struct.std::__1::basic_string<char, std::__1::char_traits<char>, std::__1::allocator<char> >::__short"* %1058, i32 0, i32 1
  %1060 = getelementptr inbounds [23 x i8], [23 x i8]* %1059, i64 0, i64 0
  store i8* %1060, i8** %159, align 8
  %1061 = load i8*, i8** %159, align 8
  store i8* %1061, i8** %158, align 8
  %1062 = load i8*, i8** %158, align 8
  br label %1063

; <label>:1063:                                   ; preds = %1039, %1050
  %1064 = phi i8* [ %1049, %1039 ], [ %1062, %1050 ]
  %1065 = load i64, i64* %168, align 8
  %1066 = getelementptr inbounds i8, i8* %1064, i64 %1065
  br label %1067

; <label>:1067:                                   ; preds = %1063
  %1068 = load i8, i8* %1066, align 1
  %1069 = sext i8 %1068 to i32
  %1070 = icmp ne i32 %1069, 10
  br i1 %1070, label %1071, label %1119

; <label>:1071:                                   ; preds = %1067
  %1072 = load i32, i32* %363, align 4
  %1073 = sext i32 %1072 to i64
  store %"class.std::__1::basic_string"* %350, %"class.std::__1::basic_string"** %154, align 8
  %1074 = load %"class.std::__1::basic_string"*, %"class.std::__1::basic_string"** %154, align 8
  store %"class.std::__1::basic_string"* %1074, %"class.std::__1::basic_string"** %153, align 8
  %1075 = load %"class.std::__1::basic_string"*, %"class.std::__1::basic_string"** %153, align 8
  store %"class.std::__1::basic_string"* %1075, %"class.std::__1::basic_string"** %152, align 8
  %1076 = load %"class.std::__1::basic_string"*, %"class.std::__1::basic_string"** %152, align 8
  %1077 = getelementptr inbounds %"class.std::__1::basic_string", %"class.std::__1::basic_string"* %1076, i32 0, i32 0
  store %"class.std::__1::__compressed_pair"* %1077, %"class.std::__1::__compressed_pair"** %151, align 8
  %1078 = load %"class.std::__1::__compressed_pair"*, %"class.std::__1::__compressed_pair"** %151, align 8
  %1079 = bitcast %"class.std::__1::__compressed_pair"* %1078 to %"class.std::__1::__libcpp_compressed_pair_imp"*
  store %"class.std::__1::__libcpp_compressed_pair_imp"* %1079, %"class.std::__1::__libcpp_compressed_pair_imp"** %150, align 8
  %1080 = load %"class.std::__1::__libcpp_compressed_pair_imp"*, %"class.std::__1::__libcpp_compressed_pair_imp"** %150, align 8
  %1081 = getelementptr inbounds %"class.std::__1::__libcpp_compressed_pair_imp", %"class.std::__1::__libcpp_compressed_pair_imp"* %1080, i32 0, i32 0
  %1082 = getelementptr inbounds %"struct.std::__1::basic_string<char, std::__1::char_traits<char>, std::__1::allocator<char> >::__rep", %"struct.std::__1::basic_string<char, std::__1::char_traits<char>, std::__1::allocator<char> >::__rep"* %1081, i32 0, i32 0
  %1083 = bitcast %union.anon* %1082 to %"struct.std::__1::basic_string<char, std::__1::char_traits<char>, std::__1::allocator<char> >::__short"*
  %1084 = getelementptr inbounds %"struct.std::__1::basic_string<char, std::__1::char_traits<char>, std::__1::allocator<char> >::__short", %"struct.std::__1::basic_string<char, std::__1::char_traits<char>, std::__1::allocator<char> >::__short"* %1083, i32 0, i32 0
  %1085 = bitcast %union.anon.0* %1084 to i8*
  %1086 = load i8, i8* %1085, align 8
  %1087 = zext i8 %1086 to i32
  %1088 = and i32 %1087, 1
  %1089 = icmp ne i32 %1088, 0
  br i1 %1089, label %1090, label %1101

; <label>:1090:                                   ; preds = %1071
  store %"class.std::__1::basic_string"* %1075, %"class.std::__1::basic_string"** %146, align 8
  %1091 = load %"class.std::__1::basic_string"*, %"class.std::__1::basic_string"** %146, align 8
  %1092 = getelementptr inbounds %"class.std::__1::basic_string", %"class.std::__1::basic_string"* %1091, i32 0, i32 0
  store %"class.std::__1::__compressed_pair"* %1092, %"class.std::__1::__compressed_pair"** %145, align 8
  %1093 = load %"class.std::__1::__compressed_pair"*, %"class.std::__1::__compressed_pair"** %145, align 8
  %1094 = bitcast %"class.std::__1::__compressed_pair"* %1093 to %"class.std::__1::__libcpp_compressed_pair_imp"*
  store %"class.std::__1::__libcpp_compressed_pair_imp"* %1094, %"class.std::__1::__libcpp_compressed_pair_imp"** %144, align 8
  %1095 = load %"class.std::__1::__libcpp_compressed_pair_imp"*, %"class.std::__1::__libcpp_compressed_pair_imp"** %144, align 8
  %1096 = getelementptr inbounds %"class.std::__1::__libcpp_compressed_pair_imp", %"class.std::__1::__libcpp_compressed_pair_imp"* %1095, i32 0, i32 0
  %1097 = getelementptr inbounds %"struct.std::__1::basic_string<char, std::__1::char_traits<char>, std::__1::allocator<char> >::__rep", %"struct.std::__1::basic_string<char, std::__1::char_traits<char>, std::__1::allocator<char> >::__rep"* %1096, i32 0, i32 0
  %1098 = bitcast %union.anon* %1097 to %"struct.std::__1::basic_string<char, std::__1::char_traits<char>, std::__1::allocator<char> >::__long"*
  %1099 = getelementptr inbounds %"struct.std::__1::basic_string<char, std::__1::char_traits<char>, std::__1::allocator<char> >::__long", %"struct.std::__1::basic_string<char, std::__1::char_traits<char>, std::__1::allocator<char> >::__long"* %1098, i32 0, i32 1
  %1100 = load i64, i64* %1099, align 8
  br label %1116

; <label>:1101:                                   ; preds = %1071
  store %"class.std::__1::basic_string"* %1075, %"class.std::__1::basic_string"** %149, align 8
  %1102 = load %"class.std::__1::basic_string"*, %"class.std::__1::basic_string"** %149, align 8
  %1103 = getelementptr inbounds %"class.std::__1::basic_string", %"class.std::__1::basic_string"* %1102, i32 0, i32 0
  store %"class.std::__1::__compressed_pair"* %1103, %"class.std::__1::__compressed_pair"** %148, align 8
  %1104 = load %"class.std::__1::__compressed_pair"*, %"class.std::__1::__compressed_pair"** %148, align 8
  %1105 = bitcast %"class.std::__1::__compressed_pair"* %1104 to %"class.std::__1::__libcpp_compressed_pair_imp"*
  store %"class.std::__1::__libcpp_compressed_pair_imp"* %1105, %"class.std::__1::__libcpp_compressed_pair_imp"** %147, align 8
  %1106 = load %"class.std::__1::__libcpp_compressed_pair_imp"*, %"class.std::__1::__libcpp_compressed_pair_imp"** %147, align 8
  %1107 = getelementptr inbounds %"class.std::__1::__libcpp_compressed_pair_imp", %"class.std::__1::__libcpp_compressed_pair_imp"* %1106, i32 0, i32 0
  %1108 = getelementptr inbounds %"struct.std::__1::basic_string<char, std::__1::char_traits<char>, std::__1::allocator<char> >::__rep", %"struct.std::__1::basic_string<char, std::__1::char_traits<char>, std::__1::allocator<char> >::__rep"* %1107, i32 0, i32 0
  %1109 = bitcast %union.anon* %1108 to %"struct.std::__1::basic_string<char, std::__1::char_traits<char>, std::__1::allocator<char> >::__short"*
  %1110 = getelementptr inbounds %"struct.std::__1::basic_string<char, std::__1::char_traits<char>, std::__1::allocator<char> >::__short", %"struct.std::__1::basic_string<char, std::__1::char_traits<char>, std::__1::allocator<char> >::__short"* %1109, i32 0, i32 0
  %1111 = bitcast %union.anon.0* %1110 to i8*
  %1112 = load i8, i8* %1111, align 8
  %1113 = zext i8 %1112 to i32
  %1114 = ashr i32 %1113, 1
  %1115 = sext i32 %1114 to i64
  br label %1116

; <label>:1116:                                   ; preds = %1090, %1101
  %1117 = phi i64 [ %1100, %1090 ], [ %1115, %1101 ]
  %1118 = icmp ult i64 %1073, %1117
  br label %1119

; <label>:1119:                                   ; preds = %1116, %1067
  %1120 = phi i1 [ false, %1067 ], [ %1118, %1116 ]
  br i1 %1120, label %1121, label %1124

; <label>:1121:                                   ; preds = %1119
  %1122 = load i32, i32* %363, align 4
  %1123 = add nsw i32 %1122, 1
  store i32 %1123, i32* %363, align 4
  br label %1020

; <label>:1124:                                   ; preds = %1119
  %1125 = load i32, i32* %353, align 4
  invoke void @_ZNSt3__19to_stringEi(%"class.std::__1::basic_string"* sret %365, i32 %1125)
          to label %1126 unwind label %581

; <label>:1126:                                   ; preds = %1124
  store %"class.std::__1::basic_string"* %365, %"class.std::__1::basic_string"** %142, align 8, !noalias !14
  store i8* getelementptr inbounds ([4 x i8], [4 x i8]* @.str.6, i32 0, i32 0), i8** %143, align 8, !noalias !14
  %1127 = load %"class.std::__1::basic_string"*, %"class.std::__1::basic_string"** %142, align 8, !noalias !14
  %1128 = load i8*, i8** %143, align 8, !noalias !14
  %1129 = invoke dereferenceable(24) %"class.std::__1::basic_string"* @_ZNSt3__112basic_stringIcNS_11char_traitsIcEENS_9allocatorIcEEE6appendEPKc(%"class.std::__1::basic_string"* %1127, i8* %1128)
          to label %1130 unwind label %1446

; <label>:1130:                                   ; preds = %1126
  store %"class.std::__1::basic_string"* %1129, %"class.std::__1::basic_string"** %141, align 8, !noalias !14
  %1131 = load %"class.std::__1::basic_string"*, %"class.std::__1::basic_string"** %141, align 8, !noalias !14
  store %"class.std::__1::basic_string"* %364, %"class.std::__1::basic_string"** %139, align 8, !noalias !14
  store %"class.std::__1::basic_string"* %1131, %"class.std::__1::basic_string"** %140, align 8, !noalias !14
  %1132 = load %"class.std::__1::basic_string"*, %"class.std::__1::basic_string"** %139, align 8, !noalias !14
  %1133 = load %"class.std::__1::basic_string"*, %"class.std::__1::basic_string"** %140, align 8, !noalias !14
  store %"class.std::__1::basic_string"* %1132, %"class.std::__1::basic_string"** %137, align 8, !noalias !14
  store %"class.std::__1::basic_string"* %1133, %"class.std::__1::basic_string"** %138, align 8, !noalias !14
  %1134 = load %"class.std::__1::basic_string"*, %"class.std::__1::basic_string"** %137, align 8, !noalias !14
  %1135 = bitcast %"class.std::__1::basic_string"* %1134 to %"class.std::__1::__basic_string_common"*
  %1136 = getelementptr inbounds %"class.std::__1::basic_string", %"class.std::__1::basic_string"* %1134, i32 0, i32 0
  %1137 = load %"class.std::__1::basic_string"*, %"class.std::__1::basic_string"** %138, align 8, !noalias !14
  %1138 = getelementptr inbounds %"class.std::__1::basic_string", %"class.std::__1::basic_string"* %1137, i32 0, i32 0
  store %"class.std::__1::__compressed_pair"* %1138, %"class.std::__1::__compressed_pair"** %136, align 8, !noalias !14
  %1139 = load %"class.std::__1::__compressed_pair"*, %"class.std::__1::__compressed_pair"** %136, align 8, !noalias !14
  %1140 = bitcast %"class.std::__1::__compressed_pair"* %1136 to i8*
  %1141 = bitcast %"class.std::__1::__compressed_pair"* %1139 to i8*
  call void @llvm.memcpy.p0i8.p0i8.i64(i8* %1140, i8* %1141, i64 24, i32 8, i1 false) #8
  %1142 = load %"class.std::__1::basic_string"*, %"class.std::__1::basic_string"** %138, align 8, !noalias !14
  store %"class.std::__1::basic_string"* %1142, %"class.std::__1::basic_string"** %133, align 8, !noalias !14
  %1143 = load %"class.std::__1::basic_string"*, %"class.std::__1::basic_string"** %133, align 8, !noalias !14
  %1144 = getelementptr inbounds %"class.std::__1::basic_string", %"class.std::__1::basic_string"* %1143, i32 0, i32 0
  store %"class.std::__1::__compressed_pair"* %1144, %"class.std::__1::__compressed_pair"** %132, align 8, !noalias !14
  %1145 = load %"class.std::__1::__compressed_pair"*, %"class.std::__1::__compressed_pair"** %132, align 8, !noalias !14
  %1146 = bitcast %"class.std::__1::__compressed_pair"* %1145 to %"class.std::__1::__libcpp_compressed_pair_imp"*
  store %"class.std::__1::__libcpp_compressed_pair_imp"* %1146, %"class.std::__1::__libcpp_compressed_pair_imp"** %131, align 8, !noalias !14
  %1147 = load %"class.std::__1::__libcpp_compressed_pair_imp"*, %"class.std::__1::__libcpp_compressed_pair_imp"** %131, align 8, !noalias !14
  %1148 = getelementptr inbounds %"class.std::__1::__libcpp_compressed_pair_imp", %"class.std::__1::__libcpp_compressed_pair_imp"* %1147, i32 0, i32 0
  %1149 = getelementptr inbounds %"struct.std::__1::basic_string<char, std::__1::char_traits<char>, std::__1::allocator<char> >::__rep", %"struct.std::__1::basic_string<char, std::__1::char_traits<char>, std::__1::allocator<char> >::__rep"* %1148, i32 0, i32 0
  %1150 = bitcast %union.anon* %1149 to %"struct.std::__1::basic_string<char, std::__1::char_traits<char>, std::__1::allocator<char> >::__raw"*
  %1151 = getelementptr inbounds %"struct.std::__1::basic_string<char, std::__1::char_traits<char>, std::__1::allocator<char> >::__raw", %"struct.std::__1::basic_string<char, std::__1::char_traits<char>, std::__1::allocator<char> >::__raw"* %1150, i32 0, i32 0
  store [3 x i64]* %1151, [3 x i64]** %134, align 8, !noalias !14
  store i32 0, i32* %135, align 4, !noalias !14
  br label %1152

; <label>:1152:                                   ; preds = %1155, %1130
  %1153 = load i32, i32* %135, align 4, !noalias !14
  %1154 = icmp ult i32 %1153, 3
  br i1 %1154, label %1155, label %1162

; <label>:1155:                                   ; preds = %1152
  %1156 = load i32, i32* %135, align 4, !noalias !14
  %1157 = zext i32 %1156 to i64
  %1158 = load [3 x i64]*, [3 x i64]** %134, align 8, !noalias !14
  %1159 = getelementptr inbounds [3 x i64], [3 x i64]* %1158, i64 0, i64 %1157
  store i64 0, i64* %1159, align 8
  %1160 = load i32, i32* %135, align 4, !noalias !14
  %1161 = add i32 %1160, 1
  store i32 %1161, i32* %135, align 4, !noalias !14
  br label %1152

; <label>:1162:                                   ; preds = %1152
  br label %1163

; <label>:1163:                                   ; preds = %1162
  call void @_ZNSt3__112basic_stringIcNS_11char_traitsIcEENS_9allocatorIcEEED1Ev(%"class.std::__1::basic_string"* %365) #8
  %1164 = load i32, i32* %362, align 4
  %1165 = sext i32 %1164 to i64
  %1166 = load i32, i32* %363, align 4
  %1167 = load i32, i32* %362, align 4
  %1168 = sub nsw i32 %1166, %1167
  %1169 = sext i32 %1168 to i64
  store %"class.std::__1::basic_string"* %350, %"class.std::__1::basic_string"** %128, align 8, !noalias !17
  store i64 %1165, i64* %129, align 8, !noalias !17
  store i64 %1169, i64* %130, align 8, !noalias !17
  %1170 = load %"class.std::__1::basic_string"*, %"class.std::__1::basic_string"** %128, align 8, !noalias !17
  %1171 = load i64, i64* %129, align 8, !noalias !17
  %1172 = load i64, i64* %130, align 8, !noalias !17
  store %"class.std::__1::basic_string"* %1170, %"class.std::__1::basic_string"** %127, align 8, !noalias !17
  %1173 = load %"class.std::__1::basic_string"*, %"class.std::__1::basic_string"** %127, align 8, !noalias !17
  %1174 = getelementptr inbounds %"class.std::__1::basic_string", %"class.std::__1::basic_string"* %1173, i32 0, i32 0
  store %"class.std::__1::__compressed_pair"* %1174, %"class.std::__1::__compressed_pair"** %126, align 8, !noalias !17
  %1175 = load %"class.std::__1::__compressed_pair"*, %"class.std::__1::__compressed_pair"** %126, align 8, !noalias !17
  %1176 = bitcast %"class.std::__1::__compressed_pair"* %1175 to %"class.std::__1::__libcpp_compressed_pair_imp"*
  store %"class.std::__1::__libcpp_compressed_pair_imp"* %1176, %"class.std::__1::__libcpp_compressed_pair_imp"** %125, align 8, !noalias !17
  %1177 = load %"class.std::__1::__libcpp_compressed_pair_imp"*, %"class.std::__1::__libcpp_compressed_pair_imp"** %125, align 8, !noalias !17
  %1178 = bitcast %"class.std::__1::__libcpp_compressed_pair_imp"* %1177 to %"class.std::__1::allocator"*
  invoke void @_ZNSt3__112basic_stringIcNS_11char_traitsIcEENS_9allocatorIcEEEC1ERKS5_mmRKS4_(%"class.std::__1::basic_string"* %368, %"class.std::__1::basic_string"* dereferenceable(24) %1170, i64 %1171, i64 %1172, %"class.std::__1::allocator"* dereferenceable(1) %1178)
          to label %1179 unwind label %1450

; <label>:1179:                                   ; preds = %1163
  br label %1180

; <label>:1180:                                   ; preds = %1179
  store %"class.std::__1::basic_string"* %364, %"class.std::__1::basic_string"** %123, align 8, !noalias !20
  store %"class.std::__1::basic_string"* %368, %"class.std::__1::basic_string"** %124, align 8, !noalias !20
  %1181 = load %"class.std::__1::basic_string"*, %"class.std::__1::basic_string"** %124, align 8, !noalias !20
  %1182 = load %"class.std::__1::basic_string"*, %"class.std::__1::basic_string"** %123, align 8, !noalias !20
  store %"class.std::__1::basic_string"* %1181, %"class.std::__1::basic_string"** %120, align 8, !noalias !20
  store i64 0, i64* %121, align 8, !noalias !20
  store %"class.std::__1::basic_string"* %1182, %"class.std::__1::basic_string"** %122, align 8, !noalias !20
  %1183 = load %"class.std::__1::basic_string"*, %"class.std::__1::basic_string"** %120, align 8, !noalias !20
  %1184 = load i64, i64* %121, align 8, !noalias !20
  %1185 = load %"class.std::__1::basic_string"*, %"class.std::__1::basic_string"** %122, align 8, !noalias !20
  store %"class.std::__1::basic_string"* %1185, %"class.std::__1::basic_string"** %119, align 8, !noalias !20
  %1186 = load %"class.std::__1::basic_string"*, %"class.std::__1::basic_string"** %119, align 8, !noalias !20
  store %"class.std::__1::basic_string"* %1186, %"class.std::__1::basic_string"** %118, align 8, !noalias !20
  %1187 = load %"class.std::__1::basic_string"*, %"class.std::__1::basic_string"** %118, align 8, !noalias !20
  store %"class.std::__1::basic_string"* %1187, %"class.std::__1::basic_string"** %117, align 8, !noalias !20
  %1188 = load %"class.std::__1::basic_string"*, %"class.std::__1::basic_string"** %117, align 8, !noalias !20
  %1189 = getelementptr inbounds %"class.std::__1::basic_string", %"class.std::__1::basic_string"* %1188, i32 0, i32 0
  store %"class.std::__1::__compressed_pair"* %1189, %"class.std::__1::__compressed_pair"** %116, align 8, !noalias !20
  %1190 = load %"class.std::__1::__compressed_pair"*, %"class.std::__1::__compressed_pair"** %116, align 8, !noalias !20
  %1191 = bitcast %"class.std::__1::__compressed_pair"* %1190 to %"class.std::__1::__libcpp_compressed_pair_imp"*
  store %"class.std::__1::__libcpp_compressed_pair_imp"* %1191, %"class.std::__1::__libcpp_compressed_pair_imp"** %115, align 8, !noalias !20
  %1192 = load %"class.std::__1::__libcpp_compressed_pair_imp"*, %"class.std::__1::__libcpp_compressed_pair_imp"** %115, align 8, !noalias !20
  %1193 = getelementptr inbounds %"class.std::__1::__libcpp_compressed_pair_imp", %"class.std::__1::__libcpp_compressed_pair_imp"* %1192, i32 0, i32 0
  %1194 = getelementptr inbounds %"struct.std::__1::basic_string<char, std::__1::char_traits<char>, std::__1::allocator<char> >::__rep", %"struct.std::__1::basic_string<char, std::__1::char_traits<char>, std::__1::allocator<char> >::__rep"* %1193, i32 0, i32 0
  %1195 = bitcast %union.anon* %1194 to %"struct.std::__1::basic_string<char, std::__1::char_traits<char>, std::__1::allocator<char> >::__short"*
  %1196 = getelementptr inbounds %"struct.std::__1::basic_string<char, std::__1::char_traits<char>, std::__1::allocator<char> >::__short", %"struct.std::__1::basic_string<char, std::__1::char_traits<char>, std::__1::allocator<char> >::__short"* %1195, i32 0, i32 0
  %1197 = bitcast %union.anon.0* %1196 to i8*
  %1198 = load i8, i8* %1197, align 8, !noalias !20
  %1199 = zext i8 %1198 to i32
  %1200 = and i32 %1199, 1
  %1201 = icmp ne i32 %1200, 0
  br i1 %1201, label %1202, label %1213

; <label>:1202:                                   ; preds = %1180
  store %"class.std::__1::basic_string"* %1187, %"class.std::__1::basic_string"** %109, align 8, !noalias !20
  %1203 = load %"class.std::__1::basic_string"*, %"class.std::__1::basic_string"** %109, align 8, !noalias !20
  %1204 = getelementptr inbounds %"class.std::__1::basic_string", %"class.std::__1::basic_string"* %1203, i32 0, i32 0
  store %"class.std::__1::__compressed_pair"* %1204, %"class.std::__1::__compressed_pair"** %108, align 8, !noalias !20
  %1205 = load %"class.std::__1::__compressed_pair"*, %"class.std::__1::__compressed_pair"** %108, align 8, !noalias !20
  %1206 = bitcast %"class.std::__1::__compressed_pair"* %1205 to %"class.std::__1::__libcpp_compressed_pair_imp"*
  store %"class.std::__1::__libcpp_compressed_pair_imp"* %1206, %"class.std::__1::__libcpp_compressed_pair_imp"** %107, align 8, !noalias !20
  %1207 = load %"class.std::__1::__libcpp_compressed_pair_imp"*, %"class.std::__1::__libcpp_compressed_pair_imp"** %107, align 8, !noalias !20
  %1208 = getelementptr inbounds %"class.std::__1::__libcpp_compressed_pair_imp", %"class.std::__1::__libcpp_compressed_pair_imp"* %1207, i32 0, i32 0
  %1209 = getelementptr inbounds %"struct.std::__1::basic_string<char, std::__1::char_traits<char>, std::__1::allocator<char> >::__rep", %"struct.std::__1::basic_string<char, std::__1::char_traits<char>, std::__1::allocator<char> >::__rep"* %1208, i32 0, i32 0
  %1210 = bitcast %union.anon* %1209 to %"struct.std::__1::basic_string<char, std::__1::char_traits<char>, std::__1::allocator<char> >::__long"*
  %1211 = getelementptr inbounds %"struct.std::__1::basic_string<char, std::__1::char_traits<char>, std::__1::allocator<char> >::__long", %"struct.std::__1::basic_string<char, std::__1::char_traits<char>, std::__1::allocator<char> >::__long"* %1210, i32 0, i32 2
  %1212 = load i8*, i8** %1211, align 8
  br label %1226

; <label>:1213:                                   ; preds = %1180
  store %"class.std::__1::basic_string"* %1187, %"class.std::__1::basic_string"** %114, align 8, !noalias !20
  %1214 = load %"class.std::__1::basic_string"*, %"class.std::__1::basic_string"** %114, align 8, !noalias !20
  %1215 = getelementptr inbounds %"class.std::__1::basic_string", %"class.std::__1::basic_string"* %1214, i32 0, i32 0
  store %"class.std::__1::__compressed_pair"* %1215, %"class.std::__1::__compressed_pair"** %113, align 8, !noalias !20
  %1216 = load %"class.std::__1::__compressed_pair"*, %"class.std::__1::__compressed_pair"** %113, align 8, !noalias !20
  %1217 = bitcast %"class.std::__1::__compressed_pair"* %1216 to %"class.std::__1::__libcpp_compressed_pair_imp"*
  store %"class.std::__1::__libcpp_compressed_pair_imp"* %1217, %"class.std::__1::__libcpp_compressed_pair_imp"** %112, align 8, !noalias !20
  %1218 = load %"class.std::__1::__libcpp_compressed_pair_imp"*, %"class.std::__1::__libcpp_compressed_pair_imp"** %112, align 8, !noalias !20
  %1219 = getelementptr inbounds %"class.std::__1::__libcpp_compressed_pair_imp", %"class.std::__1::__libcpp_compressed_pair_imp"* %1218, i32 0, i32 0
  %1220 = getelementptr inbounds %"struct.std::__1::basic_string<char, std::__1::char_traits<char>, std::__1::allocator<char> >::__rep", %"struct.std::__1::basic_string<char, std::__1::char_traits<char>, std::__1::allocator<char> >::__rep"* %1219, i32 0, i32 0
  %1221 = bitcast %union.anon* %1220 to %"struct.std::__1::basic_string<char, std::__1::char_traits<char>, std::__1::allocator<char> >::__short"*
  %1222 = getelementptr inbounds %"struct.std::__1::basic_string<char, std::__1::char_traits<char>, std::__1::allocator<char> >::__short", %"struct.std::__1::basic_string<char, std::__1::char_traits<char>, std::__1::allocator<char> >::__short"* %1221, i32 0, i32 1
  %1223 = getelementptr inbounds [23 x i8], [23 x i8]* %1222, i64 0, i64 0
  store i8* %1223, i8** %111, align 8, !noalias !20
  %1224 = load i8*, i8** %111, align 8, !noalias !20
  store i8* %1224, i8** %110, align 8, !noalias !20
  %1225 = load i8*, i8** %110, align 8, !noalias !20
  br label %1226

; <label>:1226:                                   ; preds = %1213, %1202
  %1227 = phi i8* [ %1212, %1202 ], [ %1225, %1213 ]
  store i8* %1227, i8** %106, align 8, !noalias !20
  %1228 = load i8*, i8** %106, align 8, !noalias !20
  %1229 = load %"class.std::__1::basic_string"*, %"class.std::__1::basic_string"** %122, align 8, !noalias !20
  store %"class.std::__1::basic_string"* %1229, %"class.std::__1::basic_string"** %105, align 8, !noalias !20
  %1230 = load %"class.std::__1::basic_string"*, %"class.std::__1::basic_string"** %105, align 8, !noalias !20
  store %"class.std::__1::basic_string"* %1230, %"class.std::__1::basic_string"** %104, align 8, !noalias !20
  %1231 = load %"class.std::__1::basic_string"*, %"class.std::__1::basic_string"** %104, align 8, !noalias !20
  %1232 = getelementptr inbounds %"class.std::__1::basic_string", %"class.std::__1::basic_string"* %1231, i32 0, i32 0
  store %"class.std::__1::__compressed_pair"* %1232, %"class.std::__1::__compressed_pair"** %103, align 8, !noalias !20
  %1233 = load %"class.std::__1::__compressed_pair"*, %"class.std::__1::__compressed_pair"** %103, align 8, !noalias !20
  %1234 = bitcast %"class.std::__1::__compressed_pair"* %1233 to %"class.std::__1::__libcpp_compressed_pair_imp"*
  store %"class.std::__1::__libcpp_compressed_pair_imp"* %1234, %"class.std::__1::__libcpp_compressed_pair_imp"** %102, align 8, !noalias !20
  %1235 = load %"class.std::__1::__libcpp_compressed_pair_imp"*, %"class.std::__1::__libcpp_compressed_pair_imp"** %102, align 8, !noalias !20
  %1236 = getelementptr inbounds %"class.std::__1::__libcpp_compressed_pair_imp", %"class.std::__1::__libcpp_compressed_pair_imp"* %1235, i32 0, i32 0
  %1237 = getelementptr inbounds %"struct.std::__1::basic_string<char, std::__1::char_traits<char>, std::__1::allocator<char> >::__rep", %"struct.std::__1::basic_string<char, std::__1::char_traits<char>, std::__1::allocator<char> >::__rep"* %1236, i32 0, i32 0
  %1238 = bitcast %union.anon* %1237 to %"struct.std::__1::basic_string<char, std::__1::char_traits<char>, std::__1::allocator<char> >::__short"*
  %1239 = getelementptr inbounds %"struct.std::__1::basic_string<char, std::__1::char_traits<char>, std::__1::allocator<char> >::__short", %"struct.std::__1::basic_string<char, std::__1::char_traits<char>, std::__1::allocator<char> >::__short"* %1238, i32 0, i32 0
  %1240 = bitcast %union.anon.0* %1239 to i8*
  %1241 = load i8, i8* %1240, align 8, !noalias !20
  %1242 = zext i8 %1241 to i32
  %1243 = and i32 %1242, 1
  %1244 = icmp ne i32 %1243, 0
  br i1 %1244, label %1245, label %1256

; <label>:1245:                                   ; preds = %1226
  store %"class.std::__1::basic_string"* %1230, %"class.std::__1::basic_string"** %98, align 8, !noalias !20
  %1246 = load %"class.std::__1::basic_string"*, %"class.std::__1::basic_string"** %98, align 8, !noalias !20
  %1247 = getelementptr inbounds %"class.std::__1::basic_string", %"class.std::__1::basic_string"* %1246, i32 0, i32 0
  store %"class.std::__1::__compressed_pair"* %1247, %"class.std::__1::__compressed_pair"** %97, align 8, !noalias !20
  %1248 = load %"class.std::__1::__compressed_pair"*, %"class.std::__1::__compressed_pair"** %97, align 8, !noalias !20
  %1249 = bitcast %"class.std::__1::__compressed_pair"* %1248 to %"class.std::__1::__libcpp_compressed_pair_imp"*
  store %"class.std::__1::__libcpp_compressed_pair_imp"* %1249, %"class.std::__1::__libcpp_compressed_pair_imp"** %96, align 8, !noalias !20
  %1250 = load %"class.std::__1::__libcpp_compressed_pair_imp"*, %"class.std::__1::__libcpp_compressed_pair_imp"** %96, align 8, !noalias !20
  %1251 = getelementptr inbounds %"class.std::__1::__libcpp_compressed_pair_imp", %"class.std::__1::__libcpp_compressed_pair_imp"* %1250, i32 0, i32 0
  %1252 = getelementptr inbounds %"struct.std::__1::basic_string<char, std::__1::char_traits<char>, std::__1::allocator<char> >::__rep", %"struct.std::__1::basic_string<char, std::__1::char_traits<char>, std::__1::allocator<char> >::__rep"* %1251, i32 0, i32 0
  %1253 = bitcast %union.anon* %1252 to %"struct.std::__1::basic_string<char, std::__1::char_traits<char>, std::__1::allocator<char> >::__long"*
  %1254 = getelementptr inbounds %"struct.std::__1::basic_string<char, std::__1::char_traits<char>, std::__1::allocator<char> >::__long", %"struct.std::__1::basic_string<char, std::__1::char_traits<char>, std::__1::allocator<char> >::__long"* %1253, i32 0, i32 1
  %1255 = load i64, i64* %1254, align 8
  br label %1271

; <label>:1256:                                   ; preds = %1226
  store %"class.std::__1::basic_string"* %1230, %"class.std::__1::basic_string"** %101, align 8, !noalias !20
  %1257 = load %"class.std::__1::basic_string"*, %"class.std::__1::basic_string"** %101, align 8, !noalias !20
  %1258 = getelementptr inbounds %"class.std::__1::basic_string", %"class.std::__1::basic_string"* %1257, i32 0, i32 0
  store %"class.std::__1::__compressed_pair"* %1258, %"class.std::__1::__compressed_pair"** %100, align 8, !noalias !20
  %1259 = load %"class.std::__1::__compressed_pair"*, %"class.std::__1::__compressed_pair"** %100, align 8, !noalias !20
  %1260 = bitcast %"class.std::__1::__compressed_pair"* %1259 to %"class.std::__1::__libcpp_compressed_pair_imp"*
  store %"class.std::__1::__libcpp_compressed_pair_imp"* %1260, %"class.std::__1::__libcpp_compressed_pair_imp"** %99, align 8, !noalias !20
  %1261 = load %"class.std::__1::__libcpp_compressed_pair_imp"*, %"class.std::__1::__libcpp_compressed_pair_imp"** %99, align 8, !noalias !20
  %1262 = getelementptr inbounds %"class.std::__1::__libcpp_compressed_pair_imp", %"class.std::__1::__libcpp_compressed_pair_imp"* %1261, i32 0, i32 0
  %1263 = getelementptr inbounds %"struct.std::__1::basic_string<char, std::__1::char_traits<char>, std::__1::allocator<char> >::__rep", %"struct.std::__1::basic_string<char, std::__1::char_traits<char>, std::__1::allocator<char> >::__rep"* %1262, i32 0, i32 0
  %1264 = bitcast %union.anon* %1263 to %"struct.std::__1::basic_string<char, std::__1::char_traits<char>, std::__1::allocator<char> >::__short"*
  %1265 = getelementptr inbounds %"struct.std::__1::basic_string<char, std::__1::char_traits<char>, std::__1::allocator<char> >::__short", %"struct.std::__1::basic_string<char, std::__1::char_traits<char>, std::__1::allocator<char> >::__short"* %1264, i32 0, i32 0
  %1266 = bitcast %union.anon.0* %1265 to i8*
  %1267 = load i8, i8* %1266, align 8
  %1268 = zext i8 %1267 to i32
  %1269 = ashr i32 %1268, 1
  %1270 = sext i32 %1269 to i64
  br label %1271

; <label>:1271:                                   ; preds = %1256, %1245
  %1272 = phi i64 [ %1255, %1245 ], [ %1270, %1256 ]
  %1273 = invoke dereferenceable(24) %"class.std::__1::basic_string"* @_ZNSt3__112basic_stringIcNS_11char_traitsIcEENS_9allocatorIcEEE6insertEmPKcm(%"class.std::__1::basic_string"* %1183, i64 %1184, i8* %1228, i64 %1272)
          to label %1274 unwind label %1454

; <label>:1274:                                   ; preds = %1271
  store %"class.std::__1::basic_string"* %1273, %"class.std::__1::basic_string"** %95, align 8, !noalias !20
  %1275 = load %"class.std::__1::basic_string"*, %"class.std::__1::basic_string"** %95, align 8, !noalias !20
  store %"class.std::__1::basic_string"* %367, %"class.std::__1::basic_string"** %93, align 8, !noalias !20
  store %"class.std::__1::basic_string"* %1275, %"class.std::__1::basic_string"** %94, align 8, !noalias !20
  %1276 = load %"class.std::__1::basic_string"*, %"class.std::__1::basic_string"** %93, align 8, !noalias !20
  %1277 = load %"class.std::__1::basic_string"*, %"class.std::__1::basic_string"** %94, align 8, !noalias !20
  store %"class.std::__1::basic_string"* %1276, %"class.std::__1::basic_string"** %91, align 8, !noalias !20
  store %"class.std::__1::basic_string"* %1277, %"class.std::__1::basic_string"** %92, align 8, !noalias !20
  %1278 = load %"class.std::__1::basic_string"*, %"class.std::__1::basic_string"** %91, align 8, !noalias !20
  %1279 = bitcast %"class.std::__1::basic_string"* %1278 to %"class.std::__1::__basic_string_common"*
  %1280 = getelementptr inbounds %"class.std::__1::basic_string", %"class.std::__1::basic_string"* %1278, i32 0, i32 0
  %1281 = load %"class.std::__1::basic_string"*, %"class.std::__1::basic_string"** %92, align 8, !noalias !20
  %1282 = getelementptr inbounds %"class.std::__1::basic_string", %"class.std::__1::basic_string"* %1281, i32 0, i32 0
  store %"class.std::__1::__compressed_pair"* %1282, %"class.std::__1::__compressed_pair"** %90, align 8, !noalias !20
  %1283 = load %"class.std::__1::__compressed_pair"*, %"class.std::__1::__compressed_pair"** %90, align 8, !noalias !20
  %1284 = bitcast %"class.std::__1::__compressed_pair"* %1280 to i8*
  %1285 = bitcast %"class.std::__1::__compressed_pair"* %1283 to i8*
  call void @llvm.memcpy.p0i8.p0i8.i64(i8* %1284, i8* %1285, i64 24, i32 8, i1 false) #8
  %1286 = load %"class.std::__1::basic_string"*, %"class.std::__1::basic_string"** %92, align 8, !noalias !20
  store %"class.std::__1::basic_string"* %1286, %"class.std::__1::basic_string"** %87, align 8, !noalias !20
  %1287 = load %"class.std::__1::basic_string"*, %"class.std::__1::basic_string"** %87, align 8, !noalias !20
  %1288 = getelementptr inbounds %"class.std::__1::basic_string", %"class.std::__1::basic_string"* %1287, i32 0, i32 0
  store %"class.std::__1::__compressed_pair"* %1288, %"class.std::__1::__compressed_pair"** %86, align 8, !noalias !20
  %1289 = load %"class.std::__1::__compressed_pair"*, %"class.std::__1::__compressed_pair"** %86, align 8, !noalias !20
  %1290 = bitcast %"class.std::__1::__compressed_pair"* %1289 to %"class.std::__1::__libcpp_compressed_pair_imp"*
  store %"class.std::__1::__libcpp_compressed_pair_imp"* %1290, %"class.std::__1::__libcpp_compressed_pair_imp"** %85, align 8, !noalias !20
  %1291 = load %"class.std::__1::__libcpp_compressed_pair_imp"*, %"class.std::__1::__libcpp_compressed_pair_imp"** %85, align 8, !noalias !20
  %1292 = getelementptr inbounds %"class.std::__1::__libcpp_compressed_pair_imp", %"class.std::__1::__libcpp_compressed_pair_imp"* %1291, i32 0, i32 0
  %1293 = getelementptr inbounds %"struct.std::__1::basic_string<char, std::__1::char_traits<char>, std::__1::allocator<char> >::__rep", %"struct.std::__1::basic_string<char, std::__1::char_traits<char>, std::__1::allocator<char> >::__rep"* %1292, i32 0, i32 0
  %1294 = bitcast %union.anon* %1293 to %"struct.std::__1::basic_string<char, std::__1::char_traits<char>, std::__1::allocator<char> >::__raw"*
  %1295 = getelementptr inbounds %"struct.std::__1::basic_string<char, std::__1::char_traits<char>, std::__1::allocator<char> >::__raw", %"struct.std::__1::basic_string<char, std::__1::char_traits<char>, std::__1::allocator<char> >::__raw"* %1294, i32 0, i32 0
  store [3 x i64]* %1295, [3 x i64]** %88, align 8, !noalias !20
  store i32 0, i32* %89, align 4, !noalias !20
  br label %1296

; <label>:1296:                                   ; preds = %1299, %1274
  %1297 = load i32, i32* %89, align 4, !noalias !20
  %1298 = icmp ult i32 %1297, 3
  br i1 %1298, label %1299, label %1306

; <label>:1299:                                   ; preds = %1296
  %1300 = load i32, i32* %89, align 4, !noalias !20
  %1301 = zext i32 %1300 to i64
  %1302 = load [3 x i64]*, [3 x i64]** %88, align 8, !noalias !20
  %1303 = getelementptr inbounds [3 x i64], [3 x i64]* %1302, i64 0, i64 %1301
  store i64 0, i64* %1303, align 8
  %1304 = load i32, i32* %89, align 4, !noalias !20
  %1305 = add i32 %1304, 1
  store i32 %1305, i32* %89, align 4, !noalias !20
  br label %1296

; <label>:1306:                                   ; preds = %1296
  br label %1307

; <label>:1307:                                   ; preds = %1306
  store %"class.std::__1::basic_string"* %367, %"class.std::__1::basic_string"** %83, align 8, !noalias !23
  store i8* getelementptr inbounds ([2 x i8], [2 x i8]* @.str.7, i32 0, i32 0), i8** %84, align 8, !noalias !23
  %1308 = load %"class.std::__1::basic_string"*, %"class.std::__1::basic_string"** %83, align 8, !noalias !23
  %1309 = load i8*, i8** %84, align 8, !noalias !23
  %1310 = invoke dereferenceable(24) %"class.std::__1::basic_string"* @_ZNSt3__112basic_stringIcNS_11char_traitsIcEENS_9allocatorIcEEE6appendEPKc(%"class.std::__1::basic_string"* %1308, i8* %1309)
          to label %1311 unwind label %1458

; <label>:1311:                                   ; preds = %1307
  store %"class.std::__1::basic_string"* %1310, %"class.std::__1::basic_string"** %82, align 8, !noalias !23
  %1312 = load %"class.std::__1::basic_string"*, %"class.std::__1::basic_string"** %82, align 8, !noalias !23
  store %"class.std::__1::basic_string"* %366, %"class.std::__1::basic_string"** %80, align 8, !noalias !23
  store %"class.std::__1::basic_string"* %1312, %"class.std::__1::basic_string"** %81, align 8, !noalias !23
  %1313 = load %"class.std::__1::basic_string"*, %"class.std::__1::basic_string"** %80, align 8, !noalias !23
  %1314 = load %"class.std::__1::basic_string"*, %"class.std::__1::basic_string"** %81, align 8, !noalias !23
  store %"class.std::__1::basic_string"* %1313, %"class.std::__1::basic_string"** %78, align 8, !noalias !23
  store %"class.std::__1::basic_string"* %1314, %"class.std::__1::basic_string"** %79, align 8, !noalias !23
  %1315 = load %"class.std::__1::basic_string"*, %"class.std::__1::basic_string"** %78, align 8, !noalias !23
  %1316 = bitcast %"class.std::__1::basic_string"* %1315 to %"class.std::__1::__basic_string_common"*
  %1317 = getelementptr inbounds %"class.std::__1::basic_string", %"class.std::__1::basic_string"* %1315, i32 0, i32 0
  %1318 = load %"class.std::__1::basic_string"*, %"class.std::__1::basic_string"** %79, align 8, !noalias !23
  %1319 = getelementptr inbounds %"class.std::__1::basic_string", %"class.std::__1::basic_string"* %1318, i32 0, i32 0
  store %"class.std::__1::__compressed_pair"* %1319, %"class.std::__1::__compressed_pair"** %77, align 8, !noalias !23
  %1320 = load %"class.std::__1::__compressed_pair"*, %"class.std::__1::__compressed_pair"** %77, align 8, !noalias !23
  %1321 = bitcast %"class.std::__1::__compressed_pair"* %1317 to i8*
  %1322 = bitcast %"class.std::__1::__compressed_pair"* %1320 to i8*
  call void @llvm.memcpy.p0i8.p0i8.i64(i8* %1321, i8* %1322, i64 24, i32 8, i1 false) #8
  %1323 = load %"class.std::__1::basic_string"*, %"class.std::__1::basic_string"** %79, align 8, !noalias !23
  store %"class.std::__1::basic_string"* %1323, %"class.std::__1::basic_string"** %74, align 8, !noalias !23
  %1324 = load %"class.std::__1::basic_string"*, %"class.std::__1::basic_string"** %74, align 8, !noalias !23
  %1325 = getelementptr inbounds %"class.std::__1::basic_string", %"class.std::__1::basic_string"* %1324, i32 0, i32 0
  store %"class.std::__1::__compressed_pair"* %1325, %"class.std::__1::__compressed_pair"** %73, align 8, !noalias !23
  %1326 = load %"class.std::__1::__compressed_pair"*, %"class.std::__1::__compressed_pair"** %73, align 8, !noalias !23
  %1327 = bitcast %"class.std::__1::__compressed_pair"* %1326 to %"class.std::__1::__libcpp_compressed_pair_imp"*
  store %"class.std::__1::__libcpp_compressed_pair_imp"* %1327, %"class.std::__1::__libcpp_compressed_pair_imp"** %72, align 8, !noalias !23
  %1328 = load %"class.std::__1::__libcpp_compressed_pair_imp"*, %"class.std::__1::__libcpp_compressed_pair_imp"** %72, align 8, !noalias !23
  %1329 = getelementptr inbounds %"class.std::__1::__libcpp_compressed_pair_imp", %"class.std::__1::__libcpp_compressed_pair_imp"* %1328, i32 0, i32 0
  %1330 = getelementptr inbounds %"struct.std::__1::basic_string<char, std::__1::char_traits<char>, std::__1::allocator<char> >::__rep", %"struct.std::__1::basic_string<char, std::__1::char_traits<char>, std::__1::allocator<char> >::__rep"* %1329, i32 0, i32 0
  %1331 = bitcast %union.anon* %1330 to %"struct.std::__1::basic_string<char, std::__1::char_traits<char>, std::__1::allocator<char> >::__raw"*
  %1332 = getelementptr inbounds %"struct.std::__1::basic_string<char, std::__1::char_traits<char>, std::__1::allocator<char> >::__raw", %"struct.std::__1::basic_string<char, std::__1::char_traits<char>, std::__1::allocator<char> >::__raw"* %1331, i32 0, i32 0
  store [3 x i64]* %1332, [3 x i64]** %75, align 8, !noalias !23
  store i32 0, i32* %76, align 4, !noalias !23
  br label %1333

; <label>:1333:                                   ; preds = %1336, %1311
  %1334 = load i32, i32* %76, align 4, !noalias !23
  %1335 = icmp ult i32 %1334, 3
  br i1 %1335, label %1336, label %1343

; <label>:1336:                                   ; preds = %1333
  %1337 = load i32, i32* %76, align 4, !noalias !23
  %1338 = zext i32 %1337 to i64
  %1339 = load [3 x i64]*, [3 x i64]** %75, align 8, !noalias !23
  %1340 = getelementptr inbounds [3 x i64], [3 x i64]* %1339, i64 0, i64 %1338
  store i64 0, i64* %1340, align 8
  %1341 = load i32, i32* %76, align 4, !noalias !23
  %1342 = add i32 %1341, 1
  store i32 %1342, i32* %76, align 4, !noalias !23
  br label %1333

; <label>:1343:                                   ; preds = %1333
  br label %1344

; <label>:1344:                                   ; preds = %1343
  call void @_ZNSt3__112basic_stringIcNS_11char_traitsIcEENS_9allocatorIcEEED1Ev(%"class.std::__1::basic_string"* %367) #8
  call void @_ZNSt3__112basic_stringIcNS_11char_traitsIcEENS_9allocatorIcEEED1Ev(%"class.std::__1::basic_string"* %368) #8
  br label %1345

; <label>:1345:                                   ; preds = %1443, %1344
  %1346 = load i32, i32* %351, align 4
  %1347 = load i32, i32* %362, align 4
  %1348 = sub nsw i32 %1346, %1347
  %1349 = sext i32 %1348 to i64
  store %"class.std::__1::basic_string"* %364, %"class.std::__1::basic_string"** %71, align 8
  %1350 = load %"class.std::__1::basic_string"*, %"class.std::__1::basic_string"** %71, align 8
  store %"class.std::__1::basic_string"* %1350, %"class.std::__1::basic_string"** %70, align 8
  %1351 = load %"class.std::__1::basic_string"*, %"class.std::__1::basic_string"** %70, align 8
  store %"class.std::__1::basic_string"* %1351, %"class.std::__1::basic_string"** %69, align 8
  %1352 = load %"class.std::__1::basic_string"*, %"class.std::__1::basic_string"** %69, align 8
  %1353 = getelementptr inbounds %"class.std::__1::basic_string", %"class.std::__1::basic_string"* %1352, i32 0, i32 0
  store %"class.std::__1::__compressed_pair"* %1353, %"class.std::__1::__compressed_pair"** %68, align 8
  %1354 = load %"class.std::__1::__compressed_pair"*, %"class.std::__1::__compressed_pair"** %68, align 8
  %1355 = bitcast %"class.std::__1::__compressed_pair"* %1354 to %"class.std::__1::__libcpp_compressed_pair_imp"*
  store %"class.std::__1::__libcpp_compressed_pair_imp"* %1355, %"class.std::__1::__libcpp_compressed_pair_imp"** %67, align 8
  %1356 = load %"class.std::__1::__libcpp_compressed_pair_imp"*, %"class.std::__1::__libcpp_compressed_pair_imp"** %67, align 8
  %1357 = getelementptr inbounds %"class.std::__1::__libcpp_compressed_pair_imp", %"class.std::__1::__libcpp_compressed_pair_imp"* %1356, i32 0, i32 0
  %1358 = getelementptr inbounds %"struct.std::__1::basic_string<char, std::__1::char_traits<char>, std::__1::allocator<char> >::__rep", %"struct.std::__1::basic_string<char, std::__1::char_traits<char>, std::__1::allocator<char> >::__rep"* %1357, i32 0, i32 0
  %1359 = bitcast %union.anon* %1358 to %"struct.std::__1::basic_string<char, std::__1::char_traits<char>, std::__1::allocator<char> >::__short"*
  %1360 = getelementptr inbounds %"struct.std::__1::basic_string<char, std::__1::char_traits<char>, std::__1::allocator<char> >::__short", %"struct.std::__1::basic_string<char, std::__1::char_traits<char>, std::__1::allocator<char> >::__short"* %1359, i32 0, i32 0
  %1361 = bitcast %union.anon.0* %1360 to i8*
  %1362 = load i8, i8* %1361, align 8
  %1363 = zext i8 %1362 to i32
  %1364 = and i32 %1363, 1
  %1365 = icmp ne i32 %1364, 0
  br i1 %1365, label %1366, label %1377

; <label>:1366:                                   ; preds = %1345
  store %"class.std::__1::basic_string"* %1351, %"class.std::__1::basic_string"** %63, align 8
  %1367 = load %"class.std::__1::basic_string"*, %"class.std::__1::basic_string"** %63, align 8
  %1368 = getelementptr inbounds %"class.std::__1::basic_string", %"class.std::__1::basic_string"* %1367, i32 0, i32 0
  store %"class.std::__1::__compressed_pair"* %1368, %"class.std::__1::__compressed_pair"** %62, align 8
  %1369 = load %"class.std::__1::__compressed_pair"*, %"class.std::__1::__compressed_pair"** %62, align 8
  %1370 = bitcast %"class.std::__1::__compressed_pair"* %1369 to %"class.std::__1::__libcpp_compressed_pair_imp"*
  store %"class.std::__1::__libcpp_compressed_pair_imp"* %1370, %"class.std::__1::__libcpp_compressed_pair_imp"** %61, align 8
  %1371 = load %"class.std::__1::__libcpp_compressed_pair_imp"*, %"class.std::__1::__libcpp_compressed_pair_imp"** %61, align 8
  %1372 = getelementptr inbounds %"class.std::__1::__libcpp_compressed_pair_imp", %"class.std::__1::__libcpp_compressed_pair_imp"* %1371, i32 0, i32 0
  %1373 = getelementptr inbounds %"struct.std::__1::basic_string<char, std::__1::char_traits<char>, std::__1::allocator<char> >::__rep", %"struct.std::__1::basic_string<char, std::__1::char_traits<char>, std::__1::allocator<char> >::__rep"* %1372, i32 0, i32 0
  %1374 = bitcast %union.anon* %1373 to %"struct.std::__1::basic_string<char, std::__1::char_traits<char>, std::__1::allocator<char> >::__long"*
  %1375 = getelementptr inbounds %"struct.std::__1::basic_string<char, std::__1::char_traits<char>, std::__1::allocator<char> >::__long", %"struct.std::__1::basic_string<char, std::__1::char_traits<char>, std::__1::allocator<char> >::__long"* %1374, i32 0, i32 1
  %1376 = load i64, i64* %1375, align 8
  br label %1392

; <label>:1377:                                   ; preds = %1345
  store %"class.std::__1::basic_string"* %1351, %"class.std::__1::basic_string"** %66, align 8
  %1378 = load %"class.std::__1::basic_string"*, %"class.std::__1::basic_string"** %66, align 8
  %1379 = getelementptr inbounds %"class.std::__1::basic_string", %"class.std::__1::basic_string"* %1378, i32 0, i32 0
  store %"class.std::__1::__compressed_pair"* %1379, %"class.std::__1::__compressed_pair"** %65, align 8
  %1380 = load %"class.std::__1::__compressed_pair"*, %"class.std::__1::__compressed_pair"** %65, align 8
  %1381 = bitcast %"class.std::__1::__compressed_pair"* %1380 to %"class.std::__1::__libcpp_compressed_pair_imp"*
  store %"class.std::__1::__libcpp_compressed_pair_imp"* %1381, %"class.std::__1::__libcpp_compressed_pair_imp"** %64, align 8
  %1382 = load %"class.std::__1::__libcpp_compressed_pair_imp"*, %"class.std::__1::__libcpp_compressed_pair_imp"** %64, align 8
  %1383 = getelementptr inbounds %"class.std::__1::__libcpp_compressed_pair_imp", %"class.std::__1::__libcpp_compressed_pair_imp"* %1382, i32 0, i32 0
  %1384 = getelementptr inbounds %"struct.std::__1::basic_string<char, std::__1::char_traits<char>, std::__1::allocator<char> >::__rep", %"struct.std::__1::basic_string<char, std::__1::char_traits<char>, std::__1::allocator<char> >::__rep"* %1383, i32 0, i32 0
  %1385 = bitcast %union.anon* %1384 to %"struct.std::__1::basic_string<char, std::__1::char_traits<char>, std::__1::allocator<char> >::__short"*
  %1386 = getelementptr inbounds %"struct.std::__1::basic_string<char, std::__1::char_traits<char>, std::__1::allocator<char> >::__short", %"struct.std::__1::basic_string<char, std::__1::char_traits<char>, std::__1::allocator<char> >::__short"* %1385, i32 0, i32 0
  %1387 = bitcast %union.anon.0* %1386 to i8*
  %1388 = load i8, i8* %1387, align 8
  %1389 = zext i8 %1388 to i32
  %1390 = ashr i32 %1389, 1
  %1391 = sext i32 %1390 to i64
  br label %1392

; <label>:1392:                                   ; preds = %1366, %1377
  %1393 = phi i64 [ %1376, %1366 ], [ %1391, %1377 ]
  %1394 = add i64 %1349, %1393
  store %"class.std::__1::basic_string"* %366, %"class.std::__1::basic_string"** %31, align 8
  store i64 %1394, i64* %32, align 8
  %1395 = load %"class.std::__1::basic_string"*, %"class.std::__1::basic_string"** %31, align 8
  store %"class.std::__1::basic_string"* %1395, %"class.std::__1::basic_string"** %30, align 8
  %1396 = load %"class.std::__1::basic_string"*, %"class.std::__1::basic_string"** %30, align 8
  store %"class.std::__1::basic_string"* %1396, %"class.std::__1::basic_string"** %29, align 8
  %1397 = load %"class.std::__1::basic_string"*, %"class.std::__1::basic_string"** %29, align 8
  %1398 = getelementptr inbounds %"class.std::__1::basic_string", %"class.std::__1::basic_string"* %1397, i32 0, i32 0
  store %"class.std::__1::__compressed_pair"* %1398, %"class.std::__1::__compressed_pair"** %28, align 8
  %1399 = load %"class.std::__1::__compressed_pair"*, %"class.std::__1::__compressed_pair"** %28, align 8
  %1400 = bitcast %"class.std::__1::__compressed_pair"* %1399 to %"class.std::__1::__libcpp_compressed_pair_imp"*
  store %"class.std::__1::__libcpp_compressed_pair_imp"* %1400, %"class.std::__1::__libcpp_compressed_pair_imp"** %27, align 8
  %1401 = load %"class.std::__1::__libcpp_compressed_pair_imp"*, %"class.std::__1::__libcpp_compressed_pair_imp"** %27, align 8
  %1402 = getelementptr inbounds %"class.std::__1::__libcpp_compressed_pair_imp", %"class.std::__1::__libcpp_compressed_pair_imp"* %1401, i32 0, i32 0
  %1403 = getelementptr inbounds %"struct.std::__1::basic_string<char, std::__1::char_traits<char>, std::__1::allocator<char> >::__rep", %"struct.std::__1::basic_string<char, std::__1::char_traits<char>, std::__1::allocator<char> >::__rep"* %1402, i32 0, i32 0
  %1404 = bitcast %union.anon* %1403 to %"struct.std::__1::basic_string<char, std::__1::char_traits<char>, std::__1::allocator<char> >::__short"*
  %1405 = getelementptr inbounds %"struct.std::__1::basic_string<char, std::__1::char_traits<char>, std::__1::allocator<char> >::__short", %"struct.std::__1::basic_string<char, std::__1::char_traits<char>, std::__1::allocator<char> >::__short"* %1404, i32 0, i32 0
  %1406 = bitcast %union.anon.0* %1405 to i8*
  %1407 = load i8, i8* %1406, align 8
  %1408 = zext i8 %1407 to i32
  %1409 = and i32 %1408, 1
  %1410 = icmp ne i32 %1409, 0
  br i1 %1410, label %1411, label %1422

; <label>:1411:                                   ; preds = %1392
  store %"class.std::__1::basic_string"* %1396, %"class.std::__1::basic_string"** %21, align 8
  %1412 = load %"class.std::__1::basic_string"*, %"class.std::__1::basic_string"** %21, align 8
  %1413 = getelementptr inbounds %"class.std::__1::basic_string", %"class.std::__1::basic_string"* %1412, i32 0, i32 0
  store %"class.std::__1::__compressed_pair"* %1413, %"class.std::__1::__compressed_pair"** %20, align 8
  %1414 = load %"class.std::__1::__compressed_pair"*, %"class.std::__1::__compressed_pair"** %20, align 8
  %1415 = bitcast %"class.std::__1::__compressed_pair"* %1414 to %"class.std::__1::__libcpp_compressed_pair_imp"*
  store %"class.std::__1::__libcpp_compressed_pair_imp"* %1415, %"class.std::__1::__libcpp_compressed_pair_imp"** %19, align 8
  %1416 = load %"class.std::__1::__libcpp_compressed_pair_imp"*, %"class.std::__1::__libcpp_compressed_pair_imp"** %19, align 8
  %1417 = getelementptr inbounds %"class.std::__1::__libcpp_compressed_pair_imp", %"class.std::__1::__libcpp_compressed_pair_imp"* %1416, i32 0, i32 0
  %1418 = getelementptr inbounds %"struct.std::__1::basic_string<char, std::__1::char_traits<char>, std::__1::allocator<char> >::__rep", %"struct.std::__1::basic_string<char, std::__1::char_traits<char>, std::__1::allocator<char> >::__rep"* %1417, i32 0, i32 0
  %1419 = bitcast %union.anon* %1418 to %"struct.std::__1::basic_string<char, std::__1::char_traits<char>, std::__1::allocator<char> >::__long"*
  %1420 = getelementptr inbounds %"struct.std::__1::basic_string<char, std::__1::char_traits<char>, std::__1::allocator<char> >::__long", %"struct.std::__1::basic_string<char, std::__1::char_traits<char>, std::__1::allocator<char> >::__long"* %1419, i32 0, i32 2
  %1421 = load i8*, i8** %1420, align 8
  br label %1435

; <label>:1422:                                   ; preds = %1392
  store %"class.std::__1::basic_string"* %1396, %"class.std::__1::basic_string"** %26, align 8
  %1423 = load %"class.std::__1::basic_string"*, %"class.std::__1::basic_string"** %26, align 8
  %1424 = getelementptr inbounds %"class.std::__1::basic_string", %"class.std::__1::basic_string"* %1423, i32 0, i32 0
  store %"class.std::__1::__compressed_pair"* %1424, %"class.std::__1::__compressed_pair"** %25, align 8
  %1425 = load %"class.std::__1::__compressed_pair"*, %"class.std::__1::__compressed_pair"** %25, align 8
  %1426 = bitcast %"class.std::__1::__compressed_pair"* %1425 to %"class.std::__1::__libcpp_compressed_pair_imp"*
  store %"class.std::__1::__libcpp_compressed_pair_imp"* %1426, %"class.std::__1::__libcpp_compressed_pair_imp"** %24, align 8
  %1427 = load %"class.std::__1::__libcpp_compressed_pair_imp"*, %"class.std::__1::__libcpp_compressed_pair_imp"** %24, align 8
  %1428 = getelementptr inbounds %"class.std::__1::__libcpp_compressed_pair_imp", %"class.std::__1::__libcpp_compressed_pair_imp"* %1427, i32 0, i32 0
  %1429 = getelementptr inbounds %"struct.std::__1::basic_string<char, std::__1::char_traits<char>, std::__1::allocator<char> >::__rep", %"struct.std::__1::basic_string<char, std::__1::char_traits<char>, std::__1::allocator<char> >::__rep"* %1428, i32 0, i32 0
  %1430 = bitcast %union.anon* %1429 to %"struct.std::__1::basic_string<char, std::__1::char_traits<char>, std::__1::allocator<char> >::__short"*
  %1431 = getelementptr inbounds %"struct.std::__1::basic_string<char, std::__1::char_traits<char>, std::__1::allocator<char> >::__short", %"struct.std::__1::basic_string<char, std::__1::char_traits<char>, std::__1::allocator<char> >::__short"* %1430, i32 0, i32 1
  %1432 = getelementptr inbounds [23 x i8], [23 x i8]* %1431, i64 0, i64 0
  store i8* %1432, i8** %23, align 8
  %1433 = load i8*, i8** %23, align 8
  store i8* %1433, i8** %22, align 8
  %1434 = load i8*, i8** %22, align 8
  br label %1435

; <label>:1435:                                   ; preds = %1411, %1422
  %1436 = phi i8* [ %1421, %1411 ], [ %1434, %1422 ]
  %1437 = load i64, i64* %32, align 8
  %1438 = getelementptr inbounds i8, i8* %1436, i64 %1437
  br label %1439

; <label>:1439:                                   ; preds = %1435
  %1440 = load i8, i8* %1438, align 1
  %1441 = sext i8 %1440 to i32
  %1442 = icmp eq i32 %1441, 32
  br i1 %1442, label %1443, label %1467

; <label>:1443:                                   ; preds = %1439
  %1444 = load i32, i32* %362, align 4
  %1445 = add nsw i32 %1444, -1
  store i32 %1445, i32* %362, align 4
  br label %1345

; <label>:1446:                                   ; preds = %1126
  %1447 = landingpad { i8*, i32 }
          cleanup
  %1448 = extractvalue { i8*, i32 } %1447, 0
  store i8* %1448, i8** %348, align 8
  %1449 = extractvalue { i8*, i32 } %1447, 1
  store i32 %1449, i32* %349, align 4
  call void @_ZNSt3__112basic_stringIcNS_11char_traitsIcEENS_9allocatorIcEEED1Ev(%"class.std::__1::basic_string"* %365) #8
  br label %1631

; <label>:1450:                                   ; preds = %1163
  %1451 = landingpad { i8*, i32 }
          cleanup
  %1452 = extractvalue { i8*, i32 } %1451, 0
  store i8* %1452, i8** %348, align 8
  %1453 = extractvalue { i8*, i32 } %1451, 1
  store i32 %1453, i32* %349, align 4
  br label %1630

; <label>:1454:                                   ; preds = %1271
  %1455 = landingpad { i8*, i32 }
          cleanup
  %1456 = extractvalue { i8*, i32 } %1455, 0
  store i8* %1456, i8** %348, align 8
  %1457 = extractvalue { i8*, i32 } %1455, 1
  store i32 %1457, i32* %349, align 4
  br label %1462

; <label>:1458:                                   ; preds = %1307
  %1459 = landingpad { i8*, i32 }
          cleanup
  %1460 = extractvalue { i8*, i32 } %1459, 0
  store i8* %1460, i8** %348, align 8
  %1461 = extractvalue { i8*, i32 } %1459, 1
  store i32 %1461, i32* %349, align 4
  call void @_ZNSt3__112basic_stringIcNS_11char_traitsIcEENS_9allocatorIcEEED1Ev(%"class.std::__1::basic_string"* %367) #8
  br label %1462

; <label>:1462:                                   ; preds = %1458, %1454
  call void @_ZNSt3__112basic_stringIcNS_11char_traitsIcEENS_9allocatorIcEEED1Ev(%"class.std::__1::basic_string"* %368) #8
  br label %1630

; <label>:1463:                                   ; preds = %1521, %1530, %1625
  %1464 = landingpad { i8*, i32 }
          cleanup
  %1465 = extractvalue { i8*, i32 } %1464, 0
  store i8* %1465, i8** %348, align 8
  %1466 = extractvalue { i8*, i32 } %1464, 1
  store i32 %1466, i32* %349, align 4
  call void @_ZNSt3__112basic_stringIcNS_11char_traitsIcEENS_9allocatorIcEEED1Ev(%"class.std::__1::basic_string"* %366) #8
  br label %1630

; <label>:1467:                                   ; preds = %1439
  store i32 0, i32* %369, align 4
  br label %1468

; <label>:1468:                                   ; preds = %1527, %1467
  %1469 = load i32, i32* %369, align 4
  %1470 = sext i32 %1469 to i64
  %1471 = load i32, i32* %351, align 4
  %1472 = load i32, i32* %362, align 4
  %1473 = sub nsw i32 %1471, %1472
  %1474 = sext i32 %1473 to i64
  store %"class.std::__1::basic_string"* %364, %"class.std::__1::basic_string"** %16, align 8
  %1475 = load %"class.std::__1::basic_string"*, %"class.std::__1::basic_string"** %16, align 8
  store %"class.std::__1::basic_string"* %1475, %"class.std::__1::basic_string"** %15, align 8
  %1476 = load %"class.std::__1::basic_string"*, %"class.std::__1::basic_string"** %15, align 8
  store %"class.std::__1::basic_string"* %1476, %"class.std::__1::basic_string"** %14, align 8
  %1477 = load %"class.std::__1::basic_string"*, %"class.std::__1::basic_string"** %14, align 8
  %1478 = getelementptr inbounds %"class.std::__1::basic_string", %"class.std::__1::basic_string"* %1477, i32 0, i32 0
  store %"class.std::__1::__compressed_pair"* %1478, %"class.std::__1::__compressed_pair"** %13, align 8
  %1479 = load %"class.std::__1::__compressed_pair"*, %"class.std::__1::__compressed_pair"** %13, align 8
  %1480 = bitcast %"class.std::__1::__compressed_pair"* %1479 to %"class.std::__1::__libcpp_compressed_pair_imp"*
  store %"class.std::__1::__libcpp_compressed_pair_imp"* %1480, %"class.std::__1::__libcpp_compressed_pair_imp"** %12, align 8
  %1481 = load %"class.std::__1::__libcpp_compressed_pair_imp"*, %"class.std::__1::__libcpp_compressed_pair_imp"** %12, align 8
  %1482 = getelementptr inbounds %"class.std::__1::__libcpp_compressed_pair_imp", %"class.std::__1::__libcpp_compressed_pair_imp"* %1481, i32 0, i32 0
  %1483 = getelementptr inbounds %"struct.std::__1::basic_string<char, std::__1::char_traits<char>, std::__1::allocator<char> >::__rep", %"struct.std::__1::basic_string<char, std::__1::char_traits<char>, std::__1::allocator<char> >::__rep"* %1482, i32 0, i32 0
  %1484 = bitcast %union.anon* %1483 to %"struct.std::__1::basic_string<char, std::__1::char_traits<char>, std::__1::allocator<char> >::__short"*
  %1485 = getelementptr inbounds %"struct.std::__1::basic_string<char, std::__1::char_traits<char>, std::__1::allocator<char> >::__short", %"struct.std::__1::basic_string<char, std::__1::char_traits<char>, std::__1::allocator<char> >::__short"* %1484, i32 0, i32 0
  %1486 = bitcast %union.anon.0* %1485 to i8*
  %1487 = load i8, i8* %1486, align 8
  %1488 = zext i8 %1487 to i32
  %1489 = and i32 %1488, 1
  %1490 = icmp ne i32 %1489, 0
  br i1 %1490, label %1491, label %1502

; <label>:1491:                                   ; preds = %1468
  store %"class.std::__1::basic_string"* %1476, %"class.std::__1::basic_string"** %8, align 8
  %1492 = load %"class.std::__1::basic_string"*, %"class.std::__1::basic_string"** %8, align 8
  %1493 = getelementptr inbounds %"class.std::__1::basic_string", %"class.std::__1::basic_string"* %1492, i32 0, i32 0
  store %"class.std::__1::__compressed_pair"* %1493, %"class.std::__1::__compressed_pair"** %7, align 8
  %1494 = load %"class.std::__1::__compressed_pair"*, %"class.std::__1::__compressed_pair"** %7, align 8
  %1495 = bitcast %"class.std::__1::__compressed_pair"* %1494 to %"class.std::__1::__libcpp_compressed_pair_imp"*
  store %"class.std::__1::__libcpp_compressed_pair_imp"* %1495, %"class.std::__1::__libcpp_compressed_pair_imp"** %6, align 8
  %1496 = load %"class.std::__1::__libcpp_compressed_pair_imp"*, %"class.std::__1::__libcpp_compressed_pair_imp"** %6, align 8
  %1497 = getelementptr inbounds %"class.std::__1::__libcpp_compressed_pair_imp", %"class.std::__1::__libcpp_compressed_pair_imp"* %1496, i32 0, i32 0
  %1498 = getelementptr inbounds %"struct.std::__1::basic_string<char, std::__1::char_traits<char>, std::__1::allocator<char> >::__rep", %"struct.std::__1::basic_string<char, std::__1::char_traits<char>, std::__1::allocator<char> >::__rep"* %1497, i32 0, i32 0
  %1499 = bitcast %union.anon* %1498 to %"struct.std::__1::basic_string<char, std::__1::char_traits<char>, std::__1::allocator<char> >::__long"*
  %1500 = getelementptr inbounds %"struct.std::__1::basic_string<char, std::__1::char_traits<char>, std::__1::allocator<char> >::__long", %"struct.std::__1::basic_string<char, std::__1::char_traits<char>, std::__1::allocator<char> >::__long"* %1499, i32 0, i32 1
  %1501 = load i64, i64* %1500, align 8
  br label %1517

; <label>:1502:                                   ; preds = %1468
  store %"class.std::__1::basic_string"* %1476, %"class.std::__1::basic_string"** %11, align 8
  %1503 = load %"class.std::__1::basic_string"*, %"class.std::__1::basic_string"** %11, align 8
  %1504 = getelementptr inbounds %"class.std::__1::basic_string", %"class.std::__1::basic_string"* %1503, i32 0, i32 0
  store %"class.std::__1::__compressed_pair"* %1504, %"class.std::__1::__compressed_pair"** %10, align 8
  %1505 = load %"class.std::__1::__compressed_pair"*, %"class.std::__1::__compressed_pair"** %10, align 8
  %1506 = bitcast %"class.std::__1::__compressed_pair"* %1505 to %"class.std::__1::__libcpp_compressed_pair_imp"*
  store %"class.std::__1::__libcpp_compressed_pair_imp"* %1506, %"class.std::__1::__libcpp_compressed_pair_imp"** %9, align 8
  %1507 = load %"class.std::__1::__libcpp_compressed_pair_imp"*, %"class.std::__1::__libcpp_compressed_pair_imp"** %9, align 8
  %1508 = getelementptr inbounds %"class.std::__1::__libcpp_compressed_pair_imp", %"class.std::__1::__libcpp_compressed_pair_imp"* %1507, i32 0, i32 0
  %1509 = getelementptr inbounds %"struct.std::__1::basic_string<char, std::__1::char_traits<char>, std::__1::allocator<char> >::__rep", %"struct.std::__1::basic_string<char, std::__1::char_traits<char>, std::__1::allocator<char> >::__rep"* %1508, i32 0, i32 0
  %1510 = bitcast %union.anon* %1509 to %"struct.std::__1::basic_string<char, std::__1::char_traits<char>, std::__1::allocator<char> >::__short"*
  %1511 = getelementptr inbounds %"struct.std::__1::basic_string<char, std::__1::char_traits<char>, std::__1::allocator<char> >::__short", %"struct.std::__1::basic_string<char, std::__1::char_traits<char>, std::__1::allocator<char> >::__short"* %1510, i32 0, i32 0
  %1512 = bitcast %union.anon.0* %1511 to i8*
  %1513 = load i8, i8* %1512, align 8
  %1514 = zext i8 %1513 to i32
  %1515 = ashr i32 %1514, 1
  %1516 = sext i32 %1515 to i64
  br label %1517

; <label>:1517:                                   ; preds = %1491, %1502
  %1518 = phi i64 [ %1501, %1491 ], [ %1516, %1502 ]
  %1519 = add i64 %1474, %1518
  %1520 = icmp ult i64 %1470, %1519
  br i1 %1520, label %1521, label %1530

; <label>:1521:                                   ; preds = %1517
  store %"class.std::__1::basic_string"* %366, %"class.std::__1::basic_string"** %4, align 8
  store i8* getelementptr inbounds ([2 x i8], [2 x i8]* @.str.8, i32 0, i32 0), i8** %5, align 8
  %1522 = load %"class.std::__1::basic_string"*, %"class.std::__1::basic_string"** %4, align 8
  %1523 = load i8*, i8** %5, align 8
  %1524 = invoke dereferenceable(24) %"class.std::__1::basic_string"* @_ZNSt3__112basic_stringIcNS_11char_traitsIcEENS_9allocatorIcEEE6appendEPKc(%"class.std::__1::basic_string"* %1522, i8* %1523)
          to label %1525 unwind label %1463

; <label>:1525:                                   ; preds = %1521
  br label %1526

; <label>:1526:                                   ; preds = %1525
  br label %1527

; <label>:1527:                                   ; preds = %1526
  %1528 = load i32, i32* %369, align 4
  %1529 = add nsw i32 %1528, 1
  store i32 %1529, i32* %369, align 4
  br label %1468

; <label>:1530:                                   ; preds = %1517
  store %"class.std::__1::basic_string"* %366, %"class.std::__1::basic_string"** %17, align 8
  store i8* getelementptr inbounds ([2 x i8], [2 x i8]* @.str.9, i32 0, i32 0), i8** %18, align 8
  %1531 = load %"class.std::__1::basic_string"*, %"class.std::__1::basic_string"** %17, align 8
  %1532 = load i8*, i8** %18, align 8
  %1533 = invoke dereferenceable(24) %"class.std::__1::basic_string"* @_ZNSt3__112basic_stringIcNS_11char_traitsIcEENS_9allocatorIcEEE6appendEPKc(%"class.std::__1::basic_string"* %1531, i8* %1532)
          to label %1534 unwind label %1463

; <label>:1534:                                   ; preds = %1530
  br label %1535

; <label>:1535:                                   ; preds = %1534
  store %"class.std::__1::basic_string"* %347, %"class.std::__1::basic_string"** %59, align 8
  store %"class.std::__1::basic_string"* %366, %"class.std::__1::basic_string"** %60, align 8
  %1536 = load %"class.std::__1::basic_string"*, %"class.std::__1::basic_string"** %59, align 8
  %1537 = load %"class.std::__1::basic_string"*, %"class.std::__1::basic_string"** %60, align 8
  store %"class.std::__1::basic_string"* %1536, %"class.std::__1::basic_string"** %57, align 8
  store %"class.std::__1::basic_string"* %1537, %"class.std::__1::basic_string"** %58, align 8
  %1538 = load %"class.std::__1::basic_string"*, %"class.std::__1::basic_string"** %57, align 8
  %1539 = load %"class.std::__1::basic_string"*, %"class.std::__1::basic_string"** %58, align 8
  store %"class.std::__1::basic_string"* %1539, %"class.std::__1::basic_string"** %56, align 8
  %1540 = load %"class.std::__1::basic_string"*, %"class.std::__1::basic_string"** %56, align 8
  store %"class.std::__1::basic_string"* %1540, %"class.std::__1::basic_string"** %55, align 8
  %1541 = load %"class.std::__1::basic_string"*, %"class.std::__1::basic_string"** %55, align 8
  store %"class.std::__1::basic_string"* %1541, %"class.std::__1::basic_string"** %54, align 8
  %1542 = load %"class.std::__1::basic_string"*, %"class.std::__1::basic_string"** %54, align 8
  %1543 = getelementptr inbounds %"class.std::__1::basic_string", %"class.std::__1::basic_string"* %1542, i32 0, i32 0
  store %"class.std::__1::__compressed_pair"* %1543, %"class.std::__1::__compressed_pair"** %53, align 8
  %1544 = load %"class.std::__1::__compressed_pair"*, %"class.std::__1::__compressed_pair"** %53, align 8
  %1545 = bitcast %"class.std::__1::__compressed_pair"* %1544 to %"class.std::__1::__libcpp_compressed_pair_imp"*
  store %"class.std::__1::__libcpp_compressed_pair_imp"* %1545, %"class.std::__1::__libcpp_compressed_pair_imp"** %52, align 8
  %1546 = load %"class.std::__1::__libcpp_compressed_pair_imp"*, %"class.std::__1::__libcpp_compressed_pair_imp"** %52, align 8
  %1547 = getelementptr inbounds %"class.std::__1::__libcpp_compressed_pair_imp", %"class.std::__1::__libcpp_compressed_pair_imp"* %1546, i32 0, i32 0
  %1548 = getelementptr inbounds %"struct.std::__1::basic_string<char, std::__1::char_traits<char>, std::__1::allocator<char> >::__rep", %"struct.std::__1::basic_string<char, std::__1::char_traits<char>, std::__1::allocator<char> >::__rep"* %1547, i32 0, i32 0
  %1549 = bitcast %union.anon* %1548 to %"struct.std::__1::basic_string<char, std::__1::char_traits<char>, std::__1::allocator<char> >::__short"*
  %1550 = getelementptr inbounds %"struct.std::__1::basic_string<char, std::__1::char_traits<char>, std::__1::allocator<char> >::__short", %"struct.std::__1::basic_string<char, std::__1::char_traits<char>, std::__1::allocator<char> >::__short"* %1549, i32 0, i32 0
  %1551 = bitcast %union.anon.0* %1550 to i8*
  %1552 = load i8, i8* %1551, align 8
  %1553 = zext i8 %1552 to i32
  %1554 = and i32 %1553, 1
  %1555 = icmp ne i32 %1554, 0
  br i1 %1555, label %1556, label %1567

; <label>:1556:                                   ; preds = %1535
  store %"class.std::__1::basic_string"* %1541, %"class.std::__1::basic_string"** %46, align 8
  %1557 = load %"class.std::__1::basic_string"*, %"class.std::__1::basic_string"** %46, align 8
  %1558 = getelementptr inbounds %"class.std::__1::basic_string", %"class.std::__1::basic_string"* %1557, i32 0, i32 0
  store %"class.std::__1::__compressed_pair"* %1558, %"class.std::__1::__compressed_pair"** %45, align 8
  %1559 = load %"class.std::__1::__compressed_pair"*, %"class.std::__1::__compressed_pair"** %45, align 8
  %1560 = bitcast %"class.std::__1::__compressed_pair"* %1559 to %"class.std::__1::__libcpp_compressed_pair_imp"*
  store %"class.std::__1::__libcpp_compressed_pair_imp"* %1560, %"class.std::__1::__libcpp_compressed_pair_imp"** %44, align 8
  %1561 = load %"class.std::__1::__libcpp_compressed_pair_imp"*, %"class.std::__1::__libcpp_compressed_pair_imp"** %44, align 8
  %1562 = getelementptr inbounds %"class.std::__1::__libcpp_compressed_pair_imp", %"class.std::__1::__libcpp_compressed_pair_imp"* %1561, i32 0, i32 0
  %1563 = getelementptr inbounds %"struct.std::__1::basic_string<char, std::__1::char_traits<char>, std::__1::allocator<char> >::__rep", %"struct.std::__1::basic_string<char, std::__1::char_traits<char>, std::__1::allocator<char> >::__rep"* %1562, i32 0, i32 0
  %1564 = bitcast %union.anon* %1563 to %"struct.std::__1::basic_string<char, std::__1::char_traits<char>, std::__1::allocator<char> >::__long"*
  %1565 = getelementptr inbounds %"struct.std::__1::basic_string<char, std::__1::char_traits<char>, std::__1::allocator<char> >::__long", %"struct.std::__1::basic_string<char, std::__1::char_traits<char>, std::__1::allocator<char> >::__long"* %1564, i32 0, i32 2
  %1566 = load i8*, i8** %1565, align 8
  br label %1580

; <label>:1567:                                   ; preds = %1535
  store %"class.std::__1::basic_string"* %1541, %"class.std::__1::basic_string"** %51, align 8
  %1568 = load %"class.std::__1::basic_string"*, %"class.std::__1::basic_string"** %51, align 8
  %1569 = getelementptr inbounds %"class.std::__1::basic_string", %"class.std::__1::basic_string"* %1568, i32 0, i32 0
  store %"class.std::__1::__compressed_pair"* %1569, %"class.std::__1::__compressed_pair"** %50, align 8
  %1570 = load %"class.std::__1::__compressed_pair"*, %"class.std::__1::__compressed_pair"** %50, align 8
  %1571 = bitcast %"class.std::__1::__compressed_pair"* %1570 to %"class.std::__1::__libcpp_compressed_pair_imp"*
  store %"class.std::__1::__libcpp_compressed_pair_imp"* %1571, %"class.std::__1::__libcpp_compressed_pair_imp"** %49, align 8
  %1572 = load %"class.std::__1::__libcpp_compressed_pair_imp"*, %"class.std::__1::__libcpp_compressed_pair_imp"** %49, align 8
  %1573 = getelementptr inbounds %"class.std::__1::__libcpp_compressed_pair_imp", %"class.std::__1::__libcpp_compressed_pair_imp"* %1572, i32 0, i32 0
  %1574 = getelementptr inbounds %"struct.std::__1::basic_string<char, std::__1::char_traits<char>, std::__1::allocator<char> >::__rep", %"struct.std::__1::basic_string<char, std::__1::char_traits<char>, std::__1::allocator<char> >::__rep"* %1573, i32 0, i32 0
  %1575 = bitcast %union.anon* %1574 to %"struct.std::__1::basic_string<char, std::__1::char_traits<char>, std::__1::allocator<char> >::__short"*
  %1576 = getelementptr inbounds %"struct.std::__1::basic_string<char, std::__1::char_traits<char>, std::__1::allocator<char> >::__short", %"struct.std::__1::basic_string<char, std::__1::char_traits<char>, std::__1::allocator<char> >::__short"* %1575, i32 0, i32 1
  %1577 = getelementptr inbounds [23 x i8], [23 x i8]* %1576, i64 0, i64 0
  store i8* %1577, i8** %48, align 8
  %1578 = load i8*, i8** %48, align 8
  store i8* %1578, i8** %47, align 8
  %1579 = load i8*, i8** %47, align 8
  br label %1580

; <label>:1580:                                   ; preds = %1567, %1556
  %1581 = phi i8* [ %1566, %1556 ], [ %1579, %1567 ]
  store i8* %1581, i8** %43, align 8
  %1582 = load i8*, i8** %43, align 8
  %1583 = load %"class.std::__1::basic_string"*, %"class.std::__1::basic_string"** %58, align 8
  store %"class.std::__1::basic_string"* %1583, %"class.std::__1::basic_string"** %42, align 8
  %1584 = load %"class.std::__1::basic_string"*, %"class.std::__1::basic_string"** %42, align 8
  store %"class.std::__1::basic_string"* %1584, %"class.std::__1::basic_string"** %41, align 8
  %1585 = load %"class.std::__1::basic_string"*, %"class.std::__1::basic_string"** %41, align 8
  %1586 = getelementptr inbounds %"class.std::__1::basic_string", %"class.std::__1::basic_string"* %1585, i32 0, i32 0
  store %"class.std::__1::__compressed_pair"* %1586, %"class.std::__1::__compressed_pair"** %40, align 8
  %1587 = load %"class.std::__1::__compressed_pair"*, %"class.std::__1::__compressed_pair"** %40, align 8
  %1588 = bitcast %"class.std::__1::__compressed_pair"* %1587 to %"class.std::__1::__libcpp_compressed_pair_imp"*
  store %"class.std::__1::__libcpp_compressed_pair_imp"* %1588, %"class.std::__1::__libcpp_compressed_pair_imp"** %39, align 8
  %1589 = load %"class.std::__1::__libcpp_compressed_pair_imp"*, %"class.std::__1::__libcpp_compressed_pair_imp"** %39, align 8
  %1590 = getelementptr inbounds %"class.std::__1::__libcpp_compressed_pair_imp", %"class.std::__1::__libcpp_compressed_pair_imp"* %1589, i32 0, i32 0
  %1591 = getelementptr inbounds %"struct.std::__1::basic_string<char, std::__1::char_traits<char>, std::__1::allocator<char> >::__rep", %"struct.std::__1::basic_string<char, std::__1::char_traits<char>, std::__1::allocator<char> >::__rep"* %1590, i32 0, i32 0
  %1592 = bitcast %union.anon* %1591 to %"struct.std::__1::basic_string<char, std::__1::char_traits<char>, std::__1::allocator<char> >::__short"*
  %1593 = getelementptr inbounds %"struct.std::__1::basic_string<char, std::__1::char_traits<char>, std::__1::allocator<char> >::__short", %"struct.std::__1::basic_string<char, std::__1::char_traits<char>, std::__1::allocator<char> >::__short"* %1592, i32 0, i32 0
  %1594 = bitcast %union.anon.0* %1593 to i8*
  %1595 = load i8, i8* %1594, align 8
  %1596 = zext i8 %1595 to i32
  %1597 = and i32 %1596, 1
  %1598 = icmp ne i32 %1597, 0
  br i1 %1598, label %1599, label %1610

; <label>:1599:                                   ; preds = %1580
  store %"class.std::__1::basic_string"* %1584, %"class.std::__1::basic_string"** %35, align 8
  %1600 = load %"class.std::__1::basic_string"*, %"class.std::__1::basic_string"** %35, align 8
  %1601 = getelementptr inbounds %"class.std::__1::basic_string", %"class.std::__1::basic_string"* %1600, i32 0, i32 0
  store %"class.std::__1::__compressed_pair"* %1601, %"class.std::__1::__compressed_pair"** %34, align 8
  %1602 = load %"class.std::__1::__compressed_pair"*, %"class.std::__1::__compressed_pair"** %34, align 8
  %1603 = bitcast %"class.std::__1::__compressed_pair"* %1602 to %"class.std::__1::__libcpp_compressed_pair_imp"*
  store %"class.std::__1::__libcpp_compressed_pair_imp"* %1603, %"class.std::__1::__libcpp_compressed_pair_imp"** %33, align 8
  %1604 = load %"class.std::__1::__libcpp_compressed_pair_imp"*, %"class.std::__1::__libcpp_compressed_pair_imp"** %33, align 8
  %1605 = getelementptr inbounds %"class.std::__1::__libcpp_compressed_pair_imp", %"class.std::__1::__libcpp_compressed_pair_imp"* %1604, i32 0, i32 0
  %1606 = getelementptr inbounds %"struct.std::__1::basic_string<char, std::__1::char_traits<char>, std::__1::allocator<char> >::__rep", %"struct.std::__1::basic_string<char, std::__1::char_traits<char>, std::__1::allocator<char> >::__rep"* %1605, i32 0, i32 0
  %1607 = bitcast %union.anon* %1606 to %"struct.std::__1::basic_string<char, std::__1::char_traits<char>, std::__1::allocator<char> >::__long"*
  %1608 = getelementptr inbounds %"struct.std::__1::basic_string<char, std::__1::char_traits<char>, std::__1::allocator<char> >::__long", %"struct.std::__1::basic_string<char, std::__1::char_traits<char>, std::__1::allocator<char> >::__long"* %1607, i32 0, i32 1
  %1609 = load i64, i64* %1608, align 8
  br label %1625

; <label>:1610:                                   ; preds = %1580
  store %"class.std::__1::basic_string"* %1584, %"class.std::__1::basic_string"** %38, align 8
  %1611 = load %"class.std::__1::basic_string"*, %"class.std::__1::basic_string"** %38, align 8
  %1612 = getelementptr inbounds %"class.std::__1::basic_string", %"class.std::__1::basic_string"* %1611, i32 0, i32 0
  store %"class.std::__1::__compressed_pair"* %1612, %"class.std::__1::__compressed_pair"** %37, align 8
  %1613 = load %"class.std::__1::__compressed_pair"*, %"class.std::__1::__compressed_pair"** %37, align 8
  %1614 = bitcast %"class.std::__1::__compressed_pair"* %1613 to %"class.std::__1::__libcpp_compressed_pair_imp"*
  store %"class.std::__1::__libcpp_compressed_pair_imp"* %1614, %"class.std::__1::__libcpp_compressed_pair_imp"** %36, align 8
  %1615 = load %"class.std::__1::__libcpp_compressed_pair_imp"*, %"class.std::__1::__libcpp_compressed_pair_imp"** %36, align 8
  %1616 = getelementptr inbounds %"class.std::__1::__libcpp_compressed_pair_imp", %"class.std::__1::__libcpp_compressed_pair_imp"* %1615, i32 0, i32 0
  %1617 = getelementptr inbounds %"struct.std::__1::basic_string<char, std::__1::char_traits<char>, std::__1::allocator<char> >::__rep", %"struct.std::__1::basic_string<char, std::__1::char_traits<char>, std::__1::allocator<char> >::__rep"* %1616, i32 0, i32 0
  %1618 = bitcast %union.anon* %1617 to %"struct.std::__1::basic_string<char, std::__1::char_traits<char>, std::__1::allocator<char> >::__short"*
  %1619 = getelementptr inbounds %"struct.std::__1::basic_string<char, std::__1::char_traits<char>, std::__1::allocator<char> >::__short", %"struct.std::__1::basic_string<char, std::__1::char_traits<char>, std::__1::allocator<char> >::__short"* %1618, i32 0, i32 0
  %1620 = bitcast %union.anon.0* %1619 to i8*
  %1621 = load i8, i8* %1620, align 8
  %1622 = zext i8 %1621 to i32
  %1623 = ashr i32 %1622, 1
  %1624 = sext i32 %1623 to i64
  br label %1625

; <label>:1625:                                   ; preds = %1610, %1599
  %1626 = phi i64 [ %1609, %1599 ], [ %1624, %1610 ]
  %1627 = invoke dereferenceable(24) %"class.std::__1::basic_string"* @_ZNSt3__112basic_stringIcNS_11char_traitsIcEENS_9allocatorIcEEE6appendEPKcm(%"class.std::__1::basic_string"* %1538, i8* %1582, i64 %1626)
          to label %1628 unwind label %1463

; <label>:1628:                                   ; preds = %1625
  br label %1629

; <label>:1629:                                   ; preds = %1628
  call void @_ZNSt3__112basic_stringIcNS_11char_traitsIcEENS_9allocatorIcEEED1Ev(%"class.std::__1::basic_string"* %366) #8
  call void @_ZNSt3__112basic_stringIcNS_11char_traitsIcEENS_9allocatorIcEEED1Ev(%"class.std::__1::basic_string"* %364) #8
  call void @_ZNSt3__112basic_stringIcNS_11char_traitsIcEENS_9allocatorIcEEED1Ev(%"class.std::__1::basic_string"* %350) #8
  br label %1632

; <label>:1630:                                   ; preds = %1463, %1462, %1450
  call void @_ZNSt3__112basic_stringIcNS_11char_traitsIcEENS_9allocatorIcEEED1Ev(%"class.std::__1::basic_string"* %364) #8
  br label %1631

; <label>:1631:                                   ; preds = %1630, %1446, %1015, %581
  call void @_ZNSt3__112basic_stringIcNS_11char_traitsIcEENS_9allocatorIcEEED1Ev(%"class.std::__1::basic_string"* %350) #8
  br label %1642

; <label>:1632:                                   ; preds = %1629, %498
  %1633 = invoke dereferenceable(160) %"class.std::__1::basic_ostream"* @_ZNSt3__1lsIcNS_11char_traitsIcEENS_9allocatorIcEEEERNS_13basic_ostreamIT_T0_EES9_RKNS_12basic_stringIS6_S7_T1_EE(%"class.std::__1::basic_ostream"* dereferenceable(160) @_ZNSt3__14coutE, %"class.std::__1::basic_string"* dereferenceable(24) %347)
          to label %1634 unwind label %394

; <label>:1634:                                   ; preds = %1632
  %1635 = invoke dereferenceable(160) %"class.std::__1::basic_ostream"* @_ZNSt3__1lsINS_11char_traitsIcEEEERNS_13basic_ostreamIcT_EES6_PKc(%"class.std::__1::basic_ostream"* dereferenceable(160) %1633, i8* getelementptr inbounds ([5 x i8], [5 x i8]* @.str.10, i32 0, i32 0))
          to label %1636 unwind label %394

; <label>:1636:                                   ; preds = %1634
  store %"class.std::__1::basic_ostream"* %1635, %"class.std::__1::basic_ostream"** %169, align 8
  store %"class.std::__1::basic_ostream"* (%"class.std::__1::basic_ostream"*)* @_ZNSt3__14endlIcNS_11char_traitsIcEEEERNS_13basic_ostreamIT_T0_EES7_, %"class.std::__1::basic_ostream"* (%"class.std::__1::basic_ostream"*)** %170, align 8
  %1637 = load %"class.std::__1::basic_ostream"*, %"class.std::__1::basic_ostream"** %169, align 8
  %1638 = load %"class.std::__1::basic_ostream"* (%"class.std::__1::basic_ostream"*)*, %"class.std::__1::basic_ostream"* (%"class.std::__1::basic_ostream"*)** %170, align 8
  %1639 = invoke dereferenceable(160) %"class.std::__1::basic_ostream"* %1638(%"class.std::__1::basic_ostream"* dereferenceable(160) %1637)
          to label %1640 unwind label %394

; <label>:1640:                                   ; preds = %1636
  br label %1641

; <label>:1641:                                   ; preds = %1640
  call void @_ZNSt3__112basic_stringIcNS_11char_traitsIcEENS_9allocatorIcEEED1Ev(%"class.std::__1::basic_string"* %347) #8
  ret void

; <label>:1642:                                   ; preds = %1631, %394
  call void @_ZNSt3__112basic_stringIcNS_11char_traitsIcEENS_9allocatorIcEEED1Ev(%"class.std::__1::basic_string"* %347) #8
  br label %1643

; <label>:1643:                                   ; preds = %1642
  %1644 = load i8*, i8** %348, align 8
  %1645 = load i32, i32* %349, align 4
  %1646 = insertvalue { i8*, i32 } undef, i8* %1644, 0
  %1647 = insertvalue { i8*, i32 } %1646, i32 %1645, 1
  resume { i8*, i32 } %1647
}

declare i32 @__gxx_personality_v0(...)

declare void @_ZNSt3__19to_stringEi(%"class.std::__1::basic_string"* sret, i32) #1

; Function Attrs: nounwind
declare void @_ZNSt3__112basic_stringIcNS_11char_traitsIcEENS_9allocatorIcEEED1Ev(%"class.std::__1::basic_string"*) unnamed_addr #2

; Function Attrs: ssp uwtable
define linkonce_odr dereferenceable(160) %"class.std::__1::basic_ostream"* @_ZNSt3__1lsINS_11char_traitsIcEEEERNS_13basic_ostreamIcT_EES6_PKc(%"class.std::__1::basic_ostream"* dereferenceable(160), i8*) #0 {
  %3 = alloca %"class.std::__1::basic_ostream"*, align 8
  %4 = alloca i8*, align 8
  store %"class.std::__1::basic_ostream"* %0, %"class.std::__1::basic_ostream"** %3, align 8
  store i8* %1, i8** %4, align 8
  %5 = load %"class.std::__1::basic_ostream"*, %"class.std::__1::basic_ostream"** %3, align 8
  %6 = load i8*, i8** %4, align 8
  %7 = load i8*, i8** %4, align 8
  %8 = call i64 @_ZNSt3__111char_traitsIcE6lengthEPKc(i8* %7)
  %9 = call dereferenceable(160) %"class.std::__1::basic_ostream"* @_ZNSt3__124__put_character_sequenceIcNS_11char_traitsIcEEEERNS_13basic_ostreamIT_T0_EES7_PKS4_m(%"class.std::__1::basic_ostream"* dereferenceable(160) %5, i8* %6, i64 %8)
  ret %"class.std::__1::basic_ostream"* %9
}

; Function Attrs: ssp uwtable
define linkonce_odr dereferenceable(160) %"class.std::__1::basic_ostream"* @_ZNSt3__1lsIcNS_11char_traitsIcEENS_9allocatorIcEEEERNS_13basic_ostreamIT_T0_EES9_RKNS_12basic_stringIS6_S7_T1_EE(%"class.std::__1::basic_ostream"* dereferenceable(160), %"class.std::__1::basic_string"* dereferenceable(24)) #0 {
  %3 = alloca %"class.std::__1::__libcpp_compressed_pair_imp"*, align 8
  %4 = alloca %"class.std::__1::__compressed_pair"*, align 8
  %5 = alloca %"class.std::__1::basic_string"*, align 8
  %6 = alloca %"class.std::__1::__libcpp_compressed_pair_imp"*, align 8
  %7 = alloca %"class.std::__1::__compressed_pair"*, align 8
  %8 = alloca %"class.std::__1::basic_string"*, align 8
  %9 = alloca %"class.std::__1::__libcpp_compressed_pair_imp"*, align 8
  %10 = alloca %"class.std::__1::__compressed_pair"*, align 8
  %11 = alloca %"class.std::__1::basic_string"*, align 8
  %12 = alloca %"class.std::__1::basic_string"*, align 8
  %13 = alloca i8*, align 8
  %14 = alloca %"class.std::__1::__libcpp_compressed_pair_imp"*, align 8
  %15 = alloca %"class.std::__1::__compressed_pair"*, align 8
  %16 = alloca %"class.std::__1::basic_string"*, align 8
  %17 = alloca i8*, align 8
  %18 = alloca i8*, align 8
  %19 = alloca %"class.std::__1::__libcpp_compressed_pair_imp"*, align 8
  %20 = alloca %"class.std::__1::__compressed_pair"*, align 8
  %21 = alloca %"class.std::__1::basic_string"*, align 8
  %22 = alloca %"class.std::__1::__libcpp_compressed_pair_imp"*, align 8
  %23 = alloca %"class.std::__1::__compressed_pair"*, align 8
  %24 = alloca %"class.std::__1::basic_string"*, align 8
  %25 = alloca %"class.std::__1::basic_string"*, align 8
  %26 = alloca %"class.std::__1::basic_string"*, align 8
  %27 = alloca %"class.std::__1::basic_ostream"*, align 8
  %28 = alloca %"class.std::__1::basic_string"*, align 8
  store %"class.std::__1::basic_ostream"* %0, %"class.std::__1::basic_ostream"** %27, align 8
  store %"class.std::__1::basic_string"* %1, %"class.std::__1::basic_string"** %28, align 8
  %29 = load %"class.std::__1::basic_ostream"*, %"class.std::__1::basic_ostream"** %27, align 8
  %30 = load %"class.std::__1::basic_string"*, %"class.std::__1::basic_string"** %28, align 8
  store %"class.std::__1::basic_string"* %30, %"class.std::__1::basic_string"** %26, align 8
  %31 = load %"class.std::__1::basic_string"*, %"class.std::__1::basic_string"** %26, align 8
  store %"class.std::__1::basic_string"* %31, %"class.std::__1::basic_string"** %25, align 8
  %32 = load %"class.std::__1::basic_string"*, %"class.std::__1::basic_string"** %25, align 8
  store %"class.std::__1::basic_string"* %32, %"class.std::__1::basic_string"** %24, align 8
  %33 = load %"class.std::__1::basic_string"*, %"class.std::__1::basic_string"** %24, align 8
  %34 = getelementptr inbounds %"class.std::__1::basic_string", %"class.std::__1::basic_string"* %33, i32 0, i32 0
  store %"class.std::__1::__compressed_pair"* %34, %"class.std::__1::__compressed_pair"** %23, align 8
  %35 = load %"class.std::__1::__compressed_pair"*, %"class.std::__1::__compressed_pair"** %23, align 8
  %36 = bitcast %"class.std::__1::__compressed_pair"* %35 to %"class.std::__1::__libcpp_compressed_pair_imp"*
  store %"class.std::__1::__libcpp_compressed_pair_imp"* %36, %"class.std::__1::__libcpp_compressed_pair_imp"** %22, align 8
  %37 = load %"class.std::__1::__libcpp_compressed_pair_imp"*, %"class.std::__1::__libcpp_compressed_pair_imp"** %22, align 8
  %38 = getelementptr inbounds %"class.std::__1::__libcpp_compressed_pair_imp", %"class.std::__1::__libcpp_compressed_pair_imp"* %37, i32 0, i32 0
  %39 = getelementptr inbounds %"struct.std::__1::basic_string<char, std::__1::char_traits<char>, std::__1::allocator<char> >::__rep", %"struct.std::__1::basic_string<char, std::__1::char_traits<char>, std::__1::allocator<char> >::__rep"* %38, i32 0, i32 0
  %40 = bitcast %union.anon* %39 to %"struct.std::__1::basic_string<char, std::__1::char_traits<char>, std::__1::allocator<char> >::__short"*
  %41 = getelementptr inbounds %"struct.std::__1::basic_string<char, std::__1::char_traits<char>, std::__1::allocator<char> >::__short", %"struct.std::__1::basic_string<char, std::__1::char_traits<char>, std::__1::allocator<char> >::__short"* %40, i32 0, i32 0
  %42 = bitcast %union.anon.0* %41 to i8*
  %43 = load i8, i8* %42, align 8
  %44 = zext i8 %43 to i32
  %45 = and i32 %44, 1
  %46 = icmp ne i32 %45, 0
  br i1 %46, label %47, label %58

; <label>:47:                                     ; preds = %2
  store %"class.std::__1::basic_string"* %32, %"class.std::__1::basic_string"** %16, align 8
  %48 = load %"class.std::__1::basic_string"*, %"class.std::__1::basic_string"** %16, align 8
  %49 = getelementptr inbounds %"class.std::__1::basic_string", %"class.std::__1::basic_string"* %48, i32 0, i32 0
  store %"class.std::__1::__compressed_pair"* %49, %"class.std::__1::__compressed_pair"** %15, align 8
  %50 = load %"class.std::__1::__compressed_pair"*, %"class.std::__1::__compressed_pair"** %15, align 8
  %51 = bitcast %"class.std::__1::__compressed_pair"* %50 to %"class.std::__1::__libcpp_compressed_pair_imp"*
  store %"class.std::__1::__libcpp_compressed_pair_imp"* %51, %"class.std::__1::__libcpp_compressed_pair_imp"** %14, align 8
  %52 = load %"class.std::__1::__libcpp_compressed_pair_imp"*, %"class.std::__1::__libcpp_compressed_pair_imp"** %14, align 8
  %53 = getelementptr inbounds %"class.std::__1::__libcpp_compressed_pair_imp", %"class.std::__1::__libcpp_compressed_pair_imp"* %52, i32 0, i32 0
  %54 = getelementptr inbounds %"struct.std::__1::basic_string<char, std::__1::char_traits<char>, std::__1::allocator<char> >::__rep", %"struct.std::__1::basic_string<char, std::__1::char_traits<char>, std::__1::allocator<char> >::__rep"* %53, i32 0, i32 0
  %55 = bitcast %union.anon* %54 to %"struct.std::__1::basic_string<char, std::__1::char_traits<char>, std::__1::allocator<char> >::__long"*
  %56 = getelementptr inbounds %"struct.std::__1::basic_string<char, std::__1::char_traits<char>, std::__1::allocator<char> >::__long", %"struct.std::__1::basic_string<char, std::__1::char_traits<char>, std::__1::allocator<char> >::__long"* %55, i32 0, i32 2
  %57 = load i8*, i8** %56, align 8
  br label %71

; <label>:58:                                     ; preds = %2
  store %"class.std::__1::basic_string"* %32, %"class.std::__1::basic_string"** %21, align 8
  %59 = load %"class.std::__1::basic_string"*, %"class.std::__1::basic_string"** %21, align 8
  %60 = getelementptr inbounds %"class.std::__1::basic_string", %"class.std::__1::basic_string"* %59, i32 0, i32 0
  store %"class.std::__1::__compressed_pair"* %60, %"class.std::__1::__compressed_pair"** %20, align 8
  %61 = load %"class.std::__1::__compressed_pair"*, %"class.std::__1::__compressed_pair"** %20, align 8
  %62 = bitcast %"class.std::__1::__compressed_pair"* %61 to %"class.std::__1::__libcpp_compressed_pair_imp"*
  store %"class.std::__1::__libcpp_compressed_pair_imp"* %62, %"class.std::__1::__libcpp_compressed_pair_imp"** %19, align 8
  %63 = load %"class.std::__1::__libcpp_compressed_pair_imp"*, %"class.std::__1::__libcpp_compressed_pair_imp"** %19, align 8
  %64 = getelementptr inbounds %"class.std::__1::__libcpp_compressed_pair_imp", %"class.std::__1::__libcpp_compressed_pair_imp"* %63, i32 0, i32 0
  %65 = getelementptr inbounds %"struct.std::__1::basic_string<char, std::__1::char_traits<char>, std::__1::allocator<char> >::__rep", %"struct.std::__1::basic_string<char, std::__1::char_traits<char>, std::__1::allocator<char> >::__rep"* %64, i32 0, i32 0
  %66 = bitcast %union.anon* %65 to %"struct.std::__1::basic_string<char, std::__1::char_traits<char>, std::__1::allocator<char> >::__short"*
  %67 = getelementptr inbounds %"struct.std::__1::basic_string<char, std::__1::char_traits<char>, std::__1::allocator<char> >::__short", %"struct.std::__1::basic_string<char, std::__1::char_traits<char>, std::__1::allocator<char> >::__short"* %66, i32 0, i32 1
  %68 = getelementptr inbounds [23 x i8], [23 x i8]* %67, i64 0, i64 0
  store i8* %68, i8** %18, align 8
  %69 = load i8*, i8** %18, align 8
  store i8* %69, i8** %17, align 8
  %70 = load i8*, i8** %17, align 8
  br label %71

; <label>:71:                                     ; preds = %47, %58
  %72 = phi i8* [ %57, %47 ], [ %70, %58 ]
  store i8* %72, i8** %13, align 8
  %73 = load i8*, i8** %13, align 8
  %74 = load %"class.std::__1::basic_string"*, %"class.std::__1::basic_string"** %28, align 8
  store %"class.std::__1::basic_string"* %74, %"class.std::__1::basic_string"** %12, align 8
  %75 = load %"class.std::__1::basic_string"*, %"class.std::__1::basic_string"** %12, align 8
  store %"class.std::__1::basic_string"* %75, %"class.std::__1::basic_string"** %11, align 8
  %76 = load %"class.std::__1::basic_string"*, %"class.std::__1::basic_string"** %11, align 8
  %77 = getelementptr inbounds %"class.std::__1::basic_string", %"class.std::__1::basic_string"* %76, i32 0, i32 0
  store %"class.std::__1::__compressed_pair"* %77, %"class.std::__1::__compressed_pair"** %10, align 8
  %78 = load %"class.std::__1::__compressed_pair"*, %"class.std::__1::__compressed_pair"** %10, align 8
  %79 = bitcast %"class.std::__1::__compressed_pair"* %78 to %"class.std::__1::__libcpp_compressed_pair_imp"*
  store %"class.std::__1::__libcpp_compressed_pair_imp"* %79, %"class.std::__1::__libcpp_compressed_pair_imp"** %9, align 8
  %80 = load %"class.std::__1::__libcpp_compressed_pair_imp"*, %"class.std::__1::__libcpp_compressed_pair_imp"** %9, align 8
  %81 = getelementptr inbounds %"class.std::__1::__libcpp_compressed_pair_imp", %"class.std::__1::__libcpp_compressed_pair_imp"* %80, i32 0, i32 0
  %82 = getelementptr inbounds %"struct.std::__1::basic_string<char, std::__1::char_traits<char>, std::__1::allocator<char> >::__rep", %"struct.std::__1::basic_string<char, std::__1::char_traits<char>, std::__1::allocator<char> >::__rep"* %81, i32 0, i32 0
  %83 = bitcast %union.anon* %82 to %"struct.std::__1::basic_string<char, std::__1::char_traits<char>, std::__1::allocator<char> >::__short"*
  %84 = getelementptr inbounds %"struct.std::__1::basic_string<char, std::__1::char_traits<char>, std::__1::allocator<char> >::__short", %"struct.std::__1::basic_string<char, std::__1::char_traits<char>, std::__1::allocator<char> >::__short"* %83, i32 0, i32 0
  %85 = bitcast %union.anon.0* %84 to i8*
  %86 = load i8, i8* %85, align 8
  %87 = zext i8 %86 to i32
  %88 = and i32 %87, 1
  %89 = icmp ne i32 %88, 0
  br i1 %89, label %90, label %101

; <label>:90:                                     ; preds = %71
  store %"class.std::__1::basic_string"* %75, %"class.std::__1::basic_string"** %5, align 8
  %91 = load %"class.std::__1::basic_string"*, %"class.std::__1::basic_string"** %5, align 8
  %92 = getelementptr inbounds %"class.std::__1::basic_string", %"class.std::__1::basic_string"* %91, i32 0, i32 0
  store %"class.std::__1::__compressed_pair"* %92, %"class.std::__1::__compressed_pair"** %4, align 8
  %93 = load %"class.std::__1::__compressed_pair"*, %"class.std::__1::__compressed_pair"** %4, align 8
  %94 = bitcast %"class.std::__1::__compressed_pair"* %93 to %"class.std::__1::__libcpp_compressed_pair_imp"*
  store %"class.std::__1::__libcpp_compressed_pair_imp"* %94, %"class.std::__1::__libcpp_compressed_pair_imp"** %3, align 8
  %95 = load %"class.std::__1::__libcpp_compressed_pair_imp"*, %"class.std::__1::__libcpp_compressed_pair_imp"** %3, align 8
  %96 = getelementptr inbounds %"class.std::__1::__libcpp_compressed_pair_imp", %"class.std::__1::__libcpp_compressed_pair_imp"* %95, i32 0, i32 0
  %97 = getelementptr inbounds %"struct.std::__1::basic_string<char, std::__1::char_traits<char>, std::__1::allocator<char> >::__rep", %"struct.std::__1::basic_string<char, std::__1::char_traits<char>, std::__1::allocator<char> >::__rep"* %96, i32 0, i32 0
  %98 = bitcast %union.anon* %97 to %"struct.std::__1::basic_string<char, std::__1::char_traits<char>, std::__1::allocator<char> >::__long"*
  %99 = getelementptr inbounds %"struct.std::__1::basic_string<char, std::__1::char_traits<char>, std::__1::allocator<char> >::__long", %"struct.std::__1::basic_string<char, std::__1::char_traits<char>, std::__1::allocator<char> >::__long"* %98, i32 0, i32 1
  %100 = load i64, i64* %99, align 8
  br label %116

; <label>:101:                                    ; preds = %71
  store %"class.std::__1::basic_string"* %75, %"class.std::__1::basic_string"** %8, align 8
  %102 = load %"class.std::__1::basic_string"*, %"class.std::__1::basic_string"** %8, align 8
  %103 = getelementptr inbounds %"class.std::__1::basic_string", %"class.std::__1::basic_string"* %102, i32 0, i32 0
  store %"class.std::__1::__compressed_pair"* %103, %"class.std::__1::__compressed_pair"** %7, align 8
  %104 = load %"class.std::__1::__compressed_pair"*, %"class.std::__1::__compressed_pair"** %7, align 8
  %105 = bitcast %"class.std::__1::__compressed_pair"* %104 to %"class.std::__1::__libcpp_compressed_pair_imp"*
  store %"class.std::__1::__libcpp_compressed_pair_imp"* %105, %"class.std::__1::__libcpp_compressed_pair_imp"** %6, align 8
  %106 = load %"class.std::__1::__libcpp_compressed_pair_imp"*, %"class.std::__1::__libcpp_compressed_pair_imp"** %6, align 8
  %107 = getelementptr inbounds %"class.std::__1::__libcpp_compressed_pair_imp", %"class.std::__1::__libcpp_compressed_pair_imp"* %106, i32 0, i32 0
  %108 = getelementptr inbounds %"struct.std::__1::basic_string<char, std::__1::char_traits<char>, std::__1::allocator<char> >::__rep", %"struct.std::__1::basic_string<char, std::__1::char_traits<char>, std::__1::allocator<char> >::__rep"* %107, i32 0, i32 0
  %109 = bitcast %union.anon* %108 to %"struct.std::__1::basic_string<char, std::__1::char_traits<char>, std::__1::allocator<char> >::__short"*
  %110 = getelementptr inbounds %"struct.std::__1::basic_string<char, std::__1::char_traits<char>, std::__1::allocator<char> >::__short", %"struct.std::__1::basic_string<char, std::__1::char_traits<char>, std::__1::allocator<char> >::__short"* %109, i32 0, i32 0
  %111 = bitcast %union.anon.0* %110 to i8*
  %112 = load i8, i8* %111, align 8
  %113 = zext i8 %112 to i32
  %114 = ashr i32 %113, 1
  %115 = sext i32 %114 to i64
  br label %116

; <label>:116:                                    ; preds = %90, %101
  %117 = phi i64 [ %100, %90 ], [ %115, %101 ]
  %118 = call dereferenceable(160) %"class.std::__1::basic_ostream"* @_ZNSt3__124__put_character_sequenceIcNS_11char_traitsIcEEEERNS_13basic_ostreamIT_T0_EES7_PKS4_m(%"class.std::__1::basic_ostream"* dereferenceable(160) %29, i8* %73, i64 %117)
  ret %"class.std::__1::basic_ostream"* %118
}

; Function Attrs: alwaysinline inlinehint ssp uwtable
define linkonce_odr hidden dereferenceable(160) %"class.std::__1::basic_ostream"* @_ZNSt3__14endlIcNS_11char_traitsIcEEEERNS_13basic_ostreamIT_T0_EES7_(%"class.std::__1::basic_ostream"* dereferenceable(160)) #3 personality i32 (...)* @__gxx_personality_v0 {
  %2 = alloca %"class.std::__1::ctype"*, align 8
  %3 = alloca i8, align 1
  %4 = alloca %"class.std::__1::locale"*, align 8
  %5 = alloca %"class.std::__1::basic_ios"*, align 8
  %6 = alloca i8, align 1
  %7 = alloca %"class.std::__1::locale", align 8
  %8 = alloca i8*
  %9 = alloca i32
  %10 = alloca %"class.std::__1::basic_ostream"*, align 8
  store %"class.std::__1::basic_ostream"* %0, %"class.std::__1::basic_ostream"** %10, align 8
  %11 = load %"class.std::__1::basic_ostream"*, %"class.std::__1::basic_ostream"** %10, align 8
  %12 = load %"class.std::__1::basic_ostream"*, %"class.std::__1::basic_ostream"** %10, align 8
  %13 = bitcast %"class.std::__1::basic_ostream"* %12 to i8**
  %14 = load i8*, i8** %13, align 8
  %15 = getelementptr i8, i8* %14, i64 -24
  %16 = bitcast i8* %15 to i64*
  %17 = load i64, i64* %16, align 8
  %18 = bitcast %"class.std::__1::basic_ostream"* %12 to i8*
  %19 = getelementptr inbounds i8, i8* %18, i64 %17
  %20 = bitcast i8* %19 to %"class.std::__1::basic_ios"*
  store %"class.std::__1::basic_ios"* %20, %"class.std::__1::basic_ios"** %5, align 8
  store i8 10, i8* %6, align 1
  %21 = load %"class.std::__1::basic_ios"*, %"class.std::__1::basic_ios"** %5, align 8
  %22 = bitcast %"class.std::__1::basic_ios"* %21 to %"class.std::__1::ios_base"*
  call void @_ZNKSt3__18ios_base6getlocEv(%"class.std::__1::locale"* sret %7, %"class.std::__1::ios_base"* %22)
  store %"class.std::__1::locale"* %7, %"class.std::__1::locale"** %4, align 8
  %23 = load %"class.std::__1::locale"*, %"class.std::__1::locale"** %4, align 8
  %24 = invoke %"class.std::__1::locale::facet"* @_ZNKSt3__16locale9use_facetERNS0_2idE(%"class.std::__1::locale"* %23, %"class.std::__1::locale::id"* dereferenceable(16) @_ZNSt3__15ctypeIcE2idE)
          to label %25 unwind label %35

; <label>:25:                                     ; preds = %1
  %26 = bitcast %"class.std::__1::locale::facet"* %24 to %"class.std::__1::ctype"*
  %27 = load i8, i8* %6, align 1
  store %"class.std::__1::ctype"* %26, %"class.std::__1::ctype"** %2, align 8
  store i8 %27, i8* %3, align 1
  %28 = load %"class.std::__1::ctype"*, %"class.std::__1::ctype"** %2, align 8
  %29 = bitcast %"class.std::__1::ctype"* %28 to i8 (%"class.std::__1::ctype"*, i8)***
  %30 = load i8 (%"class.std::__1::ctype"*, i8)**, i8 (%"class.std::__1::ctype"*, i8)*** %29, align 8
  %31 = getelementptr inbounds i8 (%"class.std::__1::ctype"*, i8)*, i8 (%"class.std::__1::ctype"*, i8)** %30, i64 7
  %32 = load i8 (%"class.std::__1::ctype"*, i8)*, i8 (%"class.std::__1::ctype"*, i8)** %31, align 8
  %33 = load i8, i8* %3, align 1
  %34 = invoke signext i8 %32(%"class.std::__1::ctype"* %28, i8 signext %33)
          to label %43 unwind label %35

; <label>:35:                                     ; preds = %25, %1
  %36 = landingpad { i8*, i32 }
          cleanup
  %37 = extractvalue { i8*, i32 } %36, 0
  store i8* %37, i8** %8, align 8
  %38 = extractvalue { i8*, i32 } %36, 1
  store i32 %38, i32* %9, align 4
  call void @_ZNSt3__16localeD1Ev(%"class.std::__1::locale"* %7) #8
  %39 = load i8*, i8** %8, align 8
  %40 = load i32, i32* %9, align 4
  %41 = insertvalue { i8*, i32 } undef, i8* %39, 0
  %42 = insertvalue { i8*, i32 } %41, i32 %40, 1
  resume { i8*, i32 } %42

; <label>:43:                                     ; preds = %25
  call void @_ZNSt3__16localeD1Ev(%"class.std::__1::locale"* %7) #8
  %44 = call dereferenceable(160) %"class.std::__1::basic_ostream"* @_ZNSt3__113basic_ostreamIcNS_11char_traitsIcEEE3putEc(%"class.std::__1::basic_ostream"* %11, i8 signext %34)
  %45 = load %"class.std::__1::basic_ostream"*, %"class.std::__1::basic_ostream"** %10, align 8
  %46 = call dereferenceable(160) %"class.std::__1::basic_ostream"* @_ZNSt3__113basic_ostreamIcNS_11char_traitsIcEEE5flushEv(%"class.std::__1::basic_ostream"* %45)
  %47 = load %"class.std::__1::basic_ostream"*, %"class.std::__1::basic_ostream"** %10, align 8
  ret %"class.std::__1::basic_ostream"* %47
}

; Function Attrs: ssp uwtable
define linkonce_odr dereferenceable(160) %"class.std::__1::basic_ostream"* @_ZNSt3__124__put_character_sequenceIcNS_11char_traitsIcEEEERNS_13basic_ostreamIT_T0_EES7_PKS4_m(%"class.std::__1::basic_ostream"* dereferenceable(160), i8*, i64) #0 personality i8* bitcast (i32 (...)* @__gxx_personality_v0 to i8*) {
  %4 = alloca %"class.std::__1::ctype"*, align 8
  %5 = alloca i8, align 1
  %6 = alloca %"class.std::__1::locale"*, align 8
  %7 = alloca %"class.std::__1::basic_ios"*, align 8
  %8 = alloca i8, align 1
  %9 = alloca %"class.std::__1::locale", align 8
  %10 = alloca i8*
  %11 = alloca i32
  %12 = alloca %"class.std::__1::basic_ios"*, align 8
  %13 = alloca %"class.std::__1::ostreambuf_iterator"*, align 8
  %14 = alloca %"class.std::__1::ios_base"*, align 8
  %15 = alloca %"class.std::__1::ios_base"*, align 8
  %16 = alloca i32, align 4
  %17 = alloca %"class.std::__1::basic_ios"*, align 8
  %18 = alloca i32, align 4
  %19 = alloca %"class.std::__1::ios_base"*, align 8
  %20 = alloca %"class.std::__1::basic_ios"*, align 8
  %21 = alloca %"class.std::__1::ostreambuf_iterator"*, align 8
  %22 = alloca %"class.std::__1::basic_ostream"*, align 8
  %23 = alloca %"class.std::__1::ostreambuf_iterator"*, align 8
  %24 = alloca %"class.std::__1::basic_ostream"*, align 8
  %25 = alloca %"class.std::__1::basic_ostream<char, std::__1::char_traits<char> >::sentry"*, align 8
  %26 = alloca %"class.std::__1::basic_ostream"*, align 8
  %27 = alloca i8*, align 8
  %28 = alloca i64, align 8
  %29 = alloca %"class.std::__1::basic_ostream<char, std::__1::char_traits<char> >::sentry", align 8
  %30 = alloca i8*
  %31 = alloca i32
  %32 = alloca %"class.std::__1::ostreambuf_iterator", align 8
  %33 = alloca %"class.std::__1::ostreambuf_iterator", align 8
  store %"class.std::__1::basic_ostream"* %0, %"class.std::__1::basic_ostream"** %26, align 8
  store i8* %1, i8** %27, align 8
  store i64 %2, i64* %28, align 8
  %34 = load %"class.std::__1::basic_ostream"*, %"class.std::__1::basic_ostream"** %26, align 8
  invoke void @_ZNSt3__113basic_ostreamIcNS_11char_traitsIcEEE6sentryC1ERS3_(%"class.std::__1::basic_ostream<char, std::__1::char_traits<char> >::sentry"* %29, %"class.std::__1::basic_ostream"* dereferenceable(160) %34)
          to label %35 unwind label %174

; <label>:35:                                     ; preds = %3
  store %"class.std::__1::basic_ostream<char, std::__1::char_traits<char> >::sentry"* %29, %"class.std::__1::basic_ostream<char, std::__1::char_traits<char> >::sentry"** %25, align 8
  %36 = load %"class.std::__1::basic_ostream<char, std::__1::char_traits<char> >::sentry"*, %"class.std::__1::basic_ostream<char, std::__1::char_traits<char> >::sentry"** %25, align 8
  %37 = getelementptr inbounds %"class.std::__1::basic_ostream<char, std::__1::char_traits<char> >::sentry", %"class.std::__1::basic_ostream<char, std::__1::char_traits<char> >::sentry"* %36, i32 0, i32 0
  %38 = load i8, i8* %37, align 8
  %39 = trunc i8 %38 to i1
  br label %40

; <label>:40:                                     ; preds = %35
  br i1 %39, label %41, label %200

; <label>:41:                                     ; preds = %40
  %42 = load %"class.std::__1::basic_ostream"*, %"class.std::__1::basic_ostream"** %26, align 8
  store %"class.std::__1::ostreambuf_iterator"* %32, %"class.std::__1::ostreambuf_iterator"** %23, align 8
  store %"class.std::__1::basic_ostream"* %42, %"class.std::__1::basic_ostream"** %24, align 8
  %43 = load %"class.std::__1::ostreambuf_iterator"*, %"class.std::__1::ostreambuf_iterator"** %23, align 8
  %44 = load %"class.std::__1::basic_ostream"*, %"class.std::__1::basic_ostream"** %24, align 8
  store %"class.std::__1::ostreambuf_iterator"* %43, %"class.std::__1::ostreambuf_iterator"** %21, align 8
  store %"class.std::__1::basic_ostream"* %44, %"class.std::__1::basic_ostream"** %22, align 8
  %45 = load %"class.std::__1::ostreambuf_iterator"*, %"class.std::__1::ostreambuf_iterator"** %21, align 8
  %46 = bitcast %"class.std::__1::ostreambuf_iterator"* %45 to %"struct.std::__1::iterator"*
  %47 = getelementptr inbounds %"class.std::__1::ostreambuf_iterator", %"class.std::__1::ostreambuf_iterator"* %45, i32 0, i32 0
  %48 = load %"class.std::__1::basic_ostream"*, %"class.std::__1::basic_ostream"** %22, align 8
  %49 = bitcast %"class.std::__1::basic_ostream"* %48 to i8**
  %50 = load i8*, i8** %49, align 8
  %51 = getelementptr i8, i8* %50, i64 -24
  %52 = bitcast i8* %51 to i64*
  %53 = load i64, i64* %52, align 8
  %54 = bitcast %"class.std::__1::basic_ostream"* %48 to i8*
  %55 = getelementptr inbounds i8, i8* %54, i64 %53
  %56 = bitcast i8* %55 to %"class.std::__1::basic_ios"*
  store %"class.std::__1::basic_ios"* %56, %"class.std::__1::basic_ios"** %20, align 8
  %57 = load %"class.std::__1::basic_ios"*, %"class.std::__1::basic_ios"** %20, align 8
  %58 = bitcast %"class.std::__1::basic_ios"* %57 to %"class.std::__1::ios_base"*
  store %"class.std::__1::ios_base"* %58, %"class.std::__1::ios_base"** %19, align 8
  %59 = load %"class.std::__1::ios_base"*, %"class.std::__1::ios_base"** %19, align 8
  %60 = getelementptr inbounds %"class.std::__1::ios_base", %"class.std::__1::ios_base"* %59, i32 0, i32 6
  %61 = load i8*, i8** %60, align 8
  %62 = bitcast i8* %61 to %"class.std::__1::basic_streambuf"*
  store %"class.std::__1::basic_streambuf"* %62, %"class.std::__1::basic_streambuf"** %47, align 8
  %63 = load i8*, i8** %27, align 8
  %64 = load %"class.std::__1::basic_ostream"*, %"class.std::__1::basic_ostream"** %26, align 8
  %65 = bitcast %"class.std::__1::basic_ostream"* %64 to i8**
  %66 = load i8*, i8** %65, align 8
  %67 = getelementptr i8, i8* %66, i64 -24
  %68 = bitcast i8* %67 to i64*
  %69 = load i64, i64* %68, align 8
  %70 = bitcast %"class.std::__1::basic_ostream"* %64 to i8*
  %71 = getelementptr inbounds i8, i8* %70, i64 %69
  %72 = bitcast i8* %71 to %"class.std::__1::ios_base"*
  store %"class.std::__1::ios_base"* %72, %"class.std::__1::ios_base"** %14, align 8
  %73 = load %"class.std::__1::ios_base"*, %"class.std::__1::ios_base"** %14, align 8
  %74 = getelementptr inbounds %"class.std::__1::ios_base", %"class.std::__1::ios_base"* %73, i32 0, i32 1
  %75 = load i32, i32* %74, align 8
  br label %76

; <label>:76:                                     ; preds = %41
  %77 = and i32 %75, 176
  %78 = icmp eq i32 %77, 32
  br i1 %78, label %79, label %83

; <label>:79:                                     ; preds = %76
  %80 = load i8*, i8** %27, align 8
  %81 = load i64, i64* %28, align 8
  %82 = getelementptr inbounds i8, i8* %80, i64 %81
  br label %85

; <label>:83:                                     ; preds = %76
  %84 = load i8*, i8** %27, align 8
  br label %85

; <label>:85:                                     ; preds = %83, %79
  %86 = phi i8* [ %82, %79 ], [ %84, %83 ]
  %87 = load i8*, i8** %27, align 8
  %88 = load i64, i64* %28, align 8
  %89 = getelementptr inbounds i8, i8* %87, i64 %88
  %90 = load %"class.std::__1::basic_ostream"*, %"class.std::__1::basic_ostream"** %26, align 8
  %91 = bitcast %"class.std::__1::basic_ostream"* %90 to i8**
  %92 = load i8*, i8** %91, align 8
  %93 = getelementptr i8, i8* %92, i64 -24
  %94 = bitcast i8* %93 to i64*
  %95 = load i64, i64* %94, align 8
  %96 = bitcast %"class.std::__1::basic_ostream"* %90 to i8*
  %97 = getelementptr inbounds i8, i8* %96, i64 %95
  %98 = bitcast i8* %97 to %"class.std::__1::ios_base"*
  %99 = load %"class.std::__1::basic_ostream"*, %"class.std::__1::basic_ostream"** %26, align 8
  %100 = bitcast %"class.std::__1::basic_ostream"* %99 to i8**
  %101 = load i8*, i8** %100, align 8
  %102 = getelementptr i8, i8* %101, i64 -24
  %103 = bitcast i8* %102 to i64*
  %104 = load i64, i64* %103, align 8
  %105 = bitcast %"class.std::__1::basic_ostream"* %99 to i8*
  %106 = getelementptr inbounds i8, i8* %105, i64 %104
  %107 = bitcast i8* %106 to %"class.std::__1::basic_ios"*
  store %"class.std::__1::basic_ios"* %107, %"class.std::__1::basic_ios"** %12, align 8
  %108 = load %"class.std::__1::basic_ios"*, %"class.std::__1::basic_ios"** %12, align 8
  %109 = call i32 @_ZNSt3__111char_traitsIcE3eofEv() #8
  %110 = getelementptr inbounds %"class.std::__1::basic_ios", %"class.std::__1::basic_ios"* %108, i32 0, i32 2
  %111 = load i32, i32* %110, align 8
  %112 = call zeroext i1 @_ZNSt3__111char_traitsIcE11eq_int_typeEii(i32 %109, i32 %111) #8
  br i1 %112, label %113, label %140

; <label>:113:                                    ; preds = %85
  store %"class.std::__1::basic_ios"* %108, %"class.std::__1::basic_ios"** %7, align 8
  store i8 32, i8* %8, align 1
  %114 = load %"class.std::__1::basic_ios"*, %"class.std::__1::basic_ios"** %7, align 8
  %115 = bitcast %"class.std::__1::basic_ios"* %114 to %"class.std::__1::ios_base"*
  invoke void @_ZNKSt3__18ios_base6getlocEv(%"class.std::__1::locale"* sret %9, %"class.std::__1::ios_base"* %115)
          to label %116 unwind label %178

; <label>:116:                                    ; preds = %113
  store %"class.std::__1::locale"* %9, %"class.std::__1::locale"** %6, align 8
  %117 = load %"class.std::__1::locale"*, %"class.std::__1::locale"** %6, align 8
  %118 = invoke %"class.std::__1::locale::facet"* @_ZNKSt3__16locale9use_facetERNS0_2idE(%"class.std::__1::locale"* %117, %"class.std::__1::locale::id"* dereferenceable(16) @_ZNSt3__15ctypeIcE2idE)
          to label %119 unwind label %129

; <label>:119:                                    ; preds = %116
  %120 = bitcast %"class.std::__1::locale::facet"* %118 to %"class.std::__1::ctype"*
  %121 = load i8, i8* %8, align 1
  store %"class.std::__1::ctype"* %120, %"class.std::__1::ctype"** %4, align 8
  store i8 %121, i8* %5, align 1
  %122 = load %"class.std::__1::ctype"*, %"class.std::__1::ctype"** %4, align 8
  %123 = bitcast %"class.std::__1::ctype"* %122 to i8 (%"class.std::__1::ctype"*, i8)***
  %124 = load i8 (%"class.std::__1::ctype"*, i8)**, i8 (%"class.std::__1::ctype"*, i8)*** %123, align 8
  %125 = getelementptr inbounds i8 (%"class.std::__1::ctype"*, i8)*, i8 (%"class.std::__1::ctype"*, i8)** %124, i64 7
  %126 = load i8 (%"class.std::__1::ctype"*, i8)*, i8 (%"class.std::__1::ctype"*, i8)** %125, align 8
  %127 = load i8, i8* %5, align 1
  %128 = invoke signext i8 %126(%"class.std::__1::ctype"* %122, i8 signext %127)
          to label %137 unwind label %129

; <label>:129:                                    ; preds = %119, %116
  %130 = landingpad { i8*, i32 }
          cleanup
          catch i8* null
  %131 = extractvalue { i8*, i32 } %130, 0
  store i8* %131, i8** %10, align 8
  %132 = extractvalue { i8*, i32 } %130, 1
  store i32 %132, i32* %11, align 4
  call void @_ZNSt3__16localeD1Ev(%"class.std::__1::locale"* %9) #8
  %133 = load i8*, i8** %10, align 8
  %134 = load i32, i32* %11, align 4
  %135 = insertvalue { i8*, i32 } undef, i8* %133, 0
  %136 = insertvalue { i8*, i32 } %135, i32 %134, 1
  br label %180

; <label>:137:                                    ; preds = %119
  call void @_ZNSt3__16localeD1Ev(%"class.std::__1::locale"* %9) #8
  %138 = sext i8 %128 to i32
  %139 = getelementptr inbounds %"class.std::__1::basic_ios", %"class.std::__1::basic_ios"* %108, i32 0, i32 2
  store i32 %138, i32* %139, align 8
  br label %140

; <label>:140:                                    ; preds = %85, %137
  %141 = getelementptr inbounds %"class.std::__1::basic_ios", %"class.std::__1::basic_ios"* %108, i32 0, i32 2
  %142 = load i32, i32* %141, align 8
  %143 = trunc i32 %142 to i8
  br label %144

; <label>:144:                                    ; preds = %140
  %145 = getelementptr inbounds %"class.std::__1::ostreambuf_iterator", %"class.std::__1::ostreambuf_iterator"* %32, i32 0, i32 0
  %146 = load %"class.std::__1::basic_streambuf"*, %"class.std::__1::basic_streambuf"** %145, align 8
  %147 = invoke %"class.std::__1::basic_streambuf"* @_ZNSt3__116__pad_and_outputIcNS_11char_traitsIcEEEENS_19ostreambuf_iteratorIT_T0_EES6_PKS4_S8_S8_RNS_8ios_baseES4_(%"class.std::__1::basic_streambuf"* %146, i8* %63, i8* %86, i8* %89, %"class.std::__1::ios_base"* dereferenceable(136) %98, i8 signext %143)
          to label %148 unwind label %178

; <label>:148:                                    ; preds = %144
  %149 = getelementptr inbounds %"class.std::__1::ostreambuf_iterator", %"class.std::__1::ostreambuf_iterator"* %33, i32 0, i32 0
  store %"class.std::__1::basic_streambuf"* %147, %"class.std::__1::basic_streambuf"** %149, align 8
  store %"class.std::__1::ostreambuf_iterator"* %33, %"class.std::__1::ostreambuf_iterator"** %13, align 8
  %150 = load %"class.std::__1::ostreambuf_iterator"*, %"class.std::__1::ostreambuf_iterator"** %13, align 8
  %151 = getelementptr inbounds %"class.std::__1::ostreambuf_iterator", %"class.std::__1::ostreambuf_iterator"* %150, i32 0, i32 0
  %152 = load %"class.std::__1::basic_streambuf"*, %"class.std::__1::basic_streambuf"** %151, align 8
  %153 = icmp eq %"class.std::__1::basic_streambuf"* %152, null
  br i1 %153, label %154, label %199

; <label>:154:                                    ; preds = %148
  %155 = load %"class.std::__1::basic_ostream"*, %"class.std::__1::basic_ostream"** %26, align 8
  %156 = bitcast %"class.std::__1::basic_ostream"* %155 to i8**
  %157 = load i8*, i8** %156, align 8
  %158 = getelementptr i8, i8* %157, i64 -24
  %159 = bitcast i8* %158 to i64*
  %160 = load i64, i64* %159, align 8
  %161 = bitcast %"class.std::__1::basic_ostream"* %155 to i8*
  %162 = getelementptr inbounds i8, i8* %161, i64 %160
  %163 = bitcast i8* %162 to %"class.std::__1::basic_ios"*
  store %"class.std::__1::basic_ios"* %163, %"class.std::__1::basic_ios"** %17, align 8
  store i32 5, i32* %18, align 4
  %164 = load %"class.std::__1::basic_ios"*, %"class.std::__1::basic_ios"** %17, align 8
  %165 = bitcast %"class.std::__1::basic_ios"* %164 to %"class.std::__1::ios_base"*
  %166 = load i32, i32* %18, align 4
  store %"class.std::__1::ios_base"* %165, %"class.std::__1::ios_base"** %15, align 8
  store i32 %166, i32* %16, align 4
  %167 = load %"class.std::__1::ios_base"*, %"class.std::__1::ios_base"** %15, align 8
  %168 = getelementptr inbounds %"class.std::__1::ios_base", %"class.std::__1::ios_base"* %167, i32 0, i32 4
  %169 = load i32, i32* %168, align 8
  %170 = load i32, i32* %16, align 4
  %171 = or i32 %169, %170
  invoke void @_ZNSt3__18ios_base5clearEj(%"class.std::__1::ios_base"* %167, i32 %171)
          to label %172 unwind label %178

; <label>:172:                                    ; preds = %154
  br label %173

; <label>:173:                                    ; preds = %172
  br label %199

; <label>:174:                                    ; preds = %3
  %175 = landingpad { i8*, i32 }
          catch i8* null
  %176 = extractvalue { i8*, i32 } %175, 0
  store i8* %176, i8** %30, align 8
  %177 = extractvalue { i8*, i32 } %175, 1
  store i32 %177, i32* %31, align 4
  br label %184

; <label>:178:                                    ; preds = %113, %154, %144
  %179 = landingpad { i8*, i32 }
          catch i8* null
  br label %180

; <label>:180:                                    ; preds = %129, %178
  %181 = phi { i8*, i32 } [ %179, %178 ], [ %136, %129 ]
  %182 = extractvalue { i8*, i32 } %181, 0
  store i8* %182, i8** %30, align 8
  %183 = extractvalue { i8*, i32 } %181, 1
  store i32 %183, i32* %31, align 4
  call void @_ZNSt3__113basic_ostreamIcNS_11char_traitsIcEEE6sentryD1Ev(%"class.std::__1::basic_ostream<char, std::__1::char_traits<char> >::sentry"* %29) #8
  br label %184

; <label>:184:                                    ; preds = %180, %174
  %185 = load i8*, i8** %30, align 8
  %186 = call i8* @__cxa_begin_catch(i8* %185) #8
  %187 = load %"class.std::__1::basic_ostream"*, %"class.std::__1::basic_ostream"** %26, align 8
  %188 = bitcast %"class.std::__1::basic_ostream"* %187 to i8**
  %189 = load i8*, i8** %188, align 8
  %190 = getelementptr i8, i8* %189, i64 -24
  %191 = bitcast i8* %190 to i64*
  %192 = load i64, i64* %191, align 8
  %193 = bitcast %"class.std::__1::basic_ostream"* %187 to i8*
  %194 = getelementptr inbounds i8, i8* %193, i64 %192
  %195 = bitcast i8* %194 to %"class.std::__1::ios_base"*
  invoke void @_ZNSt3__18ios_base33__set_badbit_and_consider_rethrowEv(%"class.std::__1::ios_base"* %195)
          to label %196 unwind label %201

; <label>:196:                                    ; preds = %184
  call void @__cxa_end_catch()
  br label %197

; <label>:197:                                    ; preds = %196, %200
  %198 = load %"class.std::__1::basic_ostream"*, %"class.std::__1::basic_ostream"** %26, align 8
  ret %"class.std::__1::basic_ostream"* %198

; <label>:199:                                    ; preds = %173, %148
  br label %200

; <label>:200:                                    ; preds = %199, %40
  call void @_ZNSt3__113basic_ostreamIcNS_11char_traitsIcEEE6sentryD1Ev(%"class.std::__1::basic_ostream<char, std::__1::char_traits<char> >::sentry"* %29) #8
  br label %197

; <label>:201:                                    ; preds = %184
  %202 = landingpad { i8*, i32 }
          cleanup
  %203 = extractvalue { i8*, i32 } %202, 0
  store i8* %203, i8** %30, align 8
  %204 = extractvalue { i8*, i32 } %202, 1
  store i32 %204, i32* %31, align 4
  invoke void @__cxa_end_catch()
          to label %205 unwind label %211

; <label>:205:                                    ; preds = %201
  br label %206

; <label>:206:                                    ; preds = %205
  %207 = load i8*, i8** %30, align 8
  %208 = load i32, i32* %31, align 4
  %209 = insertvalue { i8*, i32 } undef, i8* %207, 0
  %210 = insertvalue { i8*, i32 } %209, i32 %208, 1
  resume { i8*, i32 } %210

; <label>:211:                                    ; preds = %201
  %212 = landingpad { i8*, i32 }
          catch i8* null
  %213 = extractvalue { i8*, i32 } %212, 0
  call void @__clang_call_terminate(i8* %213) #9
  unreachable
}

declare void @_ZNSt3__113basic_ostreamIcNS_11char_traitsIcEEE6sentryC1ERS3_(%"class.std::__1::basic_ostream<char, std::__1::char_traits<char> >::sentry"*, %"class.std::__1::basic_ostream"* dereferenceable(160)) unnamed_addr #1

; Function Attrs: ssp uwtable
define linkonce_odr hidden %"class.std::__1::basic_streambuf"* @_ZNSt3__116__pad_and_outputIcNS_11char_traitsIcEEEENS_19ostreambuf_iteratorIT_T0_EES6_PKS4_S8_S8_RNS_8ios_baseES4_(%"class.std::__1::basic_streambuf"*, i8*, i8*, i8*, %"class.std::__1::ios_base"* dereferenceable(136), i8 signext) #0 personality i8* bitcast (i32 (...)* @__gxx_personality_v0 to i8*) {
  %7 = alloca %"class.std::__1::basic_streambuf"*, align 8
  %8 = alloca i8*, align 8
  %9 = alloca i64, align 8
  %10 = alloca i8*, align 8
  %11 = alloca %"class.std::__1::__libcpp_compressed_pair_imp"*, align 8
  %12 = alloca %"class.std::__1::__compressed_pair"*, align 8
  %13 = alloca %"class.std::__1::basic_string"*, align 8
  %14 = alloca i8*, align 8
  %15 = alloca i8*, align 8
  %16 = alloca %"class.std::__1::__libcpp_compressed_pair_imp"*, align 8
  %17 = alloca %"class.std::__1::__compressed_pair"*, align 8
  %18 = alloca %"class.std::__1::basic_string"*, align 8
  %19 = alloca %"class.std::__1::__libcpp_compressed_pair_imp"*, align 8
  %20 = alloca %"class.std::__1::__compressed_pair"*, align 8
  %21 = alloca %"class.std::__1::basic_string"*, align 8
  %22 = alloca %"class.std::__1::basic_string"*, align 8
  %23 = alloca %"class.std::__1::basic_string"*, align 8
  %24 = alloca %"class.std::__1::allocator"*, align 8
  %25 = alloca %"class.std::__1::__libcpp_compressed_pair_imp"*, align 8
  %26 = alloca %"class.std::__1::__compressed_pair"*, align 8
  %27 = alloca %"class.std::__1::__compressed_pair"*, align 8
  %28 = alloca %"class.std::__1::basic_string"*, align 8
  %29 = alloca i64, align 8
  %30 = alloca i8, align 1
  %31 = alloca %"class.std::__1::basic_string"*, align 8
  %32 = alloca i64, align 8
  %33 = alloca i8, align 1
  %34 = alloca %"class.std::__1::basic_streambuf"*, align 8
  %35 = alloca i8*, align 8
  %36 = alloca i64, align 8
  %37 = alloca %"class.std::__1::basic_streambuf"*, align 8
  %38 = alloca i8*, align 8
  %39 = alloca i64, align 8
  %40 = alloca %"class.std::__1::ios_base"*, align 8
  %41 = alloca i64, align 8
  %42 = alloca i64, align 8
  %43 = alloca %"class.std::__1::ios_base"*, align 8
  %44 = alloca %"class.std::__1::ostreambuf_iterator", align 8
  %45 = alloca %"class.std::__1::ostreambuf_iterator", align 8
  %46 = alloca i8*, align 8
  %47 = alloca i8*, align 8
  %48 = alloca i8*, align 8
  %49 = alloca %"class.std::__1::ios_base"*, align 8
  %50 = alloca i8, align 1
  %51 = alloca i64, align 8
  %52 = alloca i64, align 8
  %53 = alloca i64, align 8
  %54 = alloca %"class.std::__1::basic_string", align 8
  %55 = alloca i8*
  %56 = alloca i32
  %57 = alloca i32
  %58 = getelementptr inbounds %"class.std::__1::ostreambuf_iterator", %"class.std::__1::ostreambuf_iterator"* %45, i32 0, i32 0
  store %"class.std::__1::basic_streambuf"* %0, %"class.std::__1::basic_streambuf"** %58, align 8
  store i8* %1, i8** %46, align 8
  store i8* %2, i8** %47, align 8
  store i8* %3, i8** %48, align 8
  store %"class.std::__1::ios_base"* %4, %"class.std::__1::ios_base"** %49, align 8
  store i8 %5, i8* %50, align 1
  %59 = getelementptr inbounds %"class.std::__1::ostreambuf_iterator", %"class.std::__1::ostreambuf_iterator"* %45, i32 0, i32 0
  %60 = load %"class.std::__1::basic_streambuf"*, %"class.std::__1::basic_streambuf"** %59, align 8
  %61 = icmp eq %"class.std::__1::basic_streambuf"* %60, null
  br i1 %61, label %62, label %65

; <label>:62:                                     ; preds = %6
  %63 = bitcast %"class.std::__1::ostreambuf_iterator"* %44 to i8*
  %64 = bitcast %"class.std::__1::ostreambuf_iterator"* %45 to i8*
  call void @llvm.memcpy.p0i8.p0i8.i64(i8* %63, i8* %64, i64 8, i32 8, i1 false)
  br label %241

; <label>:65:                                     ; preds = %6
  %66 = load i8*, i8** %48, align 8
  %67 = load i8*, i8** %46, align 8
  %68 = ptrtoint i8* %66 to i64
  %69 = ptrtoint i8* %67 to i64
  %70 = sub i64 %68, %69
  store i64 %70, i64* %51, align 8
  %71 = load %"class.std::__1::ios_base"*, %"class.std::__1::ios_base"** %49, align 8
  store %"class.std::__1::ios_base"* %71, %"class.std::__1::ios_base"** %43, align 8
  %72 = load %"class.std::__1::ios_base"*, %"class.std::__1::ios_base"** %43, align 8
  %73 = getelementptr inbounds %"class.std::__1::ios_base", %"class.std::__1::ios_base"* %72, i32 0, i32 3
  %74 = load i64, i64* %73, align 8
  store i64 %74, i64* %52, align 8
  %75 = load i64, i64* %52, align 8
  %76 = load i64, i64* %51, align 8
  %77 = icmp sgt i64 %75, %76
  br i1 %77, label %78, label %82

; <label>:78:                                     ; preds = %65
  %79 = load i64, i64* %51, align 8
  %80 = load i64, i64* %52, align 8
  %81 = sub nsw i64 %80, %79
  store i64 %81, i64* %52, align 8
  br label %83

; <label>:82:                                     ; preds = %65
  store i64 0, i64* %52, align 8
  br label %83

; <label>:83:                                     ; preds = %82, %78
  %84 = load i8*, i8** %47, align 8
  %85 = load i8*, i8** %46, align 8
  %86 = ptrtoint i8* %84 to i64
  %87 = ptrtoint i8* %85 to i64
  %88 = sub i64 %86, %87
  store i64 %88, i64* %53, align 8
  %89 = load i64, i64* %53, align 8
  %90 = icmp sgt i64 %89, 0
  br i1 %90, label %91, label %111

; <label>:91:                                     ; preds = %83
  %92 = getelementptr inbounds %"class.std::__1::ostreambuf_iterator", %"class.std::__1::ostreambuf_iterator"* %45, i32 0, i32 0
  %93 = load %"class.std::__1::basic_streambuf"*, %"class.std::__1::basic_streambuf"** %92, align 8
  %94 = load i8*, i8** %46, align 8
  %95 = load i64, i64* %53, align 8
  store %"class.std::__1::basic_streambuf"* %93, %"class.std::__1::basic_streambuf"** %34, align 8
  store i8* %94, i8** %35, align 8
  store i64 %95, i64* %36, align 8
  %96 = load %"class.std::__1::basic_streambuf"*, %"class.std::__1::basic_streambuf"** %34, align 8
  %97 = bitcast %"class.std::__1::basic_streambuf"* %96 to i64 (%"class.std::__1::basic_streambuf"*, i8*, i64)***
  %98 = load i64 (%"class.std::__1::basic_streambuf"*, i8*, i64)**, i64 (%"class.std::__1::basic_streambuf"*, i8*, i64)*** %97, align 8
  %99 = getelementptr inbounds i64 (%"class.std::__1::basic_streambuf"*, i8*, i64)*, i64 (%"class.std::__1::basic_streambuf"*, i8*, i64)** %98, i64 12
  %100 = load i64 (%"class.std::__1::basic_streambuf"*, i8*, i64)*, i64 (%"class.std::__1::basic_streambuf"*, i8*, i64)** %99, align 8
  %101 = load i8*, i8** %35, align 8
  %102 = load i64, i64* %36, align 8
  %103 = call i64 %100(%"class.std::__1::basic_streambuf"* %96, i8* %101, i64 %102)
  %104 = load i64, i64* %53, align 8
  %105 = icmp ne i64 %103, %104
  br i1 %105, label %106, label %110

; <label>:106:                                    ; preds = %91
  %107 = getelementptr inbounds %"class.std::__1::ostreambuf_iterator", %"class.std::__1::ostreambuf_iterator"* %45, i32 0, i32 0
  store %"class.std::__1::basic_streambuf"* null, %"class.std::__1::basic_streambuf"** %107, align 8
  %108 = bitcast %"class.std::__1::ostreambuf_iterator"* %44 to i8*
  %109 = bitcast %"class.std::__1::ostreambuf_iterator"* %45 to i8*
  call void @llvm.memcpy.p0i8.p0i8.i64(i8* %108, i8* %109, i64 8, i32 8, i1 false)
  br label %241

; <label>:110:                                    ; preds = %91
