; ModuleID = '/Users/Jonas/CLionProjects/HackerRank/XtremeJonasScript/src/AST/Statement/Declaration/DeclStmt.cpp'
source_filename = "/Users/Jonas/CLionProjects/HackerRank/XtremeJonasScript/src/AST/Statement/Declaration/DeclStmt.cpp"
target datalayout = "e-m:o-i64:64-f80:128-n8:16:32:64-S128"
target triple = "x86_64-apple-macosx10.12.0"

%"class.std::__1::basic_ostream" = type { i32 (...)**, %"class.std::__1::basic_ios.base" }
%"class.std::__1::basic_ios.base" = type <{ %"class.std::__1::ios_base", %"class.std::__1::basic_ostream"*, i32 }>
%"class.std::__1::ios_base" = type { i32 (...)**, i32, i64, i64, i32, i32, i8*, i8*, void (i32, %"class.std::__1::ios_base"*, i32)**, i32*, i64, i64, i64*, i64, i64, i8**, i64, i64 }
%"class.std::__1::locale::id" = type <{ %"struct.std::__1::once_flag", i32, [4 x i8] }>
%"struct.std::__1::once_flag" = type { i64 }
%class.DeclStmt = type <{ %class.Statement.base, [6 x i8], %"class.std::__1::vector", %"class.std::__1::vector.26", %"class.std::__1::vector", %"class.std::__1::vector.32", i8, i8, [6 x i8] }>
%class.Statement.base = type { %class.AstNode.base }
%class.AstNode.base = type <{ i32 (...)**, i32, i32, i64, %class.AstNode*, %class.DeclStmt*, i8, [3 x i8], i32, %"class.std::__1::vector", %struct.TypeSpecifier, %struct.TypeSpecifier, i8, [7 x i8], %"class.std::__1::basic_string", i8, i8 }>
%class.AstNode = type <{ i32 (...)**, i32, i32, i64, %class.AstNode*, %class.DeclStmt*, i8, [3 x i8], i32, %"class.std::__1::vector", %struct.TypeSpecifier, %struct.TypeSpecifier, i8, [7 x i8], %"class.std::__1::basic_string", i8, i8, [6 x i8] }>
%struct.TypeSpecifier = type { i32, %"class.std::__1::basic_string", %"class.std::__1::shared_ptr", i8, i8, i8, i8, i64, i32, i8, i8, %"class.std::__1::basic_string", i8, [7 x i8], %"class.std::__1::unordered_map", i8, i8, i8, i8, i8, i8, i8, i32, %"class.std::__1::vector", %"class.std::__1::vector.19", %union.anon.25 }
%"class.std::__1::shared_ptr" = type { %class.Expression*, %"class.std::__1::__shared_weak_count"* }
%class.Expression = type { %class.Statement.base, %"class.std::__1::shared_ptr", i8, %"class.std::__1::shared_ptr", i8, %"class.std::__1::unique_ptr.37", i8, %struct.TypeSpecifier }
%"class.std::__1::unique_ptr.37" = type { %"class.std::__1::__compressed_pair.38" }
%"class.std::__1::__compressed_pair.38" = type { %"class.std::__1::__libcpp_compressed_pair_imp.39" }
%"class.std::__1::__libcpp_compressed_pair_imp.39" = type { %struct.Variant* }
%struct.Variant = type <{ %union.anon.40, i8, [7 x i8], %"class.std::__1::basic_string", %struct.TypeSpecifier, i8, i8, i8, [5 x i8] }>
%union.anon.40 = type { i64 }
%"class.std::__1::__shared_weak_count" = type { %"class.std::__1::__shared_count", i64 }
%"class.std::__1::__shared_count" = type { i32 (...)**, i64 }
%"class.std::__1::unordered_map" = type { %"class.std::__1::__hash_table" }
%"class.std::__1::__hash_table" = type <{ %"class.std::__1::unique_ptr", %"class.std::__1::__compressed_pair.11", %"class.std::__1::__compressed_pair.15", %"class.std::__1::__compressed_pair.17", [4 x i8] }>
%"class.std::__1::unique_ptr" = type { %"class.std::__1::__compressed_pair.5" }
%"class.std::__1::__compressed_pair.5" = type { %"class.std::__1::__libcpp_compressed_pair_imp.6" }
%"class.std::__1::__libcpp_compressed_pair_imp.6" = type { %"struct.std::__1::__hash_node_base"**, %"class.std::__1::__bucket_list_deallocator" }
%"struct.std::__1::__hash_node_base" = type { %"struct.std::__1::__hash_node_base"* }
%"class.std::__1::__bucket_list_deallocator" = type { %"class.std::__1::__compressed_pair.7" }
%"class.std::__1::__compressed_pair.7" = type { %"class.std::__1::__libcpp_compressed_pair_imp.8" }
%"class.std::__1::__libcpp_compressed_pair_imp.8" = type { i64 }
%"class.std::__1::__compressed_pair.11" = type { %"class.std::__1::__libcpp_compressed_pair_imp.12" }
%"class.std::__1::__libcpp_compressed_pair_imp.12" = type { %"struct.std::__1::__hash_node_base" }
%"class.std::__1::__compressed_pair.15" = type { %"class.std::__1::__libcpp_compressed_pair_imp.16" }
%"class.std::__1::__libcpp_compressed_pair_imp.16" = type { i64 }
%"class.std::__1::__compressed_pair.17" = type { %"class.std::__1::__libcpp_compressed_pair_imp.18" }
%"class.std::__1::__libcpp_compressed_pair_imp.18" = type { float }
%"class.std::__1::vector.19" = type { %"class.std::__1::__vector_base.20" }
%"class.std::__1::__vector_base.20" = type { %struct.TypeSpecifier*, %struct.TypeSpecifier*, %"class.std::__1::__compressed_pair.21" }
%"class.std::__1::__compressed_pair.21" = type { %"class.std::__1::__libcpp_compressed_pair_imp.22" }
%"class.std::__1::__libcpp_compressed_pair_imp.22" = type { %struct.TypeSpecifier* }
%union.anon.25 = type { %struct.TypeSpecifier* }
%"class.std::__1::basic_string" = type { %"class.std::__1::__compressed_pair" }
%"class.std::__1::__compressed_pair" = type { %"class.std::__1::__libcpp_compressed_pair_imp" }
%"class.std::__1::__libcpp_compressed_pair_imp" = type { %"struct.std::__1::basic_string<char, std::__1::char_traits<char>, std::__1::allocator<char> >::__rep" }
%"struct.std::__1::basic_string<char, std::__1::char_traits<char>, std::__1::allocator<char> >::__rep" = type { %union.anon }
%union.anon = type { %"struct.std::__1::basic_string<char, std::__1::char_traits<char>, std::__1::allocator<char> >::__long" }
%"struct.std::__1::basic_string<char, std::__1::char_traits<char>, std::__1::allocator<char> >::__long" = type { i64, i64, i8* }
%"class.std::__1::vector.26" = type { %"class.std::__1::__vector_base.27" }
%"class.std::__1::__vector_base.27" = type { %"struct.std::__1::pair"*, %"struct.std::__1::pair"*, %"class.std::__1::__compressed_pair.28" }
%"struct.std::__1::pair" = type { %"class.std::__1::shared_ptr.41", %"class.std::__1::shared_ptr" }
%"class.std::__1::shared_ptr.41" = type { %class.TypeRef*, %"class.std::__1::__shared_weak_count"* }
%class.TypeRef = type { %class.Statement.base, %struct.TypeSpecifier }
%"class.std::__1::__compressed_pair.28" = type { %"class.std::__1::__libcpp_compressed_pair_imp.29" }
%"class.std::__1::__libcpp_compressed_pair_imp.29" = type { %"struct.std::__1::pair"* }
%"class.std::__1::vector" = type { %"class.std::__1::__vector_base" }
%"class.std::__1::__vector_base" = type { %"class.std::__1::basic_string"*, %"class.std::__1::basic_string"*, %"class.std::__1::__compressed_pair.1" }
%"class.std::__1::__compressed_pair.1" = type { %"class.std::__1::__libcpp_compressed_pair_imp.2" }
%"class.std::__1::__libcpp_compressed_pair_imp.2" = type { %"class.std::__1::basic_string"* }
%"class.std::__1::vector.32" = type { i64*, i64, %"class.std::__1::__compressed_pair.33" }
%"class.std::__1::__compressed_pair.33" = type { %"class.std::__1::__libcpp_compressed_pair_imp.34" }
%"class.std::__1::__libcpp_compressed_pair_imp.34" = type { i64 }
%"class.std::__1::allocator.30" = type { i8 }
%"class.std::__1::__vector_base_common" = type { i8 }
%"class.std::__1::allocator.3" = type { i8 }
%"class.std::__1::allocator.35" = type { i8 }
%class.Statement = type { %class.AstNode.base, [6 x i8] }
%"struct.std::__1::integral_constant" = type { i8 }
%"struct.std::__1::__has_construct.292" = type { i8 }
%"struct.std::__1::vector<std::__1::pair<std::__1::shared_ptr<TypeRef>, std::__1::shared_ptr<Expression> >, std::__1::allocator<std::__1::pair<std::__1::shared_ptr<TypeRef>, std::__1::shared_ptr<Expression> > > >::__RAII_IncreaseAnnotator" = type { i8 }
%"struct.std::__1::__has_construct.288" = type { i8 }
%"struct.std::__1::vector<std::__1::basic_string<char>, std::__1::allocator<std::__1::basic_string<char> > >::__RAII_IncreaseAnnotator" = type { i8 }
%"class.std::__1::__wrap_iter" = type { %"class.std::__1::basic_string"* }
%"struct.std::__1::basic_string<char, std::__1::char_traits<char>, std::__1::allocator<char> >::__short" = type { %union.anon.0, [23 x i8] }
%union.anon.0 = type { i8 }
%class.Lexer = type opaque
%"class.std::__1::allocator" = type { i8 }
%"class.std::__1::__basic_string_common" = type { i8 }
%"struct.std::__1::basic_string<char, std::__1::char_traits<char>, std::__1::allocator<char> >::__raw" = type { [3 x i64] }
%"struct.std::__1::__less" = type { i8 }
%"class.std::__1::__bit_reference" = type { i64*, i64 }
%"class.std::__1::vector.42" = type { %"class.std::__1::__vector_base.43" }
%"class.std::__1::__vector_base.43" = type { %"class.std::__1::shared_ptr.44"*, %"class.std::__1::shared_ptr.44"*, %"class.std::__1::__compressed_pair.45" }
%"class.std::__1::shared_ptr.44" = type { %class.AstNode*, %"class.std::__1::__shared_weak_count"* }
%"class.std::__1::__compressed_pair.45" = type { %"class.std::__1::__libcpp_compressed_pair_imp.46" }
%"class.std::__1::__libcpp_compressed_pair_imp.46" = type { %"class.std::__1::shared_ptr.44"* }
%"class.std::__1::allocator.47" = type { i8 }
%"struct.std::__1::__has_construct.301" = type { i8 }
%"struct.std::__1::vector<std::__1::shared_ptr<AstNode>, std::__1::allocator<std::__1::shared_ptr<AstNode> > >::__RAII_IncreaseAnnotator" = type { i8 }
%"struct.std::__1::shared_ptr<AstNode>::__nat" = type { i32 }
%"class.std::__1::__wrap_iter.49" = type { %"struct.std::__1::pair"* }
%"class.std::__1::ctype" = type <{ %"class.std::__1::locale::facet", i32*, i8, [7 x i8] }>
%"class.std::__1::locale::facet" = type { %"class.std::__1::__shared_count" }
%"class.std::__1::locale" = type { %"class.std::__1::locale::__imp"* }
%"class.std::__1::locale::__imp" = type opaque
%"class.std::__1::basic_ios" = type <{ %"class.std::__1::ios_base", %"class.std::__1::basic_ostream"*, i32, [4 x i8] }>
%"struct.std::__1::integral_constant.271" = type { i8 }
%"class.std::__1::__wrap_iter.287" = type { %"class.std::__1::shared_ptr.44"* }
%class.Visitor = type { i32 (...)** }
%struct.CGValue = type { %"class.llvm::Value"*, i8, i64, i8, i8, i8, i32 }
%"class.llvm::Value" = type { i32 (...)**, %"class.llvm::Type"*, %"class.llvm::Use"*, i8, i8, i16, i32 }
%"class.llvm::Type" = type { %"class.llvm::LLVMContext"*, i32, i32, %"class.llvm::Type"** }
%"class.llvm::LLVMContext" = type { %"class.llvm::LLVMContextImpl"* }
%"class.llvm::LLVMContextImpl" = type opaque
%"class.llvm::Use" = type { %"class.llvm::Value"*, %"class.llvm::Use"*, %"class.llvm::PointerIntPair" }
%"class.llvm::PointerIntPair" = type { i64 }
%class.CodeGenVisitor = type { i32 (...)**, %"class.std::__1::vector.50", %"class.std::__1::vector.70", %"class.std::__1::vector.76", %"class.std::__1::vector.76", %"class.std::__1::unordered_map.91", %"class.std::__1::unordered_map.113", i8, [7 x i8], %"class.std::__1::unordered_map.135", %"class.std::__1::unordered_map.161", %"class.std::__1::unordered_map.183", %"class.std::__1::unordered_map.183", %"class.llvm::ConstantInt"*, %"class.llvm::ConstantInt"*, %"class.llvm::ConstantInt"*, %"class.llvm::ConstantInt"*, %"class.std::__1::unordered_map.206", %"class.std::__1::vector" }
%"class.std::__1::vector.50" = type { %"class.std::__1::__vector_base.51" }
%"class.std::__1::__vector_base.51" = type { %"class.llvm::Function"**, %"class.llvm::Function"**, %"class.std::__1::__compressed_pair.66" }
%"class.llvm::Function" = type { %"class.llvm::GlobalObject", %"class.llvm::ilist_node", %"class.llvm::SymbolTableList", %"class.llvm::SymbolTableList.53", %"class.std::__1::unique_ptr.61", %"class.llvm::AttributeSet" }
%"class.llvm::GlobalObject" = type { %"class.llvm::GlobalValue", %"class.llvm::Comdat"* }
%"class.llvm::GlobalValue" = type { %"class.llvm::Constant", %"class.llvm::Type"*, i32, i32, %"class.llvm::Module"* }
%"class.llvm::Constant" = type { %"class.llvm::User" }
%"class.llvm::User" = type { %"class.llvm::Value" }
%"class.llvm::Module" = type opaque
%"class.llvm::Comdat" = type opaque
%"class.llvm::ilist_node" = type { %"class.llvm::ilist_node_impl" }
%"class.llvm::ilist_node_impl" = type { %"class.llvm::ilist_node_base" }
%"class.llvm::ilist_node_base" = type { %"class.llvm::ilist_node_base"*, %"class.llvm::ilist_node_base"* }
%"class.llvm::SymbolTableList" = type { %"class.llvm::iplist_impl" }
%"class.llvm::iplist_impl" = type { %"class.llvm::simple_ilist" }
%"class.llvm::simple_ilist" = type { %"class.llvm::ilist_sentinel" }
%"class.llvm::ilist_sentinel" = type { %"class.llvm::ilist_node_impl.52" }
%"class.llvm::ilist_node_impl.52" = type { %"class.llvm::ilist_node_base" }
%"class.llvm::SymbolTableList.53" = type { %"class.llvm::iplist_impl.54" }
%"class.llvm::iplist_impl.54" = type { %"class.llvm::simple_ilist.57" }
%"class.llvm::simple_ilist.57" = type { %"class.llvm::ilist_sentinel.59" }
%"class.llvm::ilist_sentinel.59" = type { %"class.llvm::ilist_node_impl.60" }
%"class.llvm::ilist_node_impl.60" = type { %"class.llvm::ilist_node_base" }
%"class.std::__1::unique_ptr.61" = type { %"class.std::__1::__compressed_pair.62" }
%"class.std::__1::__compressed_pair.62" = type { %"class.std::__1::__libcpp_compressed_pair_imp.63" }
%"class.std::__1::__libcpp_compressed_pair_imp.63" = type { %"class.llvm::ValueSymbolTable"* }
%"class.llvm::ValueSymbolTable" = type opaque
%"class.llvm::AttributeSet" = type { %"class.llvm::AttributeSetImpl"* }
%"class.llvm::AttributeSetImpl" = type opaque
%"class.std::__1::__compressed_pair.66" = type { %"class.std::__1::__libcpp_compressed_pair_imp.67" }
%"class.std::__1::__libcpp_compressed_pair_imp.67" = type { %"class.llvm::Function"** }
%"class.std::__1::vector.70" = type { %"class.std::__1::__vector_base.71" }
%"class.std::__1::__vector_base.71" = type { %struct.CGValue**, %struct.CGValue**, %"class.std::__1::__compressed_pair.72" }
%"class.std::__1::__compressed_pair.72" = type { %"class.std::__1::__libcpp_compressed_pair_imp.73" }
%"class.std::__1::__libcpp_compressed_pair_imp.73" = type { %struct.CGValue** }
%"class.std::__1::vector.76" = type { %"class.std::__1::__vector_base.77" }
%"class.std::__1::__vector_base.77" = type { %"class.llvm::BasicBlock"**, %"class.llvm::BasicBlock"**, %"class.std::__1::__compressed_pair.87" }
%"class.llvm::BasicBlock" = type { %"class.llvm::Value", %"class.llvm::ilist_node_with_parent", %"class.llvm::SymbolTableList.79", %"class.llvm::Function"* }
%"class.llvm::ilist_node_with_parent" = type { %"class.llvm::ilist_node.78" }
%"class.llvm::ilist_node.78" = type { %"class.llvm::ilist_node_impl.52" }
%"class.llvm::SymbolTableList.79" = type { %"class.llvm::iplist_impl.80" }
%"class.llvm::iplist_impl.80" = type { %"class.llvm::simple_ilist.83" }
%"class.llvm::simple_ilist.83" = type { %"class.llvm::ilist_sentinel.85" }
%"class.llvm::ilist_sentinel.85" = type { %"class.llvm::ilist_node_impl.86" }
%"class.llvm::ilist_node_impl.86" = type { %"class.llvm::ilist_node_base" }
%"class.std::__1::__compressed_pair.87" = type { %"class.std::__1::__libcpp_compressed_pair_imp.88" }
%"class.std::__1::__libcpp_compressed_pair_imp.88" = type { %"class.llvm::BasicBlock"** }
%"class.std::__1::unordered_map.91" = type { %"class.std::__1::__hash_table.92" }
%"class.std::__1::__hash_table.92" = type <{ %"class.std::__1::unique_ptr.93", %"class.std::__1::__compressed_pair.102", %"class.std::__1::__compressed_pair.106", %"class.std::__1::__compressed_pair.109", [4 x i8] }>
%"class.std::__1::unique_ptr.93" = type { %"class.std::__1::__compressed_pair.94" }
%"class.std::__1::__compressed_pair.94" = type { %"class.std::__1::__libcpp_compressed_pair_imp.95" }
%"class.std::__1::__libcpp_compressed_pair_imp.95" = type { %"struct.std::__1::__hash_node_base.96"**, %"class.std::__1::__bucket_list_deallocator.97" }
%"struct.std::__1::__hash_node_base.96" = type { %"struct.std::__1::__hash_node_base.96"* }
%"class.std::__1::__bucket_list_deallocator.97" = type { %"class.std::__1::__compressed_pair.98" }
%"class.std::__1::__compressed_pair.98" = type { %"class.std::__1::__libcpp_compressed_pair_imp.99" }
%"class.std::__1::__libcpp_compressed_pair_imp.99" = type { i64 }
%"class.std::__1::__compressed_pair.102" = type { %"class.std::__1::__libcpp_compressed_pair_imp.103" }
%"class.std::__1::__libcpp_compressed_pair_imp.103" = type { %"struct.std::__1::__hash_node_base.96" }
%"class.std::__1::__compressed_pair.106" = type { %"class.std::__1::__libcpp_compressed_pair_imp.107" }
%"class.std::__1::__libcpp_compressed_pair_imp.107" = type { i64 }
%"class.std::__1::__compressed_pair.109" = type { %"class.std::__1::__libcpp_compressed_pair_imp.110" }
%"class.std::__1::__libcpp_compressed_pair_imp.110" = type { float }
%"class.std::__1::unordered_map.113" = type { %"class.std::__1::__hash_table.114" }
%"class.std::__1::__hash_table.114" = type <{ %"class.std::__1::unique_ptr.115", %"class.std::__1::__compressed_pair.124", %"class.std::__1::__compressed_pair.128", %"class.std::__1::__compressed_pair.131", [4 x i8] }>
%"class.std::__1::unique_ptr.115" = type { %"class.std::__1::__compressed_pair.116" }
%"class.std::__1::__compressed_pair.116" = type { %"class.std::__1::__libcpp_compressed_pair_imp.117" }
%"class.std::__1::__libcpp_compressed_pair_imp.117" = type { %"struct.std::__1::__hash_node_base.118"**, %"class.std::__1::__bucket_list_deallocator.119" }
%"struct.std::__1::__hash_node_base.118" = type { %"struct.std::__1::__hash_node_base.118"* }
%"class.std::__1::__bucket_list_deallocator.119" = type { %"class.std::__1::__compressed_pair.120" }
%"class.std::__1::__compressed_pair.120" = type { %"class.std::__1::__libcpp_compressed_pair_imp.121" }
%"class.std::__1::__libcpp_compressed_pair_imp.121" = type { i64 }
%"class.std::__1::__compressed_pair.124" = type { %"class.std::__1::__libcpp_compressed_pair_imp.125" }
%"class.std::__1::__libcpp_compressed_pair_imp.125" = type { %"struct.std::__1::__hash_node_base.118" }
%"class.std::__1::__compressed_pair.128" = type { %"class.std::__1::__libcpp_compressed_pair_imp.129" }
%"class.std::__1::__libcpp_compressed_pair_imp.129" = type { i64 }
%"class.std::__1::__compressed_pair.131" = type { %"class.std::__1::__libcpp_compressed_pair_imp.132" }
%"class.std::__1::__libcpp_compressed_pair_imp.132" = type { float }
%"class.std::__1::unordered_map.135" = type { %"class.std::__1::__hash_table.136" }
%"class.std::__1::__hash_table.136" = type <{ %"class.std::__1::unique_ptr.137", %"class.std::__1::__compressed_pair.146", %"class.std::__1::__compressed_pair.150", %"class.std::__1::__compressed_pair.155", [4 x i8] }>
%"class.std::__1::unique_ptr.137" = type { %"class.std::__1::__compressed_pair.138" }
%"class.std::__1::__compressed_pair.138" = type { %"class.std::__1::__libcpp_compressed_pair_imp.139" }
%"class.std::__1::__libcpp_compressed_pair_imp.139" = type { %"struct.std::__1::__hash_node_base.140"**, %"class.std::__1::__bucket_list_deallocator.141" }
%"struct.std::__1::__hash_node_base.140" = type { %"struct.std::__1::__hash_node_base.140"* }
%"class.std::__1::__bucket_list_deallocator.141" = type { %"class.std::__1::__compressed_pair.142" }
%"class.std::__1::__compressed_pair.142" = type { %"class.std::__1::__libcpp_compressed_pair_imp.143" }
%"class.std::__1::__libcpp_compressed_pair_imp.143" = type { i64 }
%"class.std::__1::__compressed_pair.146" = type { %"class.std::__1::__libcpp_compressed_pair_imp.147" }
%"class.std::__1::__libcpp_compressed_pair_imp.147" = type { %"struct.std::__1::__hash_node_base.140" }
%"class.std::__1::__compressed_pair.150" = type { %"class.std::__1::__libcpp_compressed_pair_imp.151" }
%"class.std::__1::__libcpp_compressed_pair_imp.151" = type { i64 }
%"class.std::__1::__compressed_pair.155" = type { %"class.std::__1::__libcpp_compressed_pair_imp.156" }
%"class.std::__1::__libcpp_compressed_pair_imp.156" = type { float }
%"class.std::__1::unordered_map.161" = type { %"class.std::__1::__hash_table.162" }
%"class.std::__1::__hash_table.162" = type <{ %"class.std::__1::unique_ptr.163", %"class.std::__1::__compressed_pair.172", %"class.std::__1::__compressed_pair.176", %"class.std::__1::__compressed_pair.179", [4 x i8] }>
%"class.std::__1::unique_ptr.163" = type { %"class.std::__1::__compressed_pair.164" }
%"class.std::__1::__compressed_pair.164" = type { %"class.std::__1::__libcpp_compressed_pair_imp.165" }
%"class.std::__1::__libcpp_compressed_pair_imp.165" = type { %"struct.std::__1::__hash_node_base.166"**, %"class.std::__1::__bucket_list_deallocator.167" }
%"struct.std::__1::__hash_node_base.166" = type { %"struct.std::__1::__hash_node_base.166"* }
%"class.std::__1::__bucket_list_deallocator.167" = type { %"class.std::__1::__compressed_pair.168" }
%"class.std::__1::__compressed_pair.168" = type { %"class.std::__1::__libcpp_compressed_pair_imp.169" }
%"class.std::__1::__libcpp_compressed_pair_imp.169" = type { i64 }
%"class.std::__1::__compressed_pair.172" = type { %"class.std::__1::__libcpp_compressed_pair_imp.173" }
%"class.std::__1::__libcpp_compressed_pair_imp.173" = type { %"struct.std::__1::__hash_node_base.166" }
%"class.std::__1::__compressed_pair.176" = type { %"class.std::__1::__libcpp_compressed_pair_imp.177" }
%"class.std::__1::__libcpp_compressed_pair_imp.177" = type { i64 }
%"class.std::__1::__compressed_pair.179" = type { %"class.std::__1::__libcpp_compressed_pair_imp.180" }
%"class.std::__1::__libcpp_compressed_pair_imp.180" = type { float }
%"class.std::__1::unordered_map.183" = type { %"class.std::__1::__hash_table.184" }
%"class.std::__1::__hash_table.184" = type <{ %"class.std::__1::unique_ptr.185", %"class.std::__1::__compressed_pair.194", %"class.std::__1::__compressed_pair.198", %"class.std::__1::__compressed_pair.201", [4 x i8] }>
%"class.std::__1::unique_ptr.185" = type { %"class.std::__1::__compressed_pair.186" }
%"class.std::__1::__compressed_pair.186" = type { %"class.std::__1::__libcpp_compressed_pair_imp.187" }
%"class.std::__1::__libcpp_compressed_pair_imp.187" = type { %"struct.std::__1::__hash_node_base.188"**, %"class.std::__1::__bucket_list_deallocator.189" }
%"struct.std::__1::__hash_node_base.188" = type { %"struct.std::__1::__hash_node_base.188"* }
%"class.std::__1::__bucket_list_deallocator.189" = type { %"class.std::__1::__compressed_pair.190" }
%"class.std::__1::__compressed_pair.190" = type { %"class.std::__1::__libcpp_compressed_pair_imp.191" }
%"class.std::__1::__libcpp_compressed_pair_imp.191" = type { i64 }
%"class.std::__1::__compressed_pair.194" = type { %"class.std::__1::__libcpp_compressed_pair_imp.195" }
%"class.std::__1::__libcpp_compressed_pair_imp.195" = type { %"struct.std::__1::__hash_node_base.188" }
%"class.std::__1::__compressed_pair.198" = type { %"class.std::__1::__libcpp_compressed_pair_imp.199" }
%"class.std::__1::__libcpp_compressed_pair_imp.199" = type { i64 }
%"class.std::__1::__compressed_pair.201" = type { %"class.std::__1::__libcpp_compressed_pair_imp.202" }
%"class.std::__1::__libcpp_compressed_pair_imp.202" = type { float }
%"class.llvm::ConstantInt" = type { %"class.llvm::ConstantData", %"class.llvm::APInt" }
%"class.llvm::ConstantData" = type { %"class.llvm::Constant" }
%"class.llvm::APInt" = type { i32, %union.anon.205 }
%union.anon.205 = type { i64 }
%"class.std::__1::unordered_map.206" = type { %"class.std::__1::__hash_table.207" }
%"class.std::__1::__hash_table.207" = type <{ %"class.std::__1::unique_ptr.208", %"class.std::__1::__compressed_pair.217", %"class.std::__1::__compressed_pair.221", %"class.std::__1::__compressed_pair.224", [4 x i8] }>
%"class.std::__1::unique_ptr.208" = type { %"class.std::__1::__compressed_pair.209" }
%"class.std::__1::__compressed_pair.209" = type { %"class.std::__1::__libcpp_compressed_pair_imp.210" }
%"class.std::__1::__libcpp_compressed_pair_imp.210" = type { %"struct.std::__1::__hash_node_base.211"**, %"class.std::__1::__bucket_list_deallocator.212" }
%"struct.std::__1::__hash_node_base.211" = type { %"struct.std::__1::__hash_node_base.211"* }
%"class.std::__1::__bucket_list_deallocator.212" = type { %"class.std::__1::__compressed_pair.213" }
%"class.std::__1::__compressed_pair.213" = type { %"class.std::__1::__libcpp_compressed_pair_imp.214" }
%"class.std::__1::__libcpp_compressed_pair_imp.214" = type { i64 }
%"class.std::__1::__compressed_pair.217" = type { %"class.std::__1::__libcpp_compressed_pair_imp.218" }
%"class.std::__1::__libcpp_compressed_pair_imp.218" = type { %"struct.std::__1::__hash_node_base.211" }
%"class.std::__1::__compressed_pair.221" = type { %"class.std::__1::__libcpp_compressed_pair_imp.222" }
%"class.std::__1::__libcpp_compressed_pair_imp.222" = type { i64 }
%"class.std::__1::__compressed_pair.224" = type { %"class.std::__1::__libcpp_compressed_pair_imp.225" }
%"class.std::__1::__libcpp_compressed_pair_imp.225" = type { float }
%class.TypeCheckVisitor = type { i32 (...)**, %"class.std::__1::unordered_multimap", %"class.std::__1::unordered_map.228", i8, i8, %"class.std::__1::basic_string", %class.TypeCheckVisitor*, %"class.std::__1::vector.250", %"class.std::__1::basic_string", %"class.std::__1::vector.256", %"class.std::__1::basic_string", %"class.std::__1::basic_string", %"class.std::__1::vector", %struct.TypeSpecifier, i8, i8, i8, %"class.std::__1::vector.262", %"class.std::__1::vector.19", %"class.std::__1::vector", i8, %struct.TypeSpecifier, i8, i32, i32, i8, i8, i8, i8, i32, %"class.std::__1::vector" }
%"class.std::__1::unordered_multimap" = type { %"class.std::__1::__hash_table" }
%"class.std::__1::unordered_map.228" = type { %"class.std::__1::__hash_table.229" }
%"class.std::__1::__hash_table.229" = type <{ %"class.std::__1::unique_ptr.230", %"class.std::__1::__compressed_pair.239", %"class.std::__1::__compressed_pair.243", %"class.std::__1::__compressed_pair.246", [4 x i8] }>
%"class.std::__1::unique_ptr.230" = type { %"class.std::__1::__compressed_pair.231" }
%"class.std::__1::__compressed_pair.231" = type { %"class.std::__1::__libcpp_compressed_pair_imp.232" }
%"class.std::__1::__libcpp_compressed_pair_imp.232" = type { %"struct.std::__1::__hash_node_base.233"**, %"class.std::__1::__bucket_list_deallocator.234" }
%"struct.std::__1::__hash_node_base.233" = type { %"struct.std::__1::__hash_node_base.233"* }
%"class.std::__1::__bucket_list_deallocator.234" = type { %"class.std::__1::__compressed_pair.235" }
%"class.std::__1::__compressed_pair.235" = type { %"class.std::__1::__libcpp_compressed_pair_imp.236" }
%"class.std::__1::__libcpp_compressed_pair_imp.236" = type { i64 }
%"class.std::__1::__compressed_pair.239" = type { %"class.std::__1::__libcpp_compressed_pair_imp.240" }
%"class.std::__1::__libcpp_compressed_pair_imp.240" = type { %"struct.std::__1::__hash_node_base.233" }
%"class.std::__1::__compressed_pair.243" = type { %"class.std::__1::__libcpp_compressed_pair_imp.244" }
%"class.std::__1::__libcpp_compressed_pair_imp.244" = type { i64 }
%"class.std::__1::__compressed_pair.246" = type { %"class.std::__1::__libcpp_compressed_pair_imp.247" }
%"class.std::__1::__libcpp_compressed_pair_imp.247" = type { float }
%"class.std::__1::vector.250" = type { %"class.std::__1::__vector_base.251" }
%"class.std::__1::__vector_base.251" = type { %class.TypeCheckVisitor**, %class.TypeCheckVisitor**, %"class.std::__1::__compressed_pair.252" }
%"class.std::__1::__compressed_pair.252" = type { %"class.std::__1::__libcpp_compressed_pair_imp.253" }
%"class.std::__1::__libcpp_compressed_pair_imp.253" = type { %class.TypeCheckVisitor** }
%"class.std::__1::vector.256" = type { %"class.std::__1::__vector_base.257" }
%"class.std::__1::__vector_base.257" = type { %struct.TypeSpecifier**, %struct.TypeSpecifier**, %"class.std::__1::__compressed_pair.258" }
%"class.std::__1::__compressed_pair.258" = type { %"class.std::__1::__libcpp_compressed_pair_imp.259" }
%"class.std::__1::__libcpp_compressed_pair_imp.259" = type { %struct.TypeSpecifier** }
%"class.std::__1::vector.262" = type { %"class.std::__1::__vector_base.263" }
%"class.std::__1::__vector_base.263" = type { %"struct.std::__1::pair.264"*, %"struct.std::__1::pair.264"*, %"class.std::__1::__compressed_pair.265" }
%"struct.std::__1::pair.264" = type { %"class.std::__1::basic_string", %"class.std::__1::basic_string" }
%"class.std::__1::__compressed_pair.265" = type { %"class.std::__1::__libcpp_compressed_pair_imp.266" }
%"class.std::__1::__libcpp_compressed_pair_imp.266" = type { %"struct.std::__1::pair.264"* }
%"class.std::__1::allocator.23" = type { i8 }
%"struct.std::__1::__has_destroy" = type { i8 }
%"class.std::__1::allocator.9" = type { i8 }
%"class.std::__1::allocator.13" = type { i8 }
%"struct.std::__1::pair.269" = type { %"class.std::__1::basic_string", %struct.TypeSpecifier }
%"struct.std::__1::__has_destroy.272" = type { i8 }
%"struct.std::__1::__hash_node" = type { %"struct.std::__1::__hash_node_base", i64, %"union.std::__1::__hash_value_type" }
%"union.std::__1::__hash_value_type" = type { %"struct.std::__1::pair.269" }
%"struct.std::__1::__has_destroy.273" = type { i8 }
%"struct.std::__1::__has_destroy.274" = type { i8 }
%"struct.std::__1::__has_destroy.275" = type { i8 }
%"struct.std::__1::random_access_iterator_tag" = type { i8 }
%"struct.std::__1::__has_construct" = type { i8 }
%"struct.std::__1::__has_max_size" = type { i8 }
%"class.std::__1::__hash_const_iterator" = type { %"struct.std::__1::__hash_node_base"* }
%"class.std::__1::__unordered_map_hasher" = type { i8 }
%"class.std::__1::__unordered_map_equal" = type { i8 }
%"struct.std::__1::pair.270" = type { %"class.std::__1::basic_string", %struct.TypeSpecifier }
%"class.std::__1::__libcpp_compressed_pair_imp.279" = type { %"struct.std::__1::__hash_node"*, %"class.std::__1::__hash_node_destructor" }
%"class.std::__1::__hash_node_destructor" = type <{ %"class.std::__1::allocator.13"*, i8, [7 x i8] }>
%"class.std::__1::__compressed_pair.278" = type { %"class.std::__1::__libcpp_compressed_pair_imp.279" }
%"class.std::__1::unique_ptr.277" = type { %"class.std::__1::__compressed_pair.278" }
%"class.std::__1::__hash_iterator" = type { %"struct.std::__1::__hash_node_base"* }
%"struct.std::__1::equal_to" = type { i8 }
%"struct.std::__1::hash" = type { i8 }
%"struct.std::__1::__murmur2_or_cityhash" = type { i8 }
%"struct.std::__1::pair.276" = type { i64, i64 }
%"struct.std::__1::__has_construct.280" = type { i8 }
%"struct.std::__1::pair.282" = type <{ %"class.std::__1::__hash_iterator", i8, [7 x i8] }>
%"class.std::__1::__hash_map_const_iterator" = type { %"class.std::__1::__hash_const_iterator" }
%"struct.std::__1::__has_select_on_container_copy_construction" = type { i8 }
%"struct.std::__1::__has_select_on_container_copy_construction.281" = type { i8 }
%"struct.std::__1::__has_select_on_container_copy_construction.283" = type { i8 }
%"struct.std::__1::__has_select_on_container_copy_construction.284" = type { i8 }
%"struct.std::__1::__has_construct.286" = type { i8 }
%"struct.std::__1::vector<TypeSpecifier, std::__1::allocator<TypeSpecifier> >::__RAII_IncreaseAnnotator" = type { i8 }
%"struct.std::__1::__has_max_size.285" = type { i8 }
%"class.std::__1::ostreambuf_iterator" = type { %"class.std::__1::basic_streambuf"* }
%"class.std::__1::basic_streambuf" = type { i32 (...)**, %"class.std::__1::locale", i8*, i8*, i8*, i8*, i8*, i8* }
%"class.std::__1::basic_ostream<char, std::__1::char_traits<char> >::sentry" = type { i8, %"class.std::__1::basic_ostream"* }
%"struct.std::__1::iterator" = type { i8 }
%"struct.std::__1::__split_buffer" = type { %"class.std::__1::basic_string"*, %"class.std::__1::basic_string"*, %"class.std::__1::basic_string"*, %"class.std::__1::__compressed_pair.289" }
%"class.std::__1::__compressed_pair.289" = type { %"class.std::__1::__libcpp_compressed_pair_imp.290" }
%"class.std::__1::__libcpp_compressed_pair_imp.290" = type { %"class.std::__1::basic_string"*, %"class.std::__1::allocator.3"* }
%"struct.std::__1::__has_construct.291" = type { i8 }
%"class.std::__1::__split_buffer_common" = type { i8 }
%"struct.std::__1::__split_buffer.293" = type { %"struct.std::__1::pair"*, %"struct.std::__1::pair"*, %"struct.std::__1::pair"*, %"class.std::__1::__compressed_pair.294" }
%"class.std::__1::__compressed_pair.294" = type { %"class.std::__1::__libcpp_compressed_pair_imp.295" }
%"class.std::__1::__libcpp_compressed_pair_imp.295" = type { %"struct.std::__1::pair"*, %"class.std::__1::allocator.30"* }
%"struct.std::__1::__has_max_size.296" = type { i8 }
%"class.std::__1::__bit_iterator" = type <{ i64*, i32, [4 x i8] }>
%"class.std::__1::allocator.297" = type { i8 }
%"struct.std::__1::__has_max_size.299" = type { i8 }
%"struct.std::__1::__less.300" = type { i8 }
%"struct.std::__1::__split_buffer.302" = type { %"class.std::__1::shared_ptr.44"*, %"class.std::__1::shared_ptr.44"*, %"class.std::__1::shared_ptr.44"*, %"class.std::__1::__compressed_pair.303" }
%"class.std::__1::__compressed_pair.303" = type { %"class.std::__1::__libcpp_compressed_pair_imp.304" }
%"class.std::__1::__libcpp_compressed_pair_imp.304" = type { %"class.std::__1::shared_ptr.44"*, %"class.std::__1::allocator.47"* }
%"struct.std::__1::__has_max_size.305" = type { i8 }

@_ZN4llvm24DisableABIBreakingChecksE = external global i32, align 4
@_ZN4llvm30VerifyDisableABIBreakingChecksE = weak hidden global i32* @_ZN4llvm24DisableABIBreakingChecksE, align 8
@_ZTV8DeclStmt = unnamed_addr constant [23 x i8*] [i8* null, i8* bitcast ({ i8*, i8*, i8* }* @_ZTI8DeclStmt to i8*), i8* bitcast (void (%class.DeclStmt*)* @_ZN8DeclStmtD1Ev to i8*), i8* bitcast (void (%class.DeclStmt*)* @_ZN8DeclStmtD0Ev to i8*), i8* bitcast (void (%"class.std::__1::vector.42"*, %class.DeclStmt*)* @_ZN8DeclStmt12get_childrenEv to i8*), i8* bitcast (void (%class.AstNode*, %class.AstNode*)* @_ZN7AstNode10set_parentEPS_ to i8*), i8* bitcast (%class.AstNode* (%class.AstNode*)* @_ZN7AstNode10get_parentEv to i8*), i8* bitcast (void (%class.AstNode*, i32, i32, i64)* @_ZN7AstNode9set_indexEiim to i8*), i8* bitcast (i32 (%class.AstNode*)* @_ZNK7AstNode9get_startEv to i8*), i8* bitcast (i32 (%class.AstNode*)* @_ZNK7AstNode7get_endEv to i8*), i8* bitcast (void (%class.DeclStmt*, %"class.std::__1::basic_string"*)* @_ZN8DeclStmt4bindENSt3__112basic_stringIcNS0_11char_traitsIcEENS0_9allocatorIcEEEE to i8*), i8* bitcast (void (%class.AstNode*, %class.DeclStmt*, i32)* @_ZN7AstNode8set_declEP8DeclStmti to i8*), i8* bitcast (void (%class.AstNode*, %"class.std::__1::vector"*)* @_ZN7AstNode14set_attributesENSt3__16vectorINS0_12basic_stringIcNS0_11char_traitsIcEENS0_9allocatorIcEEEENS5_IS7_EEEE to i8*), i8* bitcast (void (%class.AstNode*, %struct.TypeSpecifier*)* @_ZN7AstNode17set_inferred_typeE13TypeSpecifier to i8*), i8* bitcast (void (%struct.TypeSpecifier*, %class.AstNode*)* @_ZN7AstNode17get_inferred_typeEv to i8*), i8* bitcast (void (%class.AstNode*)* @_ZN7AstNode13alloc_on_heapEv to i8*), i8* bitcast (void (%"class.std::__1::basic_string"*, %class.AstNode*)* @_ZN7AstNode10get_sourceEv to i8*), i8* bitcast (i32 (%class.DeclStmt*)* @_ZN8DeclStmt8get_typeEv to i8*), i8* bitcast (void (%struct.Variant*, %class.DeclStmt*, %class.Visitor*)* @_ZN8DeclStmt6acceptER7Visitor to i8*), i8* bitcast (void (%struct.CGValue*, %class.DeclStmt*, %class.CodeGenVisitor*)* @_ZN8DeclStmt6acceptER14CodeGenVisitor to i8*), i8* bitcast (void (%struct.TypeSpecifier*, %class.DeclStmt*, %class.TypeCheckVisitor*)* @_ZN8DeclStmt6acceptER16TypeCheckVisitor to i8*), i8* bitcast (void (%class.DeclStmt*, i32)* @_ZN8DeclStmt6__dumpEi to i8*), i8* bitcast (void (%class.AstNode*, i32)* @_ZN7AstNode5__tabEi to i8*)], align 8
@.str = private unnamed_addr constant [37 x i8] c"Duplicate declaration of identifier \00", align 1
@_ZNSt3__14coutE = external global %"class.std::__1::basic_ostream", align 8
@.str.1 = private unnamed_addr constant [6 x i8] c"Const\00", align 1
@.str.2 = private unnamed_addr constant [1 x i8] zeroinitializer, align 1
@.str.3 = private unnamed_addr constant [11 x i8] c"DeclStmt [\00", align 1
@.str.4 = private unnamed_addr constant [2 x i8] c" \00", align 1
@.str.5 = private unnamed_addr constant [2 x i8] c"]\00", align 1
@_ZTVN10__cxxabiv120__si_class_type_infoE = external global i8*
@_ZTS8DeclStmt = constant [10 x i8] c"8DeclStmt\00"
@_ZTS9Statement = linkonce_odr constant [11 x i8] c"9Statement\00"
@_ZTI7AstNode = external constant i8*
@_ZTI9Statement = linkonce_odr constant { i8*, i8*, i8* } { i8* bitcast (i8** getelementptr inbounds (i8*, i8** @_ZTVN10__cxxabiv120__si_class_type_infoE, i64 2) to i8*), i8* getelementptr inbounds ([11 x i8], [11 x i8]* @_ZTS9Statement, i32 0, i32 0), i8* bitcast (i8** @_ZTI7AstNode to i8*) }
@_ZTI8DeclStmt = constant { i8*, i8*, i8* } { i8* bitcast (i8** getelementptr inbounds (i8*, i8** @_ZTVN10__cxxabiv120__si_class_type_infoE, i64 2) to i8*), i8* getelementptr inbounds ([10 x i8], [10 x i8]* @_ZTS8DeclStmt, i32 0, i32 0), i8* bitcast ({ i8*, i8*, i8* }* @_ZTI9Statement to i8*) }
@_ZTV9Statement = linkonce_odr unnamed_addr constant [23 x i8*] [i8* null, i8* bitcast ({ i8*, i8*, i8* }* @_ZTI9Statement to i8*), i8* bitcast (void (%class.Statement*)* @_ZN9StatementD1Ev to i8*), i8* bitcast (void (%class.Statement*)* @_ZN9StatementD0Ev to i8*), i8* bitcast (void (%"class.std::__1::vector.42"*, %class.AstNode*)* @_ZN7AstNode12get_childrenEv to i8*), i8* bitcast (void (%class.AstNode*, %class.AstNode*)* @_ZN7AstNode10set_parentEPS_ to i8*), i8* bitcast (%class.AstNode* (%class.AstNode*)* @_ZN7AstNode10get_parentEv to i8*), i8* bitcast (void (%class.AstNode*, i32, i32, i64)* @_ZN7AstNode9set_indexEiim to i8*), i8* bitcast (i32 (%class.AstNode*)* @_ZNK7AstNode9get_startEv to i8*), i8* bitcast (i32 (%class.AstNode*)* @_ZNK7AstNode7get_endEv to i8*), i8* bitcast (void (%class.AstNode*, %"class.std::__1::basic_string"*)* @_ZN7AstNode4bindENSt3__112basic_stringIcNS0_11char_traitsIcEENS0_9allocatorIcEEEE to i8*), i8* bitcast (void (%class.AstNode*, %class.DeclStmt*, i32)* @_ZN7AstNode8set_declEP8DeclStmti to i8*), i8* bitcast (void (%class.AstNode*, %"class.std::__1::vector"*)* @_ZN7AstNode14set_attributesENSt3__16vectorINS0_12basic_stringIcNS0_11char_traitsIcEENS0_9allocatorIcEEEENS5_IS7_EEEE to i8*), i8* bitcast (void (%class.AstNode*, %struct.TypeSpecifier*)* @_ZN7AstNode17set_inferred_typeE13TypeSpecifier to i8*), i8* bitcast (void (%struct.TypeSpecifier*, %class.AstNode*)* @_ZN7AstNode17get_inferred_typeEv to i8*), i8* bitcast (void (%class.AstNode*)* @_ZN7AstNode13alloc_on_heapEv to i8*), i8* bitcast (void (%"class.std::__1::basic_string"*, %class.AstNode*)* @_ZN7AstNode10get_sourceEv to i8*), i8* bitcast (void ()* @__cxa_pure_virtual to i8*), i8* bitcast (void ()* @__cxa_pure_virtual to i8*), i8* bitcast (void ()* @__cxa_pure_virtual to i8*), i8* bitcast (void ()* @__cxa_pure_virtual to i8*), i8* bitcast (void ()* @__cxa_pure_virtual to i8*), i8* bitcast (void (%class.AstNode*, i32)* @_ZN7AstNode5__tabEi to i8*)], align 8
@_ZTV7AstNode = external unnamed_addr constant [23 x i8*]
@_ZNSt3__15ctypeIcE2idE = external global %"class.std::__1::locale::id", align 8
@_ZZNSt3__114__copy_alignedINS_6vectorIbNS_9allocatorIbEEEELb0EEENS_14__bit_iteratorIT_Lb0EXLi0EEEENS5_IS6_XT0_EXLi0EEEES8_S7_E15__bits_per_word = linkonce_odr constant i32 64, align 4
@_ZZNSt3__116__copy_unalignedINS_6vectorIbNS_9allocatorIbEEEELb0EEENS_14__bit_iteratorIT_Lb0EXLi0EEEENS5_IS6_XT0_EXLi0EEEES8_S7_E15__bits_per_word = linkonce_odr constant i32 64, align 4

; Function Attrs: ssp uwtable
define void @_ZN8DeclStmtC2Ebb(%class.DeclStmt*, i1 zeroext, i1 zeroext) unnamed_addr #0 align 2 personality i32 (...)* @__gxx_personality_v0 {
  %4 = alloca %"struct.std::__1::pair"**, align 8
  %5 = alloca %"class.std::__1::allocator.30"*, align 8
  %6 = alloca %"class.std::__1::__libcpp_compressed_pair_imp.29"*, align 8
  %7 = alloca %"struct.std::__1::pair"*, align 8
  %8 = alloca %"struct.std::__1::pair"**, align 8
  %9 = alloca %"class.std::__1::__compressed_pair.28"*, align 8
  %10 = alloca %"struct.std::__1::pair"*, align 8
  %11 = alloca %"class.std::__1::__compressed_pair.28"*, align 8
  %12 = alloca %"struct.std::__1::pair"*, align 8
  %13 = alloca %"class.std::__1::__vector_base_common"*, align 8
  %14 = alloca %"class.std::__1::__vector_base.27"*, align 8
  %15 = alloca %"class.std::__1::vector.26"*, align 8
  %16 = alloca %"class.std::__1::vector.26"*, align 8
  %17 = alloca %"class.std::__1::basic_string"**, align 8
  %18 = alloca %"class.std::__1::allocator.3"*, align 8
  %19 = alloca %"class.std::__1::__libcpp_compressed_pair_imp.2"*, align 8
  %20 = alloca %"class.std::__1::basic_string"*, align 8
  %21 = alloca %"class.std::__1::basic_string"**, align 8
  %22 = alloca %"class.std::__1::__compressed_pair.1"*, align 8
  %23 = alloca %"class.std::__1::basic_string"*, align 8
  %24 = alloca %"class.std::__1::__compressed_pair.1"*, align 8
  %25 = alloca %"class.std::__1::basic_string"*, align 8
  %26 = alloca %"class.std::__1::__vector_base_common"*, align 8
  %27 = alloca %"class.std::__1::__vector_base"*, align 8
  %28 = alloca %"class.std::__1::vector"*, align 8
  %29 = alloca %"class.std::__1::vector"*, align 8
  %30 = alloca i64*, align 8
  %31 = alloca %"class.std::__1::allocator.35"*, align 8
  %32 = alloca %"class.std::__1::__libcpp_compressed_pair_imp.34"*, align 8
  %33 = alloca i64, align 8
  %34 = alloca i64*, align 8
  %35 = alloca %"class.std::__1::__compressed_pair.33"*, align 8
  %36 = alloca i64, align 8
  %37 = alloca %"class.std::__1::__compressed_pair.33"*, align 8
  %38 = alloca i64, align 8
  %39 = alloca %"class.std::__1::__vector_base_common"*, align 8
  %40 = alloca %"class.std::__1::vector.32"*, align 8
  %41 = alloca %"class.std::__1::vector.32"*, align 8
  %42 = alloca %"class.std::__1::basic_string"**, align 8
  %43 = alloca %"class.std::__1::allocator.3"*, align 8
  %44 = alloca %"class.std::__1::__libcpp_compressed_pair_imp.2"*, align 8
  %45 = alloca %"class.std::__1::basic_string"*, align 8
  %46 = alloca %"class.std::__1::basic_string"**, align 8
  %47 = alloca %"class.std::__1::__compressed_pair.1"*, align 8
  %48 = alloca %"class.std::__1::basic_string"*, align 8
  %49 = alloca %"class.std::__1::__compressed_pair.1"*, align 8
  %50 = alloca %"class.std::__1::basic_string"*, align 8
  %51 = alloca %"class.std::__1::__vector_base_common"*, align 8
  %52 = alloca %"class.std::__1::__vector_base"*, align 8
  %53 = alloca %"class.std::__1::vector"*, align 8
  %54 = alloca %"class.std::__1::vector"*, align 8
  %55 = alloca %class.DeclStmt*, align 8
  %56 = alloca i8, align 1
  %57 = alloca i8, align 1
  store %class.DeclStmt* %0, %class.DeclStmt** %55, align 8
  %58 = zext i1 %1 to i8
  store i8 %58, i8* %56, align 1
  %59 = zext i1 %2 to i8
  store i8 %59, i8* %57, align 1
  %60 = load %class.DeclStmt*, %class.DeclStmt** %55, align 8
  %61 = bitcast %class.DeclStmt* %60 to %class.Statement*
  call void @_ZN9StatementC2Ev(%class.Statement* %61)
  %62 = bitcast %class.DeclStmt* %60 to i32 (...)***
  store i32 (...)** bitcast (i8** getelementptr inbounds ([23 x i8*], [23 x i8*]* @_ZTV8DeclStmt, i32 0, i32 2) to i32 (...)**), i32 (...)*** %62, align 8
  %63 = getelementptr inbounds %class.DeclStmt, %class.DeclStmt* %60, i32 0, i32 2
  store %"class.std::__1::vector"* %63, %"class.std::__1::vector"** %54, align 8
  %64 = load %"class.std::__1::vector"*, %"class.std::__1::vector"** %54, align 8
  store %"class.std::__1::vector"* %64, %"class.std::__1::vector"** %53, align 8
  %65 = load %"class.std::__1::vector"*, %"class.std::__1::vector"** %53, align 8
  %66 = bitcast %"class.std::__1::vector"* %65 to %"class.std::__1::__vector_base"*
  store %"class.std::__1::__vector_base"* %66, %"class.std::__1::__vector_base"** %52, align 8
  %67 = load %"class.std::__1::__vector_base"*, %"class.std::__1::__vector_base"** %52, align 8
  %68 = bitcast %"class.std::__1::__vector_base"* %67 to %"class.std::__1::__vector_base_common"*
  store %"class.std::__1::__vector_base_common"* %68, %"class.std::__1::__vector_base_common"** %51, align 8
  %69 = load %"class.std::__1::__vector_base_common"*, %"class.std::__1::__vector_base_common"** %51, align 8
  %70 = getelementptr inbounds %"class.std::__1::__vector_base", %"class.std::__1::__vector_base"* %67, i32 0, i32 0
  store %"class.std::__1::basic_string"* null, %"class.std::__1::basic_string"** %70, align 8
  %71 = getelementptr inbounds %"class.std::__1::__vector_base", %"class.std::__1::__vector_base"* %67, i32 0, i32 1
  store %"class.std::__1::basic_string"* null, %"class.std::__1::basic_string"** %71, align 8
  %72 = getelementptr inbounds %"class.std::__1::__vector_base", %"class.std::__1::__vector_base"* %67, i32 0, i32 2
  store %"class.std::__1::__compressed_pair.1"* %72, %"class.std::__1::__compressed_pair.1"** %49, align 8
  store %"class.std::__1::basic_string"* null, %"class.std::__1::basic_string"** %50, align 8
  %73 = load %"class.std::__1::__compressed_pair.1"*, %"class.std::__1::__compressed_pair.1"** %49, align 8
  %74 = load %"class.std::__1::basic_string"*, %"class.std::__1::basic_string"** %50, align 8
  store %"class.std::__1::__compressed_pair.1"* %73, %"class.std::__1::__compressed_pair.1"** %47, align 8
  store %"class.std::__1::basic_string"* %74, %"class.std::__1::basic_string"** %48, align 8
  %75 = load %"class.std::__1::__compressed_pair.1"*, %"class.std::__1::__compressed_pair.1"** %47, align 8
  %76 = bitcast %"class.std::__1::__compressed_pair.1"* %75 to %"class.std::__1::__libcpp_compressed_pair_imp.2"*
  store %"class.std::__1::basic_string"** %48, %"class.std::__1::basic_string"*** %46, align 8
  %77 = load %"class.std::__1::basic_string"**, %"class.std::__1::basic_string"*** %46, align 8
  %78 = load %"class.std::__1::basic_string"*, %"class.std::__1::basic_string"** %77, align 8
  store %"class.std::__1::__libcpp_compressed_pair_imp.2"* %76, %"class.std::__1::__libcpp_compressed_pair_imp.2"** %44, align 8
  store %"class.std::__1::basic_string"* %78, %"class.std::__1::basic_string"** %45, align 8
  %79 = load %"class.std::__1::__libcpp_compressed_pair_imp.2"*, %"class.std::__1::__libcpp_compressed_pair_imp.2"** %44, align 8
  %80 = bitcast %"class.std::__1::__libcpp_compressed_pair_imp.2"* %79 to %"class.std::__1::allocator.3"*
  store %"class.std::__1::allocator.3"* %80, %"class.std::__1::allocator.3"** %43, align 8
  %81 = load %"class.std::__1::allocator.3"*, %"class.std::__1::allocator.3"** %43, align 8
  %82 = getelementptr inbounds %"class.std::__1::__libcpp_compressed_pair_imp.2", %"class.std::__1::__libcpp_compressed_pair_imp.2"* %79, i32 0, i32 0
  store %"class.std::__1::basic_string"** %45, %"class.std::__1::basic_string"*** %42, align 8
  %83 = load %"class.std::__1::basic_string"**, %"class.std::__1::basic_string"*** %42, align 8
  %84 = load %"class.std::__1::basic_string"*, %"class.std::__1::basic_string"** %83, align 8
  store %"class.std::__1::basic_string"* %84, %"class.std::__1::basic_string"** %82, align 8
  %85 = getelementptr inbounds %class.DeclStmt, %class.DeclStmt* %60, i32 0, i32 3
  store %"class.std::__1::vector.26"* %85, %"class.std::__1::vector.26"** %16, align 8
  %86 = load %"class.std::__1::vector.26"*, %"class.std::__1::vector.26"** %16, align 8
  store %"class.std::__1::vector.26"* %86, %"class.std::__1::vector.26"** %15, align 8
  %87 = load %"class.std::__1::vector.26"*, %"class.std::__1::vector.26"** %15, align 8
  %88 = bitcast %"class.std::__1::vector.26"* %87 to %"class.std::__1::__vector_base.27"*
  store %"class.std::__1::__vector_base.27"* %88, %"class.std::__1::__vector_base.27"** %14, align 8
  %89 = load %"class.std::__1::__vector_base.27"*, %"class.std::__1::__vector_base.27"** %14, align 8
  %90 = bitcast %"class.std::__1::__vector_base.27"* %89 to %"class.std::__1::__vector_base_common"*
  store %"class.std::__1::__vector_base_common"* %90, %"class.std::__1::__vector_base_common"** %13, align 8
  %91 = load %"class.std::__1::__vector_base_common"*, %"class.std::__1::__vector_base_common"** %13, align 8
  %92 = getelementptr inbounds %"class.std::__1::__vector_base.27", %"class.std::__1::__vector_base.27"* %89, i32 0, i32 0
  store %"struct.std::__1::pair"* null, %"struct.std::__1::pair"** %92, align 8
  %93 = getelementptr inbounds %"class.std::__1::__vector_base.27", %"class.std::__1::__vector_base.27"* %89, i32 0, i32 1
  store %"struct.std::__1::pair"* null, %"struct.std::__1::pair"** %93, align 8
  %94 = getelementptr inbounds %"class.std::__1::__vector_base.27", %"class.std::__1::__vector_base.27"* %89, i32 0, i32 2
  store %"class.std::__1::__compressed_pair.28"* %94, %"class.std::__1::__compressed_pair.28"** %11, align 8
  store %"struct.std::__1::pair"* null, %"struct.std::__1::pair"** %12, align 8
  %95 = load %"class.std::__1::__compressed_pair.28"*, %"class.std::__1::__compressed_pair.28"** %11, align 8
  %96 = load %"struct.std::__1::pair"*, %"struct.std::__1::pair"** %12, align 8
  store %"class.std::__1::__compressed_pair.28"* %95, %"class.std::__1::__compressed_pair.28"** %9, align 8
  store %"struct.std::__1::pair"* %96, %"struct.std::__1::pair"** %10, align 8
  %97 = load %"class.std::__1::__compressed_pair.28"*, %"class.std::__1::__compressed_pair.28"** %9, align 8
  %98 = bitcast %"class.std::__1::__compressed_pair.28"* %97 to %"class.std::__1::__libcpp_compressed_pair_imp.29"*
  store %"struct.std::__1::pair"** %10, %"struct.std::__1::pair"*** %8, align 8
  %99 = load %"struct.std::__1::pair"**, %"struct.std::__1::pair"*** %8, align 8
  %100 = load %"struct.std::__1::pair"*, %"struct.std::__1::pair"** %99, align 8
  store %"class.std::__1::__libcpp_compressed_pair_imp.29"* %98, %"class.std::__1::__libcpp_compressed_pair_imp.29"** %6, align 8
  store %"struct.std::__1::pair"* %100, %"struct.std::__1::pair"** %7, align 8
  %101 = load %"class.std::__1::__libcpp_compressed_pair_imp.29"*, %"class.std::__1::__libcpp_compressed_pair_imp.29"** %6, align 8
  %102 = bitcast %"class.std::__1::__libcpp_compressed_pair_imp.29"* %101 to %"class.std::__1::allocator.30"*
  store %"class.std::__1::allocator.30"* %102, %"class.std::__1::allocator.30"** %5, align 8
  %103 = load %"class.std::__1::allocator.30"*, %"class.std::__1::allocator.30"** %5, align 8
  %104 = getelementptr inbounds %"class.std::__1::__libcpp_compressed_pair_imp.29", %"class.std::__1::__libcpp_compressed_pair_imp.29"* %101, i32 0, i32 0
  store %"struct.std::__1::pair"** %7, %"struct.std::__1::pair"*** %4, align 8
  %105 = load %"struct.std::__1::pair"**, %"struct.std::__1::pair"*** %4, align 8
  %106 = load %"struct.std::__1::pair"*, %"struct.std::__1::pair"** %105, align 8
  store %"struct.std::__1::pair"* %106, %"struct.std::__1::pair"** %104, align 8
  %107 = getelementptr inbounds %class.DeclStmt, %class.DeclStmt* %60, i32 0, i32 4
  store %"class.std::__1::vector"* %107, %"class.std::__1::vector"** %29, align 8
  %108 = load %"class.std::__1::vector"*, %"class.std::__1::vector"** %29, align 8
  store %"class.std::__1::vector"* %108, %"class.std::__1::vector"** %28, align 8
  %109 = load %"class.std::__1::vector"*, %"class.std::__1::vector"** %28, align 8
  %110 = bitcast %"class.std::__1::vector"* %109 to %"class.std::__1::__vector_base"*
  store %"class.std::__1::__vector_base"* %110, %"class.std::__1::__vector_base"** %27, align 8
  %111 = load %"class.std::__1::__vector_base"*, %"class.std::__1::__vector_base"** %27, align 8
  %112 = bitcast %"class.std::__1::__vector_base"* %111 to %"class.std::__1::__vector_base_common"*
  store %"class.std::__1::__vector_base_common"* %112, %"class.std::__1::__vector_base_common"** %26, align 8
  %113 = load %"class.std::__1::__vector_base_common"*, %"class.std::__1::__vector_base_common"** %26, align 8
  %114 = getelementptr inbounds %"class.std::__1::__vector_base", %"class.std::__1::__vector_base"* %111, i32 0, i32 0
  store %"class.std::__1::basic_string"* null, %"class.std::__1::basic_string"** %114, align 8
  %115 = getelementptr inbounds %"class.std::__1::__vector_base", %"class.std::__1::__vector_base"* %111, i32 0, i32 1
  store %"class.std::__1::basic_string"* null, %"class.std::__1::basic_string"** %115, align 8
  %116 = getelementptr inbounds %"class.std::__1::__vector_base", %"class.std::__1::__vector_base"* %111, i32 0, i32 2
  store %"class.std::__1::__compressed_pair.1"* %116, %"class.std::__1::__compressed_pair.1"** %24, align 8
  store %"class.std::__1::basic_string"* null, %"class.std::__1::basic_string"** %25, align 8
  %117 = load %"class.std::__1::__compressed_pair.1"*, %"class.std::__1::__compressed_pair.1"** %24, align 8
  %118 = load %"class.std::__1::basic_string"*, %"class.std::__1::basic_string"** %25, align 8
  store %"class.std::__1::__compressed_pair.1"* %117, %"class.std::__1::__compressed_pair.1"** %22, align 8
  store %"class.std::__1::basic_string"* %118, %"class.std::__1::basic_string"** %23, align 8
  %119 = load %"class.std::__1::__compressed_pair.1"*, %"class.std::__1::__compressed_pair.1"** %22, align 8
  %120 = bitcast %"class.std::__1::__compressed_pair.1"* %119 to %"class.std::__1::__libcpp_compressed_pair_imp.2"*
  store %"class.std::__1::basic_string"** %23, %"class.std::__1::basic_string"*** %21, align 8
  %121 = load %"class.std::__1::basic_string"**, %"class.std::__1::basic_string"*** %21, align 8
  %122 = load %"class.std::__1::basic_string"*, %"class.std::__1::basic_string"** %121, align 8
  store %"class.std::__1::__libcpp_compressed_pair_imp.2"* %120, %"class.std::__1::__libcpp_compressed_pair_imp.2"** %19, align 8
  store %"class.std::__1::basic_string"* %122, %"class.std::__1::basic_string"** %20, align 8
  %123 = load %"class.std::__1::__libcpp_compressed_pair_imp.2"*, %"class.std::__1::__libcpp_compressed_pair_imp.2"** %19, align 8
  %124 = bitcast %"class.std::__1::__libcpp_compressed_pair_imp.2"* %123 to %"class.std::__1::allocator.3"*
  store %"class.std::__1::allocator.3"* %124, %"class.std::__1::allocator.3"** %18, align 8
  %125 = load %"class.std::__1::allocator.3"*, %"class.std::__1::allocator.3"** %18, align 8
  %126 = getelementptr inbounds %"class.std::__1::__libcpp_compressed_pair_imp.2", %"class.std::__1::__libcpp_compressed_pair_imp.2"* %123, i32 0, i32 0
  store %"class.std::__1::basic_string"** %20, %"class.std::__1::basic_string"*** %17, align 8
  %127 = load %"class.std::__1::basic_string"**, %"class.std::__1::basic_string"*** %17, align 8
  %128 = load %"class.std::__1::basic_string"*, %"class.std::__1::basic_string"** %127, align 8
  store %"class.std::__1::basic_string"* %128, %"class.std::__1::basic_string"** %126, align 8
  %129 = getelementptr inbounds %class.DeclStmt, %class.DeclStmt* %60, i32 0, i32 5
  store %"class.std::__1::vector.32"* %129, %"class.std::__1::vector.32"** %41, align 8
  %130 = load %"class.std::__1::vector.32"*, %"class.std::__1::vector.32"** %41, align 8
  store %"class.std::__1::vector.32"* %130, %"class.std::__1::vector.32"** %40, align 8
  %131 = load %"class.std::__1::vector.32"*, %"class.std::__1::vector.32"** %40, align 8
  %132 = bitcast %"class.std::__1::vector.32"* %131 to %"class.std::__1::__vector_base_common"*
  store %"class.std::__1::__vector_base_common"* %132, %"class.std::__1::__vector_base_common"** %39, align 8
  %133 = load %"class.std::__1::__vector_base_common"*, %"class.std::__1::__vector_base_common"** %39, align 8
  %134 = getelementptr inbounds %"class.std::__1::vector.32", %"class.std::__1::vector.32"* %131, i32 0, i32 0
  store i64* null, i64** %134, align 8
  %135 = getelementptr inbounds %"class.std::__1::vector.32", %"class.std::__1::vector.32"* %131, i32 0, i32 1
  store i64 0, i64* %135, align 8
  %136 = getelementptr inbounds %"class.std::__1::vector.32", %"class.std::__1::vector.32"* %131, i32 0, i32 2
  store %"class.std::__1::__compressed_pair.33"* %136, %"class.std::__1::__compressed_pair.33"** %37, align 8
  store i64 0, i64* %38, align 8
  %137 = load %"class.std::__1::__compressed_pair.33"*, %"class.std::__1::__compressed_pair.33"** %37, align 8
  %138 = load i64, i64* %38, align 8
  store %"class.std::__1::__compressed_pair.33"* %137, %"class.std::__1::__compressed_pair.33"** %35, align 8
  store i64 %138, i64* %36, align 8
  %139 = load %"class.std::__1::__compressed_pair.33"*, %"class.std::__1::__compressed_pair.33"** %35, align 8
  %140 = bitcast %"class.std::__1::__compressed_pair.33"* %139 to %"class.std::__1::__libcpp_compressed_pair_imp.34"*
  store i64* %36, i64** %34, align 8
  %141 = load i64*, i64** %34, align 8
  %142 = load i64, i64* %141, align 8
  store %"class.std::__1::__libcpp_compressed_pair_imp.34"* %140, %"class.std::__1::__libcpp_compressed_pair_imp.34"** %32, align 8
  store i64 %142, i64* %33, align 8
  %143 = load %"class.std::__1::__libcpp_compressed_pair_imp.34"*, %"class.std::__1::__libcpp_compressed_pair_imp.34"** %32, align 8
  %144 = bitcast %"class.std::__1::__libcpp_compressed_pair_imp.34"* %143 to %"class.std::__1::allocator.35"*
  store %"class.std::__1::allocator.35"* %144, %"class.std::__1::allocator.35"** %31, align 8
  %145 = load %"class.std::__1::allocator.35"*, %"class.std::__1::allocator.35"** %31, align 8
  %146 = getelementptr inbounds %"class.std::__1::__libcpp_compressed_pair_imp.34", %"class.std::__1::__libcpp_compressed_pair_imp.34"* %143, i32 0, i32 0
  store i64* %33, i64** %30, align 8
  %147 = load i64*, i64** %30, align 8
  %148 = load i64, i64* %147, align 8
  store i64 %148, i64* %146, align 8
  %149 = getelementptr inbounds %class.DeclStmt, %class.DeclStmt* %60, i32 0, i32 6
  %150 = load i8, i8* %56, align 1
  %151 = trunc i8 %150 to i1
  %152 = zext i1 %151 to i8
  store i8 %152, i8* %149, align 8
  %153 = getelementptr inbounds %class.DeclStmt, %class.DeclStmt* %60, i32 0, i32 7
  %154 = load i8, i8* %57, align 1
  %155 = trunc i8 %154 to i1
  %156 = zext i1 %155 to i8
  store i8 %156, i8* %153, align 1
  ret void
}

; Function Attrs: inlinehint ssp uwtable
define linkonce_odr void @_ZN9StatementC2Ev(%class.Statement*) unnamed_addr #1 align 2 {
  %2 = alloca %class.Statement*, align 8
  store %class.Statement* %0, %class.Statement** %2, align 8
  %3 = load %class.Statement*, %class.Statement** %2, align 8
  %4 = bitcast %class.Statement* %3 to %class.AstNode*
  call void @_ZN7AstNodeC2Ev(%class.AstNode* %4)
  %5 = bitcast %class.Statement* %3 to i32 (...)***
  store i32 (...)** bitcast (i8** getelementptr inbounds ([23 x i8*], [23 x i8*]* @_ZTV9Statement, i32 0, i32 2) to i32 (...)**), i32 (...)*** %5, align 8
  ret void
}

; Function Attrs: ssp uwtable
define void @_ZN8DeclStmtC1Ebb(%class.DeclStmt*, i1 zeroext, i1 zeroext) unnamed_addr #0 align 2 {
  %4 = alloca %class.DeclStmt*, align 8
  %5 = alloca i8, align 1
  %6 = alloca i8, align 1
  store %class.DeclStmt* %0, %class.DeclStmt** %4, align 8
  %7 = zext i1 %1 to i8
  store i8 %7, i8* %5, align 1
  %8 = zext i1 %2 to i8
  store i8 %8, i8* %6, align 1
  %9 = load %class.DeclStmt*, %class.DeclStmt** %4, align 8
  %10 = load i8, i8* %5, align 1
  %11 = trunc i8 %10 to i1
  %12 = load i8, i8* %6, align 1
  %13 = trunc i8 %12 to i1
  call void @_ZN8DeclStmtC2Ebb(%class.DeclStmt* %9, i1 zeroext %11, i1 zeroext %13)
  ret void
}

; Function Attrs: ssp uwtable
define void @_ZN8DeclStmt15add_declarationENSt3__112basic_stringIcNS0_11char_traitsIcEENS0_9allocatorIcEEEENS0_10shared_ptrI7TypeRefEENS7_I10ExpressionEE(%class.DeclStmt*, %"class.std::__1::basic_string"*, %"class.std::__1::shared_ptr.41"*, %"class.std::__1::shared_ptr"*) #0 align 2 personality i8* bitcast (i32 (...)* @__gxx_personality_v0 to i8*) {
  %5 = alloca %"struct.std::__1::pair"*, align 8
  %6 = alloca %"class.std::__1::shared_ptr"*, align 8
  %7 = alloca %"class.std::__1::shared_ptr"*, align 8
  %8 = alloca %"class.std::__1::shared_ptr"*, align 8
  %9 = alloca %"class.std::__1::shared_ptr"*, align 8
  %10 = alloca %"class.std::__1::shared_ptr.41"*, align 8
  %11 = alloca %"class.std::__1::shared_ptr.41"*, align 8
  %12 = alloca %"class.std::__1::shared_ptr.41"*, align 8
  %13 = alloca %"class.std::__1::shared_ptr.41"*, align 8
  %14 = alloca %"struct.std::__1::pair"*, align 8
  %15 = alloca %"struct.std::__1::pair"*, align 8
  %16 = alloca %"struct.std::__1::pair"*, align 8
  %17 = alloca %"struct.std::__1::pair"*, align 8
  %18 = alloca %"struct.std::__1::pair"*, align 8
  %19 = alloca %"class.std::__1::allocator.30"*, align 8
  %20 = alloca %"struct.std::__1::pair"*, align 8
  %21 = alloca %"struct.std::__1::pair"*, align 8
  %22 = alloca %"struct.std::__1::pair"*, align 8
  %23 = alloca %"struct.std::__1::integral_constant", align 1
  %24 = alloca %"class.std::__1::allocator.30"*, align 8
  %25 = alloca %"struct.std::__1::pair"*, align 8
  %26 = alloca %"struct.std::__1::pair"*, align 8
  %27 = alloca %"struct.std::__1::pair"*, align 8
  %28 = alloca %"class.std::__1::allocator.30"*, align 8
  %29 = alloca %"struct.std::__1::pair"*, align 8
  %30 = alloca %"struct.std::__1::pair"*, align 8
  %31 = alloca %"struct.std::__1::integral_constant", align 1
  %32 = alloca %"struct.std::__1::__has_construct.292", align 1
  %33 = alloca %"struct.std::__1::pair"*, align 8
  %34 = alloca %"struct.std::__1::pair"*, align 8
  %35 = alloca %"class.std::__1::__libcpp_compressed_pair_imp.29"*, align 8
  %36 = alloca %"class.std::__1::__compressed_pair.28"*, align 8
  %37 = alloca %"class.std::__1::__vector_base.27"*, align 8
  %38 = alloca %"class.std::__1::__libcpp_compressed_pair_imp.29"*, align 8
  %39 = alloca %"class.std::__1::__compressed_pair.28"*, align 8
  %40 = alloca %"class.std::__1::__vector_base.27"*, align 8
  %41 = alloca %"class.std::__1::vector.26"*, align 8
  %42 = alloca %"struct.std::__1::pair"*, align 8
  %43 = alloca %"struct.std::__1::vector<std::__1::pair<std::__1::shared_ptr<TypeRef>, std::__1::shared_ptr<Expression> >, std::__1::allocator<std::__1::pair<std::__1::shared_ptr<TypeRef>, std::__1::shared_ptr<Expression> > > >::__RAII_IncreaseAnnotator", align 1
  %44 = alloca %"class.std::__1::shared_ptr"*, align 8
  %45 = alloca %"class.std::__1::shared_ptr.41"*, align 8
  %46 = alloca %"class.std::__1::shared_ptr.41"*, align 8
  %47 = alloca %"class.std::__1::shared_ptr.41"*, align 8
  %48 = alloca %"class.std::__1::shared_ptr.41"*, align 8
  %49 = alloca %"class.std::__1::shared_ptr"*, align 8
  %50 = alloca %"class.std::__1::shared_ptr"*, align 8
  %51 = alloca %"class.std::__1::shared_ptr"*, align 8
  %52 = alloca %"class.std::__1::shared_ptr"*, align 8
  %53 = alloca %"class.std::__1::shared_ptr.41"*, align 8
  %54 = alloca %"struct.std::__1::pair"*, align 8
  %55 = alloca %"class.std::__1::shared_ptr.41"*, align 8
  %56 = alloca %"class.std::__1::shared_ptr"*, align 8
  %57 = alloca %"struct.std::__1::pair"*, align 8
  %58 = alloca %"class.std::__1::shared_ptr.41"*, align 8
  %59 = alloca %"class.std::__1::shared_ptr"*, align 8
  %60 = alloca %"class.std::__1::basic_string"*, align 8
  %61 = alloca %"class.std::__1::allocator.3"*, align 8
  %62 = alloca %"class.std::__1::basic_string"*, align 8
  %63 = alloca %"class.std::__1::basic_string"*, align 8
  %64 = alloca %"class.std::__1::basic_string"*, align 8
  %65 = alloca %"struct.std::__1::integral_constant", align 1
  %66 = alloca %"class.std::__1::allocator.3"*, align 8
  %67 = alloca %"class.std::__1::basic_string"*, align 8
  %68 = alloca %"class.std::__1::basic_string"*, align 8
  %69 = alloca %"class.std::__1::basic_string"*, align 8
  %70 = alloca %"class.std::__1::allocator.3"*, align 8
  %71 = alloca %"class.std::__1::basic_string"*, align 8
  %72 = alloca %"class.std::__1::basic_string"*, align 8
  %73 = alloca %"struct.std::__1::integral_constant", align 1
  %74 = alloca %"struct.std::__1::__has_construct.288", align 1
  %75 = alloca %"class.std::__1::basic_string"*, align 8
  %76 = alloca %"class.std::__1::__libcpp_compressed_pair_imp.2"*, align 8
  %77 = alloca %"class.std::__1::__compressed_pair.1"*, align 8
  %78 = alloca %"class.std::__1::__vector_base"*, align 8
  %79 = alloca %"class.std::__1::__libcpp_compressed_pair_imp.2"*, align 8
  %80 = alloca %"class.std::__1::__compressed_pair.1"*, align 8
  %81 = alloca %"class.std::__1::__vector_base"*, align 8
  %82 = alloca %"class.std::__1::vector"*, align 8
  %83 = alloca %"class.std::__1::basic_string"*, align 8
  %84 = alloca %"struct.std::__1::vector<std::__1::basic_string<char>, std::__1::allocator<std::__1::basic_string<char> > >::__RAII_IncreaseAnnotator", align 1
  %85 = alloca %"class.std::__1::__wrap_iter"*, align 8
  %86 = alloca %"class.std::__1::__wrap_iter"*, align 8
  %87 = alloca %"class.std::__1::__wrap_iter"*, align 8
  %88 = alloca %"class.std::__1::__wrap_iter"*, align 8
  %89 = alloca %"class.std::__1::__wrap_iter"*, align 8
  %90 = alloca %"class.std::__1::__wrap_iter"*, align 8
  %91 = alloca %"class.std::__1::__wrap_iter"*, align 8
  %92 = alloca %"class.std::__1::basic_string"*, align 8
  %93 = alloca %"class.std::__1::__wrap_iter"*, align 8
  %94 = alloca %"class.std::__1::basic_string"*, align 8
  %95 = alloca %"class.std::__1::__wrap_iter", align 8
  %96 = alloca %"class.std::__1::vector"*, align 8
  %97 = alloca %"class.std::__1::basic_string"*, align 8
  %98 = alloca %"class.std::__1::__wrap_iter", align 8
  %99 = alloca %"class.std::__1::vector"*, align 8
  %100 = alloca %"class.std::__1::__wrap_iter"*, align 8
  %101 = alloca i8*, align 8
  %102 = alloca %"class.std::__1::__libcpp_compressed_pair_imp"*, align 8
  %103 = alloca %"class.std::__1::__compressed_pair"*, align 8
  %104 = alloca %"class.std::__1::basic_string"*, align 8
  %105 = alloca i8*, align 8
  %106 = alloca i8*, align 8
  %107 = alloca %"class.std::__1::__libcpp_compressed_pair_imp"*, align 8
  %108 = alloca %"class.std::__1::__compressed_pair"*, align 8
  %109 = alloca %"class.std::__1::basic_string"*, align 8
  %110 = alloca %"class.std::__1::__libcpp_compressed_pair_imp"*, align 8
  %111 = alloca %"class.std::__1::__compressed_pair"*, align 8
  %112 = alloca %"class.std::__1::basic_string"*, align 8
  %113 = alloca %"class.std::__1::basic_string"*, align 8
  %114 = alloca %"class.std::__1::basic_string"*, align 8
  %115 = alloca %"class.std::__1::__libcpp_compressed_pair_imp"*, align 8
  %116 = alloca %"class.std::__1::__compressed_pair"*, align 8
  %117 = alloca %"class.std::__1::basic_string"*, align 8
  %118 = alloca i8*, align 8
  %119 = alloca %"class.std::__1::__libcpp_compressed_pair_imp"*, align 8
  %120 = alloca %"class.std::__1::__compressed_pair"*, align 8
  %121 = alloca %"class.std::__1::basic_string"*, align 8
  %122 = alloca i8*, align 8
  %123 = alloca i8*, align 8
  %124 = alloca %"class.std::__1::__libcpp_compressed_pair_imp"*, align 8
  %125 = alloca %"class.std::__1::__compressed_pair"*, align 8
  %126 = alloca %"class.std::__1::basic_string"*, align 8
  %127 = alloca %"class.std::__1::__libcpp_compressed_pair_imp"*, align 8
  %128 = alloca %"class.std::__1::__compressed_pair"*, align 8
  %129 = alloca %"class.std::__1::basic_string"*, align 8
  %130 = alloca %"class.std::__1::basic_string"*, align 8
  %131 = alloca %"class.std::__1::basic_string"*, align 8
  %132 = alloca %"class.std::__1::__libcpp_compressed_pair_imp"*, align 8
  %133 = alloca %"class.std::__1::__compressed_pair"*, align 8
  %134 = alloca %"class.std::__1::basic_string"*, align 8
  %135 = alloca %"class.std::__1::__libcpp_compressed_pair_imp"*, align 8
  %136 = alloca %"class.std::__1::__compressed_pair"*, align 8
  %137 = alloca %"class.std::__1::basic_string"*, align 8
  %138 = alloca %"class.std::__1::__libcpp_compressed_pair_imp"*, align 8
  %139 = alloca %"class.std::__1::__compressed_pair"*, align 8
  %140 = alloca %"class.std::__1::basic_string"*, align 8
  %141 = alloca %"class.std::__1::basic_string"*, align 8
  %142 = alloca %"class.std::__1::__libcpp_compressed_pair_imp"*, align 8
  %143 = alloca %"class.std::__1::__compressed_pair"*, align 8
  %144 = alloca %"class.std::__1::basic_string"*, align 8
  %145 = alloca %"class.std::__1::__libcpp_compressed_pair_imp"*, align 8
  %146 = alloca %"class.std::__1::__compressed_pair"*, align 8
  %147 = alloca %"class.std::__1::basic_string"*, align 8
  %148 = alloca %"class.std::__1::__libcpp_compressed_pair_imp"*, align 8
  %149 = alloca %"class.std::__1::__compressed_pair"*, align 8
  %150 = alloca %"class.std::__1::basic_string"*, align 8
  %151 = alloca %"class.std::__1::basic_string"*, align 8
  %152 = alloca i1, align 1
  %153 = alloca %"class.std::__1::basic_string"*, align 8
  %154 = alloca %"class.std::__1::basic_string"*, align 8
  %155 = alloca i64, align 8
  %156 = alloca i8*, align 8
  %157 = alloca i8*, align 8
  %158 = alloca %"class.std::__1::__wrap_iter"*, align 8
  %159 = alloca %"class.std::__1::__wrap_iter"*, align 8
  %160 = alloca %"class.std::__1::__wrap_iter"*, align 8
  %161 = alloca %"class.std::__1::__wrap_iter"*, align 8
  %162 = alloca %"class.std::__1::__wrap_iter"*, align 8
  %163 = alloca %"class.std::__1::__wrap_iter"*, align 8
  %164 = alloca %"class.std::__1::__wrap_iter"*, align 8
  %165 = alloca %"class.std::__1::__wrap_iter", align 8
  %166 = alloca %"class.std::__1::__wrap_iter", align 8
  %167 = alloca %"class.std::__1::__wrap_iter", align 8
  %168 = alloca %"class.std::__1::basic_string"*, align 8
  %169 = alloca %"class.std::__1::__wrap_iter"*, align 8
  %170 = alloca %"class.std::__1::basic_string"*, align 8
  %171 = alloca %"class.std::__1::__wrap_iter"*, align 8
  %172 = alloca %"class.std::__1::basic_string"*, align 8
  %173 = alloca %"class.std::__1::__wrap_iter", align 8
  %174 = alloca %"class.std::__1::vector"*, align 8
  %175 = alloca %"class.std::__1::basic_string"*, align 8
  %176 = alloca %"class.std::__1::__wrap_iter", align 8
  %177 = alloca %"class.std::__1::vector"*, align 8
  %178 = alloca %"class.std::__1::__wrap_iter"*, align 8
  %179 = alloca %"class.std::__1::basic_string"*, align 8
  %180 = alloca %"class.std::__1::__wrap_iter"*, align 8
  %181 = alloca %"class.std::__1::basic_string"*, align 8
  %182 = alloca %"class.std::__1::__wrap_iter", align 8
  %183 = alloca %"class.std::__1::vector"*, align 8
  %184 = alloca %"class.std::__1::basic_string"*, align 8
  %185 = alloca %"class.std::__1::__wrap_iter", align 8
  %186 = alloca %"class.std::__1::vector"*, align 8
  %187 = alloca %class.DeclStmt*, align 8
  %188 = alloca %"class.std::__1::__wrap_iter", align 8
  %189 = alloca %"class.std::__1::__wrap_iter", align 8
  %190 = alloca %"class.std::__1::__wrap_iter", align 8
  %191 = alloca %"class.std::__1::__wrap_iter", align 8
  %192 = alloca %"class.std::__1::basic_string", align 8
  %193 = alloca i8*
  %194 = alloca i32
  %195 = alloca %"struct.std::__1::pair", align 8
  %196 = alloca i8, align 1
  store %class.DeclStmt* %0, %class.DeclStmt** %187, align 8
  %197 = load %class.DeclStmt*, %class.DeclStmt** %187, align 8
  %198 = getelementptr inbounds %class.DeclStmt, %class.DeclStmt* %197, i32 0, i32 2
  store %"class.std::__1::vector"* %198, %"class.std::__1::vector"** %186, align 8
  %199 = load %"class.std::__1::vector"*, %"class.std::__1::vector"** %186, align 8
  %200 = bitcast %"class.std::__1::vector"* %199 to %"class.std::__1::__vector_base"*
  %201 = getelementptr inbounds %"class.std::__1::__vector_base", %"class.std::__1::__vector_base"* %200, i32 0, i32 0
  %202 = load %"class.std::__1::basic_string"*, %"class.std::__1::basic_string"** %201, align 8
  store %"class.std::__1::vector"* %199, %"class.std::__1::vector"** %183, align 8
  store %"class.std::__1::basic_string"* %202, %"class.std::__1::basic_string"** %184, align 8
  %203 = load %"class.std::__1::vector"*, %"class.std::__1::vector"** %183, align 8
  %204 = load %"class.std::__1::basic_string"*, %"class.std::__1::basic_string"** %184, align 8
  store %"class.std::__1::__wrap_iter"* %182, %"class.std::__1::__wrap_iter"** %180, align 8
  store %"class.std::__1::basic_string"* %204, %"class.std::__1::basic_string"** %181, align 8
  %205 = load %"class.std::__1::__wrap_iter"*, %"class.std::__1::__wrap_iter"** %180, align 8
  %206 = load %"class.std::__1::basic_string"*, %"class.std::__1::basic_string"** %181, align 8
  store %"class.std::__1::__wrap_iter"* %205, %"class.std::__1::__wrap_iter"** %178, align 8
  store %"class.std::__1::basic_string"* %206, %"class.std::__1::basic_string"** %179, align 8
  %207 = load %"class.std::__1::__wrap_iter"*, %"class.std::__1::__wrap_iter"** %178, align 8
  %208 = getelementptr inbounds %"class.std::__1::__wrap_iter", %"class.std::__1::__wrap_iter"* %207, i32 0, i32 0
  %209 = load %"class.std::__1::basic_string"*, %"class.std::__1::basic_string"** %179, align 8
  store %"class.std::__1::basic_string"* %209, %"class.std::__1::basic_string"** %208, align 8
  %210 = getelementptr inbounds %"class.std::__1::__wrap_iter", %"class.std::__1::__wrap_iter"* %182, i32 0, i32 0
  %211 = load %"class.std::__1::basic_string"*, %"class.std::__1::basic_string"** %210, align 8
  %212 = getelementptr inbounds %"class.std::__1::__wrap_iter", %"class.std::__1::__wrap_iter"* %185, i32 0, i32 0
  store %"class.std::__1::basic_string"* %211, %"class.std::__1::basic_string"** %212, align 8
  %213 = getelementptr inbounds %"class.std::__1::__wrap_iter", %"class.std::__1::__wrap_iter"* %185, i32 0, i32 0
  %214 = load %"class.std::__1::basic_string"*, %"class.std::__1::basic_string"** %213, align 8
  %215 = getelementptr inbounds %"class.std::__1::__wrap_iter", %"class.std::__1::__wrap_iter"* %189, i32 0, i32 0
  store %"class.std::__1::basic_string"* %214, %"class.std::__1::basic_string"** %215, align 8
  %216 = getelementptr inbounds %class.DeclStmt, %class.DeclStmt* %197, i32 0, i32 2
  store %"class.std::__1::vector"* %216, %"class.std::__1::vector"** %177, align 8
  %217 = load %"class.std::__1::vector"*, %"class.std::__1::vector"** %177, align 8
  %218 = bitcast %"class.std::__1::vector"* %217 to %"class.std::__1::__vector_base"*
  %219 = getelementptr inbounds %"class.std::__1::__vector_base", %"class.std::__1::__vector_base"* %218, i32 0, i32 1
  %220 = load %"class.std::__1::basic_string"*, %"class.std::__1::basic_string"** %219, align 8
  store %"class.std::__1::vector"* %217, %"class.std::__1::vector"** %174, align 8
  store %"class.std::__1::basic_string"* %220, %"class.std::__1::basic_string"** %175, align 8
  %221 = load %"class.std::__1::vector"*, %"class.std::__1::vector"** %174, align 8
  %222 = load %"class.std::__1::basic_string"*, %"class.std::__1::basic_string"** %175, align 8
  store %"class.std::__1::__wrap_iter"* %173, %"class.std::__1::__wrap_iter"** %171, align 8
  store %"class.std::__1::basic_string"* %222, %"class.std::__1::basic_string"** %172, align 8
  %223 = load %"class.std::__1::__wrap_iter"*, %"class.std::__1::__wrap_iter"** %171, align 8
  %224 = load %"class.std::__1::basic_string"*, %"class.std::__1::basic_string"** %172, align 8
  store %"class.std::__1::__wrap_iter"* %223, %"class.std::__1::__wrap_iter"** %169, align 8
  store %"class.std::__1::basic_string"* %224, %"class.std::__1::basic_string"** %170, align 8
  %225 = load %"class.std::__1::__wrap_iter"*, %"class.std::__1::__wrap_iter"** %169, align 8
  %226 = getelementptr inbounds %"class.std::__1::__wrap_iter", %"class.std::__1::__wrap_iter"* %225, i32 0, i32 0
  %227 = load %"class.std::__1::basic_string"*, %"class.std::__1::basic_string"** %170, align 8
  store %"class.std::__1::basic_string"* %227, %"class.std::__1::basic_string"** %226, align 8
  %228 = getelementptr inbounds %"class.std::__1::__wrap_iter", %"class.std::__1::__wrap_iter"* %173, i32 0, i32 0
  %229 = load %"class.std::__1::basic_string"*, %"class.std::__1::basic_string"** %228, align 8
  %230 = getelementptr inbounds %"class.std::__1::__wrap_iter", %"class.std::__1::__wrap_iter"* %176, i32 0, i32 0
  store %"class.std::__1::basic_string"* %229, %"class.std::__1::basic_string"** %230, align 8
  %231 = getelementptr inbounds %"class.std::__1::__wrap_iter", %"class.std::__1::__wrap_iter"* %176, i32 0, i32 0
  %232 = load %"class.std::__1::basic_string"*, %"class.std::__1::basic_string"** %231, align 8
  %233 = getelementptr inbounds %"class.std::__1::__wrap_iter", %"class.std::__1::__wrap_iter"* %190, i32 0, i32 0
  store %"class.std::__1::basic_string"* %232, %"class.std::__1::basic_string"** %233, align 8
  %234 = getelementptr inbounds %"class.std::__1::__wrap_iter", %"class.std::__1::__wrap_iter"* %189, i32 0, i32 0
  %235 = load %"class.std::__1::basic_string"*, %"class.std::__1::basic_string"** %234, align 8
  %236 = getelementptr inbounds %"class.std::__1::__wrap_iter", %"class.std::__1::__wrap_iter"* %190, i32 0, i32 0
  %237 = load %"class.std::__1::basic_string"*, %"class.std::__1::basic_string"** %236, align 8
  %238 = getelementptr inbounds %"class.std::__1::__wrap_iter", %"class.std::__1::__wrap_iter"* %166, i32 0, i32 0
  store %"class.std::__1::basic_string"* %235, %"class.std::__1::basic_string"** %238, align 8
  %239 = getelementptr inbounds %"class.std::__1::__wrap_iter", %"class.std::__1::__wrap_iter"* %167, i32 0, i32 0
  store %"class.std::__1::basic_string"* %237, %"class.std::__1::basic_string"** %239, align 8
  store %"class.std::__1::basic_string"* %1, %"class.std::__1::basic_string"** %168, align 8
  br label %240

; <label>:240:                                    ; preds = %487, %4
  store %"class.std::__1::__wrap_iter"* %166, %"class.std::__1::__wrap_iter"** %163, align 8
  store %"class.std::__1::__wrap_iter"* %167, %"class.std::__1::__wrap_iter"** %164, align 8
  %241 = load %"class.std::__1::__wrap_iter"*, %"class.std::__1::__wrap_iter"** %163, align 8
  %242 = load %"class.std::__1::__wrap_iter"*, %"class.std::__1::__wrap_iter"** %164, align 8
  store %"class.std::__1::__wrap_iter"* %241, %"class.std::__1::__wrap_iter"** %161, align 8
  store %"class.std::__1::__wrap_iter"* %242, %"class.std::__1::__wrap_iter"** %162, align 8
  %243 = load %"class.std::__1::__wrap_iter"*, %"class.std::__1::__wrap_iter"** %161, align 8
  store %"class.std::__1::__wrap_iter"* %243, %"class.std::__1::__wrap_iter"** %160, align 8
  %244 = load %"class.std::__1::__wrap_iter"*, %"class.std::__1::__wrap_iter"** %160, align 8
  %245 = getelementptr inbounds %"class.std::__1::__wrap_iter", %"class.std::__1::__wrap_iter"* %244, i32 0, i32 0
  %246 = load %"class.std::__1::basic_string"*, %"class.std::__1::basic_string"** %245, align 8
  %247 = load %"class.std::__1::__wrap_iter"*, %"class.std::__1::__wrap_iter"** %162, align 8
  store %"class.std::__1::__wrap_iter"* %247, %"class.std::__1::__wrap_iter"** %159, align 8
  %248 = load %"class.std::__1::__wrap_iter"*, %"class.std::__1::__wrap_iter"** %159, align 8
  %249 = getelementptr inbounds %"class.std::__1::__wrap_iter", %"class.std::__1::__wrap_iter"* %248, i32 0, i32 0
  %250 = load %"class.std::__1::basic_string"*, %"class.std::__1::basic_string"** %249, align 8
  %251 = icmp eq %"class.std::__1::basic_string"* %246, %250
  %252 = xor i1 %251, true
  br i1 %252, label %253, label %492

; <label>:253:                                    ; preds = %240
  store %"class.std::__1::__wrap_iter"* %166, %"class.std::__1::__wrap_iter"** %100, align 8
  %254 = load %"class.std::__1::__wrap_iter"*, %"class.std::__1::__wrap_iter"** %100, align 8
  %255 = getelementptr inbounds %"class.std::__1::__wrap_iter", %"class.std::__1::__wrap_iter"* %254, i32 0, i32 0
  %256 = load %"class.std::__1::basic_string"*, %"class.std::__1::basic_string"** %255, align 8
  %257 = load %"class.std::__1::basic_string"*, %"class.std::__1::basic_string"** %168, align 8
  store %"class.std::__1::basic_string"* %256, %"class.std::__1::basic_string"** %153, align 8
  store %"class.std::__1::basic_string"* %257, %"class.std::__1::basic_string"** %154, align 8
  %258 = load %"class.std::__1::basic_string"*, %"class.std::__1::basic_string"** %153, align 8
  store %"class.std::__1::basic_string"* %258, %"class.std::__1::basic_string"** %151, align 8
  %259 = load %"class.std::__1::basic_string"*, %"class.std::__1::basic_string"** %151, align 8
  store %"class.std::__1::basic_string"* %259, %"class.std::__1::basic_string"** %150, align 8
  %260 = load %"class.std::__1::basic_string"*, %"class.std::__1::basic_string"** %150, align 8
  %261 = getelementptr inbounds %"class.std::__1::basic_string", %"class.std::__1::basic_string"* %260, i32 0, i32 0
  store %"class.std::__1::__compressed_pair"* %261, %"class.std::__1::__compressed_pair"** %149, align 8
  %262 = load %"class.std::__1::__compressed_pair"*, %"class.std::__1::__compressed_pair"** %149, align 8
  %263 = bitcast %"class.std::__1::__compressed_pair"* %262 to %"class.std::__1::__libcpp_compressed_pair_imp"*
  store %"class.std::__1::__libcpp_compressed_pair_imp"* %263, %"class.std::__1::__libcpp_compressed_pair_imp"** %148, align 8
  %264 = load %"class.std::__1::__libcpp_compressed_pair_imp"*, %"class.std::__1::__libcpp_compressed_pair_imp"** %148, align 8
  %265 = getelementptr inbounds %"class.std::__1::__libcpp_compressed_pair_imp", %"class.std::__1::__libcpp_compressed_pair_imp"* %264, i32 0, i32 0
  %266 = getelementptr inbounds %"struct.std::__1::basic_string<char, std::__1::char_traits<char>, std::__1::allocator<char> >::__rep", %"struct.std::__1::basic_string<char, std::__1::char_traits<char>, std::__1::allocator<char> >::__rep"* %265, i32 0, i32 0
  %267 = bitcast %union.anon* %266 to %"struct.std::__1::basic_string<char, std::__1::char_traits<char>, std::__1::allocator<char> >::__short"*
  %268 = getelementptr inbounds %"struct.std::__1::basic_string<char, std::__1::char_traits<char>, std::__1::allocator<char> >::__short", %"struct.std::__1::basic_string<char, std::__1::char_traits<char>, std::__1::allocator<char> >::__short"* %267, i32 0, i32 0
  %269 = bitcast %union.anon.0* %268 to i8*
  %270 = load i8, i8* %269, align 8
  %271 = zext i8 %270 to i32
  %272 = and i32 %271, 1
  %273 = icmp ne i32 %272, 0
  br i1 %273, label %274, label %285

; <label>:274:                                    ; preds = %253
  store %"class.std::__1::basic_string"* %259, %"class.std::__1::basic_string"** %144, align 8
  %275 = load %"class.std::__1::basic_string"*, %"class.std::__1::basic_string"** %144, align 8
  %276 = getelementptr inbounds %"class.std::__1::basic_string", %"class.std::__1::basic_string"* %275, i32 0, i32 0
  store %"class.std::__1::__compressed_pair"* %276, %"class.std::__1::__compressed_pair"** %143, align 8
  %277 = load %"class.std::__1::__compressed_pair"*, %"class.std::__1::__compressed_pair"** %143, align 8
  %278 = bitcast %"class.std::__1::__compressed_pair"* %277 to %"class.std::__1::__libcpp_compressed_pair_imp"*
  store %"class.std::__1::__libcpp_compressed_pair_imp"* %278, %"class.std::__1::__libcpp_compressed_pair_imp"** %142, align 8
  %279 = load %"class.std::__1::__libcpp_compressed_pair_imp"*, %"class.std::__1::__libcpp_compressed_pair_imp"** %142, align 8
  %280 = getelementptr inbounds %"class.std::__1::__libcpp_compressed_pair_imp", %"class.std::__1::__libcpp_compressed_pair_imp"* %279, i32 0, i32 0
  %281 = getelementptr inbounds %"struct.std::__1::basic_string<char, std::__1::char_traits<char>, std::__1::allocator<char> >::__rep", %"struct.std::__1::basic_string<char, std::__1::char_traits<char>, std::__1::allocator<char> >::__rep"* %280, i32 0, i32 0
  %282 = bitcast %union.anon* %281 to %"struct.std::__1::basic_string<char, std::__1::char_traits<char>, std::__1::allocator<char> >::__long"*
  %283 = getelementptr inbounds %"struct.std::__1::basic_string<char, std::__1::char_traits<char>, std::__1::allocator<char> >::__long", %"struct.std::__1::basic_string<char, std::__1::char_traits<char>, std::__1::allocator<char> >::__long"* %282, i32 0, i32 1
  %284 = load i64, i64* %283, align 8
  br label %300

; <label>:285:                                    ; preds = %253
  store %"class.std::__1::basic_string"* %259, %"class.std::__1::basic_string"** %147, align 8
  %286 = load %"class.std::__1::basic_string"*, %"class.std::__1::basic_string"** %147, align 8
  %287 = getelementptr inbounds %"class.std::__1::basic_string", %"class.std::__1::basic_string"* %286, i32 0, i32 0
  store %"class.std::__1::__compressed_pair"* %287, %"class.std::__1::__compressed_pair"** %146, align 8
  %288 = load %"class.std::__1::__compressed_pair"*, %"class.std::__1::__compressed_pair"** %146, align 8
  %289 = bitcast %"class.std::__1::__compressed_pair"* %288 to %"class.std::__1::__libcpp_compressed_pair_imp"*
  store %"class.std::__1::__libcpp_compressed_pair_imp"* %289, %"class.std::__1::__libcpp_compressed_pair_imp"** %145, align 8
  %290 = load %"class.std::__1::__libcpp_compressed_pair_imp"*, %"class.std::__1::__libcpp_compressed_pair_imp"** %145, align 8
  %291 = getelementptr inbounds %"class.std::__1::__libcpp_compressed_pair_imp", %"class.std::__1::__libcpp_compressed_pair_imp"* %290, i32 0, i32 0
  %292 = getelementptr inbounds %"struct.std::__1::basic_string<char, std::__1::char_traits<char>, std::__1::allocator<char> >::__rep", %"struct.std::__1::basic_string<char, std::__1::char_traits<char>, std::__1::allocator<char> >::__rep"* %291, i32 0, i32 0
  %293 = bitcast %union.anon* %292 to %"struct.std::__1::basic_string<char, std::__1::char_traits<char>, std::__1::allocator<char> >::__short"*
  %294 = getelementptr inbounds %"struct.std::__1::basic_string<char, std::__1::char_traits<char>, std::__1::allocator<char> >::__short", %"struct.std::__1::basic_string<char, std::__1::char_traits<char>, std::__1::allocator<char> >::__short"* %293, i32 0, i32 0
  %295 = bitcast %union.anon.0* %294 to i8*
  %296 = load i8, i8* %295, align 8
  %297 = zext i8 %296 to i32
  %298 = ashr i32 %297, 1
  %299 = sext i32 %298 to i64
  br label %300

; <label>:300:                                    ; preds = %285, %274
  %301 = phi i64 [ %284, %274 ], [ %299, %285 ]
  store i64 %301, i64* %155, align 8
  %302 = load i64, i64* %155, align 8
  %303 = load %"class.std::__1::basic_string"*, %"class.std::__1::basic_string"** %154, align 8
  store %"class.std::__1::basic_string"* %303, %"class.std::__1::basic_string"** %141, align 8
  %304 = load %"class.std::__1::basic_string"*, %"class.std::__1::basic_string"** %141, align 8
  store %"class.std::__1::basic_string"* %304, %"class.std::__1::basic_string"** %140, align 8
  %305 = load %"class.std::__1::basic_string"*, %"class.std::__1::basic_string"** %140, align 8
  %306 = getelementptr inbounds %"class.std::__1::basic_string", %"class.std::__1::basic_string"* %305, i32 0, i32 0
  store %"class.std::__1::__compressed_pair"* %306, %"class.std::__1::__compressed_pair"** %139, align 8
  %307 = load %"class.std::__1::__compressed_pair"*, %"class.std::__1::__compressed_pair"** %139, align 8
  %308 = bitcast %"class.std::__1::__compressed_pair"* %307 to %"class.std::__1::__libcpp_compressed_pair_imp"*
  store %"class.std::__1::__libcpp_compressed_pair_imp"* %308, %"class.std::__1::__libcpp_compressed_pair_imp"** %138, align 8
  %309 = load %"class.std::__1::__libcpp_compressed_pair_imp"*, %"class.std::__1::__libcpp_compressed_pair_imp"** %138, align 8
  %310 = getelementptr inbounds %"class.std::__1::__libcpp_compressed_pair_imp", %"class.std::__1::__libcpp_compressed_pair_imp"* %309, i32 0, i32 0
  %311 = getelementptr inbounds %"struct.std::__1::basic_string<char, std::__1::char_traits<char>, std::__1::allocator<char> >::__rep", %"struct.std::__1::basic_string<char, std::__1::char_traits<char>, std::__1::allocator<char> >::__rep"* %310, i32 0, i32 0
  %312 = bitcast %union.anon* %311 to %"struct.std::__1::basic_string<char, std::__1::char_traits<char>, std::__1::allocator<char> >::__short"*
  %313 = getelementptr inbounds %"struct.std::__1::basic_string<char, std::__1::char_traits<char>, std::__1::allocator<char> >::__short", %"struct.std::__1::basic_string<char, std::__1::char_traits<char>, std::__1::allocator<char> >::__short"* %312, i32 0, i32 0
  %314 = bitcast %union.anon.0* %313 to i8*
  %315 = load i8, i8* %314, align 8
  %316 = zext i8 %315 to i32
  %317 = and i32 %316, 1
  %318 = icmp ne i32 %317, 0
  br i1 %318, label %319, label %330

; <label>:319:                                    ; preds = %300
  store %"class.std::__1::basic_string"* %304, %"class.std::__1::basic_string"** %134, align 8
  %320 = load %"class.std::__1::basic_string"*, %"class.std::__1::basic_string"** %134, align 8
  %321 = getelementptr inbounds %"class.std::__1::basic_string", %"class.std::__1::basic_string"* %320, i32 0, i32 0
  store %"class.std::__1::__compressed_pair"* %321, %"class.std::__1::__compressed_pair"** %133, align 8
  %322 = load %"class.std::__1::__compressed_pair"*, %"class.std::__1::__compressed_pair"** %133, align 8
  %323 = bitcast %"class.std::__1::__compressed_pair"* %322 to %"class.std::__1::__libcpp_compressed_pair_imp"*
  store %"class.std::__1::__libcpp_compressed_pair_imp"* %323, %"class.std::__1::__libcpp_compressed_pair_imp"** %132, align 8
  %324 = load %"class.std::__1::__libcpp_compressed_pair_imp"*, %"class.std::__1::__libcpp_compressed_pair_imp"** %132, align 8
  %325 = getelementptr inbounds %"class.std::__1::__libcpp_compressed_pair_imp", %"class.std::__1::__libcpp_compressed_pair_imp"* %324, i32 0, i32 0
  %326 = getelementptr inbounds %"struct.std::__1::basic_string<char, std::__1::char_traits<char>, std::__1::allocator<char> >::__rep", %"struct.std::__1::basic_string<char, std::__1::char_traits<char>, std::__1::allocator<char> >::__rep"* %325, i32 0, i32 0
  %327 = bitcast %union.anon* %326 to %"struct.std::__1::basic_string<char, std::__1::char_traits<char>, std::__1::allocator<char> >::__long"*
  %328 = getelementptr inbounds %"struct.std::__1::basic_string<char, std::__1::char_traits<char>, std::__1::allocator<char> >::__long", %"struct.std::__1::basic_string<char, std::__1::char_traits<char>, std::__1::allocator<char> >::__long"* %327, i32 0, i32 1
  %329 = load i64, i64* %328, align 8
  br label %345

; <label>:330:                                    ; preds = %300
  store %"class.std::__1::basic_string"* %304, %"class.std::__1::basic_string"** %137, align 8
  %331 = load %"class.std::__1::basic_string"*, %"class.std::__1::basic_string"** %137, align 8
  %332 = getelementptr inbounds %"class.std::__1::basic_string", %"class.std::__1::basic_string"* %331, i32 0, i32 0
  store %"class.std::__1::__compressed_pair"* %332, %"class.std::__1::__compressed_pair"** %136, align 8
  %333 = load %"class.std::__1::__compressed_pair"*, %"class.std::__1::__compressed_pair"** %136, align 8
  %334 = bitcast %"class.std::__1::__compressed_pair"* %333 to %"class.std::__1::__libcpp_compressed_pair_imp"*
  store %"class.std::__1::__libcpp_compressed_pair_imp"* %334, %"class.std::__1::__libcpp_compressed_pair_imp"** %135, align 8
  %335 = load %"class.std::__1::__libcpp_compressed_pair_imp"*, %"class.std::__1::__libcpp_compressed_pair_imp"** %135, align 8
  %336 = getelementptr inbounds %"class.std::__1::__libcpp_compressed_pair_imp", %"class.std::__1::__libcpp_compressed_pair_imp"* %335, i32 0, i32 0
  %337 = getelementptr inbounds %"struct.std::__1::basic_string<char, std::__1::char_traits<char>, std::__1::allocator<char> >::__rep", %"struct.std::__1::basic_string<char, std::__1::char_traits<char>, std::__1::allocator<char> >::__rep"* %336, i32 0, i32 0
  %338 = bitcast %union.anon* %337 to %"struct.std::__1::basic_string<char, std::__1::char_traits<char>, std::__1::allocator<char> >::__short"*
  %339 = getelementptr inbounds %"struct.std::__1::basic_string<char, std::__1::char_traits<char>, std::__1::allocator<char> >::__short", %"struct.std::__1::basic_string<char, std::__1::char_traits<char>, std::__1::allocator<char> >::__short"* %338, i32 0, i32 0
  %340 = bitcast %union.anon.0* %339 to i8*
  %341 = load i8, i8* %340, align 8
  %342 = zext i8 %341 to i32
  %343 = ashr i32 %342, 1
  %344 = sext i32 %343 to i64
  br label %345

; <label>:345:                                    ; preds = %330, %319
  %346 = phi i64 [ %329, %319 ], [ %344, %330 ]
  %347 = icmp ne i64 %302, %346
  br i1 %347, label %348, label %349

; <label>:348:                                    ; preds = %345
  store i1 false, i1* %152, align 1
  br label %484

; <label>:349:                                    ; preds = %345
  %350 = load %"class.std::__1::basic_string"*, %"class.std::__1::basic_string"** %153, align 8
  store %"class.std::__1::basic_string"* %350, %"class.std::__1::basic_string"** %131, align 8
  %351 = load %"class.std::__1::basic_string"*, %"class.std::__1::basic_string"** %131, align 8
  store %"class.std::__1::basic_string"* %351, %"class.std::__1::basic_string"** %130, align 8
  %352 = load %"class.std::__1::basic_string"*, %"class.std::__1::basic_string"** %130, align 8
  store %"class.std::__1::basic_string"* %352, %"class.std::__1::basic_string"** %129, align 8
  %353 = load %"class.std::__1::basic_string"*, %"class.std::__1::basic_string"** %129, align 8
  %354 = getelementptr inbounds %"class.std::__1::basic_string", %"class.std::__1::basic_string"* %353, i32 0, i32 0
  store %"class.std::__1::__compressed_pair"* %354, %"class.std::__1::__compressed_pair"** %128, align 8
  %355 = load %"class.std::__1::__compressed_pair"*, %"class.std::__1::__compressed_pair"** %128, align 8
  %356 = bitcast %"class.std::__1::__compressed_pair"* %355 to %"class.std::__1::__libcpp_compressed_pair_imp"*
  store %"class.std::__1::__libcpp_compressed_pair_imp"* %356, %"class.std::__1::__libcpp_compressed_pair_imp"** %127, align 8
  %357 = load %"class.std::__1::__libcpp_compressed_pair_imp"*, %"class.std::__1::__libcpp_compressed_pair_imp"** %127, align 8
  %358 = getelementptr inbounds %"class.std::__1::__libcpp_compressed_pair_imp", %"class.std::__1::__libcpp_compressed_pair_imp"* %357, i32 0, i32 0
  %359 = getelementptr inbounds %"struct.std::__1::basic_string<char, std::__1::char_traits<char>, std::__1::allocator<char> >::__rep", %"struct.std::__1::basic_string<char, std::__1::char_traits<char>, std::__1::allocator<char> >::__rep"* %358, i32 0, i32 0
  %360 = bitcast %union.anon* %359 to %"struct.std::__1::basic_string<char, std::__1::char_traits<char>, std::__1::allocator<char> >::__short"*
  %361 = getelementptr inbounds %"struct.std::__1::basic_string<char, std::__1::char_traits<char>, std::__1::allocator<char> >::__short", %"struct.std::__1::basic_string<char, std::__1::char_traits<char>, std::__1::allocator<char> >::__short"* %360, i32 0, i32 0
  %362 = bitcast %union.anon.0* %361 to i8*
  %363 = load i8, i8* %362, align 8
  %364 = zext i8 %363 to i32
  %365 = and i32 %364, 1
  %366 = icmp ne i32 %365, 0
  br i1 %366, label %367, label %378

; <label>:367:                                    ; preds = %349
  store %"class.std::__1::basic_string"* %352, %"class.std::__1::basic_string"** %121, align 8
  %368 = load %"class.std::__1::basic_string"*, %"class.std::__1::basic_string"** %121, align 8
  %369 = getelementptr inbounds %"class.std::__1::basic_string", %"class.std::__1::basic_string"* %368, i32 0, i32 0
  store %"class.std::__1::__compressed_pair"* %369, %"class.std::__1::__compressed_pair"** %120, align 8
  %370 = load %"class.std::__1::__compressed_pair"*, %"class.std::__1::__compressed_pair"** %120, align 8
  %371 = bitcast %"class.std::__1::__compressed_pair"* %370 to %"class.std::__1::__libcpp_compressed_pair_imp"*
  store %"class.std::__1::__libcpp_compressed_pair_imp"* %371, %"class.std::__1::__libcpp_compressed_pair_imp"** %119, align 8
  %372 = load %"class.std::__1::__libcpp_compressed_pair_imp"*, %"class.std::__1::__libcpp_compressed_pair_imp"** %119, align 8
  %373 = getelementptr inbounds %"class.std::__1::__libcpp_compressed_pair_imp", %"class.std::__1::__libcpp_compressed_pair_imp"* %372, i32 0, i32 0
  %374 = getelementptr inbounds %"struct.std::__1::basic_string<char, std::__1::char_traits<char>, std::__1::allocator<char> >::__rep", %"struct.std::__1::basic_string<char, std::__1::char_traits<char>, std::__1::allocator<char> >::__rep"* %373, i32 0, i32 0
  %375 = bitcast %union.anon* %374 to %"struct.std::__1::basic_string<char, std::__1::char_traits<char>, std::__1::allocator<char> >::__long"*
  %376 = getelementptr inbounds %"struct.std::__1::basic_string<char, std::__1::char_traits<char>, std::__1::allocator<char> >::__long", %"struct.std::__1::basic_string<char, std::__1::char_traits<char>, std::__1::allocator<char> >::__long"* %375, i32 0, i32 2
  %377 = load i8*, i8** %376, align 8
  br label %391

; <label>:378:                                    ; preds = %349
  store %"class.std::__1::basic_string"* %352, %"class.std::__1::basic_string"** %126, align 8
  %379 = load %"class.std::__1::basic_string"*, %"class.std::__1::basic_string"** %126, align 8
  %380 = getelementptr inbounds %"class.std::__1::basic_string", %"class.std::__1::basic_string"* %379, i32 0, i32 0
  store %"class.std::__1::__compressed_pair"* %380, %"class.std::__1::__compressed_pair"** %125, align 8
  %381 = load %"class.std::__1::__compressed_pair"*, %"class.std::__1::__compressed_pair"** %125, align 8
  %382 = bitcast %"class.std::__1::__compressed_pair"* %381 to %"class.std::__1::__libcpp_compressed_pair_imp"*
  store %"class.std::__1::__libcpp_compressed_pair_imp"* %382, %"class.std::__1::__libcpp_compressed_pair_imp"** %124, align 8
  %383 = load %"class.std::__1::__libcpp_compressed_pair_imp"*, %"class.std::__1::__libcpp_compressed_pair_imp"** %124, align 8
  %384 = getelementptr inbounds %"class.std::__1::__libcpp_compressed_pair_imp", %"class.std::__1::__libcpp_compressed_pair_imp"* %383, i32 0, i32 0
  %385 = getelementptr inbounds %"struct.std::__1::basic_string<char, std::__1::char_traits<char>, std::__1::allocator<char> >::__rep", %"struct.std::__1::basic_string<char, std::__1::char_traits<char>, std::__1::allocator<char> >::__rep"* %384, i32 0, i32 0
  %386 = bitcast %union.anon* %385 to %"struct.std::__1::basic_string<char, std::__1::char_traits<char>, std::__1::allocator<char> >::__short"*
  %387 = getelementptr inbounds %"struct.std::__1::basic_string<char, std::__1::char_traits<char>, std::__1::allocator<char> >::__short", %"struct.std::__1::basic_string<char, std::__1::char_traits<char>, std::__1::allocator<char> >::__short"* %386, i32 0, i32 1
  %388 = getelementptr inbounds [23 x i8], [23 x i8]* %387, i64 0, i64 0
  store i8* %388, i8** %123, align 8
  %389 = load i8*, i8** %123, align 8
  store i8* %389, i8** %122, align 8
  %390 = load i8*, i8** %122, align 8
  br label %391

; <label>:391:                                    ; preds = %378, %367
  %392 = phi i8* [ %377, %367 ], [ %390, %378 ]
  store i8* %392, i8** %118, align 8
  %393 = load i8*, i8** %118, align 8
  store i8* %393, i8** %156, align 8
  %394 = load %"class.std::__1::basic_string"*, %"class.std::__1::basic_string"** %154, align 8
  store %"class.std::__1::basic_string"* %394, %"class.std::__1::basic_string"** %114, align 8
  %395 = load %"class.std::__1::basic_string"*, %"class.std::__1::basic_string"** %114, align 8
  store %"class.std::__1::basic_string"* %395, %"class.std::__1::basic_string"** %113, align 8
  %396 = load %"class.std::__1::basic_string"*, %"class.std::__1::basic_string"** %113, align 8
  store %"class.std::__1::basic_string"* %396, %"class.std::__1::basic_string"** %112, align 8
  %397 = load %"class.std::__1::basic_string"*, %"class.std::__1::basic_string"** %112, align 8
  %398 = getelementptr inbounds %"class.std::__1::basic_string", %"class.std::__1::basic_string"* %397, i32 0, i32 0
  store %"class.std::__1::__compressed_pair"* %398, %"class.std::__1::__compressed_pair"** %111, align 8
  %399 = load %"class.std::__1::__compressed_pair"*, %"class.std::__1::__compressed_pair"** %111, align 8
  %400 = bitcast %"class.std::__1::__compressed_pair"* %399 to %"class.std::__1::__libcpp_compressed_pair_imp"*
  store %"class.std::__1::__libcpp_compressed_pair_imp"* %400, %"class.std::__1::__libcpp_compressed_pair_imp"** %110, align 8
  %401 = load %"class.std::__1::__libcpp_compressed_pair_imp"*, %"class.std::__1::__libcpp_compressed_pair_imp"** %110, align 8
  %402 = getelementptr inbounds %"class.std::__1::__libcpp_compressed_pair_imp", %"class.std::__1::__libcpp_compressed_pair_imp"* %401, i32 0, i32 0
  %403 = getelementptr inbounds %"struct.std::__1::basic_string<char, std::__1::char_traits<char>, std::__1::allocator<char> >::__rep", %"struct.std::__1::basic_string<char, std::__1::char_traits<char>, std::__1::allocator<char> >::__rep"* %402, i32 0, i32 0
  %404 = bitcast %union.anon* %403 to %"struct.std::__1::basic_string<char, std::__1::char_traits<char>, std::__1::allocator<char> >::__short"*
  %405 = getelementptr inbounds %"struct.std::__1::basic_string<char, std::__1::char_traits<char>, std::__1::allocator<char> >::__short", %"struct.std::__1::basic_string<char, std::__1::char_traits<char>, std::__1::allocator<char> >::__short"* %404, i32 0, i32 0
  %406 = bitcast %union.anon.0* %405 to i8*
  %407 = load i8, i8* %406, align 8
  %408 = zext i8 %407 to i32
  %409 = and i32 %408, 1
  %410 = icmp ne i32 %409, 0
  br i1 %410, label %411, label %422

; <label>:411:                                    ; preds = %391
  store %"class.std::__1::basic_string"* %396, %"class.std::__1::basic_string"** %104, align 8
  %412 = load %"class.std::__1::basic_string"*, %"class.std::__1::basic_string"** %104, align 8
  %413 = getelementptr inbounds %"class.std::__1::basic_string", %"class.std::__1::basic_string"* %412, i32 0, i32 0
  store %"class.std::__1::__compressed_pair"* %413, %"class.std::__1::__compressed_pair"** %103, align 8
  %414 = load %"class.std::__1::__compressed_pair"*, %"class.std::__1::__compressed_pair"** %103, align 8
  %415 = bitcast %"class.std::__1::__compressed_pair"* %414 to %"class.std::__1::__libcpp_compressed_pair_imp"*
  store %"class.std::__1::__libcpp_compressed_pair_imp"* %415, %"class.std::__1::__libcpp_compressed_pair_imp"** %102, align 8
  %416 = load %"class.std::__1::__libcpp_compressed_pair_imp"*, %"class.std::__1::__libcpp_compressed_pair_imp"** %102, align 8
  %417 = getelementptr inbounds %"class.std::__1::__libcpp_compressed_pair_imp", %"class.std::__1::__libcpp_compressed_pair_imp"* %416, i32 0, i32 0
  %418 = getelementptr inbounds %"struct.std::__1::basic_string<char, std::__1::char_traits<char>, std::__1::allocator<char> >::__rep", %"struct.std::__1::basic_string<char, std::__1::char_traits<char>, std::__1::allocator<char> >::__rep"* %417, i32 0, i32 0
  %419 = bitcast %union.anon* %418 to %"struct.std::__1::basic_string<char, std::__1::char_traits<char>, std::__1::allocator<char> >::__long"*
  %420 = getelementptr inbounds %"struct.std::__1::basic_string<char, std::__1::char_traits<char>, std::__1::allocator<char> >::__long", %"struct.std::__1::basic_string<char, std::__1::char_traits<char>, std::__1::allocator<char> >::__long"* %419, i32 0, i32 2
  %421 = load i8*, i8** %420, align 8
  br label %435

; <label>:422:                                    ; preds = %391
  store %"class.std::__1::basic_string"* %396, %"class.std::__1::basic_string"** %109, align 8
  %423 = load %"class.std::__1::basic_string"*, %"class.std::__1::basic_string"** %109, align 8
  %424 = getelementptr inbounds %"class.std::__1::basic_string", %"class.std::__1::basic_string"* %423, i32 0, i32 0
  store %"class.std::__1::__compressed_pair"* %424, %"class.std::__1::__compressed_pair"** %108, align 8
  %425 = load %"class.std::__1::__compressed_pair"*, %"class.std::__1::__compressed_pair"** %108, align 8
  %426 = bitcast %"class.std::__1::__compressed_pair"* %425 to %"class.std::__1::__libcpp_compressed_pair_imp"*
  store %"class.std::__1::__libcpp_compressed_pair_imp"* %426, %"class.std::__1::__libcpp_compressed_pair_imp"** %107, align 8
  %427 = load %"class.std::__1::__libcpp_compressed_pair_imp"*, %"class.std::__1::__libcpp_compressed_pair_imp"** %107, align 8
  %428 = getelementptr inbounds %"class.std::__1::__libcpp_compressed_pair_imp", %"class.std::__1::__libcpp_compressed_pair_imp"* %427, i32 0, i32 0
  %429 = getelementptr inbounds %"struct.std::__1::basic_string<char, std::__1::char_traits<char>, std::__1::allocator<char> >::__rep", %"struct.std::__1::basic_string<char, std::__1::char_traits<char>, std::__1::allocator<char> >::__rep"* %428, i32 0, i32 0
  %430 = bitcast %union.anon* %429 to %"struct.std::__1::basic_string<char, std::__1::char_traits<char>, std::__1::allocator<char> >::__short"*
  %431 = getelementptr inbounds %"struct.std::__1::basic_string<char, std::__1::char_traits<char>, std::__1::allocator<char> >::__short", %"struct.std::__1::basic_string<char, std::__1::char_traits<char>, std::__1::allocator<char> >::__short"* %430, i32 0, i32 1
  %432 = getelementptr inbounds [23 x i8], [23 x i8]* %431, i64 0, i64 0
  store i8* %432, i8** %106, align 8
  %433 = load i8*, i8** %106, align 8
  store i8* %433, i8** %105, align 8
  %434 = load i8*, i8** %105, align 8
  br label %435

; <label>:435:                                    ; preds = %422, %411
  %436 = phi i8* [ %421, %411 ], [ %434, %422 ]
  store i8* %436, i8** %101, align 8
  %437 = load i8*, i8** %101, align 8
  store i8* %437, i8** %157, align 8
  %438 = load %"class.std::__1::basic_string"*, %"class.std::__1::basic_string"** %153, align 8
  store %"class.std::__1::basic_string"* %438, %"class.std::__1::basic_string"** %117, align 8
  %439 = load %"class.std::__1::basic_string"*, %"class.std::__1::basic_string"** %117, align 8
  %440 = getelementptr inbounds %"class.std::__1::basic_string", %"class.std::__1::basic_string"* %439, i32 0, i32 0
  store %"class.std::__1::__compressed_pair"* %440, %"class.std::__1::__compressed_pair"** %116, align 8
  %441 = load %"class.std::__1::__compressed_pair"*, %"class.std::__1::__compressed_pair"** %116, align 8
  %442 = bitcast %"class.std::__1::__compressed_pair"* %441 to %"class.std::__1::__libcpp_compressed_pair_imp"*
  store %"class.std::__1::__libcpp_compressed_pair_imp"* %442, %"class.std::__1::__libcpp_compressed_pair_imp"** %115, align 8
  %443 = load %"class.std::__1::__libcpp_compressed_pair_imp"*, %"class.std::__1::__libcpp_compressed_pair_imp"** %115, align 8
  %444 = getelementptr inbounds %"class.std::__1::__libcpp_compressed_pair_imp", %"class.std::__1::__libcpp_compressed_pair_imp"* %443, i32 0, i32 0
  %445 = getelementptr inbounds %"struct.std::__1::basic_string<char, std::__1::char_traits<char>, std::__1::allocator<char> >::__rep", %"struct.std::__1::basic_string<char, std::__1::char_traits<char>, std::__1::allocator<char> >::__rep"* %444, i32 0, i32 0
  %446 = bitcast %union.anon* %445 to %"struct.std::__1::basic_string<char, std::__1::char_traits<char>, std::__1::allocator<char> >::__short"*
  %447 = getelementptr inbounds %"struct.std::__1::basic_string<char, std::__1::char_traits<char>, std::__1::allocator<char> >::__short", %"struct.std::__1::basic_string<char, std::__1::char_traits<char>, std::__1::allocator<char> >::__short"* %446, i32 0, i32 0
  %448 = bitcast %union.anon.0* %447 to i8*
  %449 = load i8, i8* %448, align 8
  %450 = zext i8 %449 to i32
  %451 = and i32 %450, 1
  %452 = icmp ne i32 %451, 0
  br i1 %452, label %453, label %460

; <label>:453:                                    ; preds = %435
  %454 = load i8*, i8** %156, align 8
  %455 = load i8*, i8** %157, align 8
  %456 = load i64, i64* %155, align 8
  %457 = invoke i32 @_ZNSt3__111char_traitsIcE7compareEPKcS3_m(i8* %454, i8* %455, i64 %456)
          to label %458 unwind label %481

; <label>:458:                                    ; preds = %453
  %459 = icmp eq i32 %457, 0
  store i1 %459, i1* %152, align 1
  br label %484

; <label>:460:                                    ; preds = %435
  br label %461

; <label>:461:                                    ; preds = %473, %460
  %462 = load i64, i64* %155, align 8
  %463 = icmp ne i64 %462, 0
  br i1 %463, label %464, label %480

; <label>:464:                                    ; preds = %461
  %465 = load i8*, i8** %156, align 8
  %466 = load i8, i8* %465, align 1
  %467 = sext i8 %466 to i32
  %468 = load i8*, i8** %157, align 8
  %469 = load i8, i8* %468, align 1
  %470 = sext i8 %469 to i32
  %471 = icmp ne i32 %467, %470
  br i1 %471, label %472, label %473

; <label>:472:                                    ; preds = %464
  store i1 false, i1* %152, align 1
  br label %484

; <label>:473:                                    ; preds = %464
  %474 = load i64, i64* %155, align 8
  %475 = add i64 %474, -1
  store i64 %475, i64* %155, align 8
  %476 = load i8*, i8** %156, align 8
  %477 = getelementptr inbounds i8, i8* %476, i32 1
  store i8* %477, i8** %156, align 8
  %478 = load i8*, i8** %157, align 8
  %479 = getelementptr inbounds i8, i8* %478, i32 1
  store i8* %479, i8** %157, align 8
  br label %461

; <label>:480:                                    ; preds = %461
  store i1 true, i1* %152, align 1
  br label %484

; <label>:481:                                    ; preds = %453
  %482 = landingpad { i8*, i32 }
          catch i8* null
  %483 = extractvalue { i8*, i32 } %482, 0
  call void @__clang_call_terminate(i8* %483) #13
  unreachable

; <label>:484:                                    ; preds = %480, %472, %458, %348
  %485 = load i1, i1* %152, align 1
  br i1 %485, label %486, label %487

; <label>:486:                                    ; preds = %484
  br label %492

; <label>:487:                                    ; preds = %484
  store %"class.std::__1::__wrap_iter"* %166, %"class.std::__1::__wrap_iter"** %158, align 8
  %488 = load %"class.std::__1::__wrap_iter"*, %"class.std::__1::__wrap_iter"** %158, align 8
  %489 = getelementptr inbounds %"class.std::__1::__wrap_iter", %"class.std::__1::__wrap_iter"* %488, i32 0, i32 0
  %490 = load %"class.std::__1::basic_string"*, %"class.std::__1::basic_string"** %489, align 8
  %491 = getelementptr inbounds %"class.std::__1::basic_string", %"class.std::__1::basic_string"* %490, i32 1
  store %"class.std::__1::basic_string"* %491, %"class.std::__1::basic_string"** %489, align 8
  br label %240

; <label>:492:                                    ; preds = %240, %486
  %493 = bitcast %"class.std::__1::__wrap_iter"* %165 to i8*
  %494 = bitcast %"class.std::__1::__wrap_iter"* %166 to i8*
  call void @llvm.memcpy.p0i8.p0i8.i64(i8* %493, i8* %494, i64 8, i32 8, i1 false) #14
  %495 = getelementptr inbounds %"class.std::__1::__wrap_iter", %"class.std::__1::__wrap_iter"* %165, i32 0, i32 0
  %496 = load %"class.std::__1::basic_string"*, %"class.std::__1::basic_string"** %495, align 8
  %497 = getelementptr inbounds %"class.std::__1::__wrap_iter", %"class.std::__1::__wrap_iter"* %188, i32 0, i32 0
  store %"class.std::__1::basic_string"* %496, %"class.std::__1::basic_string"** %497, align 8
  %498 = getelementptr inbounds %class.DeclStmt, %class.DeclStmt* %197, i32 0, i32 2
  store %"class.std::__1::vector"* %498, %"class.std::__1::vector"** %99, align 8
  %499 = load %"class.std::__1::vector"*, %"class.std::__1::vector"** %99, align 8
  %500 = bitcast %"class.std::__1::vector"* %499 to %"class.std::__1::__vector_base"*
  %501 = getelementptr inbounds %"class.std::__1::__vector_base", %"class.std::__1::__vector_base"* %500, i32 0, i32 1
  %502 = load %"class.std::__1::basic_string"*, %"class.std::__1::basic_string"** %501, align 8
  store %"class.std::__1::vector"* %499, %"class.std::__1::vector"** %96, align 8
  store %"class.std::__1::basic_string"* %502, %"class.std::__1::basic_string"** %97, align 8
  %503 = load %"class.std::__1::vector"*, %"class.std::__1::vector"** %96, align 8
  %504 = load %"class.std::__1::basic_string"*, %"class.std::__1::basic_string"** %97, align 8
  store %"class.std::__1::__wrap_iter"* %95, %"class.std::__1::__wrap_iter"** %93, align 8
  store %"class.std::__1::basic_string"* %504, %"class.std::__1::basic_string"** %94, align 8
  %505 = load %"class.std::__1::__wrap_iter"*, %"class.std::__1::__wrap_iter"** %93, align 8
  %506 = load %"class.std::__1::basic_string"*, %"class.std::__1::basic_string"** %94, align 8
  store %"class.std::__1::__wrap_iter"* %505, %"class.std::__1::__wrap_iter"** %91, align 8
  store %"class.std::__1::basic_string"* %506, %"class.std::__1::basic_string"** %92, align 8
  %507 = load %"class.std::__1::__wrap_iter"*, %"class.std::__1::__wrap_iter"** %91, align 8
  %508 = getelementptr inbounds %"class.std::__1::__wrap_iter", %"class.std::__1::__wrap_iter"* %507, i32 0, i32 0
  %509 = load %"class.std::__1::basic_string"*, %"class.std::__1::basic_string"** %92, align 8
  store %"class.std::__1::basic_string"* %509, %"class.std::__1::basic_string"** %508, align 8
  %510 = getelementptr inbounds %"class.std::__1::__wrap_iter", %"class.std::__1::__wrap_iter"* %95, i32 0, i32 0
  %511 = load %"class.std::__1::basic_string"*, %"class.std::__1::basic_string"** %510, align 8
  %512 = getelementptr inbounds %"class.std::__1::__wrap_iter", %"class.std::__1::__wrap_iter"* %98, i32 0, i32 0
  store %"class.std::__1::basic_string"* %511, %"class.std::__1::basic_string"** %512, align 8
  %513 = getelementptr inbounds %"class.std::__1::__wrap_iter", %"class.std::__1::__wrap_iter"* %98, i32 0, i32 0
  %514 = load %"class.std::__1::basic_string"*, %"class.std::__1::basic_string"** %513, align 8
  %515 = getelementptr inbounds %"class.std::__1::__wrap_iter", %"class.std::__1::__wrap_iter"* %191, i32 0, i32 0
  store %"class.std::__1::basic_string"* %514, %"class.std::__1::basic_string"** %515, align 8
  store %"class.std::__1::__wrap_iter"* %188, %"class.std::__1::__wrap_iter"** %89, align 8
  store %"class.std::__1::__wrap_iter"* %191, %"class.std::__1::__wrap_iter"** %90, align 8
  %516 = load %"class.std::__1::__wrap_iter"*, %"class.std::__1::__wrap_iter"** %89, align 8
  %517 = load %"class.std::__1::__wrap_iter"*, %"class.std::__1::__wrap_iter"** %90, align 8
  store %"class.std::__1::__wrap_iter"* %516, %"class.std::__1::__wrap_iter"** %87, align 8
  store %"class.std::__1::__wrap_iter"* %517, %"class.std::__1::__wrap_iter"** %88, align 8
  %518 = load %"class.std::__1::__wrap_iter"*, %"class.std::__1::__wrap_iter"** %87, align 8
  store %"class.std::__1::__wrap_iter"* %518, %"class.std::__1::__wrap_iter"** %86, align 8
  %519 = load %"class.std::__1::__wrap_iter"*, %"class.std::__1::__wrap_iter"** %86, align 8
  %520 = getelementptr inbounds %"class.std::__1::__wrap_iter", %"class.std::__1::__wrap_iter"* %519, i32 0, i32 0
  %521 = load %"class.std::__1::basic_string"*, %"class.std::__1::basic_string"** %520, align 8
  %522 = load %"class.std::__1::__wrap_iter"*, %"class.std::__1::__wrap_iter"** %88, align 8
  store %"class.std::__1::__wrap_iter"* %522, %"class.std::__1::__wrap_iter"** %85, align 8
  %523 = load %"class.std::__1::__wrap_iter"*, %"class.std::__1::__wrap_iter"** %85, align 8
  %524 = getelementptr inbounds %"class.std::__1::__wrap_iter", %"class.std::__1::__wrap_iter"* %523, i32 0, i32 0
  %525 = load %"class.std::__1::basic_string"*, %"class.std::__1::basic_string"** %524, align 8
  %526 = icmp eq %"class.std::__1::basic_string"* %521, %525
  %527 = xor i1 %526, true
  br i1 %527, label %528, label %534

; <label>:528:                                    ; preds = %492
  call void @_ZNSt3__1plIcNS_11char_traitsIcEENS_9allocatorIcEEEENS_12basic_stringIT_T0_T1_EEPKS6_RKS9_(%"class.std::__1::basic_string"* sret %192, i8* getelementptr inbounds ([37 x i8], [37 x i8]* @.str, i32 0, i32 0), %"class.std::__1::basic_string"* dereferenceable(24) %1)
  invoke void @_ZN10ParseError5raiseE11ParseErrorsNSt3__112basic_stringIcNS1_11char_traitsIcEENS1_9allocatorIcEEEEP5Lexer(i32 0, %"class.std::__1::basic_string"* %192, %class.Lexer* null)
          to label %529 unwind label %530

; <label>:529:                                    ; preds = %528
  call void @_ZNSt3__112basic_stringIcNS_11char_traitsIcEENS_9allocatorIcEEED1Ev(%"class.std::__1::basic_string"* %192) #14
  br label %534

; <label>:530:                                    ; preds = %528
  %531 = landingpad { i8*, i32 }
          cleanup
  %532 = extractvalue { i8*, i32 } %531, 0
  store i8* %532, i8** %193, align 8
  %533 = extractvalue { i8*, i32 } %531, 1
  store i32 %533, i32* %194, align 4
  call void @_ZNSt3__112basic_stringIcNS_11char_traitsIcEENS_9allocatorIcEEED1Ev(%"class.std::__1::basic_string"* %192) #14
  br label %726

; <label>:534:                                    ; preds = %529, %492
  %535 = getelementptr inbounds %class.DeclStmt, %class.DeclStmt* %197, i32 0, i32 3
  store %"struct.std::__1::pair"* %195, %"struct.std::__1::pair"** %57, align 8
  store %"class.std::__1::shared_ptr.41"* %2, %"class.std::__1::shared_ptr.41"** %58, align 8
  store %"class.std::__1::shared_ptr"* %3, %"class.std::__1::shared_ptr"** %59, align 8
  %536 = load %"struct.std::__1::pair"*, %"struct.std::__1::pair"** %57, align 8
  %537 = load %"class.std::__1::shared_ptr.41"*, %"class.std::__1::shared_ptr.41"** %58, align 8
  %538 = load %"class.std::__1::shared_ptr"*, %"class.std::__1::shared_ptr"** %59, align 8
  store %"struct.std::__1::pair"* %536, %"struct.std::__1::pair"** %54, align 8
  store %"class.std::__1::shared_ptr.41"* %537, %"class.std::__1::shared_ptr.41"** %55, align 8
  store %"class.std::__1::shared_ptr"* %538, %"class.std::__1::shared_ptr"** %56, align 8
  %539 = load %"struct.std::__1::pair"*, %"struct.std::__1::pair"** %54, align 8
  %540 = getelementptr inbounds %"struct.std::__1::pair", %"struct.std::__1::pair"* %539, i32 0, i32 0
  %541 = load %"class.std::__1::shared_ptr.41"*, %"class.std::__1::shared_ptr.41"** %55, align 8
  store %"class.std::__1::shared_ptr.41"* %541, %"class.std::__1::shared_ptr.41"** %53, align 8
  %542 = load %"class.std::__1::shared_ptr.41"*, %"class.std::__1::shared_ptr.41"** %53, align 8
  store %"class.std::__1::shared_ptr.41"* %540, %"class.std::__1::shared_ptr.41"** %47, align 8
  store %"class.std::__1::shared_ptr.41"* %542, %"class.std::__1::shared_ptr.41"** %48, align 8
  %543 = load %"class.std::__1::shared_ptr.41"*, %"class.std::__1::shared_ptr.41"** %47, align 8
  %544 = load %"class.std::__1::shared_ptr.41"*, %"class.std::__1::shared_ptr.41"** %48, align 8
  store %"class.std::__1::shared_ptr.41"* %543, %"class.std::__1::shared_ptr.41"** %45, align 8
  store %"class.std::__1::shared_ptr.41"* %544, %"class.std::__1::shared_ptr.41"** %46, align 8
  %545 = load %"class.std::__1::shared_ptr.41"*, %"class.std::__1::shared_ptr.41"** %45, align 8
  %546 = getelementptr inbounds %"class.std::__1::shared_ptr.41", %"class.std::__1::shared_ptr.41"* %545, i32 0, i32 0
  %547 = load %"class.std::__1::shared_ptr.41"*, %"class.std::__1::shared_ptr.41"** %46, align 8
  %548 = getelementptr inbounds %"class.std::__1::shared_ptr.41", %"class.std::__1::shared_ptr.41"* %547, i32 0, i32 0
  %549 = load %class.TypeRef*, %class.TypeRef** %548, align 8
  store %class.TypeRef* %549, %class.TypeRef** %546, align 8
  %550 = getelementptr inbounds %"class.std::__1::shared_ptr.41", %"class.std::__1::shared_ptr.41"* %545, i32 0, i32 1
  %551 = load %"class.std::__1::shared_ptr.41"*, %"class.std::__1::shared_ptr.41"** %46, align 8
  %552 = getelementptr inbounds %"class.std::__1::shared_ptr.41", %"class.std::__1::shared_ptr.41"* %551, i32 0, i32 1
  %553 = load %"class.std::__1::__shared_weak_count"*, %"class.std::__1::__shared_weak_count"** %552, align 8
  store %"class.std::__1::__shared_weak_count"* %553, %"class.std::__1::__shared_weak_count"** %550, align 8
  %554 = getelementptr inbounds %"class.std::__1::shared_ptr.41", %"class.std::__1::shared_ptr.41"* %545, i32 0, i32 1
  %555 = load %"class.std::__1::__shared_weak_count"*, %"class.std::__1::__shared_weak_count"** %554, align 8
  %556 = icmp ne %"class.std::__1::__shared_weak_count"* %555, null
  br i1 %556, label %557, label %560

; <label>:557:                                    ; preds = %534
  %558 = getelementptr inbounds %"class.std::__1::shared_ptr.41", %"class.std::__1::shared_ptr.41"* %545, i32 0, i32 1
  %559 = load %"class.std::__1::__shared_weak_count"*, %"class.std::__1::__shared_weak_count"** %558, align 8
  call void @_ZNSt3__119__shared_weak_count12__add_sharedEv(%"class.std::__1::__shared_weak_count"* %559) #14
  br label %560

; <label>:560:                                    ; preds = %557, %534
  %561 = getelementptr inbounds %"struct.std::__1::pair", %"struct.std::__1::pair"* %539, i32 0, i32 1
  %562 = load %"class.std::__1::shared_ptr"*, %"class.std::__1::shared_ptr"** %56, align 8
  store %"class.std::__1::shared_ptr"* %562, %"class.std::__1::shared_ptr"** %44, align 8
  %563 = load %"class.std::__1::shared_ptr"*, %"class.std::__1::shared_ptr"** %44, align 8
  store %"class.std::__1::shared_ptr"* %561, %"class.std::__1::shared_ptr"** %51, align 8
  store %"class.std::__1::shared_ptr"* %563, %"class.std::__1::shared_ptr"** %52, align 8
  %564 = load %"class.std::__1::shared_ptr"*, %"class.std::__1::shared_ptr"** %51, align 8
  %565 = load %"class.std::__1::shared_ptr"*, %"class.std::__1::shared_ptr"** %52, align 8
  store %"class.std::__1::shared_ptr"* %564, %"class.std::__1::shared_ptr"** %49, align 8
  store %"class.std::__1::shared_ptr"* %565, %"class.std::__1::shared_ptr"** %50, align 8
  %566 = load %"class.std::__1::shared_ptr"*, %"class.std::__1::shared_ptr"** %49, align 8
  %567 = getelementptr inbounds %"class.std::__1::shared_ptr", %"class.std::__1::shared_ptr"* %566, i32 0, i32 0
  %568 = load %"class.std::__1::shared_ptr"*, %"class.std::__1::shared_ptr"** %50, align 8
  %569 = getelementptr inbounds %"class.std::__1::shared_ptr", %"class.std::__1::shared_ptr"* %568, i32 0, i32 0
  %570 = load %class.Expression*, %class.Expression** %569, align 8
  store %class.Expression* %570, %class.Expression** %567, align 8
  %571 = getelementptr inbounds %"class.std::__1::shared_ptr", %"class.std::__1::shared_ptr"* %566, i32 0, i32 1
  %572 = load %"class.std::__1::shared_ptr"*, %"class.std::__1::shared_ptr"** %50, align 8
  %573 = getelementptr inbounds %"class.std::__1::shared_ptr", %"class.std::__1::shared_ptr"* %572, i32 0, i32 1
  %574 = load %"class.std::__1::__shared_weak_count"*, %"class.std::__1::__shared_weak_count"** %573, align 8
  store %"class.std::__1::__shared_weak_count"* %574, %"class.std::__1::__shared_weak_count"** %571, align 8
  %575 = getelementptr inbounds %"class.std::__1::shared_ptr", %"class.std::__1::shared_ptr"* %566, i32 0, i32 1
  %576 = load %"class.std::__1::__shared_weak_count"*, %"class.std::__1::__shared_weak_count"** %575, align 8
  %577 = icmp ne %"class.std::__1::__shared_weak_count"* %576, null
  br i1 %577, label %578, label %581

; <label>:578:                                    ; preds = %560
  %579 = getelementptr inbounds %"class.std::__1::shared_ptr", %"class.std::__1::shared_ptr"* %566, i32 0, i32 1
  %580 = load %"class.std::__1::__shared_weak_count"*, %"class.std::__1::__shared_weak_count"** %579, align 8
  call void @_ZNSt3__119__shared_weak_count12__add_sharedEv(%"class.std::__1::__shared_weak_count"* %580) #14
  br label %581

; <label>:581:                                    ; preds = %560, %578
  store %"class.std::__1::vector.26"* %535, %"class.std::__1::vector.26"** %41, align 8
  store %"struct.std::__1::pair"* %195, %"struct.std::__1::pair"** %42, align 8
  %582 = load %"class.std::__1::vector.26"*, %"class.std::__1::vector.26"** %41, align 8
  %583 = bitcast %"class.std::__1::vector.26"* %582 to %"class.std::__1::__vector_base.27"*
  %584 = getelementptr inbounds %"class.std::__1::__vector_base.27", %"class.std::__1::__vector_base.27"* %583, i32 0, i32 1
  %585 = load %"struct.std::__1::pair"*, %"struct.std::__1::pair"** %584, align 8
  %586 = bitcast %"class.std::__1::vector.26"* %582 to %"class.std::__1::__vector_base.27"*
  store %"class.std::__1::__vector_base.27"* %586, %"class.std::__1::__vector_base.27"** %40, align 8
  %587 = load %"class.std::__1::__vector_base.27"*, %"class.std::__1::__vector_base.27"** %40, align 8
  %588 = getelementptr inbounds %"class.std::__1::__vector_base.27", %"class.std::__1::__vector_base.27"* %587, i32 0, i32 2
  store %"class.std::__1::__compressed_pair.28"* %588, %"class.std::__1::__compressed_pair.28"** %39, align 8
  %589 = load %"class.std::__1::__compressed_pair.28"*, %"class.std::__1::__compressed_pair.28"** %39, align 8
  %590 = bitcast %"class.std::__1::__compressed_pair.28"* %589 to %"class.std::__1::__libcpp_compressed_pair_imp.29"*
  store %"class.std::__1::__libcpp_compressed_pair_imp.29"* %590, %"class.std::__1::__libcpp_compressed_pair_imp.29"** %38, align 8
  %591 = load %"class.std::__1::__libcpp_compressed_pair_imp.29"*, %"class.std::__1::__libcpp_compressed_pair_imp.29"** %38, align 8
  %592 = getelementptr inbounds %"class.std::__1::__libcpp_compressed_pair_imp.29", %"class.std::__1::__libcpp_compressed_pair_imp.29"* %591, i32 0, i32 0
  %593 = load %"struct.std::__1::pair"*, %"struct.std::__1::pair"** %592, align 8
  %594 = icmp ult %"struct.std::__1::pair"* %585, %593
  br i1 %594, label %595, label %667

; <label>:595:                                    ; preds = %581
  invoke void @_ZNSt3__16vectorINS_4pairINS_10shared_ptrI7TypeRefEENS2_I10ExpressionEEEENS_9allocatorIS7_EEE24__RAII_IncreaseAnnotatorC1ERKSA_m(%"struct.std::__1::vector<std::__1::pair<std::__1::shared_ptr<TypeRef>, std::__1::shared_ptr<Expression> >, std::__1::allocator<std::__1::pair<std::__1::shared_ptr<TypeRef>, std::__1::shared_ptr<Expression> > > >::__RAII_IncreaseAnnotator"* %43, %"class.std::__1::vector.26"* dereferenceable(24) %582, i64 1)
          to label %596 unwind label %722

; <label>:596:                                    ; preds = %595
  %597 = bitcast %"class.std::__1::vector.26"* %582 to %"class.std::__1::__vector_base.27"*
  store %"class.std::__1::__vector_base.27"* %597, %"class.std::__1::__vector_base.27"** %37, align 8
  %598 = load %"class.std::__1::__vector_base.27"*, %"class.std::__1::__vector_base.27"** %37, align 8
  %599 = getelementptr inbounds %"class.std::__1::__vector_base.27", %"class.std::__1::__vector_base.27"* %598, i32 0, i32 2
  store %"class.std::__1::__compressed_pair.28"* %599, %"class.std::__1::__compressed_pair.28"** %36, align 8
  %600 = load %"class.std::__1::__compressed_pair.28"*, %"class.std::__1::__compressed_pair.28"** %36, align 8
  %601 = bitcast %"class.std::__1::__compressed_pair.28"* %600 to %"class.std::__1::__libcpp_compressed_pair_imp.29"*
  store %"class.std::__1::__libcpp_compressed_pair_imp.29"* %601, %"class.std::__1::__libcpp_compressed_pair_imp.29"** %35, align 8
  %602 = load %"class.std::__1::__libcpp_compressed_pair_imp.29"*, %"class.std::__1::__libcpp_compressed_pair_imp.29"** %35, align 8
  %603 = bitcast %"class.std::__1::__libcpp_compressed_pair_imp.29"* %602 to %"class.std::__1::allocator.30"*
  %604 = bitcast %"class.std::__1::vector.26"* %582 to %"class.std::__1::__vector_base.27"*
  %605 = getelementptr inbounds %"class.std::__1::__vector_base.27", %"class.std::__1::__vector_base.27"* %604, i32 0, i32 1
  %606 = load %"struct.std::__1::pair"*, %"struct.std::__1::pair"** %605, align 8
  store %"struct.std::__1::pair"* %606, %"struct.std::__1::pair"** %33, align 8
  %607 = load %"struct.std::__1::pair"*, %"struct.std::__1::pair"** %33, align 8
  %608 = load %"struct.std::__1::pair"*, %"struct.std::__1::pair"** %42, align 8
  store %"struct.std::__1::pair"* %608, %"struct.std::__1::pair"** %5, align 8
  %609 = load %"struct.std::__1::pair"*, %"struct.std::__1::pair"** %5, align 8
  store %"class.std::__1::allocator.30"* %603, %"class.std::__1::allocator.30"** %28, align 8
  store %"struct.std::__1::pair"* %607, %"struct.std::__1::pair"** %29, align 8
  store %"struct.std::__1::pair"* %609, %"struct.std::__1::pair"** %30, align 8
  %610 = bitcast %"struct.std::__1::__has_construct.292"* %32 to %"struct.std::__1::integral_constant"*
  %611 = load %"class.std::__1::allocator.30"*, %"class.std::__1::allocator.30"** %28, align 8
  %612 = load %"struct.std::__1::pair"*, %"struct.std::__1::pair"** %29, align 8
  %613 = load %"struct.std::__1::pair"*, %"struct.std::__1::pair"** %30, align 8
  store %"struct.std::__1::pair"* %613, %"struct.std::__1::pair"** %27, align 8
  %614 = load %"struct.std::__1::pair"*, %"struct.std::__1::pair"** %27, align 8
  store %"class.std::__1::allocator.30"* %611, %"class.std::__1::allocator.30"** %24, align 8
  store %"struct.std::__1::pair"* %612, %"struct.std::__1::pair"** %25, align 8
  store %"struct.std::__1::pair"* %614, %"struct.std::__1::pair"** %26, align 8
  %615 = load %"class.std::__1::allocator.30"*, %"class.std::__1::allocator.30"** %24, align 8
  %616 = load %"struct.std::__1::pair"*, %"struct.std::__1::pair"** %25, align 8
  %617 = load %"struct.std::__1::pair"*, %"struct.std::__1::pair"** %26, align 8
  store %"struct.std::__1::pair"* %617, %"struct.std::__1::pair"** %22, align 8
  %618 = load %"struct.std::__1::pair"*, %"struct.std::__1::pair"** %22, align 8
  store %"class.std::__1::allocator.30"* %615, %"class.std::__1::allocator.30"** %19, align 8
  store %"struct.std::__1::pair"* %616, %"struct.std::__1::pair"** %20, align 8
  store %"struct.std::__1::pair"* %618, %"struct.std::__1::pair"** %21, align 8
  %619 = load %"class.std::__1::allocator.30"*, %"class.std::__1::allocator.30"** %19, align 8
  %620 = load %"struct.std::__1::pair"*, %"struct.std::__1::pair"** %20, align 8
  %621 = bitcast %"struct.std::__1::pair"* %620 to i8*
  %622 = load %"struct.std::__1::pair"*, %"struct.std::__1::pair"** %21, align 8
  store %"struct.std::__1::pair"* %622, %"struct.std::__1::pair"** %18, align 8
  %623 = load %"struct.std::__1::pair"*, %"struct.std::__1::pair"** %18, align 8
  store %"struct.std::__1::pair"* %620, %"struct.std::__1::pair"** %16, align 8
  store %"struct.std::__1::pair"* %623, %"struct.std::__1::pair"** %17, align 8
  %624 = load %"struct.std::__1::pair"*, %"struct.std::__1::pair"** %16, align 8
  %625 = load %"struct.std::__1::pair"*, %"struct.std::__1::pair"** %17, align 8
  store %"struct.std::__1::pair"* %624, %"struct.std::__1::pair"** %14, align 8
  store %"struct.std::__1::pair"* %625, %"struct.std::__1::pair"** %15, align 8
  %626 = load %"struct.std::__1::pair"*, %"struct.std::__1::pair"** %14, align 8
  %627 = getelementptr inbounds %"struct.std::__1::pair", %"struct.std::__1::pair"* %626, i32 0, i32 0
  %628 = load %"struct.std::__1::pair"*, %"struct.std::__1::pair"** %15, align 8
  %629 = getelementptr inbounds %"struct.std::__1::pair", %"struct.std::__1::pair"* %628, i32 0, i32 0
  store %"class.std::__1::shared_ptr.41"* %627, %"class.std::__1::shared_ptr.41"** %12, align 8
  store %"class.std::__1::shared_ptr.41"* %629, %"class.std::__1::shared_ptr.41"** %13, align 8
  %630 = load %"class.std::__1::shared_ptr.41"*, %"class.std::__1::shared_ptr.41"** %12, align 8
  %631 = load %"class.std::__1::shared_ptr.41"*, %"class.std::__1::shared_ptr.41"** %13, align 8
  store %"class.std::__1::shared_ptr.41"* %630, %"class.std::__1::shared_ptr.41"** %10, align 8
  store %"class.std::__1::shared_ptr.41"* %631, %"class.std::__1::shared_ptr.41"** %11, align 8
  %632 = load %"class.std::__1::shared_ptr.41"*, %"class.std::__1::shared_ptr.41"** %10, align 8
  %633 = getelementptr inbounds %"class.std::__1::shared_ptr.41", %"class.std::__1::shared_ptr.41"* %632, i32 0, i32 0
  %634 = load %"class.std::__1::shared_ptr.41"*, %"class.std::__1::shared_ptr.41"** %11, align 8
  %635 = getelementptr inbounds %"class.std::__1::shared_ptr.41", %"class.std::__1::shared_ptr.41"* %634, i32 0, i32 0
  %636 = load %class.TypeRef*, %class.TypeRef** %635, align 8
  store %class.TypeRef* %636, %class.TypeRef** %633, align 8
  %637 = getelementptr inbounds %"class.std::__1::shared_ptr.41", %"class.std::__1::shared_ptr.41"* %632, i32 0, i32 1
  %638 = load %"class.std::__1::shared_ptr.41"*, %"class.std::__1::shared_ptr.41"** %11, align 8
  %639 = getelementptr inbounds %"class.std::__1::shared_ptr.41", %"class.std::__1::shared_ptr.41"* %638, i32 0, i32 1
  %640 = load %"class.std::__1::__shared_weak_count"*, %"class.std::__1::__shared_weak_count"** %639, align 8
  store %"class.std::__1::__shared_weak_count"* %640, %"class.std::__1::__shared_weak_count"** %637, align 8
  %641 = load %"class.std::__1::shared_ptr.41"*, %"class.std::__1::shared_ptr.41"** %11, align 8
  %642 = getelementptr inbounds %"class.std::__1::shared_ptr.41", %"class.std::__1::shared_ptr.41"* %641, i32 0, i32 0
  store %class.TypeRef* null, %class.TypeRef** %642, align 8
  %643 = load %"class.std::__1::shared_ptr.41"*, %"class.std::__1::shared_ptr.41"** %11, align 8
  %644 = getelementptr inbounds %"class.std::__1::shared_ptr.41", %"class.std::__1::shared_ptr.41"* %643, i32 0, i32 1
  store %"class.std::__1::__shared_weak_count"* null, %"class.std::__1::__shared_weak_count"** %644, align 8
  %645 = getelementptr inbounds %"struct.std::__1::pair", %"struct.std::__1::pair"* %626, i32 0, i32 1
  %646 = load %"struct.std::__1::pair"*, %"struct.std::__1::pair"** %15, align 8
  %647 = getelementptr inbounds %"struct.std::__1::pair", %"struct.std::__1::pair"* %646, i32 0, i32 1
  store %"class.std::__1::shared_ptr"* %645, %"class.std::__1::shared_ptr"** %8, align 8
  store %"class.std::__1::shared_ptr"* %647, %"class.std::__1::shared_ptr"** %9, align 8
  %648 = load %"class.std::__1::shared_ptr"*, %"class.std::__1::shared_ptr"** %8, align 8
  %649 = load %"class.std::__1::shared_ptr"*, %"class.std::__1::shared_ptr"** %9, align 8
  store %"class.std::__1::shared_ptr"* %648, %"class.std::__1::shared_ptr"** %6, align 8
  store %"class.std::__1::shared_ptr"* %649, %"class.std::__1::shared_ptr"** %7, align 8
  %650 = load %"class.std::__1::shared_ptr"*, %"class.std::__1::shared_ptr"** %6, align 8
  %651 = getelementptr inbounds %"class.std::__1::shared_ptr", %"class.std::__1::shared_ptr"* %650, i32 0, i32 0
  %652 = load %"class.std::__1::shared_ptr"*, %"class.std::__1::shared_ptr"** %7, align 8
  %653 = getelementptr inbounds %"class.std::__1::shared_ptr", %"class.std::__1::shared_ptr"* %652, i32 0, i32 0
  %654 = load %class.Expression*, %class.Expression** %653, align 8
  store %class.Expression* %654, %class.Expression** %651, align 8
  %655 = getelementptr inbounds %"class.std::__1::shared_ptr", %"class.std::__1::shared_ptr"* %650, i32 0, i32 1
  %656 = load %"class.std::__1::shared_ptr"*, %"class.std::__1::shared_ptr"** %7, align 8
  %657 = getelementptr inbounds %"class.std::__1::shared_ptr", %"class.std::__1::shared_ptr"* %656, i32 0, i32 1
  %658 = load %"class.std::__1::__shared_weak_count"*, %"class.std::__1::__shared_weak_count"** %657, align 8
  store %"class.std::__1::__shared_weak_count"* %658, %"class.std::__1::__shared_weak_count"** %655, align 8
  %659 = load %"class.std::__1::shared_ptr"*, %"class.std::__1::shared_ptr"** %7, align 8
  %660 = getelementptr inbounds %"class.std::__1::shared_ptr", %"class.std::__1::shared_ptr"* %659, i32 0, i32 0
  store %class.Expression* null, %class.Expression** %660, align 8
  %661 = load %"class.std::__1::shared_ptr"*, %"class.std::__1::shared_ptr"** %7, align 8
  %662 = getelementptr inbounds %"class.std::__1::shared_ptr", %"class.std::__1::shared_ptr"* %661, i32 0, i32 1
  store %"class.std::__1::__shared_weak_count"* null, %"class.std::__1::__shared_weak_count"** %662, align 8
  call void @_ZNSt3__16vectorINS_4pairINS_10shared_ptrI7TypeRefEENS2_I10ExpressionEEEENS_9allocatorIS7_EEE24__RAII_IncreaseAnnotator6__doneEv(%"struct.std::__1::vector<std::__1::pair<std::__1::shared_ptr<TypeRef>, std::__1::shared_ptr<Expression> >, std::__1::allocator<std::__1::pair<std::__1::shared_ptr<TypeRef>, std::__1::shared_ptr<Expression> > > >::__RAII_IncreaseAnnotator"* %43)
  %663 = bitcast %"class.std::__1::vector.26"* %582 to %"class.std::__1::__vector_base.27"*
  %664 = getelementptr inbounds %"class.std::__1::__vector_base.27", %"class.std::__1::__vector_base.27"* %663, i32 0, i32 1
  %665 = load %"struct.std::__1::pair"*, %"struct.std::__1::pair"** %664, align 8
  %666 = getelementptr inbounds %"struct.std::__1::pair", %"struct.std::__1::pair"* %665, i32 1
  store %"struct.std::__1::pair"* %666, %"struct.std::__1::pair"** %664, align 8
  br label %671

; <label>:667:                                    ; preds = %581
  %668 = load %"struct.std::__1::pair"*, %"struct.std::__1::pair"** %42, align 8
  store %"struct.std::__1::pair"* %668, %"struct.std::__1::pair"** %34, align 8
  %669 = load %"struct.std::__1::pair"*, %"struct.std::__1::pair"** %34, align 8
  invoke void @_ZNSt3__16vectorINS_4pairINS_10shared_ptrI7TypeRefEENS2_I10ExpressionEEEENS_9allocatorIS7_EEE21__push_back_slow_pathIS7_EEvOT_(%"class.std::__1::vector.26"* %582, %"struct.std::__1::pair"* dereferenceable(32) %669)
          to label %670 unwind label %722

; <label>:670:                                    ; preds = %667
  br label %671

; <label>:671:                                    ; preds = %596, %670
  br label %672

; <label>:672:                                    ; preds = %671
  call void @_ZNSt3__14pairINS_10shared_ptrI7TypeRefEENS1_I10ExpressionEEED1Ev(%"struct.std::__1::pair"* %195) #14
  %673 = getelementptr inbounds %class.DeclStmt, %class.DeclStmt* %197, i32 0, i32 2
  store %"class.std::__1::vector"* %673, %"class.std::__1::vector"** %82, align 8
  store %"class.std::__1::basic_string"* %1, %"class.std::__1::basic_string"** %83, align 8
  %674 = load %"class.std::__1::vector"*, %"class.std::__1::vector"** %82, align 8
  %675 = bitcast %"class.std::__1::vector"* %674 to %"class.std::__1::__vector_base"*
  %676 = getelementptr inbounds %"class.std::__1::__vector_base", %"class.std::__1::__vector_base"* %675, i32 0, i32 1
  %677 = load %"class.std::__1::basic_string"*, %"class.std::__1::basic_string"** %676, align 8
  %678 = bitcast %"class.std::__1::vector"* %674 to %"class.std::__1::__vector_base"*
  store %"class.std::__1::__vector_base"* %678, %"class.std::__1::__vector_base"** %81, align 8
  %679 = load %"class.std::__1::__vector_base"*, %"class.std::__1::__vector_base"** %81, align 8
  %680 = getelementptr inbounds %"class.std::__1::__vector_base", %"class.std::__1::__vector_base"* %679, i32 0, i32 2
  store %"class.std::__1::__compressed_pair.1"* %680, %"class.std::__1::__compressed_pair.1"** %80, align 8
  %681 = load %"class.std::__1::__compressed_pair.1"*, %"class.std::__1::__compressed_pair.1"** %80, align 8
  %682 = bitcast %"class.std::__1::__compressed_pair.1"* %681 to %"class.std::__1::__libcpp_compressed_pair_imp.2"*
  store %"class.std::__1::__libcpp_compressed_pair_imp.2"* %682, %"class.std::__1::__libcpp_compressed_pair_imp.2"** %79, align 8
  %683 = load %"class.std::__1::__libcpp_compressed_pair_imp.2"*, %"class.std::__1::__libcpp_compressed_pair_imp.2"** %79, align 8
  %684 = getelementptr inbounds %"class.std::__1::__libcpp_compressed_pair_imp.2", %"class.std::__1::__libcpp_compressed_pair_imp.2"* %683, i32 0, i32 0
  %685 = load %"class.std::__1::basic_string"*, %"class.std::__1::basic_string"** %684, align 8
  %686 = icmp ne %"class.std::__1::basic_string"* %677, %685
  br i1 %686, label %687, label %718

; <label>:687:                                    ; preds = %672
  call void @_ZNSt3__16vectorINS_12basic_stringIcNS_11char_traitsIcEENS_9allocatorIcEEEENS4_IS6_EEE24__RAII_IncreaseAnnotatorC1ERKS8_m(%"struct.std::__1::vector<std::__1::basic_string<char>, std::__1::allocator<std::__1::basic_string<char> > >::__RAII_IncreaseAnnotator"* %84, %"class.std::__1::vector"* dereferenceable(24) %674, i64 1)
  %688 = bitcast %"class.std::__1::vector"* %674 to %"class.std::__1::__vector_base"*
  store %"class.std::__1::__vector_base"* %688, %"class.std::__1::__vector_base"** %78, align 8
  %689 = load %"class.std::__1::__vector_base"*, %"class.std::__1::__vector_base"** %78, align 8
  %690 = getelementptr inbounds %"class.std::__1::__vector_base", %"class.std::__1::__vector_base"* %689, i32 0, i32 2
  store %"class.std::__1::__compressed_pair.1"* %690, %"class.std::__1::__compressed_pair.1"** %77, align 8
  %691 = load %"class.std::__1::__compressed_pair.1"*, %"class.std::__1::__compressed_pair.1"** %77, align 8
  %692 = bitcast %"class.std::__1::__compressed_pair.1"* %691 to %"class.std::__1::__libcpp_compressed_pair_imp.2"*
  store %"class.std::__1::__libcpp_compressed_pair_imp.2"* %692, %"class.std::__1::__libcpp_compressed_pair_imp.2"** %76, align 8
  %693 = load %"class.std::__1::__libcpp_compressed_pair_imp.2"*, %"class.std::__1::__libcpp_compressed_pair_imp.2"** %76, align 8
  %694 = bitcast %"class.std::__1::__libcpp_compressed_pair_imp.2"* %693 to %"class.std::__1::allocator.3"*
  %695 = bitcast %"class.std::__1::vector"* %674 to %"class.std::__1::__vector_base"*
  %696 = getelementptr inbounds %"class.std::__1::__vector_base", %"class.std::__1::__vector_base"* %695, i32 0, i32 1
  %697 = load %"class.std::__1::basic_string"*, %"class.std::__1::basic_string"** %696, align 8
  store %"class.std::__1::basic_string"* %697, %"class.std::__1::basic_string"** %75, align 8
  %698 = load %"class.std::__1::basic_string"*, %"class.std::__1::basic_string"** %75, align 8
  %699 = load %"class.std::__1::basic_string"*, %"class.std::__1::basic_string"** %83, align 8
  store %"class.std::__1::allocator.3"* %694, %"class.std::__1::allocator.3"** %70, align 8
  store %"class.std::__1::basic_string"* %698, %"class.std::__1::basic_string"** %71, align 8
  store %"class.std::__1::basic_string"* %699, %"class.std::__1::basic_string"** %72, align 8
  %700 = bitcast %"struct.std::__1::__has_construct.288"* %74 to %"struct.std::__1::integral_constant"*
  %701 = load %"class.std::__1::allocator.3"*, %"class.std::__1::allocator.3"** %70, align 8
  %702 = load %"class.std::__1::basic_string"*, %"class.std::__1::basic_string"** %71, align 8
  %703 = load %"class.std::__1::basic_string"*, %"class.std::__1::basic_string"** %72, align 8
  store %"class.std::__1::basic_string"* %703, %"class.std::__1::basic_string"** %69, align 8
  %704 = load %"class.std::__1::basic_string"*, %"class.std::__1::basic_string"** %69, align 8
  store %"class.std::__1::allocator.3"* %701, %"class.std::__1::allocator.3"** %66, align 8
  store %"class.std::__1::basic_string"* %702, %"class.std::__1::basic_string"** %67, align 8
  store %"class.std::__1::basic_string"* %704, %"class.std::__1::basic_string"** %68, align 8
  %705 = load %"class.std::__1::allocator.3"*, %"class.std::__1::allocator.3"** %66, align 8
  %706 = load %"class.std::__1::basic_string"*, %"class.std::__1::basic_string"** %67, align 8
  %707 = load %"class.std::__1::basic_string"*, %"class.std::__1::basic_string"** %68, align 8
  store %"class.std::__1::basic_string"* %707, %"class.std::__1::basic_string"** %64, align 8
  %708 = load %"class.std::__1::basic_string"*, %"class.std::__1::basic_string"** %64, align 8
  store %"class.std::__1::allocator.3"* %705, %"class.std::__1::allocator.3"** %61, align 8
  store %"class.std::__1::basic_string"* %706, %"class.std::__1::basic_string"** %62, align 8
  store %"class.std::__1::basic_string"* %708, %"class.std::__1::basic_string"** %63, align 8
  %709 = load %"class.std::__1::allocator.3"*, %"class.std::__1::allocator.3"** %61, align 8
  %710 = load %"class.std::__1::basic_string"*, %"class.std::__1::basic_string"** %62, align 8
  %711 = bitcast %"class.std::__1::basic_string"* %710 to i8*
  %712 = load %"class.std::__1::basic_string"*, %"class.std::__1::basic_string"** %63, align 8
  store %"class.std::__1::basic_string"* %712, %"class.std::__1::basic_string"** %60, align 8
  %713 = load %"class.std::__1::basic_string"*, %"class.std::__1::basic_string"** %60, align 8
  call void @_ZNSt3__112basic_stringIcNS_11char_traitsIcEENS_9allocatorIcEEEC1ERKS5_(%"class.std::__1::basic_string"* %710, %"class.std::__1::basic_string"* dereferenceable(24) %713)
  call void @_ZNSt3__16vectorINS_12basic_stringIcNS_11char_traitsIcEENS_9allocatorIcEEEENS4_IS6_EEE24__RAII_IncreaseAnnotator6__doneEv(%"struct.std::__1::vector<std::__1::basic_string<char>, std::__1::allocator<std::__1::basic_string<char> > >::__RAII_IncreaseAnnotator"* %84)
  %714 = bitcast %"class.std::__1::vector"* %674 to %"class.std::__1::__vector_base"*
  %715 = getelementptr inbounds %"class.std::__1::__vector_base", %"class.std::__1::__vector_base"* %714, i32 0, i32 1
  %716 = load %"class.std::__1::basic_string"*, %"class.std::__1::basic_string"** %715, align 8
  %717 = getelementptr inbounds %"class.std::__1::basic_string", %"class.std::__1::basic_string"* %716, i32 1
  store %"class.std::__1::basic_string"* %717, %"class.std::__1::basic_string"** %715, align 8
  br label %720

; <label>:718:                                    ; preds = %672
  %719 = load %"class.std::__1::basic_string"*, %"class.std::__1::basic_string"** %83, align 8
  call void @_ZNSt3__16vectorINS_12basic_stringIcNS_11char_traitsIcEENS_9allocatorIcEEEENS4_IS6_EEE21__push_back_slow_pathIRKS6_EEvOT_(%"class.std::__1::vector"* %674, %"class.std::__1::basic_string"* dereferenceable(24) %719)
  br label %720

; <label>:720:                                    ; preds = %687, %718
  %721 = getelementptr inbounds %class.DeclStmt, %class.DeclStmt* %197, i32 0, i32 5
  store i8 0, i8* %196, align 1
  call void @_ZNSt3__16vectorIbNS_9allocatorIbEEE9push_backERKb(%"class.std::__1::vector.32"* %721, i8* dereferenceable(1) %196)
  ret void

; <label>:722:                                    ; preds = %667, %595
  %723 = landingpad { i8*, i32 }
          cleanup
  %724 = extractvalue { i8*, i32 } %723, 0
  store i8* %724, i8** %193, align 8
  %725 = extractvalue { i8*, i32 } %723, 1
  store i32 %725, i32* %194, align 4
  call void @_ZNSt3__14pairINS_10shared_ptrI7TypeRefEENS1_I10ExpressionEEED1Ev(%"struct.std::__1::pair"* %195) #14
  br label %726

; <label>:726:                                    ; preds = %722, %530
  %727 = load i8*, i8** %193, align 8
  %728 = load i32, i32* %194, align 4
  %729 = insertvalue { i8*, i32 } undef, i8* %727, 0
  %730 = insertvalue { i8*, i32 } %729, i32 %728, 1
  resume { i8*, i32 } %730
}

declare void @_ZN10ParseError5raiseE11ParseErrorsNSt3__112basic_stringIcNS1_11char_traitsIcEENS1_9allocatorIcEEEEP5Lexer(i32, %"class.std::__1::basic_string"*, %class.Lexer*) #2

; Function Attrs: ssp uwtable
define linkonce_odr void @_ZNSt3__1plIcNS_11char_traitsIcEENS_9allocatorIcEEEENS_12basic_stringIT_T0_T1_EEPKS6_RKS9_(%"class.std::__1::basic_string"* noalias sret, i8*, %"class.std::__1::basic_string"* dereferenceable(24)) #0 personality i8* bitcast (i32 (...)* @__gxx_personality_v0 to i8*) {
  %4 = alloca %"class.std::__1::__libcpp_compressed_pair_imp"*, align 8
  %5 = alloca %"class.std::__1::__compressed_pair"*, align 8
  %6 = alloca %"class.std::__1::basic_string"*, align 8
  %7 = alloca [3 x i64]*, align 8
  %8 = alloca i32, align 4
  %9 = alloca %"class.std::__1::allocator"*, align 8
  %10 = alloca %"class.std::__1::allocator", align 1
  %11 = alloca %"class.std::__1::__libcpp_compressed_pair_imp"*, align 8
  %12 = alloca %"class.std::__1::allocator"*, align 8
  %13 = alloca %"class.std::__1::allocator", align 1
  %14 = alloca %"class.std::__1::__compressed_pair"*, align 8
  %15 = alloca %"class.std::__1::allocator", align 1
  %16 = alloca %"class.std::__1::allocator", align 1
  %17 = alloca %"class.std::__1::__compressed_pair"*, align 8
  %18 = alloca %"class.std::__1::basic_string"*, align 8
  %19 = alloca %"class.std::__1::allocator"*, align 8
  %20 = alloca %"class.std::__1::allocator", align 1
  %21 = alloca %"class.std::__1::basic_string"*, align 8
  %22 = alloca %"class.std::__1::allocator"*, align 8
  %23 = alloca %"class.std::__1::__libcpp_compressed_pair_imp"*, align 8
  %24 = alloca %"class.std::__1::__compressed_pair"*, align 8
  %25 = alloca %"class.std::__1::basic_string"*, align 8
  %26 = alloca %"class.std::__1::__libcpp_compressed_pair_imp"*, align 8
  %27 = alloca %"class.std::__1::__compressed_pair"*, align 8
  %28 = alloca %"class.std::__1::basic_string"*, align 8
  %29 = alloca %"class.std::__1::__libcpp_compressed_pair_imp"*, align 8
  %30 = alloca %"class.std::__1::__compressed_pair"*, align 8
  %31 = alloca %"class.std::__1::basic_string"*, align 8
  %32 = alloca %"class.std::__1::basic_string"*, align 8
  %33 = alloca i8*, align 8
  %34 = alloca %"class.std::__1::__libcpp_compressed_pair_imp"*, align 8
  %35 = alloca %"class.std::__1::__compressed_pair"*, align 8
  %36 = alloca %"class.std::__1::basic_string"*, align 8
  %37 = alloca i8*, align 8
  %38 = alloca i8*, align 8
  %39 = alloca %"class.std::__1::__libcpp_compressed_pair_imp"*, align 8
  %40 = alloca %"class.std::__1::__compressed_pair"*, align 8
  %41 = alloca %"class.std::__1::basic_string"*, align 8
  %42 = alloca %"class.std::__1::__libcpp_compressed_pair_imp"*, align 8
  %43 = alloca %"class.std::__1::__compressed_pair"*, align 8
  %44 = alloca %"class.std::__1::basic_string"*, align 8
  %45 = alloca %"class.std::__1::basic_string"*, align 8
  %46 = alloca %"class.std::__1::basic_string"*, align 8
  %47 = alloca %"class.std::__1::__libcpp_compressed_pair_imp"*, align 8
  %48 = alloca %"class.std::__1::__compressed_pair"*, align 8
  %49 = alloca %"class.std::__1::basic_string"*, align 8
  %50 = alloca %"class.std::__1::allocator", align 1
  %51 = alloca %"class.std::__1::basic_string"*, align 8
  %52 = alloca i8*, align 8
  %53 = alloca %"class.std::__1::basic_string"*, align 8
  %54 = alloca i1, align 1
  %55 = alloca %"class.std::__1::allocator", align 1
  %56 = alloca %"class.std::__1::allocator", align 1
  %57 = alloca i64, align 8
  %58 = alloca i8*
  %59 = alloca i32
  %60 = alloca i64, align 8
  store i8* %1, i8** %52, align 8
  store %"class.std::__1::basic_string"* %2, %"class.std::__1::basic_string"** %53, align 8
  store i1 false, i1* %54, align 1
  %61 = load %"class.std::__1::basic_string"*, %"class.std::__1::basic_string"** %53, align 8
  store %"class.std::__1::basic_string"* %61, %"class.std::__1::basic_string"** %51, align 8
  %62 = load %"class.std::__1::basic_string"*, %"class.std::__1::basic_string"** %51, align 8
  store %"class.std::__1::basic_string"* %62, %"class.std::__1::basic_string"** %49, align 8
  %63 = load %"class.std::__1::basic_string"*, %"class.std::__1::basic_string"** %49, align 8
  %64 = getelementptr inbounds %"class.std::__1::basic_string", %"class.std::__1::basic_string"* %63, i32 0, i32 0
  store %"class.std::__1::__compressed_pair"* %64, %"class.std::__1::__compressed_pair"** %48, align 8
  %65 = load %"class.std::__1::__compressed_pair"*, %"class.std::__1::__compressed_pair"** %48, align 8
  %66 = bitcast %"class.std::__1::__compressed_pair"* %65 to %"class.std::__1::__libcpp_compressed_pair_imp"*
  store %"class.std::__1::__libcpp_compressed_pair_imp"* %66, %"class.std::__1::__libcpp_compressed_pair_imp"** %47, align 8
  %67 = load %"class.std::__1::__libcpp_compressed_pair_imp"*, %"class.std::__1::__libcpp_compressed_pair_imp"** %47, align 8
  %68 = bitcast %"class.std::__1::__libcpp_compressed_pair_imp"* %67 to %"class.std::__1::allocator"*
  store %"class.std::__1::basic_string"* %0, %"class.std::__1::basic_string"** %21, align 8
  store %"class.std::__1::allocator"* %55, %"class.std::__1::allocator"** %22, align 8
  %69 = load %"class.std::__1::basic_string"*, %"class.std::__1::basic_string"** %21, align 8
  %70 = load %"class.std::__1::allocator"*, %"class.std::__1::allocator"** %22, align 8
  store %"class.std::__1::basic_string"* %69, %"class.std::__1::basic_string"** %18, align 8
  store %"class.std::__1::allocator"* %70, %"class.std::__1::allocator"** %19, align 8
  %71 = load %"class.std::__1::basic_string"*, %"class.std::__1::basic_string"** %18, align 8
  %72 = bitcast %"class.std::__1::basic_string"* %71 to %"class.std::__1::__basic_string_common"*
  %73 = getelementptr inbounds %"class.std::__1::basic_string", %"class.std::__1::basic_string"* %71, i32 0, i32 0
  %74 = load %"class.std::__1::allocator"*, %"class.std::__1::allocator"** %19, align 8
  store %"class.std::__1::__compressed_pair"* %73, %"class.std::__1::__compressed_pair"** %17, align 8
  %75 = load %"class.std::__1::__compressed_pair"*, %"class.std::__1::__compressed_pair"** %17, align 8
  store %"class.std::__1::__compressed_pair"* %75, %"class.std::__1::__compressed_pair"** %14, align 8
  %76 = load %"class.std::__1::__compressed_pair"*, %"class.std::__1::__compressed_pair"** %14, align 8
  %77 = bitcast %"class.std::__1::__compressed_pair"* %76 to %"class.std::__1::__libcpp_compressed_pair_imp"*
  store %"class.std::__1::allocator"* %13, %"class.std::__1::allocator"** %12, align 8
  %78 = load %"class.std::__1::allocator"*, %"class.std::__1::allocator"** %12, align 8
  store %"class.std::__1::__libcpp_compressed_pair_imp"* %77, %"class.std::__1::__libcpp_compressed_pair_imp"** %11, align 8
  %79 = load %"class.std::__1::__libcpp_compressed_pair_imp"*, %"class.std::__1::__libcpp_compressed_pair_imp"** %11, align 8
  %80 = bitcast %"class.std::__1::__libcpp_compressed_pair_imp"* %79 to %"class.std::__1::allocator"*
  store %"class.std::__1::allocator"* %10, %"class.std::__1::allocator"** %9, align 8
  %81 = load %"class.std::__1::allocator"*, %"class.std::__1::allocator"** %9, align 8
  %82 = getelementptr inbounds %"class.std::__1::__libcpp_compressed_pair_imp", %"class.std::__1::__libcpp_compressed_pair_imp"* %79, i32 0, i32 0
  %83 = bitcast %"struct.std::__1::basic_string<char, std::__1::char_traits<char>, std::__1::allocator<char> >::__rep"* %82 to i8*
  call void @llvm.memset.p0i8.i64(i8* %83, i8 0, i64 24, i32 8, i1 false) #14
  store %"class.std::__1::basic_string"* %71, %"class.std::__1::basic_string"** %6, align 8
  %84 = load %"class.std::__1::basic_string"*, %"class.std::__1::basic_string"** %6, align 8
  %85 = getelementptr inbounds %"class.std::__1::basic_string", %"class.std::__1::basic_string"* %84, i32 0, i32 0
  store %"class.std::__1::__compressed_pair"* %85, %"class.std::__1::__compressed_pair"** %5, align 8
  %86 = load %"class.std::__1::__compressed_pair"*, %"class.std::__1::__compressed_pair"** %5, align 8
  %87 = bitcast %"class.std::__1::__compressed_pair"* %86 to %"class.std::__1::__libcpp_compressed_pair_imp"*
  store %"class.std::__1::__libcpp_compressed_pair_imp"* %87, %"class.std::__1::__libcpp_compressed_pair_imp"** %4, align 8
  %88 = load %"class.std::__1::__libcpp_compressed_pair_imp"*, %"class.std::__1::__libcpp_compressed_pair_imp"** %4, align 8
  %89 = getelementptr inbounds %"class.std::__1::__libcpp_compressed_pair_imp", %"class.std::__1::__libcpp_compressed_pair_imp"* %88, i32 0, i32 0
  %90 = getelementptr inbounds %"struct.std::__1::basic_string<char, std::__1::char_traits<char>, std::__1::allocator<char> >::__rep", %"struct.std::__1::basic_string<char, std::__1::char_traits<char>, std::__1::allocator<char> >::__rep"* %89, i32 0, i32 0
  %91 = bitcast %union.anon* %90 to %"struct.std::__1::basic_string<char, std::__1::char_traits<char>, std::__1::allocator<char> >::__raw"*
  %92 = getelementptr inbounds %"struct.std::__1::basic_string<char, std::__1::char_traits<char>, std::__1::allocator<char> >::__raw", %"struct.std::__1::basic_string<char, std::__1::char_traits<char>, std::__1::allocator<char> >::__raw"* %91, i32 0, i32 0
  store [3 x i64]* %92, [3 x i64]** %7, align 8
  store i32 0, i32* %8, align 4
  br label %93

; <label>:93:                                     ; preds = %96, %3
  %94 = load i32, i32* %8, align 4
  %95 = icmp ult i32 %94, 3
  br i1 %95, label %96, label %103

; <label>:96:                                     ; preds = %93
  %97 = load i32, i32* %8, align 4
  %98 = zext i32 %97 to i64
  %99 = load [3 x i64]*, [3 x i64]** %7, align 8
  %100 = getelementptr inbounds [3 x i64], [3 x i64]* %99, i64 0, i64 %98
  store i64 0, i64* %100, align 8
  %101 = load i32, i32* %8, align 4
  %102 = add i32 %101, 1
  store i32 %102, i32* %8, align 4
  br label %93

; <label>:103:                                    ; preds = %93
  %104 = load i8*, i8** %52, align 8
  %105 = invoke i64 @_ZNSt3__111char_traitsIcE6lengthEPKc(i8* %104)
          to label %106 unwind label %205

; <label>:106:                                    ; preds = %103
  store i64 %105, i64* %57, align 8
  %107 = load %"class.std::__1::basic_string"*, %"class.std::__1::basic_string"** %53, align 8
  store %"class.std::__1::basic_string"* %107, %"class.std::__1::basic_string"** %32, align 8
  %108 = load %"class.std::__1::basic_string"*, %"class.std::__1::basic_string"** %32, align 8
  store %"class.std::__1::basic_string"* %108, %"class.std::__1::basic_string"** %31, align 8
  %109 = load %"class.std::__1::basic_string"*, %"class.std::__1::basic_string"** %31, align 8
  %110 = getelementptr inbounds %"class.std::__1::basic_string", %"class.std::__1::basic_string"* %109, i32 0, i32 0
  store %"class.std::__1::__compressed_pair"* %110, %"class.std::__1::__compressed_pair"** %30, align 8
  %111 = load %"class.std::__1::__compressed_pair"*, %"class.std::__1::__compressed_pair"** %30, align 8
  %112 = bitcast %"class.std::__1::__compressed_pair"* %111 to %"class.std::__1::__libcpp_compressed_pair_imp"*
  store %"class.std::__1::__libcpp_compressed_pair_imp"* %112, %"class.std::__1::__libcpp_compressed_pair_imp"** %29, align 8
  %113 = load %"class.std::__1::__libcpp_compressed_pair_imp"*, %"class.std::__1::__libcpp_compressed_pair_imp"** %29, align 8
  %114 = getelementptr inbounds %"class.std::__1::__libcpp_compressed_pair_imp", %"class.std::__1::__libcpp_compressed_pair_imp"* %113, i32 0, i32 0
  %115 = getelementptr inbounds %"struct.std::__1::basic_string<char, std::__1::char_traits<char>, std::__1::allocator<char> >::__rep", %"struct.std::__1::basic_string<char, std::__1::char_traits<char>, std::__1::allocator<char> >::__rep"* %114, i32 0, i32 0
  %116 = bitcast %union.anon* %115 to %"struct.std::__1::basic_string<char, std::__1::char_traits<char>, std::__1::allocator<char> >::__short"*
  %117 = getelementptr inbounds %"struct.std::__1::basic_string<char, std::__1::char_traits<char>, std::__1::allocator<char> >::__short", %"struct.std::__1::basic_string<char, std::__1::char_traits<char>, std::__1::allocator<char> >::__short"* %116, i32 0, i32 0
  %118 = bitcast %union.anon.0* %117 to i8*
  %119 = load i8, i8* %118, align 8
  %120 = zext i8 %119 to i32
  %121 = and i32 %120, 1
  %122 = icmp ne i32 %121, 0
  br i1 %122, label %123, label %134

; <label>:123:                                    ; preds = %106
  store %"class.std::__1::basic_string"* %108, %"class.std::__1::basic_string"** %25, align 8
  %124 = load %"class.std::__1::basic_string"*, %"class.std::__1::basic_string"** %25, align 8
  %125 = getelementptr inbounds %"class.std::__1::basic_string", %"class.std::__1::basic_string"* %124, i32 0, i32 0
  store %"class.std::__1::__compressed_pair"* %125, %"class.std::__1::__compressed_pair"** %24, align 8
  %126 = load %"class.std::__1::__compressed_pair"*, %"class.std::__1::__compressed_pair"** %24, align 8
  %127 = bitcast %"class.std::__1::__compressed_pair"* %126 to %"class.std::__1::__libcpp_compressed_pair_imp"*
  store %"class.std::__1::__libcpp_compressed_pair_imp"* %127, %"class.std::__1::__libcpp_compressed_pair_imp"** %23, align 8
  %128 = load %"class.std::__1::__libcpp_compressed_pair_imp"*, %"class.std::__1::__libcpp_compressed_pair_imp"** %23, align 8
  %129 = getelementptr inbounds %"class.std::__1::__libcpp_compressed_pair_imp", %"class.std::__1::__libcpp_compressed_pair_imp"* %128, i32 0, i32 0
  %130 = getelementptr inbounds %"struct.std::__1::basic_string<char, std::__1::char_traits<char>, std::__1::allocator<char> >::__rep", %"struct.std::__1::basic_string<char, std::__1::char_traits<char>, std::__1::allocator<char> >::__rep"* %129, i32 0, i32 0
  %131 = bitcast %union.anon* %130 to %"struct.std::__1::basic_string<char, std::__1::char_traits<char>, std::__1::allocator<char> >::__long"*
  %132 = getelementptr inbounds %"struct.std::__1::basic_string<char, std::__1::char_traits<char>, std::__1::allocator<char> >::__long", %"struct.std::__1::basic_string<char, std::__1::char_traits<char>, std::__1::allocator<char> >::__long"* %131, i32 0, i32 1
  %133 = load i64, i64* %132, align 8
  br label %149

; <label>:134:                                    ; preds = %106
  store %"class.std::__1::basic_string"* %108, %"class.std::__1::basic_string"** %28, align 8
  %135 = load %"class.std::__1::basic_string"*, %"class.std::__1::basic_string"** %28, align 8
  %136 = getelementptr inbounds %"class.std::__1::basic_string", %"class.std::__1::basic_string"* %135, i32 0, i32 0
  store %"class.std::__1::__compressed_pair"* %136, %"class.std::__1::__compressed_pair"** %27, align 8
  %137 = load %"class.std::__1::__compressed_pair"*, %"class.std::__1::__compressed_pair"** %27, align 8
  %138 = bitcast %"class.std::__1::__compressed_pair"* %137 to %"class.std::__1::__libcpp_compressed_pair_imp"*
  store %"class.std::__1::__libcpp_compressed_pair_imp"* %138, %"class.std::__1::__libcpp_compressed_pair_imp"** %26, align 8
  %139 = load %"class.std::__1::__libcpp_compressed_pair_imp"*, %"class.std::__1::__libcpp_compressed_pair_imp"** %26, align 8
  %140 = getelementptr inbounds %"class.std::__1::__libcpp_compressed_pair_imp", %"class.std::__1::__libcpp_compressed_pair_imp"* %139, i32 0, i32 0
  %141 = getelementptr inbounds %"struct.std::__1::basic_string<char, std::__1::char_traits<char>, std::__1::allocator<char> >::__rep", %"struct.std::__1::basic_string<char, std::__1::char_traits<char>, std::__1::allocator<char> >::__rep"* %140, i32 0, i32 0
  %142 = bitcast %union.anon* %141 to %"struct.std::__1::basic_string<char, std::__1::char_traits<char>, std::__1::allocator<char> >::__short"*
  %143 = getelementptr inbounds %"struct.std::__1::basic_string<char, std::__1::char_traits<char>, std::__1::allocator<char> >::__short", %"struct.std::__1::basic_string<char, std::__1::char_traits<char>, std::__1::allocator<char> >::__short"* %142, i32 0, i32 0
  %144 = bitcast %union.anon.0* %143 to i8*
  %145 = load i8, i8* %144, align 8
  %146 = zext i8 %145 to i32
  %147 = ashr i32 %146, 1
  %148 = sext i32 %147 to i64
  br label %149

; <label>:149:                                    ; preds = %123, %134
  %150 = phi i64 [ %133, %123 ], [ %148, %134 ]
  store i64 %150, i64* %60, align 8
  %151 = load i8*, i8** %52, align 8
  %152 = load i64, i64* %57, align 8
  %153 = load i64, i64* %57, align 8
  %154 = load i64, i64* %60, align 8
  %155 = add i64 %153, %154
  invoke void @_ZNSt3__112basic_stringIcNS_11char_traitsIcEENS_9allocatorIcEEE6__initEPKcmm(%"class.std::__1::basic_string"* %0, i8* %151, i64 %152, i64 %155)
          to label %156 unwind label %205

; <label>:156:                                    ; preds = %149
  %157 = load %"class.std::__1::basic_string"*, %"class.std::__1::basic_string"** %53, align 8
  store %"class.std::__1::basic_string"* %157, %"class.std::__1::basic_string"** %46, align 8
  %158 = load %"class.std::__1::basic_string"*, %"class.std::__1::basic_string"** %46, align 8
  store %"class.std::__1::basic_string"* %158, %"class.std::__1::basic_string"** %45, align 8
  %159 = load %"class.std::__1::basic_string"*, %"class.std::__1::basic_string"** %45, align 8
  store %"class.std::__1::basic_string"* %159, %"class.std::__1::basic_string"** %44, align 8
  %160 = load %"class.std::__1::basic_string"*, %"class.std::__1::basic_string"** %44, align 8
  %161 = getelementptr inbounds %"class.std::__1::basic_string", %"class.std::__1::basic_string"* %160, i32 0, i32 0
  store %"class.std::__1::__compressed_pair"* %161, %"class.std::__1::__compressed_pair"** %43, align 8
  %162 = load %"class.std::__1::__compressed_pair"*, %"class.std::__1::__compressed_pair"** %43, align 8
  %163 = bitcast %"class.std::__1::__compressed_pair"* %162 to %"class.std::__1::__libcpp_compressed_pair_imp"*
  store %"class.std::__1::__libcpp_compressed_pair_imp"* %163, %"class.std::__1::__libcpp_compressed_pair_imp"** %42, align 8
  %164 = load %"class.std::__1::__libcpp_compressed_pair_imp"*, %"class.std::__1::__libcpp_compressed_pair_imp"** %42, align 8
  %165 = getelementptr inbounds %"class.std::__1::__libcpp_compressed_pair_imp", %"class.std::__1::__libcpp_compressed_pair_imp"* %164, i32 0, i32 0
  %166 = getelementptr inbounds %"struct.std::__1::basic_string<char, std::__1::char_traits<char>, std::__1::allocator<char> >::__rep", %"struct.std::__1::basic_string<char, std::__1::char_traits<char>, std::__1::allocator<char> >::__rep"* %165, i32 0, i32 0
  %167 = bitcast %union.anon* %166 to %"struct.std::__1::basic_string<char, std::__1::char_traits<char>, std::__1::allocator<char> >::__short"*
  %168 = getelementptr inbounds %"struct.std::__1::basic_string<char, std::__1::char_traits<char>, std::__1::allocator<char> >::__short", %"struct.std::__1::basic_string<char, std::__1::char_traits<char>, std::__1::allocator<char> >::__short"* %167, i32 0, i32 0
  %169 = bitcast %union.anon.0* %168 to i8*
  %170 = load i8, i8* %169, align 8
  %171 = zext i8 %170 to i32
  %172 = and i32 %171, 1
  %173 = icmp ne i32 %172, 0
  br i1 %173, label %174, label %185

; <label>:174:                                    ; preds = %156
  store %"class.std::__1::basic_string"* %159, %"class.std::__1::basic_string"** %36, align 8
  %175 = load %"class.std::__1::basic_string"*, %"class.std::__1::basic_string"** %36, align 8
  %176 = getelementptr inbounds %"class.std::__1::basic_string", %"class.std::__1::basic_string"* %175, i32 0, i32 0
  store %"class.std::__1::__compressed_pair"* %176, %"class.std::__1::__compressed_pair"** %35, align 8
  %177 = load %"class.std::__1::__compressed_pair"*, %"class.std::__1::__compressed_pair"** %35, align 8
  %178 = bitcast %"class.std::__1::__compressed_pair"* %177 to %"class.std::__1::__libcpp_compressed_pair_imp"*
  store %"class.std::__1::__libcpp_compressed_pair_imp"* %178, %"class.std::__1::__libcpp_compressed_pair_imp"** %34, align 8
  %179 = load %"class.std::__1::__libcpp_compressed_pair_imp"*, %"class.std::__1::__libcpp_compressed_pair_imp"** %34, align 8
  %180 = getelementptr inbounds %"class.std::__1::__libcpp_compressed_pair_imp", %"class.std::__1::__libcpp_compressed_pair_imp"* %179, i32 0, i32 0
  %181 = getelementptr inbounds %"struct.std::__1::basic_string<char, std::__1::char_traits<char>, std::__1::allocator<char> >::__rep", %"struct.std::__1::basic_string<char, std::__1::char_traits<char>, std::__1::allocator<char> >::__rep"* %180, i32 0, i32 0
  %182 = bitcast %union.anon* %181 to %"struct.std::__1::basic_string<char, std::__1::char_traits<char>, std::__1::allocator<char> >::__long"*
  %183 = getelementptr inbounds %"struct.std::__1::basic_string<char, std::__1::char_traits<char>, std::__1::allocator<char> >::__long", %"struct.std::__1::basic_string<char, std::__1::char_traits<char>, std::__1::allocator<char> >::__long"* %182, i32 0, i32 2
  %184 = load i8*, i8** %183, align 8
  br label %198

; <label>:185:                                    ; preds = %156
  store %"class.std::__1::basic_string"* %159, %"class.std::__1::basic_string"** %41, align 8
  %186 = load %"class.std::__1::basic_string"*, %"class.std::__1::basic_string"** %41, align 8
  %187 = getelementptr inbounds %"class.std::__1::basic_string", %"class.std::__1::basic_string"* %186, i32 0, i32 0
  store %"class.std::__1::__compressed_pair"* %187, %"class.std::__1::__compressed_pair"** %40, align 8
  %188 = load %"class.std::__1::__compressed_pair"*, %"class.std::__1::__compressed_pair"** %40, align 8
  %189 = bitcast %"class.std::__1::__compressed_pair"* %188 to %"class.std::__1::__libcpp_compressed_pair_imp"*
  store %"class.std::__1::__libcpp_compressed_pair_imp"* %189, %"class.std::__1::__libcpp_compressed_pair_imp"** %39, align 8
  %190 = load %"class.std::__1::__libcpp_compressed_pair_imp"*, %"class.std::__1::__libcpp_compressed_pair_imp"** %39, align 8
  %191 = getelementptr inbounds %"class.std::__1::__libcpp_compressed_pair_imp", %"class.std::__1::__libcpp_compressed_pair_imp"* %190, i32 0, i32 0
  %192 = getelementptr inbounds %"struct.std::__1::basic_string<char, std::__1::char_traits<char>, std::__1::allocator<char> >::__rep", %"struct.std::__1::basic_string<char, std::__1::char_traits<char>, std::__1::allocator<char> >::__rep"* %191, i32 0, i32 0
  %193 = bitcast %union.anon* %192 to %"struct.std::__1::basic_string<char, std::__1::char_traits<char>, std::__1::allocator<char> >::__short"*
  %194 = getelementptr inbounds %"struct.std::__1::basic_string<char, std::__1::char_traits<char>, std::__1::allocator<char> >::__short", %"struct.std::__1::basic_string<char, std::__1::char_traits<char>, std::__1::allocator<char> >::__short"* %193, i32 0, i32 1
  %195 = getelementptr inbounds [23 x i8], [23 x i8]* %194, i64 0, i64 0
  store i8* %195, i8** %38, align 8
  %196 = load i8*, i8** %38, align 8
  store i8* %196, i8** %37, align 8
  %197 = load i8*, i8** %37, align 8
  br label %198

; <label>:198:                                    ; preds = %174, %185
  %199 = phi i8* [ %184, %174 ], [ %197, %185 ]
  store i8* %199, i8** %33, align 8
  %200 = load i8*, i8** %33, align 8
  %201 = load i64, i64* %60, align 8
  %202 = invoke dereferenceable(24) %"class.std::__1::basic_string"* @_ZNSt3__112basic_stringIcNS_11char_traitsIcEENS_9allocatorIcEEE6appendEPKcm(%"class.std::__1::basic_string"* %0, i8* %200, i64 %201)
          to label %203 unwind label %205

; <label>:203:                                    ; preds = %198
  store i1 true, i1* %54, align 1
  %204 = load i1, i1* %54, align 1
  br i1 %204, label %210, label %209

; <label>:205:                                    ; preds = %198, %149, %103
  %206 = landingpad { i8*, i32 }
          cleanup
  %207 = extractvalue { i8*, i32 } %206, 0
  store i8* %207, i8** %58, align 8
  %208 = extractvalue { i8*, i32 } %206, 1
  store i32 %208, i32* %59, align 4
  call void @_ZNSt3__112basic_stringIcNS_11char_traitsIcEENS_9allocatorIcEEED1Ev(%"class.std::__1::basic_string"* %0) #14
  br label %211

; <label>:209:                                    ; preds = %203
  call void @_ZNSt3__112basic_stringIcNS_11char_traitsIcEENS_9allocatorIcEEED1Ev(%"class.std::__1::basic_string"* %0) #14
  br label %210

; <label>:210:                                    ; preds = %209, %203
  ret void

; <label>:211:                                    ; preds = %205
  %212 = load i8*, i8** %58, align 8
  %213 = load i32, i32* %59, align 4
  %214 = insertvalue { i8*, i32 } undef, i8* %212, 0
  %215 = insertvalue { i8*, i32 } %214, i32 %213, 1
  resume { i8*, i32 } %215
}

declare i32 @__gxx_personality_v0(...)

; Function Attrs: nounwind
declare void @_ZNSt3__112basic_stringIcNS_11char_traitsIcEENS_9allocatorIcEEED1Ev(%"class.std::__1::basic_string"*) unnamed_addr #3

; Function Attrs: inlinehint nounwind ssp uwtable
define linkonce_odr void @_ZNSt3__14pairINS_10shared_ptrI7TypeRefEENS1_I10ExpressionEEED1Ev(%"struct.std::__1::pair"*) unnamed_addr #4 align 2 {
  %2 = alloca %"struct.std::__1::pair"*, align 8
  store %"struct.std::__1::pair"* %0, %"struct.std::__1::pair"** %2, align 8
  %3 = load %"struct.std::__1::pair"*, %"struct.std::__1::pair"** %2, align 8
  call void @_ZNSt3__14pairINS_10shared_ptrI7TypeRefEENS1_I10ExpressionEEED2Ev(%"struct.std::__1::pair"* %3) #14
  ret void
}

; Function Attrs: ssp uwtable
define linkonce_odr void @_ZNSt3__16vectorIbNS_9allocatorIbEEE9push_backERKb(%"class.std::__1::vector.32"*, i8* dereferenceable(1)) #0 align 2 {
  %3 = alloca i64, align 8
  %4 = alloca %"struct.std::__1::__less"*, align 8
  %5 = alloca i64*, align 8
  %6 = alloca i64*, align 8
  %7 = alloca %"struct.std::__1::__less", align 1
  %8 = alloca i64*, align 8
  %9 = alloca i64*, align 8
  %10 = alloca i64*, align 8
  %11 = alloca i64*, align 8
  %12 = alloca %"struct.std::__1::__less", align 1
  %13 = alloca i64, align 8
  %14 = alloca %"class.std::__1::__libcpp_compressed_pair_imp.34"*, align 8
  %15 = alloca %"class.std::__1::__compressed_pair.33"*, align 8
  %16 = alloca %"class.std::__1::vector.32"*, align 8
  %17 = alloca %"class.std::__1::vector.32"*, align 8
  %18 = alloca i64, align 8
  %19 = alloca %"class.std::__1::vector.32"*, align 8
  %20 = alloca i64, align 8
  %21 = alloca i64, align 8
  %22 = alloca i64, align 8
  %23 = alloca i64, align 8
  %24 = alloca i64, align 8
  %25 = alloca %"class.std::__1::__bit_reference"*, align 8
  %26 = alloca i64*, align 8
  %27 = alloca i64, align 8
  %28 = alloca %"class.std::__1::__bit_reference"*, align 8
  %29 = alloca i64*, align 8
  %30 = alloca i64, align 8
  %31 = alloca %"class.std::__1::__bit_reference", align 8
  %32 = alloca %"class.std::__1::vector.32"*, align 8
  %33 = alloca i64, align 8
  %34 = alloca %"class.std::__1::__bit_reference", align 8
  %35 = alloca %"class.std::__1::vector.32"*, align 8
  %36 = alloca %"class.std::__1::__bit_reference"*, align 8
  %37 = alloca i8, align 1
  %38 = alloca i64, align 8
  %39 = alloca %"class.std::__1::__libcpp_compressed_pair_imp.34"*, align 8
  %40 = alloca %"class.std::__1::__compressed_pair.33"*, align 8
  %41 = alloca %"class.std::__1::vector.32"*, align 8
  %42 = alloca %"class.std::__1::vector.32"*, align 8
  %43 = alloca %"class.std::__1::vector.32"*, align 8
  %44 = alloca i8*, align 8
  %45 = alloca %"class.std::__1::__bit_reference", align 8
  store %"class.std::__1::vector.32"* %0, %"class.std::__1::vector.32"** %43, align 8
  store i8* %1, i8** %44, align 8
  %46 = load %"class.std::__1::vector.32"*, %"class.std::__1::vector.32"** %43, align 8
  %47 = getelementptr inbounds %"class.std::__1::vector.32", %"class.std::__1::vector.32"* %46, i32 0, i32 1
  %48 = load i64, i64* %47, align 8
  store %"class.std::__1::vector.32"* %46, %"class.std::__1::vector.32"** %42, align 8
  %49 = load %"class.std::__1::vector.32"*, %"class.std::__1::vector.32"** %42, align 8
  store %"class.std::__1::vector.32"* %49, %"class.std::__1::vector.32"** %41, align 8
  %50 = load %"class.std::__1::vector.32"*, %"class.std::__1::vector.32"** %41, align 8
  %51 = getelementptr inbounds %"class.std::__1::vector.32", %"class.std::__1::vector.32"* %50, i32 0, i32 2
  store %"class.std::__1::__compressed_pair.33"* %51, %"class.std::__1::__compressed_pair.33"** %40, align 8
  %52 = load %"class.std::__1::__compressed_pair.33"*, %"class.std::__1::__compressed_pair.33"** %40, align 8
  %53 = bitcast %"class.std::__1::__compressed_pair.33"* %52 to %"class.std::__1::__libcpp_compressed_pair_imp.34"*
  store %"class.std::__1::__libcpp_compressed_pair_imp.34"* %53, %"class.std::__1::__libcpp_compressed_pair_imp.34"** %39, align 8
  %54 = load %"class.std::__1::__libcpp_compressed_pair_imp.34"*, %"class.std::__1::__libcpp_compressed_pair_imp.34"** %39, align 8
  %55 = getelementptr inbounds %"class.std::__1::__libcpp_compressed_pair_imp.34", %"class.std::__1::__libcpp_compressed_pair_imp.34"* %54, i32 0, i32 0
  %56 = load i64, i64* %55, align 8
  store i64 %56, i64* %38, align 8
  %57 = load i64, i64* %38, align 8
  %58 = mul i64 %57, 64
  %59 = icmp eq i64 %48, %58
  br i1 %59, label %60, label %114

; <label>:60:                                     ; preds = %2
  %61 = getelementptr inbounds %"class.std::__1::vector.32", %"class.std::__1::vector.32"* %46, i32 0, i32 1
  %62 = load i64, i64* %61, align 8
  %63 = add i64 %62, 1
  store %"class.std::__1::vector.32"* %46, %"class.std::__1::vector.32"** %19, align 8
  store i64 %63, i64* %20, align 8
  %64 = load %"class.std::__1::vector.32"*, %"class.std::__1::vector.32"** %19, align 8
  %65 = call i64 @_ZNKSt3__16vectorIbNS_9allocatorIbEEE8max_sizeEv(%"class.std::__1::vector.32"* %64) #14
  store i64 %65, i64* %21, align 8
  %66 = load i64, i64* %20, align 8
  %67 = load i64, i64* %21, align 8
  %68 = icmp ugt i64 %66, %67
  br i1 %68, label %69, label %71

; <label>:69:                                     ; preds = %60
  %70 = bitcast %"class.std::__1::vector.32"* %64 to %"class.std::__1::__vector_base_common"*
  call void @_ZNKSt3__120__vector_base_commonILb1EE20__throw_length_errorEv(%"class.std::__1::__vector_base_common"* %70)
  br label %71

; <label>:71:                                     ; preds = %69, %60
  store %"class.std::__1::vector.32"* %64, %"class.std::__1::vector.32"** %17, align 8
  %72 = load %"class.std::__1::vector.32"*, %"class.std::__1::vector.32"** %17, align 8
  store %"class.std::__1::vector.32"* %72, %"class.std::__1::vector.32"** %16, align 8
  %73 = load %"class.std::__1::vector.32"*, %"class.std::__1::vector.32"** %16, align 8
  %74 = getelementptr inbounds %"class.std::__1::vector.32", %"class.std::__1::vector.32"* %73, i32 0, i32 2
  store %"class.std::__1::__compressed_pair.33"* %74, %"class.std::__1::__compressed_pair.33"** %15, align 8
  %75 = load %"class.std::__1::__compressed_pair.33"*, %"class.std::__1::__compressed_pair.33"** %15, align 8
  %76 = bitcast %"class.std::__1::__compressed_pair.33"* %75 to %"class.std::__1::__libcpp_compressed_pair_imp.34"*
  store %"class.std::__1::__libcpp_compressed_pair_imp.34"* %76, %"class.std::__1::__libcpp_compressed_pair_imp.34"** %14, align 8
  %77 = load %"class.std::__1::__libcpp_compressed_pair_imp.34"*, %"class.std::__1::__libcpp_compressed_pair_imp.34"** %14, align 8
  %78 = getelementptr inbounds %"class.std::__1::__libcpp_compressed_pair_imp.34", %"class.std::__1::__libcpp_compressed_pair_imp.34"* %77, i32 0, i32 0
  %79 = load i64, i64* %78, align 8
  store i64 %79, i64* %13, align 8
  %80 = load i64, i64* %13, align 8
  %81 = mul i64 %80, 64
  store i64 %81, i64* %22, align 8
  %82 = load i64, i64* %22, align 8
  %83 = load i64, i64* %21, align 8
  %84 = udiv i64 %83, 2
  %85 = icmp uge i64 %82, %84
  br i1 %85, label %86, label %88

; <label>:86:                                     ; preds = %71
  %87 = load i64, i64* %21, align 8
  store i64 %87, i64* %18, align 8
  br label %112

; <label>:88:                                     ; preds = %71
  %89 = load i64, i64* %22, align 8
  %90 = mul i64 2, %89
  store i64 %90, i64* %23, align 8
  %91 = load i64, i64* %20, align 8
  store i64 %91, i64* %3, align 8
  %92 = load i64, i64* %3, align 8
  %93 = add i64 %92, 63
  %94 = and i64 %93, -64
  store i64 %94, i64* %24, align 8
  store i64* %23, i64** %10, align 8
  store i64* %24, i64** %11, align 8
  %95 = load i64*, i64** %10, align 8
  %96 = load i64*, i64** %11, align 8
  store i64* %95, i64** %8, align 8
  store i64* %96, i64** %9, align 8
  %97 = load i64*, i64** %8, align 8
  %98 = load i64*, i64** %9, align 8
  store %"struct.std::__1::__less"* %7, %"struct.std::__1::__less"** %4, align 8
  store i64* %97, i64** %5, align 8
  store i64* %98, i64** %6, align 8
  %99 = load %"struct.std::__1::__less"*, %"struct.std::__1::__less"** %4, align 8
  %100 = load i64*, i64** %5, align 8
  %101 = load i64, i64* %100, align 8
  %102 = load i64*, i64** %6, align 8
  %103 = load i64, i64* %102, align 8
  %104 = icmp ult i64 %101, %103
  br i1 %104, label %105, label %107

; <label>:105:                                    ; preds = %88
  %106 = load i64*, i64** %9, align 8
  br label %109

; <label>:107:                                    ; preds = %88
  %108 = load i64*, i64** %8, align 8
  br label %109

; <label>:109:                                    ; preds = %107, %105
  %110 = phi i64* [ %106, %105 ], [ %108, %107 ]
  %111 = load i64, i64* %110, align 8
  store i64 %111, i64* %18, align 8
  br label %112

; <label>:112:                                    ; preds = %86, %109
  %113 = load i64, i64* %18, align 8
  call void @_ZNSt3__16vectorIbNS_9allocatorIbEEE7reserveEm(%"class.std::__1::vector.32"* %46, i64 %113)
  br label %114

; <label>:114:                                    ; preds = %112, %2
  %115 = getelementptr inbounds %"class.std::__1::vector.32", %"class.std::__1::vector.32"* %46, i32 0, i32 1
  %116 = load i64, i64* %115, align 8
  %117 = add i64 %116, 1
  store i64 %117, i64* %115, align 8
  store %"class.std::__1::vector.32"* %46, %"class.std::__1::vector.32"** %35, align 8
  %118 = load %"class.std::__1::vector.32"*, %"class.std::__1::vector.32"** %35, align 8
  %119 = getelementptr inbounds %"class.std::__1::vector.32", %"class.std::__1::vector.32"* %118, i32 0, i32 1
  %120 = load i64, i64* %119, align 8
  %121 = sub i64 %120, 1
  store %"class.std::__1::vector.32"* %118, %"class.std::__1::vector.32"** %32, align 8
  store i64 %121, i64* %33, align 8
  %122 = load %"class.std::__1::vector.32"*, %"class.std::__1::vector.32"** %32, align 8
  %123 = getelementptr inbounds %"class.std::__1::vector.32", %"class.std::__1::vector.32"* %122, i32 0, i32 0
  %124 = load i64*, i64** %123, align 8
  %125 = load i64, i64* %33, align 8
  %126 = udiv i64 %125, 64
  %127 = getelementptr inbounds i64, i64* %124, i64 %126
  %128 = load i64, i64* %33, align 8
  %129 = urem i64 %128, 64
  %130 = shl i64 1, %129
  store %"class.std::__1::__bit_reference"* %31, %"class.std::__1::__bit_reference"** %28, align 8
  store i64* %127, i64** %29, align 8
  store i64 %130, i64* %30, align 8
  %131 = load %"class.std::__1::__bit_reference"*, %"class.std::__1::__bit_reference"** %28, align 8
  %132 = load i64*, i64** %29, align 8
  %133 = load i64, i64* %30, align 8
  store %"class.std::__1::__bit_reference"* %131, %"class.std::__1::__bit_reference"** %25, align 8
  store i64* %132, i64** %26, align 8
  store i64 %133, i64* %27, align 8
  %134 = load %"class.std::__1::__bit_reference"*, %"class.std::__1::__bit_reference"** %25, align 8
  %135 = getelementptr inbounds %"class.std::__1::__bit_reference", %"class.std::__1::__bit_reference"* %134, i32 0, i32 0
  %136 = load i64*, i64** %26, align 8
  store i64* %136, i64** %135, align 8
  %137 = getelementptr inbounds %"class.std::__1::__bit_reference", %"class.std::__1::__bit_reference"* %134, i32 0, i32 1
  %138 = load i64, i64* %27, align 8
  store i64 %138, i64* %137, align 8
  %139 = bitcast %"class.std::__1::__bit_reference"* %31 to { i64*, i64 }*
  %140 = load { i64*, i64 }, { i64*, i64 }* %139, align 8
  %141 = bitcast %"class.std::__1::__bit_reference"* %34 to { i64*, i64 }*
  %142 = getelementptr inbounds { i64*, i64 }, { i64*, i64 }* %141, i32 0, i32 0
  %143 = extractvalue { i64*, i64 } %140, 0
  store i64* %143, i64** %142, align 8
  %144 = getelementptr inbounds { i64*, i64 }, { i64*, i64 }* %141, i32 0, i32 1
  %145 = extractvalue { i64*, i64 } %140, 1
  store i64 %145, i64* %144, align 8
  %146 = bitcast %"class.std::__1::__bit_reference"* %34 to { i64*, i64 }*
  %147 = load { i64*, i64 }, { i64*, i64 }* %146, align 8
  %148 = bitcast %"class.std::__1::__bit_reference"* %45 to { i64*, i64 }*
  %149 = getelementptr inbounds { i64*, i64 }, { i64*, i64 }* %148, i32 0, i32 0
  %150 = extractvalue { i64*, i64 } %147, 0
  store i64* %150, i64** %149, align 8
  %151 = getelementptr inbounds { i64*, i64 }, { i64*, i64 }* %148, i32 0, i32 1
  %152 = extractvalue { i64*, i64 } %147, 1
  store i64 %152, i64* %151, align 8
  %153 = load i8*, i8** %44, align 8
  %154 = load i8, i8* %153, align 1
  %155 = trunc i8 %154 to i1
  store %"class.std::__1::__bit_reference"* %45, %"class.std::__1::__bit_reference"** %36, align 8
  %156 = zext i1 %155 to i8
  store i8 %156, i8* %37, align 1
  %157 = load %"class.std::__1::__bit_reference"*, %"class.std::__1::__bit_reference"** %36, align 8
  %158 = load i8, i8* %37, align 1
  %159 = trunc i8 %158 to i1
  br i1 %159, label %160, label %167

; <label>:160:                                    ; preds = %114
  %161 = getelementptr inbounds %"class.std::__1::__bit_reference", %"class.std::__1::__bit_reference"* %157, i32 0, i32 1
  %162 = load i64, i64* %161, align 8
  %163 = getelementptr inbounds %"class.std::__1::__bit_reference", %"class.std::__1::__bit_reference"* %157, i32 0, i32 0
  %164 = load i64*, i64** %163, align 8
  %165 = load i64, i64* %164, align 8
  %166 = or i64 %165, %162
  store i64 %166, i64* %164, align 8
  br label %175

; <label>:167:                                    ; preds = %114
  %168 = getelementptr inbounds %"class.std::__1::__bit_reference", %"class.std::__1::__bit_reference"* %157, i32 0, i32 1
  %169 = load i64, i64* %168, align 8
  %170 = xor i64 %169, -1
  %171 = getelementptr inbounds %"class.std::__1::__bit_reference", %"class.std::__1::__bit_reference"* %157, i32 0, i32 0
  %172 = load i64*, i64** %171, align 8
  %173 = load i64, i64* %172, align 8
  %174 = and i64 %173, %170
  store i64 %174, i64* %172, align 8
  br label %175

; <label>:175:                                    ; preds = %160, %167
  ret void
}

; Function Attrs: ssp uwtable
define void @_ZN8DeclStmt12get_childrenEv(%"class.std::__1::vector.42"* noalias sret, %class.DeclStmt*) unnamed_addr #0 align 2 personality i8* bitcast (i32 (...)* @__gxx_personality_v0 to i8*) {
  %3 = alloca %"class.std::__1::shared_ptr.44"*, align 8
  %4 = alloca %"class.std::__1::shared_ptr.44"*, align 8
  %5 = alloca %"class.std::__1::shared_ptr.44"*, align 8
  %6 = alloca %"class.std::__1::shared_ptr.44"*, align 8
  %7 = alloca %"class.std::__1::shared_ptr.44"*, align 8
  %8 = alloca %"class.std::__1::shared_ptr.44"*, align 8
  %9 = alloca %"class.std::__1::allocator.47"*, align 8
  %10 = alloca %"class.std::__1::shared_ptr.44"*, align 8
  %11 = alloca %"class.std::__1::shared_ptr.44"*, align 8
  %12 = alloca %"class.std::__1::shared_ptr.44"*, align 8
  %13 = alloca %"struct.std::__1::integral_constant", align 1
  %14 = alloca %"class.std::__1::allocator.47"*, align 8
  %15 = alloca %"class.std::__1::shared_ptr.44"*, align 8
  %16 = alloca %"class.std::__1::shared_ptr.44"*, align 8
  %17 = alloca %"class.std::__1::shared_ptr.44"*, align 8
  %18 = alloca %"class.std::__1::allocator.47"*, align 8
  %19 = alloca %"class.std::__1::shared_ptr.44"*, align 8
  %20 = alloca %"class.std::__1::shared_ptr.44"*, align 8
  %21 = alloca %"struct.std::__1::integral_constant", align 1
  %22 = alloca %"struct.std::__1::__has_construct.301", align 1
  %23 = alloca %"class.std::__1::shared_ptr.44"*, align 8
  %24 = alloca %"class.std::__1::shared_ptr.44"*, align 8
  %25 = alloca %"class.std::__1::__libcpp_compressed_pair_imp.46"*, align 8
  %26 = alloca %"class.std::__1::__compressed_pair.45"*, align 8
  %27 = alloca %"class.std::__1::__vector_base.43"*, align 8
  %28 = alloca %"class.std::__1::__libcpp_compressed_pair_imp.46"*, align 8
  %29 = alloca %"class.std::__1::__compressed_pair.45"*, align 8
  %30 = alloca %"class.std::__1::__vector_base.43"*, align 8
  %31 = alloca %"class.std::__1::vector.42"*, align 8
  %32 = alloca %"class.std::__1::shared_ptr.44"*, align 8
  %33 = alloca %"struct.std::__1::vector<std::__1::shared_ptr<AstNode>, std::__1::allocator<std::__1::shared_ptr<AstNode> > >::__RAII_IncreaseAnnotator", align 1
  %34 = alloca %"struct.std::__1::shared_ptr<AstNode>::__nat", align 4
  %35 = alloca %"class.std::__1::shared_ptr.44"*, align 8
  %36 = alloca %"class.std::__1::shared_ptr"*, align 8
  %37 = alloca %"struct.std::__1::shared_ptr<AstNode>::__nat", align 4
  %38 = alloca %"class.std::__1::shared_ptr.44"*, align 8
  %39 = alloca %"class.std::__1::shared_ptr"*, align 8
  %40 = alloca %"class.std::__1::shared_ptr"*, align 8
  %41 = alloca %"class.std::__1::shared_ptr"*, align 8
  %42 = alloca %"class.std::__1::shared_ptr.44"*, align 8
  %43 = alloca %"class.std::__1::shared_ptr.44"*, align 8
  %44 = alloca %"class.std::__1::shared_ptr.44"*, align 8
  %45 = alloca %"class.std::__1::shared_ptr.44"*, align 8
  %46 = alloca %"class.std::__1::shared_ptr.44"*, align 8
  %47 = alloca %"class.std::__1::shared_ptr.44"*, align 8
  %48 = alloca %"class.std::__1::allocator.47"*, align 8
  %49 = alloca %"class.std::__1::shared_ptr.44"*, align 8
  %50 = alloca %"class.std::__1::shared_ptr.44"*, align 8
  %51 = alloca %"class.std::__1::shared_ptr.44"*, align 8
  %52 = alloca %"struct.std::__1::integral_constant", align 1
  %53 = alloca %"class.std::__1::allocator.47"*, align 8
  %54 = alloca %"class.std::__1::shared_ptr.44"*, align 8
  %55 = alloca %"class.std::__1::shared_ptr.44"*, align 8
  %56 = alloca %"class.std::__1::shared_ptr.44"*, align 8
  %57 = alloca %"class.std::__1::allocator.47"*, align 8
  %58 = alloca %"class.std::__1::shared_ptr.44"*, align 8
  %59 = alloca %"class.std::__1::shared_ptr.44"*, align 8
  %60 = alloca %"struct.std::__1::integral_constant", align 1
  %61 = alloca %"struct.std::__1::__has_construct.301", align 1
  %62 = alloca %"class.std::__1::shared_ptr.44"*, align 8
  %63 = alloca %"class.std::__1::shared_ptr.44"*, align 8
  %64 = alloca %"class.std::__1::__libcpp_compressed_pair_imp.46"*, align 8
  %65 = alloca %"class.std::__1::__compressed_pair.45"*, align 8
  %66 = alloca %"class.std::__1::__vector_base.43"*, align 8
  %67 = alloca %"class.std::__1::__libcpp_compressed_pair_imp.46"*, align 8
  %68 = alloca %"class.std::__1::__compressed_pair.45"*, align 8
  %69 = alloca %"class.std::__1::__vector_base.43"*, align 8
  %70 = alloca %"class.std::__1::vector.42"*, align 8
  %71 = alloca %"class.std::__1::shared_ptr.44"*, align 8
  %72 = alloca %"struct.std::__1::vector<std::__1::shared_ptr<AstNode>, std::__1::allocator<std::__1::shared_ptr<AstNode> > >::__RAII_IncreaseAnnotator", align 1
  %73 = alloca %"struct.std::__1::shared_ptr<AstNode>::__nat", align 4
  %74 = alloca %"class.std::__1::shared_ptr.44"*, align 8
  %75 = alloca %"class.std::__1::shared_ptr.41"*, align 8
  %76 = alloca %"struct.std::__1::shared_ptr<AstNode>::__nat", align 4
  %77 = alloca %"class.std::__1::shared_ptr.44"*, align 8
  %78 = alloca %"class.std::__1::shared_ptr.41"*, align 8
  %79 = alloca %"class.std::__1::shared_ptr.41"*, align 8
  %80 = alloca %"class.std::__1::shared_ptr.41"*, align 8
  %81 = alloca %"class.std::__1::shared_ptr.41"*, align 8
  %82 = alloca %"class.std::__1::shared_ptr.41"*, align 8
  %83 = alloca %"struct.std::__1::pair"*, align 8
  %84 = alloca %"struct.std::__1::pair"*, align 8
  %85 = alloca %"class.std::__1::shared_ptr"*, align 8
  %86 = alloca %"class.std::__1::shared_ptr.41"*, align 8
  %87 = alloca %"class.std::__1::shared_ptr"*, align 8
  %88 = alloca %"class.std::__1::shared_ptr"*, align 8
  %89 = alloca %"class.std::__1::shared_ptr"*, align 8
  %90 = alloca %"class.std::__1::shared_ptr"*, align 8
  %91 = alloca %"struct.std::__1::pair"*, align 8
  %92 = alloca %"struct.std::__1::pair"*, align 8
  %93 = alloca %"struct.std::__1::pair"*, align 8
  %94 = alloca %"struct.std::__1::pair"*, align 8
  %95 = alloca %"struct.std::__1::pair"*, align 8
  %96 = alloca %"struct.std::__1::pair"*, align 8
  %97 = alloca %"class.std::__1::__wrap_iter.49"*, align 8
  %98 = alloca %"class.std::__1::__wrap_iter.49"*, align 8
  %99 = alloca %"class.std::__1::__wrap_iter.49"*, align 8
  %100 = alloca %"class.std::__1::__wrap_iter.49"*, align 8
  %101 = alloca %"class.std::__1::__wrap_iter.49"*, align 8
  %102 = alloca %"class.std::__1::__wrap_iter.49"*, align 8
  %103 = alloca %"class.std::__1::__wrap_iter.49"*, align 8
  %104 = alloca %"class.std::__1::__wrap_iter.49"*, align 8
  %105 = alloca %"class.std::__1::__wrap_iter.49"*, align 8
  %106 = alloca %"struct.std::__1::pair"*, align 8
  %107 = alloca %"class.std::__1::__wrap_iter.49"*, align 8
  %108 = alloca %"struct.std::__1::pair"*, align 8
  %109 = alloca %"class.std::__1::__wrap_iter.49", align 8
  %110 = alloca %"class.std::__1::vector.26"*, align 8
  %111 = alloca %"struct.std::__1::pair"*, align 8
  %112 = alloca %"class.std::__1::__wrap_iter.49", align 8
  %113 = alloca %"class.std::__1::vector.26"*, align 8
  %114 = alloca %"class.std::__1::__wrap_iter.49"*, align 8
  %115 = alloca %"struct.std::__1::pair"*, align 8
  %116 = alloca %"class.std::__1::__wrap_iter.49"*, align 8
  %117 = alloca %"struct.std::__1::pair"*, align 8
  %118 = alloca %"class.std::__1::__wrap_iter.49", align 8
  %119 = alloca %"class.std::__1::vector.26"*, align 8
  %120 = alloca %"struct.std::__1::pair"*, align 8
  %121 = alloca %"class.std::__1::__wrap_iter.49", align 8
  %122 = alloca %"class.std::__1::vector.26"*, align 8
  %123 = alloca %"class.std::__1::shared_ptr.44"**, align 8
  %124 = alloca %"class.std::__1::allocator.47"*, align 8
  %125 = alloca %"class.std::__1::__libcpp_compressed_pair_imp.46"*, align 8
  %126 = alloca %"class.std::__1::shared_ptr.44"*, align 8
  %127 = alloca %"class.std::__1::shared_ptr.44"**, align 8
  %128 = alloca %"class.std::__1::__compressed_pair.45"*, align 8
  %129 = alloca %"class.std::__1::shared_ptr.44"*, align 8
  %130 = alloca %"class.std::__1::__compressed_pair.45"*, align 8
  %131 = alloca %"class.std::__1::shared_ptr.44"*, align 8
  %132 = alloca %"class.std::__1::__vector_base_common"*, align 8
  %133 = alloca %"class.std::__1::__vector_base.43"*, align 8
  %134 = alloca %"class.std::__1::vector.42"*, align 8
  %135 = alloca %"class.std::__1::vector.42"*, align 8
  %136 = alloca %class.DeclStmt*, align 8
  %137 = alloca i1, align 1
  %138 = alloca %"class.std::__1::vector.26"*, align 8
  %139 = alloca %"class.std::__1::__wrap_iter.49", align 8
  %140 = alloca %"class.std::__1::__wrap_iter.49", align 8
  %141 = alloca %"struct.std::__1::pair", align 8
  %142 = alloca i8*
  %143 = alloca i32
  %144 = alloca %"class.std::__1::shared_ptr.44", align 8
  %145 = alloca %"struct.std::__1::shared_ptr<AstNode>::__nat", align 4
  %146 = alloca %"class.std::__1::shared_ptr.44", align 8
  %147 = alloca %"struct.std::__1::shared_ptr<AstNode>::__nat", align 4
  store %class.DeclStmt* %1, %class.DeclStmt** %136, align 8
  %148 = load %class.DeclStmt*, %class.DeclStmt** %136, align 8
  store i1 false, i1* %137, align 1
  store %"class.std::__1::vector.42"* %0, %"class.std::__1::vector.42"** %135, align 8
  %149 = load %"class.std::__1::vector.42"*, %"class.std::__1::vector.42"** %135, align 8
  store %"class.std::__1::vector.42"* %149, %"class.std::__1::vector.42"** %134, align 8
  %150 = load %"class.std::__1::vector.42"*, %"class.std::__1::vector.42"** %134, align 8
  %151 = bitcast %"class.std::__1::vector.42"* %150 to %"class.std::__1::__vector_base.43"*
  store %"class.std::__1::__vector_base.43"* %151, %"class.std::__1::__vector_base.43"** %133, align 8
  %152 = load %"class.std::__1::__vector_base.43"*, %"class.std::__1::__vector_base.43"** %133, align 8
  %153 = bitcast %"class.std::__1::__vector_base.43"* %152 to %"class.std::__1::__vector_base_common"*
  store %"class.std::__1::__vector_base_common"* %153, %"class.std::__1::__vector_base_common"** %132, align 8
  %154 = load %"class.std::__1::__vector_base_common"*, %"class.std::__1::__vector_base_common"** %132, align 8
  %155 = getelementptr inbounds %"class.std::__1::__vector_base.43", %"class.std::__1::__vector_base.43"* %152, i32 0, i32 0
  store %"class.std::__1::shared_ptr.44"* null, %"class.std::__1::shared_ptr.44"** %155, align 8
  %156 = getelementptr inbounds %"class.std::__1::__vector_base.43", %"class.std::__1::__vector_base.43"* %152, i32 0, i32 1
  store %"class.std::__1::shared_ptr.44"* null, %"class.std::__1::shared_ptr.44"** %156, align 8
  %157 = getelementptr inbounds %"class.std::__1::__vector_base.43", %"class.std::__1::__vector_base.43"* %152, i32 0, i32 2
  store %"class.std::__1::__compressed_pair.45"* %157, %"class.std::__1::__compressed_pair.45"** %130, align 8
  store %"class.std::__1::shared_ptr.44"* null, %"class.std::__1::shared_ptr.44"** %131, align 8
  %158 = load %"class.std::__1::__compressed_pair.45"*, %"class.std::__1::__compressed_pair.45"** %130, align 8
  %159 = load %"class.std::__1::shared_ptr.44"*, %"class.std::__1::shared_ptr.44"** %131, align 8
  store %"class.std::__1::__compressed_pair.45"* %158, %"class.std::__1::__compressed_pair.45"** %128, align 8
  store %"class.std::__1::shared_ptr.44"* %159, %"class.std::__1::shared_ptr.44"** %129, align 8
  %160 = load %"class.std::__1::__compressed_pair.45"*, %"class.std::__1::__compressed_pair.45"** %128, align 8
  %161 = bitcast %"class.std::__1::__compressed_pair.45"* %160 to %"class.std::__1::__libcpp_compressed_pair_imp.46"*
  store %"class.std::__1::shared_ptr.44"** %129, %"class.std::__1::shared_ptr.44"*** %127, align 8
  %162 = load %"class.std::__1::shared_ptr.44"**, %"class.std::__1::shared_ptr.44"*** %127, align 8
  %163 = load %"class.std::__1::shared_ptr.44"*, %"class.std::__1::shared_ptr.44"** %162, align 8
  store %"class.std::__1::__libcpp_compressed_pair_imp.46"* %161, %"class.std::__1::__libcpp_compressed_pair_imp.46"** %125, align 8
  store %"class.std::__1::shared_ptr.44"* %163, %"class.std::__1::shared_ptr.44"** %126, align 8
  %164 = load %"class.std::__1::__libcpp_compressed_pair_imp.46"*, %"class.std::__1::__libcpp_compressed_pair_imp.46"** %125, align 8
  %165 = bitcast %"class.std::__1::__libcpp_compressed_pair_imp.46"* %164 to %"class.std::__1::allocator.47"*
  store %"class.std::__1::allocator.47"* %165, %"class.std::__1::allocator.47"** %124, align 8
  %166 = load %"class.std::__1::allocator.47"*, %"class.std::__1::allocator.47"** %124, align 8
  %167 = getelementptr inbounds %"class.std::__1::__libcpp_compressed_pair_imp.46", %"class.std::__1::__libcpp_compressed_pair_imp.46"* %164, i32 0, i32 0
  store %"class.std::__1::shared_ptr.44"** %126, %"class.std::__1::shared_ptr.44"*** %123, align 8
  %168 = load %"class.std::__1::shared_ptr.44"**, %"class.std::__1::shared_ptr.44"*** %123, align 8
  %169 = load %"class.std::__1::shared_ptr.44"*, %"class.std::__1::shared_ptr.44"** %168, align 8
  store %"class.std::__1::shared_ptr.44"* %169, %"class.std::__1::shared_ptr.44"** %167, align 8
  %170 = getelementptr inbounds %class.DeclStmt, %class.DeclStmt* %148, i32 0, i32 3
  store %"class.std::__1::vector.26"* %170, %"class.std::__1::vector.26"** %138, align 8
  %171 = load %"class.std::__1::vector.26"*, %"class.std::__1::vector.26"** %138, align 8
  store %"class.std::__1::vector.26"* %171, %"class.std::__1::vector.26"** %122, align 8
  %172 = load %"class.std::__1::vector.26"*, %"class.std::__1::vector.26"** %122, align 8
  %173 = bitcast %"class.std::__1::vector.26"* %172 to %"class.std::__1::__vector_base.27"*
  %174 = getelementptr inbounds %"class.std::__1::__vector_base.27", %"class.std::__1::__vector_base.27"* %173, i32 0, i32 0
  %175 = load %"struct.std::__1::pair"*, %"struct.std::__1::pair"** %174, align 8
  store %"class.std::__1::vector.26"* %172, %"class.std::__1::vector.26"** %119, align 8
  store %"struct.std::__1::pair"* %175, %"struct.std::__1::pair"** %120, align 8
  %176 = load %"class.std::__1::vector.26"*, %"class.std::__1::vector.26"** %119, align 8
  %177 = load %"struct.std::__1::pair"*, %"struct.std::__1::pair"** %120, align 8
  store %"class.std::__1::__wrap_iter.49"* %118, %"class.std::__1::__wrap_iter.49"** %116, align 8
  store %"struct.std::__1::pair"* %177, %"struct.std::__1::pair"** %117, align 8
  %178 = load %"class.std::__1::__wrap_iter.49"*, %"class.std::__1::__wrap_iter.49"** %116, align 8
  %179 = load %"struct.std::__1::pair"*, %"struct.std::__1::pair"** %117, align 8
  store %"class.std::__1::__wrap_iter.49"* %178, %"class.std::__1::__wrap_iter.49"** %114, align 8
  store %"struct.std::__1::pair"* %179, %"struct.std::__1::pair"** %115, align 8
  %180 = load %"class.std::__1::__wrap_iter.49"*, %"class.std::__1::__wrap_iter.49"** %114, align 8
  %181 = getelementptr inbounds %"class.std::__1::__wrap_iter.49", %"class.std::__1::__wrap_iter.49"* %180, i32 0, i32 0
  %182 = load %"struct.std::__1::pair"*, %"struct.std::__1::pair"** %115, align 8
  store %"struct.std::__1::pair"* %182, %"struct.std::__1::pair"** %181, align 8
  %183 = getelementptr inbounds %"class.std::__1::__wrap_iter.49", %"class.std::__1::__wrap_iter.49"* %118, i32 0, i32 0
  %184 = load %"struct.std::__1::pair"*, %"struct.std::__1::pair"** %183, align 8
  %185 = getelementptr inbounds %"class.std::__1::__wrap_iter.49", %"class.std::__1::__wrap_iter.49"* %121, i32 0, i32 0
  store %"struct.std::__1::pair"* %184, %"struct.std::__1::pair"** %185, align 8
  %186 = getelementptr inbounds %"class.std::__1::__wrap_iter.49", %"class.std::__1::__wrap_iter.49"* %121, i32 0, i32 0
  %187 = load %"struct.std::__1::pair"*, %"struct.std::__1::pair"** %186, align 8
  %188 = getelementptr inbounds %"class.std::__1::__wrap_iter.49", %"class.std::__1::__wrap_iter.49"* %139, i32 0, i32 0
  store %"struct.std::__1::pair"* %187, %"struct.std::__1::pair"** %188, align 8
  %189 = load %"class.std::__1::vector.26"*, %"class.std::__1::vector.26"** %138, align 8
  store %"class.std::__1::vector.26"* %189, %"class.std::__1::vector.26"** %113, align 8
  %190 = load %"class.std::__1::vector.26"*, %"class.std::__1::vector.26"** %113, align 8
  %191 = bitcast %"class.std::__1::vector.26"* %190 to %"class.std::__1::__vector_base.27"*
  %192 = getelementptr inbounds %"class.std::__1::__vector_base.27", %"class.std::__1::__vector_base.27"* %191, i32 0, i32 1
  %193 = load %"struct.std::__1::pair"*, %"struct.std::__1::pair"** %192, align 8
  store %"class.std::__1::vector.26"* %190, %"class.std::__1::vector.26"** %110, align 8
  store %"struct.std::__1::pair"* %193, %"struct.std::__1::pair"** %111, align 8
  %194 = load %"class.std::__1::vector.26"*, %"class.std::__1::vector.26"** %110, align 8
  %195 = load %"struct.std::__1::pair"*, %"struct.std::__1::pair"** %111, align 8
  store %"class.std::__1::__wrap_iter.49"* %109, %"class.std::__1::__wrap_iter.49"** %107, align 8
  store %"struct.std::__1::pair"* %195, %"struct.std::__1::pair"** %108, align 8
  %196 = load %"class.std::__1::__wrap_iter.49"*, %"class.std::__1::__wrap_iter.49"** %107, align 8
  %197 = load %"struct.std::__1::pair"*, %"struct.std::__1::pair"** %108, align 8
  store %"class.std::__1::__wrap_iter.49"* %196, %"class.std::__1::__wrap_iter.49"** %105, align 8
  store %"struct.std::__1::pair"* %197, %"struct.std::__1::pair"** %106, align 8
  %198 = load %"class.std::__1::__wrap_iter.49"*, %"class.std::__1::__wrap_iter.49"** %105, align 8
  %199 = getelementptr inbounds %"class.std::__1::__wrap_iter.49", %"class.std::__1::__wrap_iter.49"* %198, i32 0, i32 0
  %200 = load %"struct.std::__1::pair"*, %"struct.std::__1::pair"** %106, align 8
  store %"struct.std::__1::pair"* %200, %"struct.std::__1::pair"** %199, align 8
  %201 = getelementptr inbounds %"class.std::__1::__wrap_iter.49", %"class.std::__1::__wrap_iter.49"* %109, i32 0, i32 0
  %202 = load %"struct.std::__1::pair"*, %"struct.std::__1::pair"** %201, align 8
  %203 = getelementptr inbounds %"class.std::__1::__wrap_iter.49", %"class.std::__1::__wrap_iter.49"* %112, i32 0, i32 0
  store %"struct.std::__1::pair"* %202, %"struct.std::__1::pair"** %203, align 8
  %204 = getelementptr inbounds %"class.std::__1::__wrap_iter.49", %"class.std::__1::__wrap_iter.49"* %112, i32 0, i32 0
  %205 = load %"struct.std::__1::pair"*, %"struct.std::__1::pair"** %204, align 8
  %206 = getelementptr inbounds %"class.std::__1::__wrap_iter.49", %"class.std::__1::__wrap_iter.49"* %140, i32 0, i32 0
  store %"struct.std::__1::pair"* %205, %"struct.std::__1::pair"** %206, align 8
  br label %207

; <label>:207:                                    ; preds = %484, %2
  store %"class.std::__1::__wrap_iter.49"* %139, %"class.std::__1::__wrap_iter.49"** %103, align 8
  store %"class.std::__1::__wrap_iter.49"* %140, %"class.std::__1::__wrap_iter.49"** %104, align 8
  %208 = load %"class.std::__1::__wrap_iter.49"*, %"class.std::__1::__wrap_iter.49"** %103, align 8
  %209 = load %"class.std::__1::__wrap_iter.49"*, %"class.std::__1::__wrap_iter.49"** %104, align 8
  store %"class.std::__1::__wrap_iter.49"* %208, %"class.std::__1::__wrap_iter.49"** %101, align 8
  store %"class.std::__1::__wrap_iter.49"* %209, %"class.std::__1::__wrap_iter.49"** %102, align 8
  %210 = load %"class.std::__1::__wrap_iter.49"*, %"class.std::__1::__wrap_iter.49"** %101, align 8
  store %"class.std::__1::__wrap_iter.49"* %210, %"class.std::__1::__wrap_iter.49"** %100, align 8
  %211 = load %"class.std::__1::__wrap_iter.49"*, %"class.std::__1::__wrap_iter.49"** %100, align 8
  %212 = getelementptr inbounds %"class.std::__1::__wrap_iter.49", %"class.std::__1::__wrap_iter.49"* %211, i32 0, i32 0
  %213 = load %"struct.std::__1::pair"*, %"struct.std::__1::pair"** %212, align 8
  %214 = load %"class.std::__1::__wrap_iter.49"*, %"class.std::__1::__wrap_iter.49"** %102, align 8
  store %"class.std::__1::__wrap_iter.49"* %214, %"class.std::__1::__wrap_iter.49"** %99, align 8
  %215 = load %"class.std::__1::__wrap_iter.49"*, %"class.std::__1::__wrap_iter.49"** %99, align 8
  %216 = getelementptr inbounds %"class.std::__1::__wrap_iter.49", %"class.std::__1::__wrap_iter.49"* %215, i32 0, i32 0
  %217 = load %"struct.std::__1::pair"*, %"struct.std::__1::pair"** %216, align 8
  %218 = icmp eq %"struct.std::__1::pair"* %213, %217
  %219 = xor i1 %218, true
  br i1 %219, label %220, label %490

; <label>:220:                                    ; preds = %207
  store %"class.std::__1::__wrap_iter.49"* %139, %"class.std::__1::__wrap_iter.49"** %97, align 8
  %221 = load %"class.std::__1::__wrap_iter.49"*, %"class.std::__1::__wrap_iter.49"** %97, align 8
  %222 = getelementptr inbounds %"class.std::__1::__wrap_iter.49", %"class.std::__1::__wrap_iter.49"* %221, i32 0, i32 0
  %223 = load %"struct.std::__1::pair"*, %"struct.std::__1::pair"** %222, align 8
  store %"struct.std::__1::pair"* %141, %"struct.std::__1::pair"** %95, align 8
  store %"struct.std::__1::pair"* %223, %"struct.std::__1::pair"** %96, align 8
  %224 = load %"struct.std::__1::pair"*, %"struct.std::__1::pair"** %95, align 8
  %225 = load %"struct.std::__1::pair"*, %"struct.std::__1::pair"** %96, align 8
  store %"struct.std::__1::pair"* %224, %"struct.std::__1::pair"** %93, align 8
  store %"struct.std::__1::pair"* %225, %"struct.std::__1::pair"** %94, align 8
  %226 = load %"struct.std::__1::pair"*, %"struct.std::__1::pair"** %93, align 8
  %227 = getelementptr inbounds %"struct.std::__1::pair", %"struct.std::__1::pair"* %226, i32 0, i32 0
  %228 = load %"struct.std::__1::pair"*, %"struct.std::__1::pair"** %94, align 8
  store %"struct.std::__1::pair"* %228, %"struct.std::__1::pair"** %92, align 8
  %229 = load %"struct.std::__1::pair"*, %"struct.std::__1::pair"** %92, align 8
  store %"struct.std::__1::pair"* %229, %"struct.std::__1::pair"** %91, align 8
  %230 = load %"struct.std::__1::pair"*, %"struct.std::__1::pair"** %91, align 8
  %231 = getelementptr inbounds %"struct.std::__1::pair", %"struct.std::__1::pair"* %230, i32 0, i32 0
  store %"class.std::__1::shared_ptr.41"* %231, %"class.std::__1::shared_ptr.41"** %86, align 8
  %232 = load %"class.std::__1::shared_ptr.41"*, %"class.std::__1::shared_ptr.41"** %86, align 8
  store %"class.std::__1::shared_ptr.41"* %227, %"class.std::__1::shared_ptr.41"** %81, align 8
  store %"class.std::__1::shared_ptr.41"* %232, %"class.std::__1::shared_ptr.41"** %82, align 8
  %233 = load %"class.std::__1::shared_ptr.41"*, %"class.std::__1::shared_ptr.41"** %81, align 8
  %234 = load %"class.std::__1::shared_ptr.41"*, %"class.std::__1::shared_ptr.41"** %82, align 8
  store %"class.std::__1::shared_ptr.41"* %233, %"class.std::__1::shared_ptr.41"** %79, align 8
  store %"class.std::__1::shared_ptr.41"* %234, %"class.std::__1::shared_ptr.41"** %80, align 8
  %235 = load %"class.std::__1::shared_ptr.41"*, %"class.std::__1::shared_ptr.41"** %79, align 8
  %236 = getelementptr inbounds %"class.std::__1::shared_ptr.41", %"class.std::__1::shared_ptr.41"* %235, i32 0, i32 0
  %237 = load %"class.std::__1::shared_ptr.41"*, %"class.std::__1::shared_ptr.41"** %80, align 8
  %238 = getelementptr inbounds %"class.std::__1::shared_ptr.41", %"class.std::__1::shared_ptr.41"* %237, i32 0, i32 0
  %239 = load %class.TypeRef*, %class.TypeRef** %238, align 8
  store %class.TypeRef* %239, %class.TypeRef** %236, align 8
  %240 = getelementptr inbounds %"class.std::__1::shared_ptr.41", %"class.std::__1::shared_ptr.41"* %235, i32 0, i32 1
  %241 = load %"class.std::__1::shared_ptr.41"*, %"class.std::__1::shared_ptr.41"** %80, align 8
  %242 = getelementptr inbounds %"class.std::__1::shared_ptr.41", %"class.std::__1::shared_ptr.41"* %241, i32 0, i32 1
  %243 = load %"class.std::__1::__shared_weak_count"*, %"class.std::__1::__shared_weak_count"** %242, align 8
  store %"class.std::__1::__shared_weak_count"* %243, %"class.std::__1::__shared_weak_count"** %240, align 8
  %244 = getelementptr inbounds %"class.std::__1::shared_ptr.41", %"class.std::__1::shared_ptr.41"* %235, i32 0, i32 1
  %245 = load %"class.std::__1::__shared_weak_count"*, %"class.std::__1::__shared_weak_count"** %244, align 8
  %246 = icmp ne %"class.std::__1::__shared_weak_count"* %245, null
  br i1 %246, label %247, label %250

; <label>:247:                                    ; preds = %220
  %248 = getelementptr inbounds %"class.std::__1::shared_ptr.41", %"class.std::__1::shared_ptr.41"* %235, i32 0, i32 1
  %249 = load %"class.std::__1::__shared_weak_count"*, %"class.std::__1::__shared_weak_count"** %248, align 8
  call void @_ZNSt3__119__shared_weak_count12__add_sharedEv(%"class.std::__1::__shared_weak_count"* %249) #14
  br label %250

; <label>:250:                                    ; preds = %247, %220
  %251 = getelementptr inbounds %"struct.std::__1::pair", %"struct.std::__1::pair"* %226, i32 0, i32 1
  %252 = load %"struct.std::__1::pair"*, %"struct.std::__1::pair"** %94, align 8
  store %"struct.std::__1::pair"* %252, %"struct.std::__1::pair"** %84, align 8
  %253 = load %"struct.std::__1::pair"*, %"struct.std::__1::pair"** %84, align 8
  store %"struct.std::__1::pair"* %253, %"struct.std::__1::pair"** %83, align 8
  %254 = load %"struct.std::__1::pair"*, %"struct.std::__1::pair"** %83, align 8
  %255 = getelementptr inbounds %"struct.std::__1::pair", %"struct.std::__1::pair"* %254, i32 0, i32 1
  store %"class.std::__1::shared_ptr"* %255, %"class.std::__1::shared_ptr"** %85, align 8
  %256 = load %"class.std::__1::shared_ptr"*, %"class.std::__1::shared_ptr"** %85, align 8
  store %"class.std::__1::shared_ptr"* %251, %"class.std::__1::shared_ptr"** %89, align 8
  store %"class.std::__1::shared_ptr"* %256, %"class.std::__1::shared_ptr"** %90, align 8
  %257 = load %"class.std::__1::shared_ptr"*, %"class.std::__1::shared_ptr"** %89, align 8
  %258 = load %"class.std::__1::shared_ptr"*, %"class.std::__1::shared_ptr"** %90, align 8
  store %"class.std::__1::shared_ptr"* %257, %"class.std::__1::shared_ptr"** %87, align 8
  store %"class.std::__1::shared_ptr"* %258, %"class.std::__1::shared_ptr"** %88, align 8
  %259 = load %"class.std::__1::shared_ptr"*, %"class.std::__1::shared_ptr"** %87, align 8
  %260 = getelementptr inbounds %"class.std::__1::shared_ptr", %"class.std::__1::shared_ptr"* %259, i32 0, i32 0
  %261 = load %"class.std::__1::shared_ptr"*, %"class.std::__1::shared_ptr"** %88, align 8
  %262 = getelementptr inbounds %"class.std::__1::shared_ptr", %"class.std::__1::shared_ptr"* %261, i32 0, i32 0
  %263 = load %class.Expression*, %class.Expression** %262, align 8
  store %class.Expression* %263, %class.Expression** %260, align 8
  %264 = getelementptr inbounds %"class.std::__1::shared_ptr", %"class.std::__1::shared_ptr"* %259, i32 0, i32 1
  %265 = load %"class.std::__1::shared_ptr"*, %"class.std::__1::shared_ptr"** %88, align 8
  %266 = getelementptr inbounds %"class.std::__1::shared_ptr", %"class.std::__1::shared_ptr"* %265, i32 0, i32 1
  %267 = load %"class.std::__1::__shared_weak_count"*, %"class.std::__1::__shared_weak_count"** %266, align 8
  store %"class.std::__1::__shared_weak_count"* %267, %"class.std::__1::__shared_weak_count"** %264, align 8
  %268 = getelementptr inbounds %"class.std::__1::shared_ptr", %"class.std::__1::shared_ptr"* %259, i32 0, i32 1
  %269 = load %"class.std::__1::__shared_weak_count"*, %"class.std::__1::__shared_weak_count"** %268, align 8
  %270 = icmp ne %"class.std::__1::__shared_weak_count"* %269, null
  br i1 %270, label %271, label %274

; <label>:271:                                    ; preds = %250
  %272 = getelementptr inbounds %"class.std::__1::shared_ptr", %"class.std::__1::shared_ptr"* %259, i32 0, i32 1
  %273 = load %"class.std::__1::__shared_weak_count"*, %"class.std::__1::__shared_weak_count"** %272, align 8
  call void @_ZNSt3__119__shared_weak_count12__add_sharedEv(%"class.std::__1::__shared_weak_count"* %273) #14
  br label %274

; <label>:274:                                    ; preds = %250, %271
  br label %275

; <label>:275:                                    ; preds = %274
  %276 = getelementptr inbounds %"struct.std::__1::pair", %"struct.std::__1::pair"* %141, i32 0, i32 0
  %277 = bitcast %"struct.std::__1::shared_ptr<AstNode>::__nat"* %145 to i8*
  call void @llvm.memset.p0i8.i64(i8* %277, i8 0, i64 4, i32 4, i1 false)
  %278 = getelementptr inbounds %"struct.std::__1::shared_ptr<AstNode>::__nat", %"struct.std::__1::shared_ptr<AstNode>::__nat"* %145, i32 0, i32 0
  %279 = load i32, i32* %278, align 4
  %280 = getelementptr inbounds %"struct.std::__1::shared_ptr<AstNode>::__nat", %"struct.std::__1::shared_ptr<AstNode>::__nat"* %76, i32 0, i32 0
  store i32 %279, i32* %280, align 4
  store %"class.std::__1::shared_ptr.44"* %144, %"class.std::__1::shared_ptr.44"** %77, align 8
  store %"class.std::__1::shared_ptr.41"* %276, %"class.std::__1::shared_ptr.41"** %78, align 8
  %281 = load %"class.std::__1::shared_ptr.44"*, %"class.std::__1::shared_ptr.44"** %77, align 8
  %282 = load %"class.std::__1::shared_ptr.41"*, %"class.std::__1::shared_ptr.41"** %78, align 8
  %283 = getelementptr inbounds %"struct.std::__1::shared_ptr<AstNode>::__nat", %"struct.std::__1::shared_ptr<AstNode>::__nat"* %76, i32 0, i32 0
  %284 = load i32, i32* %283, align 4
  %285 = getelementptr inbounds %"struct.std::__1::shared_ptr<AstNode>::__nat", %"struct.std::__1::shared_ptr<AstNode>::__nat"* %73, i32 0, i32 0
  store i32 %284, i32* %285, align 4
  store %"class.std::__1::shared_ptr.44"* %281, %"class.std::__1::shared_ptr.44"** %74, align 8
  store %"class.std::__1::shared_ptr.41"* %282, %"class.std::__1::shared_ptr.41"** %75, align 8
  %286 = load %"class.std::__1::shared_ptr.44"*, %"class.std::__1::shared_ptr.44"** %74, align 8
  %287 = getelementptr inbounds %"class.std::__1::shared_ptr.44", %"class.std::__1::shared_ptr.44"* %286, i32 0, i32 0
  %288 = load %"class.std::__1::shared_ptr.41"*, %"class.std::__1::shared_ptr.41"** %75, align 8
  %289 = getelementptr inbounds %"class.std::__1::shared_ptr.41", %"class.std::__1::shared_ptr.41"* %288, i32 0, i32 0
  %290 = load %class.TypeRef*, %class.TypeRef** %289, align 8
  %291 = bitcast %class.TypeRef* %290 to %class.AstNode*
  store %class.AstNode* %291, %class.AstNode** %287, align 8
  %292 = getelementptr inbounds %"class.std::__1::shared_ptr.44", %"class.std::__1::shared_ptr.44"* %286, i32 0, i32 1
  %293 = load %"class.std::__1::shared_ptr.41"*, %"class.std::__1::shared_ptr.41"** %75, align 8
  %294 = getelementptr inbounds %"class.std::__1::shared_ptr.41", %"class.std::__1::shared_ptr.41"* %293, i32 0, i32 1
  %295 = load %"class.std::__1::__shared_weak_count"*, %"class.std::__1::__shared_weak_count"** %294, align 8
  store %"class.std::__1::__shared_weak_count"* %295, %"class.std::__1::__shared_weak_count"** %292, align 8
  %296 = getelementptr inbounds %"class.std::__1::shared_ptr.44", %"class.std::__1::shared_ptr.44"* %286, i32 0, i32 1
  %297 = load %"class.std::__1::__shared_weak_count"*, %"class.std::__1::__shared_weak_count"** %296, align 8
  %298 = icmp ne %"class.std::__1::__shared_weak_count"* %297, null
  br i1 %298, label %299, label %302

; <label>:299:                                    ; preds = %275
  %300 = getelementptr inbounds %"class.std::__1::shared_ptr.44", %"class.std::__1::shared_ptr.44"* %286, i32 0, i32 1
  %301 = load %"class.std::__1::__shared_weak_count"*, %"class.std::__1::__shared_weak_count"** %300, align 8
  call void @_ZNSt3__119__shared_weak_count12__add_sharedEv(%"class.std::__1::__shared_weak_count"* %301) #14
  br label %302

; <label>:302:                                    ; preds = %275, %299
  store %"class.std::__1::vector.42"* %0, %"class.std::__1::vector.42"** %70, align 8
  store %"class.std::__1::shared_ptr.44"* %144, %"class.std::__1::shared_ptr.44"** %71, align 8
  %303 = load %"class.std::__1::vector.42"*, %"class.std::__1::vector.42"** %70, align 8
  %304 = bitcast %"class.std::__1::vector.42"* %303 to %"class.std::__1::__vector_base.43"*
  %305 = getelementptr inbounds %"class.std::__1::__vector_base.43", %"class.std::__1::__vector_base.43"* %304, i32 0, i32 1
  %306 = load %"class.std::__1::shared_ptr.44"*, %"class.std::__1::shared_ptr.44"** %305, align 8
  %307 = bitcast %"class.std::__1::vector.42"* %303 to %"class.std::__1::__vector_base.43"*
  store %"class.std::__1::__vector_base.43"* %307, %"class.std::__1::__vector_base.43"** %69, align 8
  %308 = load %"class.std::__1::__vector_base.43"*, %"class.std::__1::__vector_base.43"** %69, align 8
  %309 = getelementptr inbounds %"class.std::__1::__vector_base.43", %"class.std::__1::__vector_base.43"* %308, i32 0, i32 2
  store %"class.std::__1::__compressed_pair.45"* %309, %"class.std::__1::__compressed_pair.45"** %68, align 8
  %310 = load %"class.std::__1::__compressed_pair.45"*, %"class.std::__1::__compressed_pair.45"** %68, align 8
  %311 = bitcast %"class.std::__1::__compressed_pair.45"* %310 to %"class.std::__1::__libcpp_compressed_pair_imp.46"*
  store %"class.std::__1::__libcpp_compressed_pair_imp.46"* %311, %"class.std::__1::__libcpp_compressed_pair_imp.46"** %67, align 8
  %312 = load %"class.std::__1::__libcpp_compressed_pair_imp.46"*, %"class.std::__1::__libcpp_compressed_pair_imp.46"** %67, align 8
  %313 = getelementptr inbounds %"class.std::__1::__libcpp_compressed_pair_imp.46", %"class.std::__1::__libcpp_compressed_pair_imp.46"* %312, i32 0, i32 0
  %314 = load %"class.std::__1::shared_ptr.44"*, %"class.std::__1::shared_ptr.44"** %313, align 8
  %315 = icmp ult %"class.std::__1::shared_ptr.44"* %306, %314
  br i1 %315, label %316, label %364

; <label>:316:                                    ; preds = %302
  invoke void @_ZNSt3__16vectorINS_10shared_ptrI7AstNodeEENS_9allocatorIS3_EEE24__RAII_IncreaseAnnotatorC1ERKS6_m(%"struct.std::__1::vector<std::__1::shared_ptr<AstNode>, std::__1::allocator<std::__1::shared_ptr<AstNode> > >::__RAII_IncreaseAnnotator"* %72, %"class.std::__1::vector.42"* dereferenceable(24) %303, i64 1)
          to label %317 unwind label %475

; <label>:317:                                    ; preds = %316
  %318 = bitcast %"class.std::__1::vector.42"* %303 to %"class.std::__1::__vector_base.43"*
  store %"class.std::__1::__vector_base.43"* %318, %"class.std::__1::__vector_base.43"** %66, align 8
  %319 = load %"class.std::__1::__vector_base.43"*, %"class.std::__1::__vector_base.43"** %66, align 8
  %320 = getelementptr inbounds %"class.std::__1::__vector_base.43", %"class.std::__1::__vector_base.43"* %319, i32 0, i32 2
  store %"class.std::__1::__compressed_pair.45"* %320, %"class.std::__1::__compressed_pair.45"** %65, align 8
  %321 = load %"class.std::__1::__compressed_pair.45"*, %"class.std::__1::__compressed_pair.45"** %65, align 8
  %322 = bitcast %"class.std::__1::__compressed_pair.45"* %321 to %"class.std::__1::__libcpp_compressed_pair_imp.46"*
  store %"class.std::__1::__libcpp_compressed_pair_imp.46"* %322, %"class.std::__1::__libcpp_compressed_pair_imp.46"** %64, align 8
  %323 = load %"class.std::__1::__libcpp_compressed_pair_imp.46"*, %"class.std::__1::__libcpp_compressed_pair_imp.46"** %64, align 8
  %324 = bitcast %"class.std::__1::__libcpp_compressed_pair_imp.46"* %323 to %"class.std::__1::allocator.47"*
  %325 = bitcast %"class.std::__1::vector.42"* %303 to %"class.std::__1::__vector_base.43"*
  %326 = getelementptr inbounds %"class.std::__1::__vector_base.43", %"class.std::__1::__vector_base.43"* %325, i32 0, i32 1
  %327 = load %"class.std::__1::shared_ptr.44"*, %"class.std::__1::shared_ptr.44"** %326, align 8
  store %"class.std::__1::shared_ptr.44"* %327, %"class.std::__1::shared_ptr.44"** %62, align 8
  %328 = load %"class.std::__1::shared_ptr.44"*, %"class.std::__1::shared_ptr.44"** %62, align 8
  %329 = load %"class.std::__1::shared_ptr.44"*, %"class.std::__1::shared_ptr.44"** %71, align 8
  store %"class.std::__1::shared_ptr.44"* %329, %"class.std::__1::shared_ptr.44"** %42, align 8
  %330 = load %"class.std::__1::shared_ptr.44"*, %"class.std::__1::shared_ptr.44"** %42, align 8
  store %"class.std::__1::allocator.47"* %324, %"class.std::__1::allocator.47"** %57, align 8
  store %"class.std::__1::shared_ptr.44"* %328, %"class.std::__1::shared_ptr.44"** %58, align 8
  store %"class.std::__1::shared_ptr.44"* %330, %"class.std::__1::shared_ptr.44"** %59, align 8
  %331 = bitcast %"struct.std::__1::__has_construct.301"* %61 to %"struct.std::__1::integral_constant"*
  %332 = load %"class.std::__1::allocator.47"*, %"class.std::__1::allocator.47"** %57, align 8
  %333 = load %"class.std::__1::shared_ptr.44"*, %"class.std::__1::shared_ptr.44"** %58, align 8
  %334 = load %"class.std::__1::shared_ptr.44"*, %"class.std::__1::shared_ptr.44"** %59, align 8
  store %"class.std::__1::shared_ptr.44"* %334, %"class.std::__1::shared_ptr.44"** %56, align 8
  %335 = load %"class.std::__1::shared_ptr.44"*, %"class.std::__1::shared_ptr.44"** %56, align 8
  store %"class.std::__1::allocator.47"* %332, %"class.std::__1::allocator.47"** %53, align 8
  store %"class.std::__1::shared_ptr.44"* %333, %"class.std::__1::shared_ptr.44"** %54, align 8
  store %"class.std::__1::shared_ptr.44"* %335, %"class.std::__1::shared_ptr.44"** %55, align 8
  %336 = load %"class.std::__1::allocator.47"*, %"class.std::__1::allocator.47"** %53, align 8
  %337 = load %"class.std::__1::shared_ptr.44"*, %"class.std::__1::shared_ptr.44"** %54, align 8
  %338 = load %"class.std::__1::shared_ptr.44"*, %"class.std::__1::shared_ptr.44"** %55, align 8
  store %"class.std::__1::shared_ptr.44"* %338, %"class.std::__1::shared_ptr.44"** %51, align 8
  %339 = load %"class.std::__1::shared_ptr.44"*, %"class.std::__1::shared_ptr.44"** %51, align 8
  store %"class.std::__1::allocator.47"* %336, %"class.std::__1::allocator.47"** %48, align 8
  store %"class.std::__1::shared_ptr.44"* %337, %"class.std::__1::shared_ptr.44"** %49, align 8
  store %"class.std::__1::shared_ptr.44"* %339, %"class.std::__1::shared_ptr.44"** %50, align 8
  %340 = load %"class.std::__1::allocator.47"*, %"class.std::__1::allocator.47"** %48, align 8
  %341 = load %"class.std::__1::shared_ptr.44"*, %"class.std::__1::shared_ptr.44"** %49, align 8
  %342 = bitcast %"class.std::__1::shared_ptr.44"* %341 to i8*
  %343 = load %"class.std::__1::shared_ptr.44"*, %"class.std::__1::shared_ptr.44"** %50, align 8
  store %"class.std::__1::shared_ptr.44"* %343, %"class.std::__1::shared_ptr.44"** %47, align 8
  %344 = load %"class.std::__1::shared_ptr.44"*, %"class.std::__1::shared_ptr.44"** %47, align 8
  store %"class.std::__1::shared_ptr.44"* %341, %"class.std::__1::shared_ptr.44"** %45, align 8
  store %"class.std::__1::shared_ptr.44"* %344, %"class.std::__1::shared_ptr.44"** %46, align 8
  %345 = load %"class.std::__1::shared_ptr.44"*, %"class.std::__1::shared_ptr.44"** %45, align 8
  %346 = load %"class.std::__1::shared_ptr.44"*, %"class.std::__1::shared_ptr.44"** %46, align 8
  store %"class.std::__1::shared_ptr.44"* %345, %"class.std::__1::shared_ptr.44"** %43, align 8
  store %"class.std::__1::shared_ptr.44"* %346, %"class.std::__1::shared_ptr.44"** %44, align 8
  %347 = load %"class.std::__1::shared_ptr.44"*, %"class.std::__1::shared_ptr.44"** %43, align 8
  %348 = getelementptr inbounds %"class.std::__1::shared_ptr.44", %"class.std::__1::shared_ptr.44"* %347, i32 0, i32 0
  %349 = load %"class.std::__1::shared_ptr.44"*, %"class.std::__1::shared_ptr.44"** %44, align 8
  %350 = getelementptr inbounds %"class.std::__1::shared_ptr.44", %"class.std::__1::shared_ptr.44"* %349, i32 0, i32 0
  %351 = load %class.AstNode*, %class.AstNode** %350, align 8
  store %class.AstNode* %351, %class.AstNode** %348, align 8
  %352 = getelementptr inbounds %"class.std::__1::shared_ptr.44", %"class.std::__1::shared_ptr.44"* %347, i32 0, i32 1
  %353 = load %"class.std::__1::shared_ptr.44"*, %"class.std::__1::shared_ptr.44"** %44, align 8
  %354 = getelementptr inbounds %"class.std::__1::shared_ptr.44", %"class.std::__1::shared_ptr.44"* %353, i32 0, i32 1
  %355 = load %"class.std::__1::__shared_weak_count"*, %"class.std::__1::__shared_weak_count"** %354, align 8
  store %"class.std::__1::__shared_weak_count"* %355, %"class.std::__1::__shared_weak_count"** %352, align 8
  %356 = load %"class.std::__1::shared_ptr.44"*, %"class.std::__1::shared_ptr.44"** %44, align 8
  %357 = getelementptr inbounds %"class.std::__1::shared_ptr.44", %"class.std::__1::shared_ptr.44"* %356, i32 0, i32 0
  store %class.AstNode* null, %class.AstNode** %357, align 8
  %358 = load %"class.std::__1::shared_ptr.44"*, %"class.std::__1::shared_ptr.44"** %44, align 8
  %359 = getelementptr inbounds %"class.std::__1::shared_ptr.44", %"class.std::__1::shared_ptr.44"* %358, i32 0, i32 1
  store %"class.std::__1::__shared_weak_count"* null, %"class.std::__1::__shared_weak_count"** %359, align 8
  call void @_ZNSt3__16vectorINS_10shared_ptrI7AstNodeEENS_9allocatorIS3_EEE24__RAII_IncreaseAnnotator6__doneEv(%"struct.std::__1::vector<std::__1::shared_ptr<AstNode>, std::__1::allocator<std::__1::shared_ptr<AstNode> > >::__RAII_IncreaseAnnotator"* %72)
  %360 = bitcast %"class.std::__1::vector.42"* %303 to %"class.std::__1::__vector_base.43"*
  %361 = getelementptr inbounds %"class.std::__1::__vector_base.43", %"class.std::__1::__vector_base.43"* %360, i32 0, i32 1
  %362 = load %"class.std::__1::shared_ptr.44"*, %"class.std::__1::shared_ptr.44"** %361, align 8
  %363 = getelementptr inbounds %"class.std::__1::shared_ptr.44", %"class.std::__1::shared_ptr.44"* %362, i32 1
  store %"class.std::__1::shared_ptr.44"* %363, %"class.std::__1::shared_ptr.44"** %361, align 8
  br label %368

; <label>:364:                                    ; preds = %302
  %365 = load %"class.std::__1::shared_ptr.44"*, %"class.std::__1::shared_ptr.44"** %71, align 8
  store %"class.std::__1::shared_ptr.44"* %365, %"class.std::__1::shared_ptr.44"** %63, align 8
  %366 = load %"class.std::__1::shared_ptr.44"*, %"class.std::__1::shared_ptr.44"** %63, align 8
  invoke void @_ZNSt3__16vectorINS_10shared_ptrI7AstNodeEENS_9allocatorIS3_EEE21__push_back_slow_pathIS3_EEvOT_(%"class.std::__1::vector.42"* %303, %"class.std::__1::shared_ptr.44"* dereferenceable(16) %366)
          to label %367 unwind label %475

; <label>:367:                                    ; preds = %364
  br label %368

; <label>:368:                                    ; preds = %317, %367
  br label %369

; <label>:369:                                    ; preds = %368
  call void @_ZNSt3__110shared_ptrI7AstNodeED1Ev(%"class.std::__1::shared_ptr.44"* %144) #14
  %370 = getelementptr inbounds %"struct.std::__1::pair", %"struct.std::__1::pair"* %141, i32 0, i32 1
  store %"class.std::__1::shared_ptr"* %370, %"class.std::__1::shared_ptr"** %41, align 8
  %371 = load %"class.std::__1::shared_ptr"*, %"class.std::__1::shared_ptr"** %41, align 8
  store %"class.std::__1::shared_ptr"* %371, %"class.std::__1::shared_ptr"** %40, align 8
  %372 = load %"class.std::__1::shared_ptr"*, %"class.std::__1::shared_ptr"** %40, align 8
  %373 = getelementptr inbounds %"class.std::__1::shared_ptr", %"class.std::__1::shared_ptr"* %372, i32 0, i32 0
  %374 = load %class.Expression*, %class.Expression** %373, align 8
  %375 = icmp ne %class.Expression* %374, null
  br i1 %375, label %376, label %483

; <label>:376:                                    ; preds = %369
  %377 = getelementptr inbounds %"struct.std::__1::pair", %"struct.std::__1::pair"* %141, i32 0, i32 1
  %378 = bitcast %"struct.std::__1::shared_ptr<AstNode>::__nat"* %147 to i8*
  call void @llvm.memset.p0i8.i64(i8* %378, i8 0, i64 4, i32 4, i1 false)
  %379 = getelementptr inbounds %"struct.std::__1::shared_ptr<AstNode>::__nat", %"struct.std::__1::shared_ptr<AstNode>::__nat"* %147, i32 0, i32 0
  %380 = load i32, i32* %379, align 4
  %381 = getelementptr inbounds %"struct.std::__1::shared_ptr<AstNode>::__nat", %"struct.std::__1::shared_ptr<AstNode>::__nat"* %37, i32 0, i32 0
  store i32 %380, i32* %381, align 4
  store %"class.std::__1::shared_ptr.44"* %146, %"class.std::__1::shared_ptr.44"** %38, align 8
  store %"class.std::__1::shared_ptr"* %377, %"class.std::__1::shared_ptr"** %39, align 8
  %382 = load %"class.std::__1::shared_ptr.44"*, %"class.std::__1::shared_ptr.44"** %38, align 8
  %383 = load %"class.std::__1::shared_ptr"*, %"class.std::__1::shared_ptr"** %39, align 8
  %384 = getelementptr inbounds %"struct.std::__1::shared_ptr<AstNode>::__nat", %"struct.std::__1::shared_ptr<AstNode>::__nat"* %37, i32 0, i32 0
  %385 = load i32, i32* %384, align 4
  %386 = getelementptr inbounds %"struct.std::__1::shared_ptr<AstNode>::__nat", %"struct.std::__1::shared_ptr<AstNode>::__nat"* %34, i32 0, i32 0
  store i32 %385, i32* %386, align 4
  store %"class.std::__1::shared_ptr.44"* %382, %"class.std::__1::shared_ptr.44"** %35, align 8
  store %"class.std::__1::shared_ptr"* %383, %"class.std::__1::shared_ptr"** %36, align 8
  %387 = load %"class.std::__1::shared_ptr.44"*, %"class.std::__1::shared_ptr.44"** %35, align 8
  %388 = getelementptr inbounds %"class.std::__1::shared_ptr.44", %"class.std::__1::shared_ptr.44"* %387, i32 0, i32 0
  %389 = load %"class.std::__1::shared_ptr"*, %"class.std::__1::shared_ptr"** %36, align 8
  %390 = getelementptr inbounds %"class.std::__1::shared_ptr", %"class.std::__1::shared_ptr"* %389, i32 0, i32 0
  %391 = load %class.Expression*, %class.Expression** %390, align 8
  %392 = bitcast %class.Expression* %391 to %class.AstNode*
  store %class.AstNode* %392, %class.AstNode** %388, align 8
  %393 = getelementptr inbounds %"class.std::__1::shared_ptr.44", %"class.std::__1::shared_ptr.44"* %387, i32 0, i32 1
  %394 = load %"class.std::__1::shared_ptr"*, %"class.std::__1::shared_ptr"** %36, align 8
  %395 = getelementptr inbounds %"class.std::__1::shared_ptr", %"class.std::__1::shared_ptr"* %394, i32 0, i32 1
  %396 = load %"class.std::__1::__shared_weak_count"*, %"class.std::__1::__shared_weak_count"** %395, align 8
  store %"class.std::__1::__shared_weak_count"* %396, %"class.std::__1::__shared_weak_count"** %393, align 8
  %397 = getelementptr inbounds %"class.std::__1::shared_ptr.44", %"class.std::__1::shared_ptr.44"* %387, i32 0, i32 1
  %398 = load %"class.std::__1::__shared_weak_count"*, %"class.std::__1::__shared_weak_count"** %397, align 8
  %399 = icmp ne %"class.std::__1::__shared_weak_count"* %398, null
  br i1 %399, label %400, label %403

; <label>:400:                                    ; preds = %376
  %401 = getelementptr inbounds %"class.std::__1::shared_ptr.44", %"class.std::__1::shared_ptr.44"* %387, i32 0, i32 1
  %402 = load %"class.std::__1::__shared_weak_count"*, %"class.std::__1::__shared_weak_count"** %401, align 8
  call void @_ZNSt3__119__shared_weak_count12__add_sharedEv(%"class.std::__1::__shared_weak_count"* %402) #14
  br label %403

; <label>:403:                                    ; preds = %376, %400
  store %"class.std::__1::vector.42"* %0, %"class.std::__1::vector.42"** %31, align 8
  store %"class.std::__1::shared_ptr.44"* %146, %"class.std::__1::shared_ptr.44"** %32, align 8
  %404 = load %"class.std::__1::vector.42"*, %"class.std::__1::vector.42"** %31, align 8
  %405 = bitcast %"class.std::__1::vector.42"* %404 to %"class.std::__1::__vector_base.43"*
  %406 = getelementptr inbounds %"class.std::__1::__vector_base.43", %"class.std::__1::__vector_base.43"* %405, i32 0, i32 1
  %407 = load %"class.std::__1::shared_ptr.44"*, %"class.std::__1::shared_ptr.44"** %406, align 8
  %408 = bitcast %"class.std::__1::vector.42"* %404 to %"class.std::__1::__vector_base.43"*
  store %"class.std::__1::__vector_base.43"* %408, %"class.std::__1::__vector_base.43"** %30, align 8
  %409 = load %"class.std::__1::__vector_base.43"*, %"class.std::__1::__vector_base.43"** %30, align 8
  %410 = getelementptr inbounds %"class.std::__1::__vector_base.43", %"class.std::__1::__vector_base.43"* %409, i32 0, i32 2
  store %"class.std::__1::__compressed_pair.45"* %410, %"class.std::__1::__compressed_pair.45"** %29, align 8
  %411 = load %"class.std::__1::__compressed_pair.45"*, %"class.std::__1::__compressed_pair.45"** %29, align 8
  %412 = bitcast %"class.std::__1::__compressed_pair.45"* %411 to %"class.std::__1::__libcpp_compressed_pair_imp.46"*
  store %"class.std::__1::__libcpp_compressed_pair_imp.46"* %412, %"class.std::__1::__libcpp_compressed_pair_imp.46"** %28, align 8
  %413 = load %"class.std::__1::__libcpp_compressed_pair_imp.46"*, %"class.std::__1::__libcpp_compressed_pair_imp.46"** %28, align 8
  %414 = getelementptr inbounds %"class.std::__1::__libcpp_compressed_pair_imp.46", %"class.std::__1::__libcpp_compressed_pair_imp.46"* %413, i32 0, i32 0
  %415 = load %"class.std::__1::shared_ptr.44"*, %"class.std::__1::shared_ptr.44"** %414, align 8
  %416 = icmp ult %"class.std::__1::shared_ptr.44"* %407, %415
  br i1 %416, label %417, label %465

; <label>:417:                                    ; preds = %403
  invoke void @_ZNSt3__16vectorINS_10shared_ptrI7AstNodeEENS_9allocatorIS3_EEE24__RAII_IncreaseAnnotatorC1ERKS6_m(%"struct.std::__1::vector<std::__1::shared_ptr<AstNode>, std::__1::allocator<std::__1::shared_ptr<AstNode> > >::__RAII_IncreaseAnnotator"* %33, %"class.std::__1::vector.42"* dereferenceable(24) %404, i64 1)
          to label %418 unwind label %479

; <label>:418:                                    ; preds = %417
  %419 = bitcast %"class.std::__1::vector.42"* %404 to %"class.std::__1::__vector_base.43"*
  store %"class.std::__1::__vector_base.43"* %419, %"class.std::__1::__vector_base.43"** %27, align 8
  %420 = load %"class.std::__1::__vector_base.43"*, %"class.std::__1::__vector_base.43"** %27, align 8
  %421 = getelementptr inbounds %"class.std::__1::__vector_base.43", %"class.std::__1::__vector_base.43"* %420, i32 0, i32 2
  store %"class.std::__1::__compressed_pair.45"* %421, %"class.std::__1::__compressed_pair.45"** %26, align 8
  %422 = load %"class.std::__1::__compressed_pair.45"*, %"class.std::__1::__compressed_pair.45"** %26, align 8
  %423 = bitcast %"class.std::__1::__compressed_pair.45"* %422 to %"class.std::__1::__libcpp_compressed_pair_imp.46"*
  store %"class.std::__1::__libcpp_compressed_pair_imp.46"* %423, %"class.std::__1::__libcpp_compressed_pair_imp.46"** %25, align 8
  %424 = load %"class.std::__1::__libcpp_compressed_pair_imp.46"*, %"class.std::__1::__libcpp_compressed_pair_imp.46"** %25, align 8
  %425 = bitcast %"class.std::__1::__libcpp_compressed_pair_imp.46"* %424 to %"class.std::__1::allocator.47"*
  %426 = bitcast %"class.std::__1::vector.42"* %404 to %"class.std::__1::__vector_base.43"*
  %427 = getelementptr inbounds %"class.std::__1::__vector_base.43", %"class.std::__1::__vector_base.43"* %426, i32 0, i32 1
  %428 = load %"class.std::__1::shared_ptr.44"*, %"class.std::__1::shared_ptr.44"** %427, align 8
  store %"class.std::__1::shared_ptr.44"* %428, %"class.std::__1::shared_ptr.44"** %23, align 8
  %429 = load %"class.std::__1::shared_ptr.44"*, %"class.std::__1::shared_ptr.44"** %23, align 8
  %430 = load %"class.std::__1::shared_ptr.44"*, %"class.std::__1::shared_ptr.44"** %32, align 8
  store %"class.std::__1::shared_ptr.44"* %430, %"class.std::__1::shared_ptr.44"** %3, align 8
  %431 = load %"class.std::__1::shared_ptr.44"*, %"class.std::__1::shared_ptr.44"** %3, align 8
  store %"class.std::__1::allocator.47"* %425, %"class.std::__1::allocator.47"** %18, align 8
  store %"class.std::__1::shared_ptr.44"* %429, %"class.std::__1::shared_ptr.44"** %19, align 8
  store %"class.std::__1::shared_ptr.44"* %431, %"class.std::__1::shared_ptr.44"** %20, align 8
  %432 = bitcast %"struct.std::__1::__has_construct.301"* %22 to %"struct.std::__1::integral_constant"*
  %433 = load %"class.std::__1::allocator.47"*, %"class.std::__1::allocator.47"** %18, align 8
  %434 = load %"class.std::__1::shared_ptr.44"*, %"class.std::__1::shared_ptr.44"** %19, align 8
  %435 = load %"class.std::__1::shared_ptr.44"*, %"class.std::__1::shared_ptr.44"** %20, align 8
  store %"class.std::__1::shared_ptr.44"* %435, %"class.std::__1::shared_ptr.44"** %17, align 8
  %436 = load %"class.std::__1::shared_ptr.44"*, %"class.std::__1::shared_ptr.44"** %17, align 8
  store %"class.std::__1::allocator.47"* %433, %"class.std::__1::allocator.47"** %14, align 8
  store %"class.std::__1::shared_ptr.44"* %434, %"class.std::__1::shared_ptr.44"** %15, align 8
  store %"class.std::__1::shared_ptr.44"* %436, %"class.std::__1::shared_ptr.44"** %16, align 8
  %437 = load %"class.std::__1::allocator.47"*, %"class.std::__1::allocator.47"** %14, align 8
  %438 = load %"class.std::__1::shared_ptr.44"*, %"class.std::__1::shared_ptr.44"** %15, align 8
  %439 = load %"class.std::__1::shared_ptr.44"*, %"class.std::__1::shared_ptr.44"** %16, align 8
  store %"class.std::__1::shared_ptr.44"* %439, %"class.std::__1::shared_ptr.44"** %12, align 8
  %440 = load %"class.std::__1::shared_ptr.44"*, %"class.std::__1::shared_ptr.44"** %12, align 8
  store %"class.std::__1::allocator.47"* %437, %"class.std::__1::allocator.47"** %9, align 8
  store %"class.std::__1::shared_ptr.44"* %438, %"class.std::__1::shared_ptr.44"** %10, align 8
  store %"class.std::__1::shared_ptr.44"* %440, %"class.std::__1::shared_ptr.44"** %11, align 8
  %441 = load %"class.std::__1::allocator.47"*, %"class.std::__1::allocator.47"** %9, align 8
  %442 = load %"class.std::__1::shared_ptr.44"*, %"class.std::__1::shared_ptr.44"** %10, align 8
  %443 = bitcast %"class.std::__1::shared_ptr.44"* %442 to i8*
  %444 = load %"class.std::__1::shared_ptr.44"*, %"class.std::__1::shared_ptr.44"** %11, align 8
  store %"class.std::__1::shared_ptr.44"* %444, %"class.std::__1::shared_ptr.44"** %8, align 8
  %445 = load %"class.std::__1::shared_ptr.44"*, %"class.std::__1::shared_ptr.44"** %8, align 8
  store %"class.std::__1::shared_ptr.44"* %442, %"class.std::__1::shared_ptr.44"** %6, align 8
  store %"class.std::__1::shared_ptr.44"* %445, %"class.std::__1::shared_ptr.44"** %7, align 8
  %446 = load %"class.std::__1::shared_ptr.44"*, %"class.std::__1::shared_ptr.44"** %6, align 8
  %447 = load %"class.std::__1::shared_ptr.44"*, %"class.std::__1::shared_ptr.44"** %7, align 8
  store %"class.std::__1::shared_ptr.44"* %446, %"class.std::__1::shared_ptr.44"** %4, align 8
  store %"class.std::__1::shared_ptr.44"* %447, %"class.std::__1::shared_ptr.44"** %5, align 8
  %448 = load %"class.std::__1::shared_ptr.44"*, %"class.std::__1::shared_ptr.44"** %4, align 8
  %449 = getelementptr inbounds %"class.std::__1::shared_ptr.44", %"class.std::__1::shared_ptr.44"* %448, i32 0, i32 0
  %450 = load %"class.std::__1::shared_ptr.44"*, %"class.std::__1::shared_ptr.44"** %5, align 8
  %451 = getelementptr inbounds %"class.std::__1::shared_ptr.44", %"class.std::__1::shared_ptr.44"* %450, i32 0, i32 0
  %452 = load %class.AstNode*, %class.AstNode** %451, align 8
  store %class.AstNode* %452, %class.AstNode** %449, align 8
  %453 = getelementptr inbounds %"class.std::__1::shared_ptr.44", %"class.std::__1::shared_ptr.44"* %448, i32 0, i32 1
  %454 = load %"class.std::__1::shared_ptr.44"*, %"class.std::__1::shared_ptr.44"** %5, align 8
  %455 = getelementptr inbounds %"class.std::__1::shared_ptr.44", %"class.std::__1::shared_ptr.44"* %454, i32 0, i32 1
  %456 = load %"class.std::__1::__shared_weak_count"*, %"class.std::__1::__shared_weak_count"** %455, align 8
  store %"class.std::__1::__shared_weak_count"* %456, %"class.std::__1::__shared_weak_count"** %453, align 8
  %457 = load %"class.std::__1::shared_ptr.44"*, %"class.std::__1::shared_ptr.44"** %5, align 8
  %458 = getelementptr inbounds %"class.std::__1::shared_ptr.44", %"class.std::__1::shared_ptr.44"* %457, i32 0, i32 0
  store %class.AstNode* null, %class.AstNode** %458, align 8
  %459 = load %"class.std::__1::shared_ptr.44"*, %"class.std::__1::shared_ptr.44"** %5, align 8
  %460 = getelementptr inbounds %"class.std::__1::shared_ptr.44", %"class.std::__1::shared_ptr.44"* %459, i32 0, i32 1
  store %"class.std::__1::__shared_weak_count"* null, %"class.std::__1::__shared_weak_count"** %460, align 8
  call void @_ZNSt3__16vectorINS_10shared_ptrI7AstNodeEENS_9allocatorIS3_EEE24__RAII_IncreaseAnnotator6__doneEv(%"struct.std::__1::vector<std::__1::shared_ptr<AstNode>, std::__1::allocator<std::__1::shared_ptr<AstNode> > >::__RAII_IncreaseAnnotator"* %33)
  %461 = bitcast %"class.std::__1::vector.42"* %404 to %"class.std::__1::__vector_base.43"*
  %462 = getelementptr inbounds %"class.std::__1::__vector_base.43", %"class.std::__1::__vector_base.43"* %461, i32 0, i32 1
  %463 = load %"class.std::__1::shared_ptr.44"*, %"class.std::__1::shared_ptr.44"** %462, align 8
  %464 = getelementptr inbounds %"class.std::__1::shared_ptr.44", %"class.std::__1::shared_ptr.44"* %463, i32 1
  store %"class.std::__1::shared_ptr.44"* %464, %"class.std::__1::shared_ptr.44"** %462, align 8
  br label %469

; <label>:465:                                    ; preds = %403
  %466 = load %"class.std::__1::shared_ptr.44"*, %"class.std::__1::shared_ptr.44"** %32, align 8
  store %"class.std::__1::shared_ptr.44"* %466, %"class.std::__1::shared_ptr.44"** %24, align 8
  %467 = load %"class.std::__1::shared_ptr.44"*, %"class.std::__1::shared_ptr.44"** %24, align 8
  invoke void @_ZNSt3__16vectorINS_10shared_ptrI7AstNodeEENS_9allocatorIS3_EEE21__push_back_slow_pathIS3_EEvOT_(%"class.std::__1::vector.42"* %404, %"class.std::__1::shared_ptr.44"* dereferenceable(16) %467)
          to label %468 unwind label %479

; <label>:468:                                    ; preds = %465
  br label %469

; <label>:469:                                    ; preds = %418, %468
  br label %470

; <label>:470:                                    ; preds = %469
  call void @_ZNSt3__110shared_ptrI7AstNodeED1Ev(%"class.std::__1::shared_ptr.44"* %146) #14
  br label %483
                                                  ; No predecessors!
  %472 = landingpad { i8*, i32 }
          cleanup
  %473 = extractvalue { i8*, i32 } %472, 0
  store i8* %473, i8** %142, align 8
  %474 = extractvalue { i8*, i32 } %472, 1
  store i32 %474, i32* %143, align 4
  br label %494

; <label>:475:                                    ; preds = %364, %316
  %476 = landingpad { i8*, i32 }
          cleanup
  %477 = extractvalue { i8*, i32 } %476, 0
  store i8* %477, i8** %142, align 8
  %478 = extractvalue { i8*, i32 } %476, 1
  store i32 %478, i32* %143, align 4
  call void @_ZNSt3__110shared_ptrI7AstNodeED1Ev(%"class.std::__1::shared_ptr.44"* %144) #14
  br label %489

; <label>:479:                                    ; preds = %465, %417
  %480 = landingpad { i8*, i32 }
          cleanup
  %481 = extractvalue { i8*, i32 } %480, 0
  store i8* %481, i8** %142, align 8
  %482 = extractvalue { i8*, i32 } %480, 1
  store i32 %482, i32* %143, align 4
  call void @_ZNSt3__110shared_ptrI7AstNodeED1Ev(%"class.std::__1::shared_ptr.44"* %146) #14
  br label %489

; <label>:483:                                    ; preds = %470, %369
  call void @_ZNSt3__14pairINS_10shared_ptrI7TypeRefEENS1_I10ExpressionEEED1Ev(%"struct.std::__1::pair"* %141) #14
  br label %484

; <label>:484:                                    ; preds = %483
  store %"class.std::__1::__wrap_iter.49"* %139, %"class.std::__1::__wrap_iter.49"** %98, align 8
  %485 = load %"class.std::__1::__wrap_iter.49"*, %"class.std::__1::__wrap_iter.49"** %98, align 8
  %486 = getelementptr inbounds %"class.std::__1::__wrap_iter.49", %"class.std::__1::__wrap_iter.49"* %485, i32 0, i32 0
  %487 = load %"struct.std::__1::pair"*, %"struct.std::__1::pair"** %486, align 8
  %488 = getelementptr inbounds %"struct.std::__1::pair", %"struct.std::__1::pair"* %487, i32 1
  store %"struct.std::__1::pair"* %488, %"struct.std::__1::pair"** %486, align 8
  br label %207

; <label>:489:                                    ; preds = %479, %475
  call void @_ZNSt3__14pairINS_10shared_ptrI7TypeRefEENS1_I10ExpressionEEED1Ev(%"struct.std::__1::pair"* %141) #14
  br label %494

; <label>:490:                                    ; preds = %207
  store i1 true, i1* %137, align 1
  %491 = load i1, i1* %137, align 1
  br i1 %491, label %493, label %492

; <label>:492:                                    ; preds = %490
  call void @_ZNSt3__16vectorINS_10shared_ptrI7AstNodeEENS_9allocatorIS3_EEED1Ev(%"class.std::__1::vector.42"* %0) #14
  br label %493

; <label>:493:                                    ; preds = %492, %490
  ret void

; <label>:494:                                    ; preds = %489, %471
  call void @_ZNSt3__16vectorINS_10shared_ptrI7AstNodeEENS_9allocatorIS3_EEED1Ev(%"class.std::__1::vector.42"* %0) #14
  br label %495

; <label>:495:                                    ; preds = %494
  %496 = load i8*, i8** %142, align 8
  %497 = load i32, i32* %143, align 4
  %498 = insertvalue { i8*, i32 } undef, i8* %496, 0
  %499 = insertvalue { i8*, i32 } %498, i32 %497, 1
  resume { i8*, i32 } %499
}

; Function Attrs: argmemonly nounwind
declare void @llvm.memset.p0i8.i64(i8* nocapture writeonly, i8, i64, i32, i1) #5

; Function Attrs: nounwind ssp uwtable
define linkonce_odr void @_ZNSt3__110shared_ptrI7AstNodeED1Ev(%"class.std::__1::shared_ptr.44"*) unnamed_addr #6 align 2 {
  %2 = alloca %"class.std::__1::shared_ptr.44"*, align 8
  store %"class.std::__1::shared_ptr.44"* %0, %"class.std::__1::shared_ptr.44"** %2, align 8
  %3 = load %"class.std::__1::shared_ptr.44"*, %"class.std::__1::shared_ptr.44"** %2, align 8
  call void @_ZNSt3__110shared_ptrI7AstNodeED2Ev(%"class.std::__1::shared_ptr.44"* %3) #14
  ret void
}

; Function Attrs: inlinehint nounwind ssp uwtable
define linkonce_odr void @_ZNSt3__16vectorINS_10shared_ptrI7AstNodeEENS_9allocatorIS3_EEED1Ev(%"class.std::__1::vector.42"*) unnamed_addr #4 align 2 {
  %2 = alloca %"class.std::__1::vector.42"*, align 8
  store %"class.std::__1::vector.42"* %0, %"class.std::__1::vector.42"** %2, align 8
  %3 = load %"class.std::__1::vector.42"*, %"class.std::__1::vector.42"** %2, align 8
  call void @_ZNSt3__16vectorINS_10shared_ptrI7AstNodeEENS_9allocatorIS3_EEED2Ev(%"class.std::__1::vector.42"* %3) #14
  ret void
}

; Function Attrs: ssp uwtable
define void @_ZN8DeclStmt6__dumpEi(%class.DeclStmt*, i32) unnamed_addr #0 align 2 personality i8* bitcast (i32 (...)* @__gxx_personality_v0 to i8*) {
  %3 = alloca %"class.std::__1::vector"*, align 8
  %4 = alloca i64, align 8
  %5 = alloca %"class.std::__1::shared_ptr.41"*, align 8
  %6 = alloca %"class.std::__1::basic_ostream"*, align 8
  %7 = alloca %"class.std::__1::basic_ostream"* (%"class.std::__1::basic_ostream"*)*, align 8
  %8 = alloca %"class.std::__1::vector.26"*, align 8
  %9 = alloca i64, align 8
  %10 = alloca %"class.std::__1::shared_ptr"*, align 8
  %11 = alloca %"class.std::__1::shared_ptr"*, align 8
  %12 = alloca %"class.std::__1::vector.26"*, align 8
  %13 = alloca i64, align 8
  %14 = alloca %"class.std::__1::shared_ptr"*, align 8
  %15 = alloca %"class.std::__1::vector.26"*, align 8
  %16 = alloca i64, align 8
  %17 = alloca %"class.std::__1::vector"*, align 8
  %18 = alloca %class.DeclStmt*, align 8
  %19 = alloca i32, align 4
  %20 = alloca i32, align 4
  %21 = alloca %"class.std::__1::basic_string", align 8
  %22 = alloca i8*
  %23 = alloca i32
  store %class.DeclStmt* %0, %class.DeclStmt** %18, align 8
  store i32 %1, i32* %19, align 4
  %24 = load %class.DeclStmt*, %class.DeclStmt** %18, align 8
  store i32 0, i32* %20, align 4
  br label %25

; <label>:25:                                     ; preds = %126, %2
  %26 = load i32, i32* %20, align 4
  %27 = sext i32 %26 to i64
  %28 = getelementptr inbounds %class.DeclStmt, %class.DeclStmt* %24, i32 0, i32 2
  store %"class.std::__1::vector"* %28, %"class.std::__1::vector"** %17, align 8
  %29 = load %"class.std::__1::vector"*, %"class.std::__1::vector"** %17, align 8
  %30 = bitcast %"class.std::__1::vector"* %29 to %"class.std::__1::__vector_base"*
  %31 = getelementptr inbounds %"class.std::__1::__vector_base", %"class.std::__1::__vector_base"* %30, i32 0, i32 1
  %32 = load %"class.std::__1::basic_string"*, %"class.std::__1::basic_string"** %31, align 8
  %33 = bitcast %"class.std::__1::vector"* %29 to %"class.std::__1::__vector_base"*
  %34 = getelementptr inbounds %"class.std::__1::__vector_base", %"class.std::__1::__vector_base"* %33, i32 0, i32 0
  %35 = load %"class.std::__1::basic_string"*, %"class.std::__1::basic_string"** %34, align 8
  %36 = ptrtoint %"class.std::__1::basic_string"* %32 to i64
  %37 = ptrtoint %"class.std::__1::basic_string"* %35 to i64
  %38 = sub i64 %36, %37
  %39 = sdiv exact i64 %38, 24
  %40 = icmp ult i64 %27, %39
  br i1 %40, label %41, label %129

; <label>:41:                                     ; preds = %25
  %42 = bitcast %class.DeclStmt* %24 to %class.AstNode*
  %43 = load i32, i32* %19, align 4
  call void @_ZN7AstNode5__tabEi(%class.AstNode* %42, i32 %43)
  %44 = getelementptr inbounds %class.DeclStmt, %class.DeclStmt* %24, i32 0, i32 6
  %45 = load i8, i8* %44, align 8
  %46 = trunc i8 %45 to i1
  %47 = select i1 %46, i8* getelementptr inbounds ([6 x i8], [6 x i8]* @.str.1, i32 0, i32 0), i8* getelementptr inbounds ([1 x i8], [1 x i8]* @.str.2, i32 0, i32 0)
  %48 = call dereferenceable(160) %"class.std::__1::basic_ostream"* @_ZNSt3__1lsINS_11char_traitsIcEEEERNS_13basic_ostreamIcT_EES6_PKc(%"class.std::__1::basic_ostream"* dereferenceable(160) @_ZNSt3__14coutE, i8* %47)
  %49 = call dereferenceable(160) %"class.std::__1::basic_ostream"* @_ZNSt3__1lsINS_11char_traitsIcEEEERNS_13basic_ostreamIcT_EES6_PKc(%"class.std::__1::basic_ostream"* dereferenceable(160) %48, i8* getelementptr inbounds ([11 x i8], [11 x i8]* @.str.3, i32 0, i32 0))
  %50 = getelementptr inbounds %class.DeclStmt, %class.DeclStmt* %24, i32 0, i32 3
  %51 = load i32, i32* %20, align 4
  %52 = sext i32 %51 to i64
  store %"class.std::__1::vector.26"* %50, %"class.std::__1::vector.26"** %15, align 8
  store i64 %52, i64* %16, align 8
  %53 = load %"class.std::__1::vector.26"*, %"class.std::__1::vector.26"** %15, align 8
  %54 = load i64, i64* %16, align 8
  %55 = bitcast %"class.std::__1::vector.26"* %53 to %"class.std::__1::__vector_base.27"*
  %56 = getelementptr inbounds %"class.std::__1::__vector_base.27", %"class.std::__1::__vector_base.27"* %55, i32 0, i32 0
  %57 = load %"struct.std::__1::pair"*, %"struct.std::__1::pair"** %56, align 8
  %58 = getelementptr inbounds %"struct.std::__1::pair", %"struct.std::__1::pair"* %57, i64 %54
  %59 = getelementptr inbounds %"struct.std::__1::pair", %"struct.std::__1::pair"* %58, i32 0, i32 0
  store %"class.std::__1::shared_ptr.41"* %59, %"class.std::__1::shared_ptr.41"** %5, align 8
  %60 = load %"class.std::__1::shared_ptr.41"*, %"class.std::__1::shared_ptr.41"** %5, align 8
