; ModuleID = '/Users/Jonas/CLionProjects/HackerRank/XtremeJonasScript/src/Variant/Arithmetic.cpp'
source_filename = "/Users/Jonas/CLionProjects/HackerRank/XtremeJonasScript/src/Variant/Arithmetic.cpp"
target datalayout = "e-m:o-i64:64-f80:128-n8:16:32:64-S128"
target triple = "x86_64-apple-macosx10.12.0"

%struct.Variant = type <{ %union.anon, i8, [7 x i8], %"class.std::__1::basic_string", %struct.TypeSpecifier, i8, i8, i8, [5 x i8] }>
%union.anon = type { i64 }
%"class.std::__1::basic_string" = type { %"class.std::__1::__compressed_pair" }
%"class.std::__1::__compressed_pair" = type { %"class.std::__1::__libcpp_compressed_pair_imp" }
%"class.std::__1::__libcpp_compressed_pair_imp" = type { %"struct.std::__1::basic_string<char, std::__1::char_traits<char>, std::__1::allocator<char> >::__rep" }
%"struct.std::__1::basic_string<char, std::__1::char_traits<char>, std::__1::allocator<char> >::__rep" = type { %union.anon.0 }
%union.anon.0 = type { %"struct.std::__1::basic_string<char, std::__1::char_traits<char>, std::__1::allocator<char> >::__long" }
%"struct.std::__1::basic_string<char, std::__1::char_traits<char>, std::__1::allocator<char> >::__long" = type { i64, i64, i8* }
%struct.TypeSpecifier = type { i32, %"class.std::__1::basic_string", %"class.std::__1::shared_ptr", i8, i8, i8, i8, i64, i32, i8, i8, %"class.std::__1::basic_string", i8, [7 x i8], %"class.std::__1::unordered_map", i8, i8, i8, i8, i8, i8, i8, i32, %"class.std::__1::vector", %"class.std::__1::vector.20", %union.anon.26 }
%"class.std::__1::shared_ptr" = type { %class.Expression*, %"class.std::__1::__shared_weak_count"* }
%class.Expression = type opaque
%"class.std::__1::__shared_weak_count" = type { %"class.std::__1::__shared_count", i64 }
%"class.std::__1::__shared_count" = type { i32 (...)**, i64 }
%"class.std::__1::unordered_map" = type { %"class.std::__1::__hash_table" }
%"class.std::__1::__hash_table" = type <{ %"class.std::__1::unique_ptr", %"class.std::__1::__compressed_pair.8", %"class.std::__1::__compressed_pair.12", %"class.std::__1::__compressed_pair.14", [4 x i8] }>
%"class.std::__1::unique_ptr" = type { %"class.std::__1::__compressed_pair.2" }
%"class.std::__1::__compressed_pair.2" = type { %"class.std::__1::__libcpp_compressed_pair_imp.3" }
%"class.std::__1::__libcpp_compressed_pair_imp.3" = type { %"struct.std::__1::__hash_node_base"**, %"class.std::__1::__bucket_list_deallocator" }
%"struct.std::__1::__hash_node_base" = type { %"struct.std::__1::__hash_node_base"* }
%"class.std::__1::__bucket_list_deallocator" = type { %"class.std::__1::__compressed_pair.4" }
%"class.std::__1::__compressed_pair.4" = type { %"class.std::__1::__libcpp_compressed_pair_imp.5" }
%"class.std::__1::__libcpp_compressed_pair_imp.5" = type { i64 }
%"class.std::__1::__compressed_pair.8" = type { %"class.std::__1::__libcpp_compressed_pair_imp.9" }
%"class.std::__1::__libcpp_compressed_pair_imp.9" = type { %"struct.std::__1::__hash_node_base" }
%"class.std::__1::__compressed_pair.12" = type { %"class.std::__1::__libcpp_compressed_pair_imp.13" }
%"class.std::__1::__libcpp_compressed_pair_imp.13" = type { i64 }
%"class.std::__1::__compressed_pair.14" = type { %"class.std::__1::__libcpp_compressed_pair_imp.15" }
%"class.std::__1::__libcpp_compressed_pair_imp.15" = type { float }
%"class.std::__1::vector" = type { %"class.std::__1::__vector_base" }
%"class.std::__1::__vector_base" = type { %"class.std::__1::basic_string"*, %"class.std::__1::basic_string"*, %"class.std::__1::__compressed_pair.16" }
%"class.std::__1::__compressed_pair.16" = type { %"class.std::__1::__libcpp_compressed_pair_imp.17" }
%"class.std::__1::__libcpp_compressed_pair_imp.17" = type { %"class.std::__1::basic_string"* }
%"class.std::__1::vector.20" = type { %"class.std::__1::__vector_base.21" }
%"class.std::__1::__vector_base.21" = type { %struct.TypeSpecifier*, %struct.TypeSpecifier*, %"class.std::__1::__compressed_pair.22" }
%"class.std::__1::__compressed_pair.22" = type { %"class.std::__1::__libcpp_compressed_pair_imp.23" }
%"class.std::__1::__libcpp_compressed_pair_imp.23" = type { %struct.TypeSpecifier* }
%union.anon.26 = type { %struct.TypeSpecifier* }
%"class.std::__1::__wrap_iter" = type { i8* }
%"class.std::__1::__wrap_iter.31" = type { i8* }
%"struct.std::__1::basic_string<char, std::__1::char_traits<char>, std::__1::allocator<char> >::__short" = type { %union.anon.1, [23 x i8] }
%union.anon.1 = type { i8 }
%"class.std::__1::__basic_string_common" = type { i8 }
%"struct.std::__1::basic_string<char, std::__1::char_traits<char>, std::__1::allocator<char> >::__raw" = type { [3 x i64] }
%class.AstNode = type opaque
%"class.std::__1::allocator.24" = type { i8 }
%"struct.std::__1::integral_constant" = type { i8 }
%"struct.std::__1::__has_destroy" = type { i8 }
%"class.std::__1::allocator.18" = type { i8 }
%"struct.std::__1::__has_destroy.27" = type { i8 }
%"class.std::__1::allocator.6" = type { i8 }
%"class.std::__1::allocator.10" = type { i8 }
%"struct.std::__1::pair" = type { %"class.std::__1::basic_string", %struct.TypeSpecifier }
%"struct.std::__1::integral_constant.29" = type { i8 }
%"struct.std::__1::__has_destroy.30" = type { i8 }
%"struct.std::__1::__hash_node" = type { %"struct.std::__1::__hash_node_base", i64, %"union.std::__1::__hash_value_type" }
%"union.std::__1::__hash_value_type" = type { %"struct.std::__1::pair" }

@_ZN4llvm24DisableABIBreakingChecksE = external global i32, align 4
@_ZN4llvm30VerifyDisableABIBreakingChecksE = weak hidden global i32* @_ZN4llvm24DisableABIBreakingChecksE, align 8
@.str = private unnamed_addr constant [27 x i8] c"Cannot add values of type \00", align 1
@.str.1 = private unnamed_addr constant [6 x i8] c" and \00", align 1
@.str.2 = private unnamed_addr constant [39 x i8] c"Cannot apply modulo to values of type \00", align 1
@.str.3 = private unnamed_addr constant [29 x i8] c"Cannot negate value of type \00", align 1
@.str.4 = private unnamed_addr constant [48 x i8] c"Cannot apply bitwise negation to value of type \00", align 1
@.str.5 = private unnamed_addr constant [31 x i8] c"Cannot compare values of type \00", align 1
@.str.6 = private unnamed_addr constant [56 x i8] c"Cannot determine larger element between values of type \00", align 1
@.str.7 = private unnamed_addr constant [44 x i8] c"Cannot apply logical and to values of type \00", align 1
@.str.8 = private unnamed_addr constant [43 x i8] c"Cannot apply logical or to values of type \00", align 1
@.str.9 = private unnamed_addr constant [44 x i8] c"Cannot apply bitwise and to values of type \00", align 1
@.str.10 = private unnamed_addr constant [43 x i8] c"Cannot apply bitwise or to values of type \00", align 1
@.str.11 = private unnamed_addr constant [46 x i8] c"Cannot apply left bitshift to values of type \00", align 1
@.str.12 = private unnamed_addr constant [47 x i8] c"Cannot apply right bitshift to values of type \00", align 1

; Function Attrs: ssp uwtable
define void @_ZN4cdot3var10Arithmetic3addE7VariantS2_(%struct.Variant* noalias sret, %struct.Variant*, %struct.Variant*) #0 align 2 personality i8* bitcast (i32 (...)* @__gxx_personality_v0 to i8*) {
  %4 = alloca %"class.std::__1::__libcpp_compressed_pair_imp"*, align 8
  %5 = alloca %"class.std::__1::__compressed_pair"*, align 8
  %6 = alloca %"class.std::__1::basic_string"*, align 8
  %7 = alloca [3 x i64]*, align 8
  %8 = alloca i32, align 4
  %9 = alloca %"class.std::__1::__compressed_pair"*, align 8
  %10 = alloca %"class.std::__1::basic_string"*, align 8
  %11 = alloca %"class.std::__1::basic_string"*, align 8
  %12 = alloca %"class.std::__1::basic_string"*, align 8
  %13 = alloca %"class.std::__1::basic_string"*, align 8
  %14 = alloca %"class.std::__1::basic_string"*, align 8
  %15 = alloca %"class.std::__1::__libcpp_compressed_pair_imp"*, align 8
  %16 = alloca %"class.std::__1::__compressed_pair"*, align 8
  %17 = alloca %"class.std::__1::basic_string"*, align 8
  %18 = alloca %"class.std::__1::__libcpp_compressed_pair_imp"*, align 8
  %19 = alloca %"class.std::__1::__compressed_pair"*, align 8
  %20 = alloca %"class.std::__1::basic_string"*, align 8
  %21 = alloca %"class.std::__1::__libcpp_compressed_pair_imp"*, align 8
  %22 = alloca %"class.std::__1::__compressed_pair"*, align 8
  %23 = alloca %"class.std::__1::basic_string"*, align 8
  %24 = alloca %"class.std::__1::basic_string"*, align 8
  %25 = alloca i8*, align 8
  %26 = alloca %"class.std::__1::__libcpp_compressed_pair_imp"*, align 8
  %27 = alloca %"class.std::__1::__compressed_pair"*, align 8
  %28 = alloca %"class.std::__1::basic_string"*, align 8
  %29 = alloca i8*, align 8
  %30 = alloca i8*, align 8
  %31 = alloca %"class.std::__1::__libcpp_compressed_pair_imp"*, align 8
  %32 = alloca %"class.std::__1::__compressed_pair"*, align 8
  %33 = alloca %"class.std::__1::basic_string"*, align 8
  %34 = alloca %"class.std::__1::__libcpp_compressed_pair_imp"*, align 8
  %35 = alloca %"class.std::__1::__compressed_pair"*, align 8
  %36 = alloca %"class.std::__1::basic_string"*, align 8
  %37 = alloca %"class.std::__1::basic_string"*, align 8
  %38 = alloca %"class.std::__1::basic_string"*, align 8
  %39 = alloca %"class.std::__1::basic_string"*, align 8
  %40 = alloca %"class.std::__1::basic_string"*, align 8
  %41 = alloca %"class.std::__1::basic_string"*, align 8
  %42 = alloca %"class.std::__1::basic_string"*, align 8
  %43 = alloca %"class.std::__1::__libcpp_compressed_pair_imp"*, align 8
  %44 = alloca %"class.std::__1::__compressed_pair"*, align 8
  %45 = alloca %"class.std::__1::basic_string"*, align 8
  %46 = alloca [3 x i64]*, align 8
  %47 = alloca i32, align 4
  %48 = alloca %"class.std::__1::__compressed_pair"*, align 8
  %49 = alloca %"class.std::__1::basic_string"*, align 8
  %50 = alloca %"class.std::__1::basic_string"*, align 8
  %51 = alloca %"class.std::__1::basic_string"*, align 8
  %52 = alloca %"class.std::__1::basic_string"*, align 8
  %53 = alloca %"class.std::__1::basic_string"*, align 8
  %54 = alloca %"class.std::__1::basic_string"*, align 8
  %55 = alloca i8*, align 8
  %56 = alloca %"class.std::__1::__libcpp_compressed_pair_imp"*, align 8
  %57 = alloca %"class.std::__1::__compressed_pair"*, align 8
  %58 = alloca %"class.std::__1::basic_string"*, align 8
  %59 = alloca [3 x i64]*, align 8
  %60 = alloca i32, align 4
  %61 = alloca %"class.std::__1::__compressed_pair"*, align 8
  %62 = alloca %"class.std::__1::basic_string"*, align 8
  %63 = alloca %"class.std::__1::basic_string"*, align 8
  %64 = alloca %"class.std::__1::basic_string"*, align 8
  %65 = alloca %"class.std::__1::basic_string"*, align 8
  %66 = alloca %"class.std::__1::basic_string"*, align 8
  %67 = alloca i8*, align 8
  %68 = alloca %"class.std::__1::basic_string"*, align 8
  %69 = alloca %"class.std::__1::__libcpp_compressed_pair_imp"*, align 8
  %70 = alloca %"class.std::__1::__compressed_pair"*, align 8
  %71 = alloca %"class.std::__1::basic_string"*, align 8
  %72 = alloca [3 x i64]*, align 8
  %73 = alloca i32, align 4
  %74 = alloca %"class.std::__1::__compressed_pair"*, align 8
  %75 = alloca %"class.std::__1::basic_string"*, align 8
  %76 = alloca %"class.std::__1::basic_string"*, align 8
  %77 = alloca %"class.std::__1::basic_string"*, align 8
  %78 = alloca %"class.std::__1::basic_string"*, align 8
  %79 = alloca %"class.std::__1::basic_string"*, align 8
  %80 = alloca %"class.std::__1::basic_string"*, align 8
  %81 = alloca i8, align 1
  %82 = alloca %"class.std::__1::__wrap_iter"*, align 8
  %83 = alloca %"class.std::__1::__wrap_iter.31"*, align 8
  %84 = alloca %"class.std::__1::__wrap_iter"*, align 8
  %85 = alloca i8*, align 8
  %86 = alloca %"class.std::__1::__wrap_iter.31"*, align 8
  %87 = alloca %"class.std::__1::__wrap_iter"*, align 8
  %88 = alloca i8*, align 8
  %89 = alloca %"class.std::__1::basic_string"*, align 8
  %90 = alloca %"class.std::__1::__libcpp_compressed_pair_imp"*, align 8
  %91 = alloca %"class.std::__1::__compressed_pair"*, align 8
  %92 = alloca %"class.std::__1::basic_string"*, align 8
  %93 = alloca [3 x i64]*, align 8
  %94 = alloca i32, align 4
  %95 = alloca %"class.std::__1::__compressed_pair"*, align 8
  %96 = alloca %"class.std::__1::basic_string"*, align 8
  %97 = alloca %"class.std::__1::basic_string"*, align 8
  %98 = alloca %"class.std::__1::basic_string"*, align 8
  %99 = alloca %"class.std::__1::basic_string"*, align 8
  %100 = alloca %"class.std::__1::__wrap_iter"*, align 8
  %101 = alloca i8*, align 8
  %102 = alloca %"class.std::__1::__wrap_iter"*, align 8
  %103 = alloca i8*, align 8
  %104 = alloca %"class.std::__1::__libcpp_compressed_pair_imp"*, align 8
  %105 = alloca %"class.std::__1::__compressed_pair"*, align 8
  %106 = alloca %"class.std::__1::basic_string"*, align 8
  %107 = alloca i8*, align 8
  %108 = alloca i8*, align 8
  %109 = alloca %"class.std::__1::__libcpp_compressed_pair_imp"*, align 8
  %110 = alloca %"class.std::__1::__compressed_pair"*, align 8
  %111 = alloca %"class.std::__1::basic_string"*, align 8
  %112 = alloca %"class.std::__1::__libcpp_compressed_pair_imp"*, align 8
  %113 = alloca %"class.std::__1::__compressed_pair"*, align 8
  %114 = alloca %"class.std::__1::basic_string"*, align 8
  %115 = alloca %"class.std::__1::basic_string"*, align 8
  %116 = alloca %"class.std::__1::__wrap_iter", align 8
  %117 = alloca %"class.std::__1::basic_string"*, align 8
  %118 = alloca i8, align 1
  %119 = alloca %"class.std::__1::basic_string"*, align 8
  %120 = alloca %"class.std::__1::__wrap_iter.31", align 8
  %121 = alloca %"class.std::__1::__wrap_iter", align 8
  %122 = alloca %"class.std::__1::__wrap_iter", align 8
  %123 = alloca %"class.std::__1::__libcpp_compressed_pair_imp"*, align 8
  %124 = alloca %"class.std::__1::__compressed_pair"*, align 8
  %125 = alloca %"class.std::__1::basic_string"*, align 8
  %126 = alloca [3 x i64]*, align 8
  %127 = alloca i32, align 4
  %128 = alloca %"class.std::__1::__compressed_pair"*, align 8
  %129 = alloca %"class.std::__1::basic_string"*, align 8
  %130 = alloca %"class.std::__1::basic_string"*, align 8
  %131 = alloca %"class.std::__1::basic_string"*, align 8
  %132 = alloca %"class.std::__1::basic_string"*, align 8
  %133 = alloca %"class.std::__1::basic_string"*, align 8
  %134 = alloca %"class.std::__1::__libcpp_compressed_pair_imp"*, align 8
  %135 = alloca %"class.std::__1::__compressed_pair"*, align 8
  %136 = alloca %"class.std::__1::basic_string"*, align 8
  %137 = alloca %"class.std::__1::__libcpp_compressed_pair_imp"*, align 8
  %138 = alloca %"class.std::__1::__compressed_pair"*, align 8
  %139 = alloca %"class.std::__1::basic_string"*, align 8
  %140 = alloca %"class.std::__1::__libcpp_compressed_pair_imp"*, align 8
  %141 = alloca %"class.std::__1::__compressed_pair"*, align 8
  %142 = alloca %"class.std::__1::basic_string"*, align 8
  %143 = alloca %"class.std::__1::basic_string"*, align 8
  %144 = alloca i8*, align 8
  %145 = alloca %"class.std::__1::__libcpp_compressed_pair_imp"*, align 8
  %146 = alloca %"class.std::__1::__compressed_pair"*, align 8
  %147 = alloca %"class.std::__1::basic_string"*, align 8
  %148 = alloca i8*, align 8
  %149 = alloca i8*, align 8
  %150 = alloca %"class.std::__1::__libcpp_compressed_pair_imp"*, align 8
  %151 = alloca %"class.std::__1::__compressed_pair"*, align 8
  %152 = alloca %"class.std::__1::basic_string"*, align 8
  %153 = alloca %"class.std::__1::__libcpp_compressed_pair_imp"*, align 8
  %154 = alloca %"class.std::__1::__compressed_pair"*, align 8
  %155 = alloca %"class.std::__1::basic_string"*, align 8
  %156 = alloca %"class.std::__1::basic_string"*, align 8
  %157 = alloca %"class.std::__1::basic_string"*, align 8
  %158 = alloca %"class.std::__1::basic_string"*, align 8
  %159 = alloca %"class.std::__1::basic_string"*, align 8
  %160 = alloca %"class.std::__1::basic_string"*, align 8
  %161 = alloca %"class.std::__1::basic_string"*, align 8
  %162 = alloca %"class.std::__1::__libcpp_compressed_pair_imp"*, align 8
  %163 = alloca %"class.std::__1::__compressed_pair"*, align 8
  %164 = alloca %"class.std::__1::basic_string"*, align 8
  %165 = alloca [3 x i64]*, align 8
  %166 = alloca i32, align 4
  %167 = alloca %"class.std::__1::__compressed_pair"*, align 8
  %168 = alloca %"class.std::__1::basic_string"*, align 8
  %169 = alloca %"class.std::__1::basic_string"*, align 8
  %170 = alloca %"class.std::__1::basic_string"*, align 8
  %171 = alloca %"class.std::__1::basic_string"*, align 8
  %172 = alloca %"class.std::__1::basic_string"*, align 8
  %173 = alloca %"class.std::__1::__libcpp_compressed_pair_imp"*, align 8
  %174 = alloca %"class.std::__1::__compressed_pair"*, align 8
  %175 = alloca %"class.std::__1::basic_string"*, align 8
  %176 = alloca %"class.std::__1::__libcpp_compressed_pair_imp"*, align 8
  %177 = alloca %"class.std::__1::__compressed_pair"*, align 8
  %178 = alloca %"class.std::__1::basic_string"*, align 8
  %179 = alloca %"class.std::__1::__libcpp_compressed_pair_imp"*, align 8
  %180 = alloca %"class.std::__1::__compressed_pair"*, align 8
  %181 = alloca %"class.std::__1::basic_string"*, align 8
  %182 = alloca %"class.std::__1::basic_string"*, align 8
  %183 = alloca i8*, align 8
  %184 = alloca %"class.std::__1::__libcpp_compressed_pair_imp"*, align 8
  %185 = alloca %"class.std::__1::__compressed_pair"*, align 8
  %186 = alloca %"class.std::__1::basic_string"*, align 8
  %187 = alloca i8*, align 8
  %188 = alloca i8*, align 8
  %189 = alloca %"class.std::__1::__libcpp_compressed_pair_imp"*, align 8
  %190 = alloca %"class.std::__1::__compressed_pair"*, align 8
  %191 = alloca %"class.std::__1::basic_string"*, align 8
  %192 = alloca %"class.std::__1::__libcpp_compressed_pair_imp"*, align 8
  %193 = alloca %"class.std::__1::__compressed_pair"*, align 8
  %194 = alloca %"class.std::__1::basic_string"*, align 8
  %195 = alloca %"class.std::__1::basic_string"*, align 8
  %196 = alloca %"class.std::__1::basic_string"*, align 8
  %197 = alloca %"class.std::__1::basic_string"*, align 8
  %198 = alloca i64, align 8
  %199 = alloca %"class.std::__1::basic_string"*, align 8
  %200 = alloca %"class.std::__1::basic_string"*, align 8
  %201 = alloca %"class.std::__1::basic_string"*, align 8
  %202 = alloca %"class.std::__1::basic_string", align 8
  %203 = alloca %"class.std::__1::basic_string", align 8
  %204 = alloca i8*
  %205 = alloca i32
  %206 = alloca %"class.std::__1::basic_string", align 8
  %207 = alloca %"class.std::__1::basic_string", align 8
  %208 = alloca %"class.std::__1::basic_string", align 8
  %209 = alloca %"class.std::__1::basic_string", align 8
  %210 = alloca %"class.std::__1::basic_string", align 8
  %211 = alloca %"class.std::__1::basic_string", align 8
  %212 = alloca %"class.std::__1::basic_string", align 8
  %213 = alloca %"class.std::__1::basic_string", align 8
  %214 = alloca %"class.std::__1::basic_string", align 8
  %215 = alloca %"class.std::__1::basic_string", align 8
  %216 = alloca %"class.std::__1::basic_string", align 8
  %217 = getelementptr inbounds %struct.Variant, %struct.Variant* %1, i32 0, i32 4
  %218 = getelementptr inbounds %struct.TypeSpecifier, %struct.TypeSpecifier* %217, i32 0, i32 0
  %219 = load i32, i32* %218, align 8
  %220 = icmp eq i32 %219, 4
  br i1 %220, label %221, label %360

; <label>:221:                                    ; preds = %3
  %222 = getelementptr inbounds %struct.Variant, %struct.Variant* %1, i32 0, i32 3
  call void @_ZN7Variant9to_stringEb(%"class.std::__1::basic_string"* sret %203, %struct.Variant* %2, i1 zeroext false)
  store %"class.std::__1::basic_string"* %222, %"class.std::__1::basic_string"** %200, align 8, !noalias !2
  store %"class.std::__1::basic_string"* %203, %"class.std::__1::basic_string"** %201, align 8, !noalias !2
  %223 = load %"class.std::__1::basic_string"*, %"class.std::__1::basic_string"** %201, align 8, !noalias !2
  %224 = load %"class.std::__1::basic_string"*, %"class.std::__1::basic_string"** %200, align 8, !noalias !2
  store %"class.std::__1::basic_string"* %223, %"class.std::__1::basic_string"** %197, align 8, !noalias !2
  store i64 0, i64* %198, align 8, !noalias !2
  store %"class.std::__1::basic_string"* %224, %"class.std::__1::basic_string"** %199, align 8, !noalias !2
  %225 = load %"class.std::__1::basic_string"*, %"class.std::__1::basic_string"** %197, align 8, !noalias !2
  %226 = load i64, i64* %198, align 8, !noalias !2
  %227 = load %"class.std::__1::basic_string"*, %"class.std::__1::basic_string"** %199, align 8, !noalias !2
  store %"class.std::__1::basic_string"* %227, %"class.std::__1::basic_string"** %196, align 8, !noalias !2
  %228 = load %"class.std::__1::basic_string"*, %"class.std::__1::basic_string"** %196, align 8, !noalias !2
  store %"class.std::__1::basic_string"* %228, %"class.std::__1::basic_string"** %195, align 8, !noalias !2
  %229 = load %"class.std::__1::basic_string"*, %"class.std::__1::basic_string"** %195, align 8, !noalias !2
  store %"class.std::__1::basic_string"* %229, %"class.std::__1::basic_string"** %194, align 8, !noalias !2
  %230 = load %"class.std::__1::basic_string"*, %"class.std::__1::basic_string"** %194, align 8, !noalias !2
  %231 = getelementptr inbounds %"class.std::__1::basic_string", %"class.std::__1::basic_string"* %230, i32 0, i32 0
  store %"class.std::__1::__compressed_pair"* %231, %"class.std::__1::__compressed_pair"** %193, align 8, !noalias !2
  %232 = load %"class.std::__1::__compressed_pair"*, %"class.std::__1::__compressed_pair"** %193, align 8, !noalias !2
  %233 = bitcast %"class.std::__1::__compressed_pair"* %232 to %"class.std::__1::__libcpp_compressed_pair_imp"*
  store %"class.std::__1::__libcpp_compressed_pair_imp"* %233, %"class.std::__1::__libcpp_compressed_pair_imp"** %192, align 8, !noalias !2
  %234 = load %"class.std::__1::__libcpp_compressed_pair_imp"*, %"class.std::__1::__libcpp_compressed_pair_imp"** %192, align 8, !noalias !2
  %235 = getelementptr inbounds %"class.std::__1::__libcpp_compressed_pair_imp", %"class.std::__1::__libcpp_compressed_pair_imp"* %234, i32 0, i32 0
  %236 = getelementptr inbounds %"struct.std::__1::basic_string<char, std::__1::char_traits<char>, std::__1::allocator<char> >::__rep", %"struct.std::__1::basic_string<char, std::__1::char_traits<char>, std::__1::allocator<char> >::__rep"* %235, i32 0, i32 0
  %237 = bitcast %union.anon.0* %236 to %"struct.std::__1::basic_string<char, std::__1::char_traits<char>, std::__1::allocator<char> >::__short"*
  %238 = getelementptr inbounds %"struct.std::__1::basic_string<char, std::__1::char_traits<char>, std::__1::allocator<char> >::__short", %"struct.std::__1::basic_string<char, std::__1::char_traits<char>, std::__1::allocator<char> >::__short"* %237, i32 0, i32 0
  %239 = bitcast %union.anon.1* %238 to i8*
  %240 = load i8, i8* %239, align 8, !noalias !2
  %241 = zext i8 %240 to i32
  %242 = and i32 %241, 1
  %243 = icmp ne i32 %242, 0
  br i1 %243, label %244, label %255

; <label>:244:                                    ; preds = %221
  store %"class.std::__1::basic_string"* %229, %"class.std::__1::basic_string"** %186, align 8, !noalias !2
  %245 = load %"class.std::__1::basic_string"*, %"class.std::__1::basic_string"** %186, align 8, !noalias !2
  %246 = getelementptr inbounds %"class.std::__1::basic_string", %"class.std::__1::basic_string"* %245, i32 0, i32 0
  store %"class.std::__1::__compressed_pair"* %246, %"class.std::__1::__compressed_pair"** %185, align 8, !noalias !2
  %247 = load %"class.std::__1::__compressed_pair"*, %"class.std::__1::__compressed_pair"** %185, align 8, !noalias !2
  %248 = bitcast %"class.std::__1::__compressed_pair"* %247 to %"class.std::__1::__libcpp_compressed_pair_imp"*
  store %"class.std::__1::__libcpp_compressed_pair_imp"* %248, %"class.std::__1::__libcpp_compressed_pair_imp"** %184, align 8, !noalias !2
  %249 = load %"class.std::__1::__libcpp_compressed_pair_imp"*, %"class.std::__1::__libcpp_compressed_pair_imp"** %184, align 8, !noalias !2
  %250 = getelementptr inbounds %"class.std::__1::__libcpp_compressed_pair_imp", %"class.std::__1::__libcpp_compressed_pair_imp"* %249, i32 0, i32 0
  %251 = getelementptr inbounds %"struct.std::__1::basic_string<char, std::__1::char_traits<char>, std::__1::allocator<char> >::__rep", %"struct.std::__1::basic_string<char, std::__1::char_traits<char>, std::__1::allocator<char> >::__rep"* %250, i32 0, i32 0
  %252 = bitcast %union.anon.0* %251 to %"struct.std::__1::basic_string<char, std::__1::char_traits<char>, std::__1::allocator<char> >::__long"*
  %253 = getelementptr inbounds %"struct.std::__1::basic_string<char, std::__1::char_traits<char>, std::__1::allocator<char> >::__long", %"struct.std::__1::basic_string<char, std::__1::char_traits<char>, std::__1::allocator<char> >::__long"* %252, i32 0, i32 2
  %254 = load i8*, i8** %253, align 8
  br label %268

; <label>:255:                                    ; preds = %221
  store %"class.std::__1::basic_string"* %229, %"class.std::__1::basic_string"** %191, align 8, !noalias !2
  %256 = load %"class.std::__1::basic_string"*, %"class.std::__1::basic_string"** %191, align 8, !noalias !2
  %257 = getelementptr inbounds %"class.std::__1::basic_string", %"class.std::__1::basic_string"* %256, i32 0, i32 0
  store %"class.std::__1::__compressed_pair"* %257, %"class.std::__1::__compressed_pair"** %190, align 8, !noalias !2
  %258 = load %"class.std::__1::__compressed_pair"*, %"class.std::__1::__compressed_pair"** %190, align 8, !noalias !2
  %259 = bitcast %"class.std::__1::__compressed_pair"* %258 to %"class.std::__1::__libcpp_compressed_pair_imp"*
  store %"class.std::__1::__libcpp_compressed_pair_imp"* %259, %"class.std::__1::__libcpp_compressed_pair_imp"** %189, align 8, !noalias !2
  %260 = load %"class.std::__1::__libcpp_compressed_pair_imp"*, %"class.std::__1::__libcpp_compressed_pair_imp"** %189, align 8, !noalias !2
  %261 = getelementptr inbounds %"class.std::__1::__libcpp_compressed_pair_imp", %"class.std::__1::__libcpp_compressed_pair_imp"* %260, i32 0, i32 0
  %262 = getelementptr inbounds %"struct.std::__1::basic_string<char, std::__1::char_traits<char>, std::__1::allocator<char> >::__rep", %"struct.std::__1::basic_string<char, std::__1::char_traits<char>, std::__1::allocator<char> >::__rep"* %261, i32 0, i32 0
  %263 = bitcast %union.anon.0* %262 to %"struct.std::__1::basic_string<char, std::__1::char_traits<char>, std::__1::allocator<char> >::__short"*
  %264 = getelementptr inbounds %"struct.std::__1::basic_string<char, std::__1::char_traits<char>, std::__1::allocator<char> >::__short", %"struct.std::__1::basic_string<char, std::__1::char_traits<char>, std::__1::allocator<char> >::__short"* %263, i32 0, i32 1
  %265 = getelementptr inbounds [23 x i8], [23 x i8]* %264, i64 0, i64 0
  store i8* %265, i8** %188, align 8, !noalias !2
  %266 = load i8*, i8** %188, align 8, !noalias !2
  store i8* %266, i8** %187, align 8, !noalias !2
  %267 = load i8*, i8** %187, align 8, !noalias !2
  br label %268

; <label>:268:                                    ; preds = %255, %244
  %269 = phi i8* [ %254, %244 ], [ %267, %255 ]
  store i8* %269, i8** %183, align 8, !noalias !2
  %270 = load i8*, i8** %183, align 8, !noalias !2
  %271 = load %"class.std::__1::basic_string"*, %"class.std::__1::basic_string"** %199, align 8, !noalias !2
  store %"class.std::__1::basic_string"* %271, %"class.std::__1::basic_string"** %182, align 8, !noalias !2
  %272 = load %"class.std::__1::basic_string"*, %"class.std::__1::basic_string"** %182, align 8, !noalias !2
  store %"class.std::__1::basic_string"* %272, %"class.std::__1::basic_string"** %181, align 8, !noalias !2
  %273 = load %"class.std::__1::basic_string"*, %"class.std::__1::basic_string"** %181, align 8, !noalias !2
  %274 = getelementptr inbounds %"class.std::__1::basic_string", %"class.std::__1::basic_string"* %273, i32 0, i32 0
  store %"class.std::__1::__compressed_pair"* %274, %"class.std::__1::__compressed_pair"** %180, align 8, !noalias !2
  %275 = load %"class.std::__1::__compressed_pair"*, %"class.std::__1::__compressed_pair"** %180, align 8, !noalias !2
  %276 = bitcast %"class.std::__1::__compressed_pair"* %275 to %"class.std::__1::__libcpp_compressed_pair_imp"*
  store %"class.std::__1::__libcpp_compressed_pair_imp"* %276, %"class.std::__1::__libcpp_compressed_pair_imp"** %179, align 8, !noalias !2
  %277 = load %"class.std::__1::__libcpp_compressed_pair_imp"*, %"class.std::__1::__libcpp_compressed_pair_imp"** %179, align 8, !noalias !2
  %278 = getelementptr inbounds %"class.std::__1::__libcpp_compressed_pair_imp", %"class.std::__1::__libcpp_compressed_pair_imp"* %277, i32 0, i32 0
  %279 = getelementptr inbounds %"struct.std::__1::basic_string<char, std::__1::char_traits<char>, std::__1::allocator<char> >::__rep", %"struct.std::__1::basic_string<char, std::__1::char_traits<char>, std::__1::allocator<char> >::__rep"* %278, i32 0, i32 0
  %280 = bitcast %union.anon.0* %279 to %"struct.std::__1::basic_string<char, std::__1::char_traits<char>, std::__1::allocator<char> >::__short"*
  %281 = getelementptr inbounds %"struct.std::__1::basic_string<char, std::__1::char_traits<char>, std::__1::allocator<char> >::__short", %"struct.std::__1::basic_string<char, std::__1::char_traits<char>, std::__1::allocator<char> >::__short"* %280, i32 0, i32 0
  %282 = bitcast %union.anon.1* %281 to i8*
  %283 = load i8, i8* %282, align 8, !noalias !2
  %284 = zext i8 %283 to i32
  %285 = and i32 %284, 1
  %286 = icmp ne i32 %285, 0
  br i1 %286, label %287, label %298

; <label>:287:                                    ; preds = %268
  store %"class.std::__1::basic_string"* %272, %"class.std::__1::basic_string"** %175, align 8, !noalias !2
  %288 = load %"class.std::__1::basic_string"*, %"class.std::__1::basic_string"** %175, align 8, !noalias !2
  %289 = getelementptr inbounds %"class.std::__1::basic_string", %"class.std::__1::basic_string"* %288, i32 0, i32 0
  store %"class.std::__1::__compressed_pair"* %289, %"class.std::__1::__compressed_pair"** %174, align 8, !noalias !2
  %290 = load %"class.std::__1::__compressed_pair"*, %"class.std::__1::__compressed_pair"** %174, align 8, !noalias !2
  %291 = bitcast %"class.std::__1::__compressed_pair"* %290 to %"class.std::__1::__libcpp_compressed_pair_imp"*
  store %"class.std::__1::__libcpp_compressed_pair_imp"* %291, %"class.std::__1::__libcpp_compressed_pair_imp"** %173, align 8, !noalias !2
  %292 = load %"class.std::__1::__libcpp_compressed_pair_imp"*, %"class.std::__1::__libcpp_compressed_pair_imp"** %173, align 8, !noalias !2
  %293 = getelementptr inbounds %"class.std::__1::__libcpp_compressed_pair_imp", %"class.std::__1::__libcpp_compressed_pair_imp"* %292, i32 0, i32 0
  %294 = getelementptr inbounds %"struct.std::__1::basic_string<char, std::__1::char_traits<char>, std::__1::allocator<char> >::__rep", %"struct.std::__1::basic_string<char, std::__1::char_traits<char>, std::__1::allocator<char> >::__rep"* %293, i32 0, i32 0
  %295 = bitcast %union.anon.0* %294 to %"struct.std::__1::basic_string<char, std::__1::char_traits<char>, std::__1::allocator<char> >::__long"*
  %296 = getelementptr inbounds %"struct.std::__1::basic_string<char, std::__1::char_traits<char>, std::__1::allocator<char> >::__long", %"struct.std::__1::basic_string<char, std::__1::char_traits<char>, std::__1::allocator<char> >::__long"* %295, i32 0, i32 1
  %297 = load i64, i64* %296, align 8
  br label %313

; <label>:298:                                    ; preds = %268
  store %"class.std::__1::basic_string"* %272, %"class.std::__1::basic_string"** %178, align 8, !noalias !2
  %299 = load %"class.std::__1::basic_string"*, %"class.std::__1::basic_string"** %178, align 8, !noalias !2
  %300 = getelementptr inbounds %"class.std::__1::basic_string", %"class.std::__1::basic_string"* %299, i32 0, i32 0
  store %"class.std::__1::__compressed_pair"* %300, %"class.std::__1::__compressed_pair"** %177, align 8, !noalias !2
  %301 = load %"class.std::__1::__compressed_pair"*, %"class.std::__1::__compressed_pair"** %177, align 8, !noalias !2
  %302 = bitcast %"class.std::__1::__compressed_pair"* %301 to %"class.std::__1::__libcpp_compressed_pair_imp"*
  store %"class.std::__1::__libcpp_compressed_pair_imp"* %302, %"class.std::__1::__libcpp_compressed_pair_imp"** %176, align 8, !noalias !2
  %303 = load %"class.std::__1::__libcpp_compressed_pair_imp"*, %"class.std::__1::__libcpp_compressed_pair_imp"** %176, align 8, !noalias !2
  %304 = getelementptr inbounds %"class.std::__1::__libcpp_compressed_pair_imp", %"class.std::__1::__libcpp_compressed_pair_imp"* %303, i32 0, i32 0
  %305 = getelementptr inbounds %"struct.std::__1::basic_string<char, std::__1::char_traits<char>, std::__1::allocator<char> >::__rep", %"struct.std::__1::basic_string<char, std::__1::char_traits<char>, std::__1::allocator<char> >::__rep"* %304, i32 0, i32 0
  %306 = bitcast %union.anon.0* %305 to %"struct.std::__1::basic_string<char, std::__1::char_traits<char>, std::__1::allocator<char> >::__short"*
  %307 = getelementptr inbounds %"struct.std::__1::basic_string<char, std::__1::char_traits<char>, std::__1::allocator<char> >::__short", %"struct.std::__1::basic_string<char, std::__1::char_traits<char>, std::__1::allocator<char> >::__short"* %306, i32 0, i32 0
  %308 = bitcast %union.anon.1* %307 to i8*
  %309 = load i8, i8* %308, align 8
  %310 = zext i8 %309 to i32
  %311 = ashr i32 %310, 1
  %312 = sext i32 %311 to i64
  br label %313

; <label>:313:                                    ; preds = %298, %287
  %314 = phi i64 [ %297, %287 ], [ %312, %298 ]
  %315 = invoke dereferenceable(24) %"class.std::__1::basic_string"* @_ZNSt3__112basic_stringIcNS_11char_traitsIcEENS_9allocatorIcEEE6insertEmPKcm(%"class.std::__1::basic_string"* %225, i64 %226, i8* %270, i64 %314)
          to label %316 unwind label %351

; <label>:316:                                    ; preds = %313
  store %"class.std::__1::basic_string"* %315, %"class.std::__1::basic_string"** %172, align 8, !noalias !2
  %317 = load %"class.std::__1::basic_string"*, %"class.std::__1::basic_string"** %172, align 8, !noalias !2
  store %"class.std::__1::basic_string"* %202, %"class.std::__1::basic_string"** %170, align 8, !noalias !2
  store %"class.std::__1::basic_string"* %317, %"class.std::__1::basic_string"** %171, align 8, !noalias !2
  %318 = load %"class.std::__1::basic_string"*, %"class.std::__1::basic_string"** %170, align 8, !noalias !2
  %319 = load %"class.std::__1::basic_string"*, %"class.std::__1::basic_string"** %171, align 8, !noalias !2
  store %"class.std::__1::basic_string"* %318, %"class.std::__1::basic_string"** %168, align 8, !noalias !2
  store %"class.std::__1::basic_string"* %319, %"class.std::__1::basic_string"** %169, align 8, !noalias !2
  %320 = load %"class.std::__1::basic_string"*, %"class.std::__1::basic_string"** %168, align 8, !noalias !2
  %321 = bitcast %"class.std::__1::basic_string"* %320 to %"class.std::__1::__basic_string_common"*
  %322 = getelementptr inbounds %"class.std::__1::basic_string", %"class.std::__1::basic_string"* %320, i32 0, i32 0
  %323 = load %"class.std::__1::basic_string"*, %"class.std::__1::basic_string"** %169, align 8, !noalias !2
  %324 = getelementptr inbounds %"class.std::__1::basic_string", %"class.std::__1::basic_string"* %323, i32 0, i32 0
  store %"class.std::__1::__compressed_pair"* %324, %"class.std::__1::__compressed_pair"** %167, align 8, !noalias !2
  %325 = load %"class.std::__1::__compressed_pair"*, %"class.std::__1::__compressed_pair"** %167, align 8, !noalias !2
  %326 = bitcast %"class.std::__1::__compressed_pair"* %322 to i8*
  %327 = bitcast %"class.std::__1::__compressed_pair"* %325 to i8*
  call void @llvm.memcpy.p0i8.p0i8.i64(i8* %326, i8* %327, i64 24, i32 8, i1 false) #10
  %328 = load %"class.std::__1::basic_string"*, %"class.std::__1::basic_string"** %169, align 8, !noalias !2
  store %"class.std::__1::basic_string"* %328, %"class.std::__1::basic_string"** %164, align 8, !noalias !2
  %329 = load %"class.std::__1::basic_string"*, %"class.std::__1::basic_string"** %164, align 8, !noalias !2
  %330 = getelementptr inbounds %"class.std::__1::basic_string", %"class.std::__1::basic_string"* %329, i32 0, i32 0
  store %"class.std::__1::__compressed_pair"* %330, %"class.std::__1::__compressed_pair"** %163, align 8, !noalias !2
  %331 = load %"class.std::__1::__compressed_pair"*, %"class.std::__1::__compressed_pair"** %163, align 8, !noalias !2
  %332 = bitcast %"class.std::__1::__compressed_pair"* %331 to %"class.std::__1::__libcpp_compressed_pair_imp"*
  store %"class.std::__1::__libcpp_compressed_pair_imp"* %332, %"class.std::__1::__libcpp_compressed_pair_imp"** %162, align 8, !noalias !2
  %333 = load %"class.std::__1::__libcpp_compressed_pair_imp"*, %"class.std::__1::__libcpp_compressed_pair_imp"** %162, align 8, !noalias !2
  %334 = getelementptr inbounds %"class.std::__1::__libcpp_compressed_pair_imp", %"class.std::__1::__libcpp_compressed_pair_imp"* %333, i32 0, i32 0
  %335 = getelementptr inbounds %"struct.std::__1::basic_string<char, std::__1::char_traits<char>, std::__1::allocator<char> >::__rep", %"struct.std::__1::basic_string<char, std::__1::char_traits<char>, std::__1::allocator<char> >::__rep"* %334, i32 0, i32 0
  %336 = bitcast %union.anon.0* %335 to %"struct.std::__1::basic_string<char, std::__1::char_traits<char>, std::__1::allocator<char> >::__raw"*
  %337 = getelementptr inbounds %"struct.std::__1::basic_string<char, std::__1::char_traits<char>, std::__1::allocator<char> >::__raw", %"struct.std::__1::basic_string<char, std::__1::char_traits<char>, std::__1::allocator<char> >::__raw"* %336, i32 0, i32 0
  store [3 x i64]* %337, [3 x i64]** %165, align 8, !noalias !2
  store i32 0, i32* %166, align 4, !noalias !2
  br label %338

; <label>:338:                                    ; preds = %341, %316
  %339 = load i32, i32* %166, align 4, !noalias !2
  %340 = icmp ult i32 %339, 3
  br i1 %340, label %341, label %348

; <label>:341:                                    ; preds = %338
  %342 = load i32, i32* %166, align 4, !noalias !2
  %343 = zext i32 %342 to i64
  %344 = load [3 x i64]*, [3 x i64]** %165, align 8, !noalias !2
  %345 = getelementptr inbounds [3 x i64], [3 x i64]* %344, i64 0, i64 %343
  store i64 0, i64* %345, align 8
  %346 = load i32, i32* %166, align 4, !noalias !2
  %347 = add i32 %346, 1
  store i32 %347, i32* %166, align 4, !noalias !2
  br label %338

; <label>:348:                                    ; preds = %338
  br label %349

; <label>:349:                                    ; preds = %348
  invoke void @_ZN7VariantC1ENSt3__112basic_stringIcNS0_11char_traitsIcEENS0_9allocatorIcEEEE(%struct.Variant* %0, %"class.std::__1::basic_string"* %202)
          to label %350 unwind label %355

; <label>:350:                                    ; preds = %349
  call void @_ZNSt3__112basic_stringIcNS_11char_traitsIcEENS_9allocatorIcEEED1Ev(%"class.std::__1::basic_string"* %202) #10
  call void @_ZNSt3__112basic_stringIcNS_11char_traitsIcEENS_9allocatorIcEEED1Ev(%"class.std::__1::basic_string"* %203) #10
  br label %1057

; <label>:351:                                    ; preds = %313
  %352 = landingpad { i8*, i32 }
          cleanup
  %353 = extractvalue { i8*, i32 } %352, 0
  store i8* %353, i8** %204, align 8
  %354 = extractvalue { i8*, i32 } %352, 1
  store i32 %354, i32* %205, align 4
  br label %359

; <label>:355:                                    ; preds = %349
  %356 = landingpad { i8*, i32 }
          cleanup
  %357 = extractvalue { i8*, i32 } %356, 0
  store i8* %357, i8** %204, align 8
  %358 = extractvalue { i8*, i32 } %356, 1
  store i32 %358, i32* %205, align 4
  call void @_ZNSt3__112basic_stringIcNS_11char_traitsIcEENS_9allocatorIcEEED1Ev(%"class.std::__1::basic_string"* %202) #10
  br label %359

; <label>:359:                                    ; preds = %355, %351
  call void @_ZNSt3__112basic_stringIcNS_11char_traitsIcEENS_9allocatorIcEEED1Ev(%"class.std::__1::basic_string"* %203) #10
  br label %1082

; <label>:360:                                    ; preds = %3
  %361 = getelementptr inbounds %struct.Variant, %struct.Variant* %2, i32 0, i32 4
  %362 = getelementptr inbounds %struct.TypeSpecifier, %struct.TypeSpecifier* %361, i32 0, i32 0
  %363 = load i32, i32* %362, align 8
  %364 = icmp eq i32 %363, 4
  br i1 %364, label %365, label %503

; <label>:365:                                    ; preds = %360
  call void @_ZN7Variant9to_stringEb(%"class.std::__1::basic_string"* sret %207, %struct.Variant* %1, i1 zeroext false)
  %366 = getelementptr inbounds %struct.Variant, %struct.Variant* %2, i32 0, i32 3
  store %"class.std::__1::basic_string"* %207, %"class.std::__1::basic_string"** %160, align 8, !noalias !5
  store %"class.std::__1::basic_string"* %366, %"class.std::__1::basic_string"** %161, align 8, !noalias !5
  %367 = load %"class.std::__1::basic_string"*, %"class.std::__1::basic_string"** %160, align 8, !noalias !5
  %368 = load %"class.std::__1::basic_string"*, %"class.std::__1::basic_string"** %161, align 8, !noalias !5
  store %"class.std::__1::basic_string"* %367, %"class.std::__1::basic_string"** %158, align 8, !noalias !5
  store %"class.std::__1::basic_string"* %368, %"class.std::__1::basic_string"** %159, align 8, !noalias !5
  %369 = load %"class.std::__1::basic_string"*, %"class.std::__1::basic_string"** %158, align 8, !noalias !5
  %370 = load %"class.std::__1::basic_string"*, %"class.std::__1::basic_string"** %159, align 8, !noalias !5
  store %"class.std::__1::basic_string"* %370, %"class.std::__1::basic_string"** %157, align 8, !noalias !5
  %371 = load %"class.std::__1::basic_string"*, %"class.std::__1::basic_string"** %157, align 8, !noalias !5
  store %"class.std::__1::basic_string"* %371, %"class.std::__1::basic_string"** %156, align 8, !noalias !5
  %372 = load %"class.std::__1::basic_string"*, %"class.std::__1::basic_string"** %156, align 8, !noalias !5
  store %"class.std::__1::basic_string"* %372, %"class.std::__1::basic_string"** %155, align 8, !noalias !5
  %373 = load %"class.std::__1::basic_string"*, %"class.std::__1::basic_string"** %155, align 8, !noalias !5
  %374 = getelementptr inbounds %"class.std::__1::basic_string", %"class.std::__1::basic_string"* %373, i32 0, i32 0
  store %"class.std::__1::__compressed_pair"* %374, %"class.std::__1::__compressed_pair"** %154, align 8, !noalias !5
  %375 = load %"class.std::__1::__compressed_pair"*, %"class.std::__1::__compressed_pair"** %154, align 8, !noalias !5
  %376 = bitcast %"class.std::__1::__compressed_pair"* %375 to %"class.std::__1::__libcpp_compressed_pair_imp"*
  store %"class.std::__1::__libcpp_compressed_pair_imp"* %376, %"class.std::__1::__libcpp_compressed_pair_imp"** %153, align 8, !noalias !5
  %377 = load %"class.std::__1::__libcpp_compressed_pair_imp"*, %"class.std::__1::__libcpp_compressed_pair_imp"** %153, align 8, !noalias !5
  %378 = getelementptr inbounds %"class.std::__1::__libcpp_compressed_pair_imp", %"class.std::__1::__libcpp_compressed_pair_imp"* %377, i32 0, i32 0
  %379 = getelementptr inbounds %"struct.std::__1::basic_string<char, std::__1::char_traits<char>, std::__1::allocator<char> >::__rep", %"struct.std::__1::basic_string<char, std::__1::char_traits<char>, std::__1::allocator<char> >::__rep"* %378, i32 0, i32 0
  %380 = bitcast %union.anon.0* %379 to %"struct.std::__1::basic_string<char, std::__1::char_traits<char>, std::__1::allocator<char> >::__short"*
  %381 = getelementptr inbounds %"struct.std::__1::basic_string<char, std::__1::char_traits<char>, std::__1::allocator<char> >::__short", %"struct.std::__1::basic_string<char, std::__1::char_traits<char>, std::__1::allocator<char> >::__short"* %380, i32 0, i32 0
  %382 = bitcast %union.anon.1* %381 to i8*
  %383 = load i8, i8* %382, align 8, !noalias !5
  %384 = zext i8 %383 to i32
  %385 = and i32 %384, 1
  %386 = icmp ne i32 %385, 0
  br i1 %386, label %387, label %398

; <label>:387:                                    ; preds = %365
  store %"class.std::__1::basic_string"* %372, %"class.std::__1::basic_string"** %147, align 8, !noalias !5
  %388 = load %"class.std::__1::basic_string"*, %"class.std::__1::basic_string"** %147, align 8, !noalias !5
  %389 = getelementptr inbounds %"class.std::__1::basic_string", %"class.std::__1::basic_string"* %388, i32 0, i32 0
  store %"class.std::__1::__compressed_pair"* %389, %"class.std::__1::__compressed_pair"** %146, align 8, !noalias !5
  %390 = load %"class.std::__1::__compressed_pair"*, %"class.std::__1::__compressed_pair"** %146, align 8, !noalias !5
  %391 = bitcast %"class.std::__1::__compressed_pair"* %390 to %"class.std::__1::__libcpp_compressed_pair_imp"*
  store %"class.std::__1::__libcpp_compressed_pair_imp"* %391, %"class.std::__1::__libcpp_compressed_pair_imp"** %145, align 8, !noalias !5
  %392 = load %"class.std::__1::__libcpp_compressed_pair_imp"*, %"class.std::__1::__libcpp_compressed_pair_imp"** %145, align 8, !noalias !5
  %393 = getelementptr inbounds %"class.std::__1::__libcpp_compressed_pair_imp", %"class.std::__1::__libcpp_compressed_pair_imp"* %392, i32 0, i32 0
  %394 = getelementptr inbounds %"struct.std::__1::basic_string<char, std::__1::char_traits<char>, std::__1::allocator<char> >::__rep", %"struct.std::__1::basic_string<char, std::__1::char_traits<char>, std::__1::allocator<char> >::__rep"* %393, i32 0, i32 0
  %395 = bitcast %union.anon.0* %394 to %"struct.std::__1::basic_string<char, std::__1::char_traits<char>, std::__1::allocator<char> >::__long"*
  %396 = getelementptr inbounds %"struct.std::__1::basic_string<char, std::__1::char_traits<char>, std::__1::allocator<char> >::__long", %"struct.std::__1::basic_string<char, std::__1::char_traits<char>, std::__1::allocator<char> >::__long"* %395, i32 0, i32 2
  %397 = load i8*, i8** %396, align 8
  br label %411

; <label>:398:                                    ; preds = %365
  store %"class.std::__1::basic_string"* %372, %"class.std::__1::basic_string"** %152, align 8, !noalias !5
  %399 = load %"class.std::__1::basic_string"*, %"class.std::__1::basic_string"** %152, align 8, !noalias !5
  %400 = getelementptr inbounds %"class.std::__1::basic_string", %"class.std::__1::basic_string"* %399, i32 0, i32 0
  store %"class.std::__1::__compressed_pair"* %400, %"class.std::__1::__compressed_pair"** %151, align 8, !noalias !5
  %401 = load %"class.std::__1::__compressed_pair"*, %"class.std::__1::__compressed_pair"** %151, align 8, !noalias !5
  %402 = bitcast %"class.std::__1::__compressed_pair"* %401 to %"class.std::__1::__libcpp_compressed_pair_imp"*
  store %"class.std::__1::__libcpp_compressed_pair_imp"* %402, %"class.std::__1::__libcpp_compressed_pair_imp"** %150, align 8, !noalias !5
  %403 = load %"class.std::__1::__libcpp_compressed_pair_imp"*, %"class.std::__1::__libcpp_compressed_pair_imp"** %150, align 8, !noalias !5
  %404 = getelementptr inbounds %"class.std::__1::__libcpp_compressed_pair_imp", %"class.std::__1::__libcpp_compressed_pair_imp"* %403, i32 0, i32 0
  %405 = getelementptr inbounds %"struct.std::__1::basic_string<char, std::__1::char_traits<char>, std::__1::allocator<char> >::__rep", %"struct.std::__1::basic_string<char, std::__1::char_traits<char>, std::__1::allocator<char> >::__rep"* %404, i32 0, i32 0
  %406 = bitcast %union.anon.0* %405 to %"struct.std::__1::basic_string<char, std::__1::char_traits<char>, std::__1::allocator<char> >::__short"*
  %407 = getelementptr inbounds %"struct.std::__1::basic_string<char, std::__1::char_traits<char>, std::__1::allocator<char> >::__short", %"struct.std::__1::basic_string<char, std::__1::char_traits<char>, std::__1::allocator<char> >::__short"* %406, i32 0, i32 1
  %408 = getelementptr inbounds [23 x i8], [23 x i8]* %407, i64 0, i64 0
  store i8* %408, i8** %149, align 8, !noalias !5
  %409 = load i8*, i8** %149, align 8, !noalias !5
  store i8* %409, i8** %148, align 8, !noalias !5
  %410 = load i8*, i8** %148, align 8, !noalias !5
  br label %411

; <label>:411:                                    ; preds = %398, %387
  %412 = phi i8* [ %397, %387 ], [ %410, %398 ]
  store i8* %412, i8** %144, align 8, !noalias !5
  %413 = load i8*, i8** %144, align 8, !noalias !5
  %414 = load %"class.std::__1::basic_string"*, %"class.std::__1::basic_string"** %159, align 8, !noalias !5
  store %"class.std::__1::basic_string"* %414, %"class.std::__1::basic_string"** %143, align 8, !noalias !5
  %415 = load %"class.std::__1::basic_string"*, %"class.std::__1::basic_string"** %143, align 8, !noalias !5
  store %"class.std::__1::basic_string"* %415, %"class.std::__1::basic_string"** %142, align 8, !noalias !5
  %416 = load %"class.std::__1::basic_string"*, %"class.std::__1::basic_string"** %142, align 8, !noalias !5
  %417 = getelementptr inbounds %"class.std::__1::basic_string", %"class.std::__1::basic_string"* %416, i32 0, i32 0
  store %"class.std::__1::__compressed_pair"* %417, %"class.std::__1::__compressed_pair"** %141, align 8, !noalias !5
  %418 = load %"class.std::__1::__compressed_pair"*, %"class.std::__1::__compressed_pair"** %141, align 8, !noalias !5
  %419 = bitcast %"class.std::__1::__compressed_pair"* %418 to %"class.std::__1::__libcpp_compressed_pair_imp"*
  store %"class.std::__1::__libcpp_compressed_pair_imp"* %419, %"class.std::__1::__libcpp_compressed_pair_imp"** %140, align 8, !noalias !5
  %420 = load %"class.std::__1::__libcpp_compressed_pair_imp"*, %"class.std::__1::__libcpp_compressed_pair_imp"** %140, align 8, !noalias !5
  %421 = getelementptr inbounds %"class.std::__1::__libcpp_compressed_pair_imp", %"class.std::__1::__libcpp_compressed_pair_imp"* %420, i32 0, i32 0
  %422 = getelementptr inbounds %"struct.std::__1::basic_string<char, std::__1::char_traits<char>, std::__1::allocator<char> >::__rep", %"struct.std::__1::basic_string<char, std::__1::char_traits<char>, std::__1::allocator<char> >::__rep"* %421, i32 0, i32 0
  %423 = bitcast %union.anon.0* %422 to %"struct.std::__1::basic_string<char, std::__1::char_traits<char>, std::__1::allocator<char> >::__short"*
  %424 = getelementptr inbounds %"struct.std::__1::basic_string<char, std::__1::char_traits<char>, std::__1::allocator<char> >::__short", %"struct.std::__1::basic_string<char, std::__1::char_traits<char>, std::__1::allocator<char> >::__short"* %423, i32 0, i32 0
  %425 = bitcast %union.anon.1* %424 to i8*
  %426 = load i8, i8* %425, align 8, !noalias !5
  %427 = zext i8 %426 to i32
  %428 = and i32 %427, 1
  %429 = icmp ne i32 %428, 0
  br i1 %429, label %430, label %441

; <label>:430:                                    ; preds = %411
  store %"class.std::__1::basic_string"* %415, %"class.std::__1::basic_string"** %136, align 8, !noalias !5
  %431 = load %"class.std::__1::basic_string"*, %"class.std::__1::basic_string"** %136, align 8, !noalias !5
  %432 = getelementptr inbounds %"class.std::__1::basic_string", %"class.std::__1::basic_string"* %431, i32 0, i32 0
  store %"class.std::__1::__compressed_pair"* %432, %"class.std::__1::__compressed_pair"** %135, align 8, !noalias !5
  %433 = load %"class.std::__1::__compressed_pair"*, %"class.std::__1::__compressed_pair"** %135, align 8, !noalias !5
  %434 = bitcast %"class.std::__1::__compressed_pair"* %433 to %"class.std::__1::__libcpp_compressed_pair_imp"*
  store %"class.std::__1::__libcpp_compressed_pair_imp"* %434, %"class.std::__1::__libcpp_compressed_pair_imp"** %134, align 8, !noalias !5
  %435 = load %"class.std::__1::__libcpp_compressed_pair_imp"*, %"class.std::__1::__libcpp_compressed_pair_imp"** %134, align 8, !noalias !5
  %436 = getelementptr inbounds %"class.std::__1::__libcpp_compressed_pair_imp", %"class.std::__1::__libcpp_compressed_pair_imp"* %435, i32 0, i32 0
  %437 = getelementptr inbounds %"struct.std::__1::basic_string<char, std::__1::char_traits<char>, std::__1::allocator<char> >::__rep", %"struct.std::__1::basic_string<char, std::__1::char_traits<char>, std::__1::allocator<char> >::__rep"* %436, i32 0, i32 0
  %438 = bitcast %union.anon.0* %437 to %"struct.std::__1::basic_string<char, std::__1::char_traits<char>, std::__1::allocator<char> >::__long"*
  %439 = getelementptr inbounds %"struct.std::__1::basic_string<char, std::__1::char_traits<char>, std::__1::allocator<char> >::__long", %"struct.std::__1::basic_string<char, std::__1::char_traits<char>, std::__1::allocator<char> >::__long"* %438, i32 0, i32 1
  %440 = load i64, i64* %439, align 8
  br label %456

; <label>:441:                                    ; preds = %411
  store %"class.std::__1::basic_string"* %415, %"class.std::__1::basic_string"** %139, align 8, !noalias !5
  %442 = load %"class.std::__1::basic_string"*, %"class.std::__1::basic_string"** %139, align 8, !noalias !5
  %443 = getelementptr inbounds %"class.std::__1::basic_string", %"class.std::__1::basic_string"* %442, i32 0, i32 0
  store %"class.std::__1::__compressed_pair"* %443, %"class.std::__1::__compressed_pair"** %138, align 8, !noalias !5
  %444 = load %"class.std::__1::__compressed_pair"*, %"class.std::__1::__compressed_pair"** %138, align 8, !noalias !5
  %445 = bitcast %"class.std::__1::__compressed_pair"* %444 to %"class.std::__1::__libcpp_compressed_pair_imp"*
  store %"class.std::__1::__libcpp_compressed_pair_imp"* %445, %"class.std::__1::__libcpp_compressed_pair_imp"** %137, align 8, !noalias !5
  %446 = load %"class.std::__1::__libcpp_compressed_pair_imp"*, %"class.std::__1::__libcpp_compressed_pair_imp"** %137, align 8, !noalias !5
  %447 = getelementptr inbounds %"class.std::__1::__libcpp_compressed_pair_imp", %"class.std::__1::__libcpp_compressed_pair_imp"* %446, i32 0, i32 0
  %448 = getelementptr inbounds %"struct.std::__1::basic_string<char, std::__1::char_traits<char>, std::__1::allocator<char> >::__rep", %"struct.std::__1::basic_string<char, std::__1::char_traits<char>, std::__1::allocator<char> >::__rep"* %447, i32 0, i32 0
  %449 = bitcast %union.anon.0* %448 to %"struct.std::__1::basic_string<char, std::__1::char_traits<char>, std::__1::allocator<char> >::__short"*
  %450 = getelementptr inbounds %"struct.std::__1::basic_string<char, std::__1::char_traits<char>, std::__1::allocator<char> >::__short", %"struct.std::__1::basic_string<char, std::__1::char_traits<char>, std::__1::allocator<char> >::__short"* %449, i32 0, i32 0
  %451 = bitcast %union.anon.1* %450 to i8*
  %452 = load i8, i8* %451, align 8
  %453 = zext i8 %452 to i32
  %454 = ashr i32 %453, 1
  %455 = sext i32 %454 to i64
  br label %456

; <label>:456:                                    ; preds = %441, %430
  %457 = phi i64 [ %440, %430 ], [ %455, %441 ]
  %458 = invoke dereferenceable(24) %"class.std::__1::basic_string"* @_ZNSt3__112basic_stringIcNS_11char_traitsIcEENS_9allocatorIcEEE6appendEPKcm(%"class.std::__1::basic_string"* %369, i8* %413, i64 %457)
          to label %459 unwind label %494

; <label>:459:                                    ; preds = %456
  store %"class.std::__1::basic_string"* %458, %"class.std::__1::basic_string"** %133, align 8, !noalias !5
  %460 = load %"class.std::__1::basic_string"*, %"class.std::__1::basic_string"** %133, align 8, !noalias !5
  store %"class.std::__1::basic_string"* %206, %"class.std::__1::basic_string"** %131, align 8, !noalias !5
  store %"class.std::__1::basic_string"* %460, %"class.std::__1::basic_string"** %132, align 8, !noalias !5
  %461 = load %"class.std::__1::basic_string"*, %"class.std::__1::basic_string"** %131, align 8, !noalias !5
  %462 = load %"class.std::__1::basic_string"*, %"class.std::__1::basic_string"** %132, align 8, !noalias !5
  store %"class.std::__1::basic_string"* %461, %"class.std::__1::basic_string"** %129, align 8, !noalias !5
  store %"class.std::__1::basic_string"* %462, %"class.std::__1::basic_string"** %130, align 8, !noalias !5
  %463 = load %"class.std::__1::basic_string"*, %"class.std::__1::basic_string"** %129, align 8, !noalias !5
  %464 = bitcast %"class.std::__1::basic_string"* %463 to %"class.std::__1::__basic_string_common"*
  %465 = getelementptr inbounds %"class.std::__1::basic_string", %"class.std::__1::basic_string"* %463, i32 0, i32 0
  %466 = load %"class.std::__1::basic_string"*, %"class.std::__1::basic_string"** %130, align 8, !noalias !5
  %467 = getelementptr inbounds %"class.std::__1::basic_string", %"class.std::__1::basic_string"* %466, i32 0, i32 0
  store %"class.std::__1::__compressed_pair"* %467, %"class.std::__1::__compressed_pair"** %128, align 8, !noalias !5
  %468 = load %"class.std::__1::__compressed_pair"*, %"class.std::__1::__compressed_pair"** %128, align 8, !noalias !5
  %469 = bitcast %"class.std::__1::__compressed_pair"* %465 to i8*
  %470 = bitcast %"class.std::__1::__compressed_pair"* %468 to i8*
  call void @llvm.memcpy.p0i8.p0i8.i64(i8* %469, i8* %470, i64 24, i32 8, i1 false) #10
  %471 = load %"class.std::__1::basic_string"*, %"class.std::__1::basic_string"** %130, align 8, !noalias !5
  store %"class.std::__1::basic_string"* %471, %"class.std::__1::basic_string"** %125, align 8, !noalias !5
  %472 = load %"class.std::__1::basic_string"*, %"class.std::__1::basic_string"** %125, align 8, !noalias !5
  %473 = getelementptr inbounds %"class.std::__1::basic_string", %"class.std::__1::basic_string"* %472, i32 0, i32 0
  store %"class.std::__1::__compressed_pair"* %473, %"class.std::__1::__compressed_pair"** %124, align 8, !noalias !5
  %474 = load %"class.std::__1::__compressed_pair"*, %"class.std::__1::__compressed_pair"** %124, align 8, !noalias !5
  %475 = bitcast %"class.std::__1::__compressed_pair"* %474 to %"class.std::__1::__libcpp_compressed_pair_imp"*
  store %"class.std::__1::__libcpp_compressed_pair_imp"* %475, %"class.std::__1::__libcpp_compressed_pair_imp"** %123, align 8, !noalias !5
  %476 = load %"class.std::__1::__libcpp_compressed_pair_imp"*, %"class.std::__1::__libcpp_compressed_pair_imp"** %123, align 8, !noalias !5
  %477 = getelementptr inbounds %"class.std::__1::__libcpp_compressed_pair_imp", %"class.std::__1::__libcpp_compressed_pair_imp"* %476, i32 0, i32 0
  %478 = getelementptr inbounds %"struct.std::__1::basic_string<char, std::__1::char_traits<char>, std::__1::allocator<char> >::__rep", %"struct.std::__1::basic_string<char, std::__1::char_traits<char>, std::__1::allocator<char> >::__rep"* %477, i32 0, i32 0
  %479 = bitcast %union.anon.0* %478 to %"struct.std::__1::basic_string<char, std::__1::char_traits<char>, std::__1::allocator<char> >::__raw"*
  %480 = getelementptr inbounds %"struct.std::__1::basic_string<char, std::__1::char_traits<char>, std::__1::allocator<char> >::__raw", %"struct.std::__1::basic_string<char, std::__1::char_traits<char>, std::__1::allocator<char> >::__raw"* %479, i32 0, i32 0
  store [3 x i64]* %480, [3 x i64]** %126, align 8, !noalias !5
  store i32 0, i32* %127, align 4, !noalias !5
  br label %481

; <label>:481:                                    ; preds = %484, %459
  %482 = load i32, i32* %127, align 4, !noalias !5
  %483 = icmp ult i32 %482, 3
  br i1 %483, label %484, label %491

; <label>:484:                                    ; preds = %481
  %485 = load i32, i32* %127, align 4, !noalias !5
  %486 = zext i32 %485 to i64
  %487 = load [3 x i64]*, [3 x i64]** %126, align 8, !noalias !5
  %488 = getelementptr inbounds [3 x i64], [3 x i64]* %487, i64 0, i64 %486
  store i64 0, i64* %488, align 8
  %489 = load i32, i32* %127, align 4, !noalias !5
  %490 = add i32 %489, 1
  store i32 %490, i32* %127, align 4, !noalias !5
  br label %481

; <label>:491:                                    ; preds = %481
  br label %492

; <label>:492:                                    ; preds = %491
  invoke void @_ZN7VariantC1ENSt3__112basic_stringIcNS0_11char_traitsIcEENS0_9allocatorIcEEEE(%struct.Variant* %0, %"class.std::__1::basic_string"* %206)
          to label %493 unwind label %498

; <label>:493:                                    ; preds = %492
  call void @_ZNSt3__112basic_stringIcNS_11char_traitsIcEENS_9allocatorIcEEED1Ev(%"class.std::__1::basic_string"* %206) #10
  call void @_ZNSt3__112basic_stringIcNS_11char_traitsIcEENS_9allocatorIcEEED1Ev(%"class.std::__1::basic_string"* %207) #10
  br label %1057

; <label>:494:                                    ; preds = %456
  %495 = landingpad { i8*, i32 }
          cleanup
  %496 = extractvalue { i8*, i32 } %495, 0
  store i8* %496, i8** %204, align 8
  %497 = extractvalue { i8*, i32 } %495, 1
  store i32 %497, i32* %205, align 4
  br label %502

; <label>:498:                                    ; preds = %492
  %499 = landingpad { i8*, i32 }
          cleanup
  %500 = extractvalue { i8*, i32 } %499, 0
  store i8* %500, i8** %204, align 8
  %501 = extractvalue { i8*, i32 } %499, 1
  store i32 %501, i32* %205, align 4
  call void @_ZNSt3__112basic_stringIcNS_11char_traitsIcEENS_9allocatorIcEEED1Ev(%"class.std::__1::basic_string"* %206) #10
  br label %502

; <label>:502:                                    ; preds = %498, %494
  call void @_ZNSt3__112basic_stringIcNS_11char_traitsIcEENS_9allocatorIcEEED1Ev(%"class.std::__1::basic_string"* %207) #10
  br label %1082

; <label>:503:                                    ; preds = %360
  %504 = getelementptr inbounds %struct.Variant, %struct.Variant* %1, i32 0, i32 4
  %505 = getelementptr inbounds %struct.TypeSpecifier, %struct.TypeSpecifier* %504, i32 0, i32 0
  %506 = load i32, i32* %505, align 8
  %507 = icmp eq i32 %506, 6
  br i1 %507, label %508, label %623

; <label>:508:                                    ; preds = %503
  %509 = getelementptr inbounds %struct.Variant, %struct.Variant* %1, i32 0, i32 0
  %510 = bitcast %union.anon* %509 to i8*
  %511 = load i8, i8* %510, align 8
  call void @_ZN7Variant9to_stringEb(%"class.std::__1::basic_string"* sret %209, %struct.Variant* %2, i1 zeroext false)
  store i8 %511, i8* %118, align 1, !noalias !8
  store %"class.std::__1::basic_string"* %209, %"class.std::__1::basic_string"** %119, align 8, !noalias !8
  %512 = load %"class.std::__1::basic_string"*, %"class.std::__1::basic_string"** %119, align 8, !noalias !8
  %513 = load %"class.std::__1::basic_string"*, %"class.std::__1::basic_string"** %119, align 8, !noalias !8
  store %"class.std::__1::basic_string"* %513, %"class.std::__1::basic_string"** %117, align 8, !noalias !8
  %514 = load %"class.std::__1::basic_string"*, %"class.std::__1::basic_string"** %117, align 8, !noalias !8
  store %"class.std::__1::basic_string"* %514, %"class.std::__1::basic_string"** %115, align 8, !noalias !8
  %515 = load %"class.std::__1::basic_string"*, %"class.std::__1::basic_string"** %115, align 8, !noalias !8
  store %"class.std::__1::basic_string"* %515, %"class.std::__1::basic_string"** %114, align 8, !noalias !8
  %516 = load %"class.std::__1::basic_string"*, %"class.std::__1::basic_string"** %114, align 8, !noalias !8
  %517 = getelementptr inbounds %"class.std::__1::basic_string", %"class.std::__1::basic_string"* %516, i32 0, i32 0
  store %"class.std::__1::__compressed_pair"* %517, %"class.std::__1::__compressed_pair"** %113, align 8, !noalias !8
  %518 = load %"class.std::__1::__compressed_pair"*, %"class.std::__1::__compressed_pair"** %113, align 8, !noalias !8
  %519 = bitcast %"class.std::__1::__compressed_pair"* %518 to %"class.std::__1::__libcpp_compressed_pair_imp"*
  store %"class.std::__1::__libcpp_compressed_pair_imp"* %519, %"class.std::__1::__libcpp_compressed_pair_imp"** %112, align 8, !noalias !8
  %520 = load %"class.std::__1::__libcpp_compressed_pair_imp"*, %"class.std::__1::__libcpp_compressed_pair_imp"** %112, align 8, !noalias !8
  %521 = getelementptr inbounds %"class.std::__1::__libcpp_compressed_pair_imp", %"class.std::__1::__libcpp_compressed_pair_imp"* %520, i32 0, i32 0
  %522 = getelementptr inbounds %"struct.std::__1::basic_string<char, std::__1::char_traits<char>, std::__1::allocator<char> >::__rep", %"struct.std::__1::basic_string<char, std::__1::char_traits<char>, std::__1::allocator<char> >::__rep"* %521, i32 0, i32 0
  %523 = bitcast %union.anon.0* %522 to %"struct.std::__1::basic_string<char, std::__1::char_traits<char>, std::__1::allocator<char> >::__short"*
  %524 = getelementptr inbounds %"struct.std::__1::basic_string<char, std::__1::char_traits<char>, std::__1::allocator<char> >::__short", %"struct.std::__1::basic_string<char, std::__1::char_traits<char>, std::__1::allocator<char> >::__short"* %523, i32 0, i32 0
  %525 = bitcast %union.anon.1* %524 to i8*
  %526 = load i8, i8* %525, align 8, !noalias !8
  %527 = zext i8 %526 to i32
  %528 = and i32 %527, 1
  %529 = icmp ne i32 %528, 0
  br i1 %529, label %530, label %541

; <label>:530:                                    ; preds = %508
  store %"class.std::__1::basic_string"* %515, %"class.std::__1::basic_string"** %106, align 8, !noalias !8
  %531 = load %"class.std::__1::basic_string"*, %"class.std::__1::basic_string"** %106, align 8, !noalias !8
  %532 = getelementptr inbounds %"class.std::__1::basic_string", %"class.std::__1::basic_string"* %531, i32 0, i32 0
  store %"class.std::__1::__compressed_pair"* %532, %"class.std::__1::__compressed_pair"** %105, align 8, !noalias !8
  %533 = load %"class.std::__1::__compressed_pair"*, %"class.std::__1::__compressed_pair"** %105, align 8, !noalias !8
  %534 = bitcast %"class.std::__1::__compressed_pair"* %533 to %"class.std::__1::__libcpp_compressed_pair_imp"*
  store %"class.std::__1::__libcpp_compressed_pair_imp"* %534, %"class.std::__1::__libcpp_compressed_pair_imp"** %104, align 8, !noalias !8
  %535 = load %"class.std::__1::__libcpp_compressed_pair_imp"*, %"class.std::__1::__libcpp_compressed_pair_imp"** %104, align 8, !noalias !8
  %536 = getelementptr inbounds %"class.std::__1::__libcpp_compressed_pair_imp", %"class.std::__1::__libcpp_compressed_pair_imp"* %535, i32 0, i32 0
  %537 = getelementptr inbounds %"struct.std::__1::basic_string<char, std::__1::char_traits<char>, std::__1::allocator<char> >::__rep", %"struct.std::__1::basic_string<char, std::__1::char_traits<char>, std::__1::allocator<char> >::__rep"* %536, i32 0, i32 0
  %538 = bitcast %union.anon.0* %537 to %"struct.std::__1::basic_string<char, std::__1::char_traits<char>, std::__1::allocator<char> >::__long"*
  %539 = getelementptr inbounds %"struct.std::__1::basic_string<char, std::__1::char_traits<char>, std::__1::allocator<char> >::__long", %"struct.std::__1::basic_string<char, std::__1::char_traits<char>, std::__1::allocator<char> >::__long"* %538, i32 0, i32 2
  %540 = load i8*, i8** %539, align 8
  br label %554

; <label>:541:                                    ; preds = %508
  store %"class.std::__1::basic_string"* %515, %"class.std::__1::basic_string"** %111, align 8, !noalias !8
  %542 = load %"class.std::__1::basic_string"*, %"class.std::__1::basic_string"** %111, align 8, !noalias !8
  %543 = getelementptr inbounds %"class.std::__1::basic_string", %"class.std::__1::basic_string"* %542, i32 0, i32 0
  store %"class.std::__1::__compressed_pair"* %543, %"class.std::__1::__compressed_pair"** %110, align 8, !noalias !8
  %544 = load %"class.std::__1::__compressed_pair"*, %"class.std::__1::__compressed_pair"** %110, align 8, !noalias !8
  %545 = bitcast %"class.std::__1::__compressed_pair"* %544 to %"class.std::__1::__libcpp_compressed_pair_imp"*
  store %"class.std::__1::__libcpp_compressed_pair_imp"* %545, %"class.std::__1::__libcpp_compressed_pair_imp"** %109, align 8, !noalias !8
  %546 = load %"class.std::__1::__libcpp_compressed_pair_imp"*, %"class.std::__1::__libcpp_compressed_pair_imp"** %109, align 8, !noalias !8
  %547 = getelementptr inbounds %"class.std::__1::__libcpp_compressed_pair_imp", %"class.std::__1::__libcpp_compressed_pair_imp"* %546, i32 0, i32 0
  %548 = getelementptr inbounds %"struct.std::__1::basic_string<char, std::__1::char_traits<char>, std::__1::allocator<char> >::__rep", %"struct.std::__1::basic_string<char, std::__1::char_traits<char>, std::__1::allocator<char> >::__rep"* %547, i32 0, i32 0
  %549 = bitcast %union.anon.0* %548 to %"struct.std::__1::basic_string<char, std::__1::char_traits<char>, std::__1::allocator<char> >::__short"*
  %550 = getelementptr inbounds %"struct.std::__1::basic_string<char, std::__1::char_traits<char>, std::__1::allocator<char> >::__short", %"struct.std::__1::basic_string<char, std::__1::char_traits<char>, std::__1::allocator<char> >::__short"* %549, i32 0, i32 1
  %551 = getelementptr inbounds [23 x i8], [23 x i8]* %550, i64 0, i64 0
  store i8* %551, i8** %108, align 8, !noalias !8
  %552 = load i8*, i8** %108, align 8, !noalias !8
  store i8* %552, i8** %107, align 8, !noalias !8
  %553 = load i8*, i8** %107, align 8, !noalias !8
  br label %554

; <label>:554:                                    ; preds = %541, %530
  %555 = phi i8* [ %540, %530 ], [ %553, %541 ]
  store %"class.std::__1::__wrap_iter"* %116, %"class.std::__1::__wrap_iter"** %102, align 8, !noalias !8
  store i8* %555, i8** %103, align 8, !noalias !8
  %556 = load %"class.std::__1::__wrap_iter"*, %"class.std::__1::__wrap_iter"** %102, align 8, !noalias !8
  %557 = load i8*, i8** %103, align 8, !noalias !8
  store %"class.std::__1::__wrap_iter"* %556, %"class.std::__1::__wrap_iter"** %100, align 8, !noalias !8
  store i8* %557, i8** %101, align 8, !noalias !8
  %558 = load %"class.std::__1::__wrap_iter"*, %"class.std::__1::__wrap_iter"** %100, align 8, !noalias !8
  %559 = getelementptr inbounds %"class.std::__1::__wrap_iter", %"class.std::__1::__wrap_iter"* %558, i32 0, i32 0
  %560 = load i8*, i8** %101, align 8, !noalias !8
  store i8* %560, i8** %559, align 8, !noalias !8
  %561 = getelementptr inbounds %"class.std::__1::__wrap_iter", %"class.std::__1::__wrap_iter"* %116, i32 0, i32 0
  %562 = load i8*, i8** %561, align 8, !noalias !8
  %563 = getelementptr inbounds %"class.std::__1::__wrap_iter", %"class.std::__1::__wrap_iter"* %121, i32 0, i32 0
  store i8* %562, i8** %563, align 8, !noalias !8
  store %"class.std::__1::__wrap_iter.31"* %120, %"class.std::__1::__wrap_iter.31"** %86, align 8, !noalias !8
  store %"class.std::__1::__wrap_iter"* %121, %"class.std::__1::__wrap_iter"** %87, align 8, !noalias !8
  store i8* null, i8** %88, align 8, !noalias !8
  %564 = load %"class.std::__1::__wrap_iter.31"*, %"class.std::__1::__wrap_iter.31"** %86, align 8, !noalias !8
  %565 = load %"class.std::__1::__wrap_iter"*, %"class.std::__1::__wrap_iter"** %87, align 8, !noalias !8
  %566 = load i8*, i8** %88, align 8, !noalias !8
  store %"class.std::__1::__wrap_iter.31"* %564, %"class.std::__1::__wrap_iter.31"** %83, align 8, !noalias !8
  store %"class.std::__1::__wrap_iter"* %565, %"class.std::__1::__wrap_iter"** %84, align 8, !noalias !8
  store i8* %566, i8** %85, align 8, !noalias !8
  %567 = load %"class.std::__1::__wrap_iter.31"*, %"class.std::__1::__wrap_iter.31"** %83, align 8, !noalias !8
  %568 = getelementptr inbounds %"class.std::__1::__wrap_iter.31", %"class.std::__1::__wrap_iter.31"* %567, i32 0, i32 0
  %569 = load %"class.std::__1::__wrap_iter"*, %"class.std::__1::__wrap_iter"** %84, align 8, !noalias !8
  store %"class.std::__1::__wrap_iter"* %569, %"class.std::__1::__wrap_iter"** %82, align 8, !noalias !8
  %570 = load %"class.std::__1::__wrap_iter"*, %"class.std::__1::__wrap_iter"** %82, align 8, !noalias !8
  %571 = getelementptr inbounds %"class.std::__1::__wrap_iter", %"class.std::__1::__wrap_iter"* %570, i32 0, i32 0
  %572 = load i8*, i8** %571, align 8, !noalias !8
  store i8* %572, i8** %568, align 8, !noalias !8
  %573 = load i8, i8* %118, align 1, !noalias !8
  %574 = getelementptr inbounds %"class.std::__1::__wrap_iter.31", %"class.std::__1::__wrap_iter.31"* %120, i32 0, i32 0
  %575 = load i8*, i8** %574, align 8, !noalias !8
  %576 = invoke i8* @_ZNSt3__112basic_stringIcNS_11char_traitsIcEENS_9allocatorIcEEE6insertENS_11__wrap_iterIPKcEEc(%"class.std::__1::basic_string"* %512, i8* %575, i8 signext %573)
          to label %577 unwind label %614

; <label>:577:                                    ; preds = %554
  %578 = getelementptr inbounds %"class.std::__1::__wrap_iter", %"class.std::__1::__wrap_iter"* %122, i32 0, i32 0
  store i8* %576, i8** %578, align 8, !noalias !8
  %579 = load %"class.std::__1::basic_string"*, %"class.std::__1::basic_string"** %119, align 8, !noalias !8
  store %"class.std::__1::basic_string"* %579, %"class.std::__1::basic_string"** %89, align 8, !noalias !8
  %580 = load %"class.std::__1::basic_string"*, %"class.std::__1::basic_string"** %89, align 8, !noalias !8
  store %"class.std::__1::basic_string"* %208, %"class.std::__1::basic_string"** %98, align 8, !noalias !8
  store %"class.std::__1::basic_string"* %580, %"class.std::__1::basic_string"** %99, align 8, !noalias !8
  %581 = load %"class.std::__1::basic_string"*, %"class.std::__1::basic_string"** %98, align 8, !noalias !8
  %582 = load %"class.std::__1::basic_string"*, %"class.std::__1::basic_string"** %99, align 8, !noalias !8
  store %"class.std::__1::basic_string"* %581, %"class.std::__1::basic_string"** %96, align 8, !noalias !8
  store %"class.std::__1::basic_string"* %582, %"class.std::__1::basic_string"** %97, align 8, !noalias !8
  %583 = load %"class.std::__1::basic_string"*, %"class.std::__1::basic_string"** %96, align 8, !noalias !8
  %584 = bitcast %"class.std::__1::basic_string"* %583 to %"class.std::__1::__basic_string_common"*
  %585 = getelementptr inbounds %"class.std::__1::basic_string", %"class.std::__1::basic_string"* %583, i32 0, i32 0
  %586 = load %"class.std::__1::basic_string"*, %"class.std::__1::basic_string"** %97, align 8, !noalias !8
  %587 = getelementptr inbounds %"class.std::__1::basic_string", %"class.std::__1::basic_string"* %586, i32 0, i32 0
  store %"class.std::__1::__compressed_pair"* %587, %"class.std::__1::__compressed_pair"** %95, align 8, !noalias !8
  %588 = load %"class.std::__1::__compressed_pair"*, %"class.std::__1::__compressed_pair"** %95, align 8, !noalias !8
  %589 = bitcast %"class.std::__1::__compressed_pair"* %585 to i8*
  %590 = bitcast %"class.std::__1::__compressed_pair"* %588 to i8*
  call void @llvm.memcpy.p0i8.p0i8.i64(i8* %589, i8* %590, i64 24, i32 8, i1 false) #10
  %591 = load %"class.std::__1::basic_string"*, %"class.std::__1::basic_string"** %97, align 8, !noalias !8
  store %"class.std::__1::basic_string"* %591, %"class.std::__1::basic_string"** %92, align 8, !noalias !8
  %592 = load %"class.std::__1::basic_string"*, %"class.std::__1::basic_string"** %92, align 8, !noalias !8
  %593 = getelementptr inbounds %"class.std::__1::basic_string", %"class.std::__1::basic_string"* %592, i32 0, i32 0
  store %"class.std::__1::__compressed_pair"* %593, %"class.std::__1::__compressed_pair"** %91, align 8, !noalias !8
  %594 = load %"class.std::__1::__compressed_pair"*, %"class.std::__1::__compressed_pair"** %91, align 8, !noalias !8
  %595 = bitcast %"class.std::__1::__compressed_pair"* %594 to %"class.std::__1::__libcpp_compressed_pair_imp"*
  store %"class.std::__1::__libcpp_compressed_pair_imp"* %595, %"class.std::__1::__libcpp_compressed_pair_imp"** %90, align 8, !noalias !8
  %596 = load %"class.std::__1::__libcpp_compressed_pair_imp"*, %"class.std::__1::__libcpp_compressed_pair_imp"** %90, align 8, !noalias !8
  %597 = getelementptr inbounds %"class.std::__1::__libcpp_compressed_pair_imp", %"class.std::__1::__libcpp_compressed_pair_imp"* %596, i32 0, i32 0
  %598 = getelementptr inbounds %"struct.std::__1::basic_string<char, std::__1::char_traits<char>, std::__1::allocator<char> >::__rep", %"struct.std::__1::basic_string<char, std::__1::char_traits<char>, std::__1::allocator<char> >::__rep"* %597, i32 0, i32 0
  %599 = bitcast %union.anon.0* %598 to %"struct.std::__1::basic_string<char, std::__1::char_traits<char>, std::__1::allocator<char> >::__raw"*
  %600 = getelementptr inbounds %"struct.std::__1::basic_string<char, std::__1::char_traits<char>, std::__1::allocator<char> >::__raw", %"struct.std::__1::basic_string<char, std::__1::char_traits<char>, std::__1::allocator<char> >::__raw"* %599, i32 0, i32 0
  store [3 x i64]* %600, [3 x i64]** %93, align 8, !noalias !8
  store i32 0, i32* %94, align 4, !noalias !8
  br label %601

; <label>:601:                                    ; preds = %604, %577
  %602 = load i32, i32* %94, align 4, !noalias !8
  %603 = icmp ult i32 %602, 3
  br i1 %603, label %604, label %611

; <label>:604:                                    ; preds = %601
  %605 = load i32, i32* %94, align 4, !noalias !8
  %606 = zext i32 %605 to i64
  %607 = load [3 x i64]*, [3 x i64]** %93, align 8, !noalias !8
  %608 = getelementptr inbounds [3 x i64], [3 x i64]* %607, i64 0, i64 %606
  store i64 0, i64* %608, align 8
  %609 = load i32, i32* %94, align 4, !noalias !8
  %610 = add i32 %609, 1
  store i32 %610, i32* %94, align 4, !noalias !8
  br label %601

; <label>:611:                                    ; preds = %601
  br label %612

; <label>:612:                                    ; preds = %611
  invoke void @_ZN7VariantC1ENSt3__112basic_stringIcNS0_11char_traitsIcEENS0_9allocatorIcEEEE(%struct.Variant* %0, %"class.std::__1::basic_string"* %208)
          to label %613 unwind label %618

; <label>:613:                                    ; preds = %612
  call void @_ZNSt3__112basic_stringIcNS_11char_traitsIcEENS_9allocatorIcEEED1Ev(%"class.std::__1::basic_string"* %208) #10
  call void @_ZNSt3__112basic_stringIcNS_11char_traitsIcEENS_9allocatorIcEEED1Ev(%"class.std::__1::basic_string"* %209) #10
  br label %1057

; <label>:614:                                    ; preds = %554
  %615 = landingpad { i8*, i32 }
          cleanup
  %616 = extractvalue { i8*, i32 } %615, 0
  store i8* %616, i8** %204, align 8
  %617 = extractvalue { i8*, i32 } %615, 1
  store i32 %617, i32* %205, align 4
  br label %622

; <label>:618:                                    ; preds = %612
  %619 = landingpad { i8*, i32 }
          cleanup
  %620 = extractvalue { i8*, i32 } %619, 0
  store i8* %620, i8** %204, align 8
  %621 = extractvalue { i8*, i32 } %619, 1
  store i32 %621, i32* %205, align 4
  call void @_ZNSt3__112basic_stringIcNS_11char_traitsIcEENS_9allocatorIcEEED1Ev(%"class.std::__1::basic_string"* %208) #10
  br label %622

; <label>:622:                                    ; preds = %618, %614
  call void @_ZNSt3__112basic_stringIcNS_11char_traitsIcEENS_9allocatorIcEEED1Ev(%"class.std::__1::basic_string"* %209) #10
  br label %1082

; <label>:623:                                    ; preds = %503
  %624 = getelementptr inbounds %struct.Variant, %struct.Variant* %2, i32 0, i32 4
  %625 = getelementptr inbounds %struct.TypeSpecifier, %struct.TypeSpecifier* %624, i32 0, i32 0
  %626 = load i32, i32* %625, align 8
  %627 = icmp eq i32 %626, 6
  br i1 %627, label %628, label %679

; <label>:628:                                    ; preds = %623
  call void @_ZN7Variant9to_stringEb(%"class.std::__1::basic_string"* sret %211, %struct.Variant* %1, i1 zeroext false)
  %629 = getelementptr inbounds %struct.Variant, %struct.Variant* %2, i32 0, i32 0
  %630 = bitcast %union.anon* %629 to i8*
  %631 = load i8, i8* %630, align 8
  store %"class.std::__1::basic_string"* %211, %"class.std::__1::basic_string"** %80, align 8, !noalias !11
  store i8 %631, i8* %81, align 1, !noalias !11
  %632 = load %"class.std::__1::basic_string"*, %"class.std::__1::basic_string"** %80, align 8, !noalias !11
  %633 = load i8, i8* %81, align 1, !noalias !11
  invoke void @_ZNSt3__112basic_stringIcNS_11char_traitsIcEENS_9allocatorIcEEE9push_backEc(%"class.std::__1::basic_string"* %632, i8 signext %633)
          to label %634 unwind label %670

; <label>:634:                                    ; preds = %628
  %635 = load %"class.std::__1::basic_string"*, %"class.std::__1::basic_string"** %80, align 8, !noalias !11
  store %"class.std::__1::basic_string"* %635, %"class.std::__1::basic_string"** %79, align 8, !noalias !11
  %636 = load %"class.std::__1::basic_string"*, %"class.std::__1::basic_string"** %79, align 8, !noalias !11
  store %"class.std::__1::basic_string"* %210, %"class.std::__1::basic_string"** %77, align 8, !noalias !11
  store %"class.std::__1::basic_string"* %636, %"class.std::__1::basic_string"** %78, align 8, !noalias !11
  %637 = load %"class.std::__1::basic_string"*, %"class.std::__1::basic_string"** %77, align 8, !noalias !11
  %638 = load %"class.std::__1::basic_string"*, %"class.std::__1::basic_string"** %78, align 8, !noalias !11
  store %"class.std::__1::basic_string"* %637, %"class.std::__1::basic_string"** %75, align 8, !noalias !11
  store %"class.std::__1::basic_string"* %638, %"class.std::__1::basic_string"** %76, align 8, !noalias !11
  %639 = load %"class.std::__1::basic_string"*, %"class.std::__1::basic_string"** %75, align 8, !noalias !11
  %640 = bitcast %"class.std::__1::basic_string"* %639 to %"class.std::__1::__basic_string_common"*
  %641 = getelementptr inbounds %"class.std::__1::basic_string", %"class.std::__1::basic_string"* %639, i32 0, i32 0
  %642 = load %"class.std::__1::basic_string"*, %"class.std::__1::basic_string"** %76, align 8, !noalias !11
  %643 = getelementptr inbounds %"class.std::__1::basic_string", %"class.std::__1::basic_string"* %642, i32 0, i32 0
  store %"class.std::__1::__compressed_pair"* %643, %"class.std::__1::__compressed_pair"** %74, align 8, !noalias !11
  %644 = load %"class.std::__1::__compressed_pair"*, %"class.std::__1::__compressed_pair"** %74, align 8, !noalias !11
  %645 = bitcast %"class.std::__1::__compressed_pair"* %641 to i8*
  %646 = bitcast %"class.std::__1::__compressed_pair"* %644 to i8*
  call void @llvm.memcpy.p0i8.p0i8.i64(i8* %645, i8* %646, i64 24, i32 8, i1 false) #10
  %647 = load %"class.std::__1::basic_string"*, %"class.std::__1::basic_string"** %76, align 8, !noalias !11
  store %"class.std::__1::basic_string"* %647, %"class.std::__1::basic_string"** %71, align 8, !noalias !11
  %648 = load %"class.std::__1::basic_string"*, %"class.std::__1::basic_string"** %71, align 8, !noalias !11
  %649 = getelementptr inbounds %"class.std::__1::basic_string", %"class.std::__1::basic_string"* %648, i32 0, i32 0
  store %"class.std::__1::__compressed_pair"* %649, %"class.std::__1::__compressed_pair"** %70, align 8, !noalias !11
  %650 = load %"class.std::__1::__compressed_pair"*, %"class.std::__1::__compressed_pair"** %70, align 8, !noalias !11
  %651 = bitcast %"class.std::__1::__compressed_pair"* %650 to %"class.std::__1::__libcpp_compressed_pair_imp"*
  store %"class.std::__1::__libcpp_compressed_pair_imp"* %651, %"class.std::__1::__libcpp_compressed_pair_imp"** %69, align 8, !noalias !11
  %652 = load %"class.std::__1::__libcpp_compressed_pair_imp"*, %"class.std::__1::__libcpp_compressed_pair_imp"** %69, align 8, !noalias !11
  %653 = getelementptr inbounds %"class.std::__1::__libcpp_compressed_pair_imp", %"class.std::__1::__libcpp_compressed_pair_imp"* %652, i32 0, i32 0
  %654 = getelementptr inbounds %"struct.std::__1::basic_string<char, std::__1::char_traits<char>, std::__1::allocator<char> >::__rep", %"struct.std::__1::basic_string<char, std::__1::char_traits<char>, std::__1::allocator<char> >::__rep"* %653, i32 0, i32 0
  %655 = bitcast %union.anon.0* %654 to %"struct.std::__1::basic_string<char, std::__1::char_traits<char>, std::__1::allocator<char> >::__raw"*
  %656 = getelementptr inbounds %"struct.std::__1::basic_string<char, std::__1::char_traits<char>, std::__1::allocator<char> >::__raw", %"struct.std::__1::basic_string<char, std::__1::char_traits<char>, std::__1::allocator<char> >::__raw"* %655, i32 0, i32 0
  store [3 x i64]* %656, [3 x i64]** %72, align 8, !noalias !11
  store i32 0, i32* %73, align 4, !noalias !11
  br label %657

; <label>:657:                                    ; preds = %660, %634
  %658 = load i32, i32* %73, align 4, !noalias !11
  %659 = icmp ult i32 %658, 3
  br i1 %659, label %660, label %667

; <label>:660:                                    ; preds = %657
  %661 = load i32, i32* %73, align 4, !noalias !11
  %662 = zext i32 %661 to i64
  %663 = load [3 x i64]*, [3 x i64]** %72, align 8, !noalias !11
  %664 = getelementptr inbounds [3 x i64], [3 x i64]* %663, i64 0, i64 %662
  store i64 0, i64* %664, align 8
  %665 = load i32, i32* %73, align 4, !noalias !11
  %666 = add i32 %665, 1
  store i32 %666, i32* %73, align 4, !noalias !11
  br label %657

; <label>:667:                                    ; preds = %657
  br label %668

; <label>:668:                                    ; preds = %667
  invoke void @_ZN7VariantC1ENSt3__112basic_stringIcNS0_11char_traitsIcEENS0_9allocatorIcEEEE(%struct.Variant* %0, %"class.std::__1::basic_string"* %210)
          to label %669 unwind label %674

; <label>:669:                                    ; preds = %668
  call void @_ZNSt3__112basic_stringIcNS_11char_traitsIcEENS_9allocatorIcEEED1Ev(%"class.std::__1::basic_string"* %210) #10
  call void @_ZNSt3__112basic_stringIcNS_11char_traitsIcEENS_9allocatorIcEEED1Ev(%"class.std::__1::basic_string"* %211) #10
  br label %1057

; <label>:670:                                    ; preds = %628
  %671 = landingpad { i8*, i32 }
          cleanup
  %672 = extractvalue { i8*, i32 } %671, 0
  store i8* %672, i8** %204, align 8
  %673 = extractvalue { i8*, i32 } %671, 1
  store i32 %673, i32* %205, align 4
  br label %678

; <label>:674:                                    ; preds = %668
  %675 = landingpad { i8*, i32 }
          cleanup
  %676 = extractvalue { i8*, i32 } %675, 0
  store i8* %676, i8** %204, align 8
  %677 = extractvalue { i8*, i32 } %675, 1
  store i32 %677, i32* %205, align 4
  call void @_ZNSt3__112basic_stringIcNS_11char_traitsIcEENS_9allocatorIcEEED1Ev(%"class.std::__1::basic_string"* %210) #10
  br label %678

; <label>:678:                                    ; preds = %674, %670
  call void @_ZNSt3__112basic_stringIcNS_11char_traitsIcEENS_9allocatorIcEEED1Ev(%"class.std::__1::basic_string"* %211) #10
  br label %1082

; <label>:679:                                    ; preds = %623
  %680 = getelementptr inbounds %struct.Variant, %struct.Variant* %1, i32 0, i32 4
  %681 = getelementptr inbounds %struct.TypeSpecifier, %struct.TypeSpecifier* %680, i32 0, i32 0
  %682 = load i32, i32* %681, align 8
  switch i32 %682, label %847 [
    i32 0, label %683
    i32 1, label %724
    i32 2, label %765
    i32 3, label %806
  ]

; <label>:683:                                    ; preds = %679
  %684 = getelementptr inbounds %struct.Variant, %struct.Variant* %2, i32 0, i32 4
  %685 = getelementptr inbounds %struct.TypeSpecifier, %struct.TypeSpecifier* %684, i32 0, i32 0
  %686 = load i32, i32* %685, align 8
  switch i32 %686, label %722 [
    i32 0, label %687
    i32 1, label %695
    i32 2, label %704
    i32 3, label %713
  ]

; <label>:687:                                    ; preds = %683
  %688 = getelementptr inbounds %struct.Variant, %struct.Variant* %1, i32 0, i32 0
  %689 = bitcast %union.anon* %688 to i32*
  %690 = load i32, i32* %689, align 8
  %691 = getelementptr inbounds %struct.Variant, %struct.Variant* %2, i32 0, i32 0
  %692 = bitcast %union.anon* %691 to i32*
  %693 = load i32, i32* %692, align 8
  %694 = add nsw i32 %690, %693
  call void @_ZN7VariantC1Ei(%struct.Variant* %0, i32 %694)
  br label %1057

; <label>:695:                                    ; preds = %683
  %696 = getelementptr inbounds %struct.Variant, %struct.Variant* %1, i32 0, i32 0
  %697 = bitcast %union.anon* %696 to i32*
  %698 = load i32, i32* %697, align 8
  %699 = sext i32 %698 to i64
  %700 = getelementptr inbounds %struct.Variant, %struct.Variant* %2, i32 0, i32 0
  %701 = bitcast %union.anon* %700 to i64*
  %702 = load i64, i64* %701, align 8
  %703 = add nsw i64 %699, %702
  call void @_ZN7VariantC1El(%struct.Variant* %0, i64 %703)
  br label %1057

; <label>:704:                                    ; preds = %683
  %705 = getelementptr inbounds %struct.Variant, %struct.Variant* %1, i32 0, i32 0
  %706 = bitcast %union.anon* %705 to i32*
  %707 = load i32, i32* %706, align 8
  %708 = sitofp i32 %707 to float
  %709 = getelementptr inbounds %struct.Variant, %struct.Variant* %2, i32 0, i32 0
  %710 = bitcast %union.anon* %709 to float*
  %711 = load float, float* %710, align 8
  %712 = fadd float %708, %711
  call void @_ZN7VariantC1Ef(%struct.Variant* %0, float %712)
  br label %1057

; <label>:713:                                    ; preds = %683
  %714 = getelementptr inbounds %struct.Variant, %struct.Variant* %1, i32 0, i32 0
  %715 = bitcast %union.anon* %714 to i32*
  %716 = load i32, i32* %715, align 8
  %717 = sitofp i32 %716 to double
  %718 = getelementptr inbounds %struct.Variant, %struct.Variant* %2, i32 0, i32 0
  %719 = bitcast %union.anon* %718 to double*
  %720 = load double, double* %719, align 8
  %721 = fadd double %717, %720
  call void @_ZN7VariantC1Ed(%struct.Variant* %0, double %721)
  br label %1057

; <label>:722:                                    ; preds = %683
  br label %723

; <label>:723:                                    ; preds = %722
  br label %848

; <label>:724:                                    ; preds = %679
  %725 = getelementptr inbounds %struct.Variant, %struct.Variant* %2, i32 0, i32 4
  %726 = getelementptr inbounds %struct.TypeSpecifier, %struct.TypeSpecifier* %725, i32 0, i32 0
  %727 = load i32, i32* %726, align 8
  switch i32 %727, label %763 [
    i32 0, label %728
    i32 1, label %737
    i32 2, label %745
    i32 3, label %754
  ]

; <label>:728:                                    ; preds = %724
  %729 = getelementptr inbounds %struct.Variant, %struct.Variant* %1, i32 0, i32 0
  %730 = bitcast %union.anon* %729 to i64*
  %731 = load i64, i64* %730, align 8
  %732 = getelementptr inbounds %struct.Variant, %struct.Variant* %2, i32 0, i32 0
  %733 = bitcast %union.anon* %732 to i32*
  %734 = load i32, i32* %733, align 8
  %735 = sext i32 %734 to i64
  %736 = add nsw i64 %731, %735
  call void @_ZN7VariantC1El(%struct.Variant* %0, i64 %736)
  br label %1057

; <label>:737:                                    ; preds = %724
  %738 = getelementptr inbounds %struct.Variant, %struct.Variant* %1, i32 0, i32 0
  %739 = bitcast %union.anon* %738 to i64*
  %740 = load i64, i64* %739, align 8
  %741 = getelementptr inbounds %struct.Variant, %struct.Variant* %2, i32 0, i32 0
  %742 = bitcast %union.anon* %741 to i64*
  %743 = load i64, i64* %742, align 8
  %744 = add nsw i64 %740, %743
  call void @_ZN7VariantC1El(%struct.Variant* %0, i64 %744)
  br label %1057

; <label>:745:                                    ; preds = %724
  %746 = getelementptr inbounds %struct.Variant, %struct.Variant* %1, i32 0, i32 0
  %747 = bitcast %union.anon* %746 to i64*
  %748 = load i64, i64* %747, align 8
  %749 = sitofp i64 %748 to float
  %750 = getelementptr inbounds %struct.Variant, %struct.Variant* %2, i32 0, i32 0
  %751 = bitcast %union.anon* %750 to float*
  %752 = load float, float* %751, align 8
  %753 = fadd float %749, %752
  call void @_ZN7VariantC1Ef(%struct.Variant* %0, float %753)
  br label %1057

; <label>:754:                                    ; preds = %724
  %755 = getelementptr inbounds %struct.Variant, %struct.Variant* %1, i32 0, i32 0
  %756 = bitcast %union.anon* %755 to i64*
  %757 = load i64, i64* %756, align 8
  %758 = sitofp i64 %757 to double
  %759 = getelementptr inbounds %struct.Variant, %struct.Variant* %2, i32 0, i32 0
  %760 = bitcast %union.anon* %759 to double*
  %761 = load double, double* %760, align 8
  %762 = fadd double %758, %761
  call void @_ZN7VariantC1Ed(%struct.Variant* %0, double %762)
  br label %1057

; <label>:763:                                    ; preds = %724
  br label %764

; <label>:764:                                    ; preds = %763
  br label %848

; <label>:765:                                    ; preds = %679
  %766 = getelementptr inbounds %struct.Variant, %struct.Variant* %2, i32 0, i32 4
  %767 = getelementptr inbounds %struct.TypeSpecifier, %struct.TypeSpecifier* %766, i32 0, i32 0
  %768 = load i32, i32* %767, align 8
  switch i32 %768, label %804 [
    i32 0, label %769
    i32 1, label %778
    i32 2, label %787
    i32 3, label %795
  ]

; <label>:769:                                    ; preds = %765
  %770 = getelementptr inbounds %struct.Variant, %struct.Variant* %1, i32 0, i32 0
  %771 = bitcast %union.anon* %770 to float*
  %772 = load float, float* %771, align 8
  %773 = getelementptr inbounds %struct.Variant, %struct.Variant* %2, i32 0, i32 0
  %774 = bitcast %union.anon* %773 to i32*
  %775 = load i32, i32* %774, align 8
  %776 = sitofp i32 %775 to float
  %777 = fadd float %772, %776
  call void @_ZN7VariantC1Ef(%struct.Variant* %0, float %777)
  br label %1057

; <label>:778:                                    ; preds = %765
  %779 = getelementptr inbounds %struct.Variant, %struct.Variant* %1, i32 0, i32 0
  %780 = bitcast %union.anon* %779 to float*
  %781 = load float, float* %780, align 8
  %782 = getelementptr inbounds %struct.Variant, %struct.Variant* %2, i32 0, i32 0
  %783 = bitcast %union.anon* %782 to i64*
  %784 = load i64, i64* %783, align 8
  %785 = sitofp i64 %784 to float
  %786 = fadd float %781, %785
  call void @_ZN7VariantC1Ef(%struct.Variant* %0, float %786)
  br label %1057

; <label>:787:                                    ; preds = %765
  %788 = getelementptr inbounds %struct.Variant, %struct.Variant* %1, i32 0, i32 0
  %789 = bitcast %union.anon* %788 to float*
  %790 = load float, float* %789, align 8
  %791 = getelementptr inbounds %struct.Variant, %struct.Variant* %2, i32 0, i32 0
  %792 = bitcast %union.anon* %791 to float*
  %793 = load float, float* %792, align 8
  %794 = fadd float %790, %793
  call void @_ZN7VariantC1Ef(%struct.Variant* %0, float %794)
  br label %1057

; <label>:795:                                    ; preds = %765
  %796 = getelementptr inbounds %struct.Variant, %struct.Variant* %1, i32 0, i32 0
  %797 = bitcast %union.anon* %796 to float*
  %798 = load float, float* %797, align 8
  %799 = fpext float %798 to double
  %800 = getelementptr inbounds %struct.Variant, %struct.Variant* %2, i32 0, i32 0
  %801 = bitcast %union.anon* %800 to double*
  %802 = load double, double* %801, align 8
  %803 = fadd double %799, %802
  call void @_ZN7VariantC1Ed(%struct.Variant* %0, double %803)
  br label %1057

; <label>:804:                                    ; preds = %765
  br label %805

; <label>:805:                                    ; preds = %804
  br label %848

; <label>:806:                                    ; preds = %679
  %807 = getelementptr inbounds %struct.Variant, %struct.Variant* %2, i32 0, i32 4
  %808 = getelementptr inbounds %struct.TypeSpecifier, %struct.TypeSpecifier* %807, i32 0, i32 0
  %809 = load i32, i32* %808, align 8
  switch i32 %809, label %845 [
    i32 0, label %810
    i32 1, label %819
    i32 2, label %828
    i32 3, label %837
  ]

; <label>:810:                                    ; preds = %806
  %811 = getelementptr inbounds %struct.Variant, %struct.Variant* %1, i32 0, i32 0
  %812 = bitcast %union.anon* %811 to double*
  %813 = load double, double* %812, align 8
  %814 = getelementptr inbounds %struct.Variant, %struct.Variant* %2, i32 0, i32 0
  %815 = bitcast %union.anon* %814 to i32*
  %816 = load i32, i32* %815, align 8
  %817 = sitofp i32 %816 to double
  %818 = fadd double %813, %817
  call void @_ZN7VariantC1Ed(%struct.Variant* %0, double %818)
  br label %1057

; <label>:819:                                    ; preds = %806
  %820 = getelementptr inbounds %struct.Variant, %struct.Variant* %1, i32 0, i32 0
  %821 = bitcast %union.anon* %820 to double*
  %822 = load double, double* %821, align 8
  %823 = getelementptr inbounds %struct.Variant, %struct.Variant* %2, i32 0, i32 0
  %824 = bitcast %union.anon* %823 to i64*
  %825 = load i64, i64* %824, align 8
  %826 = sitofp i64 %825 to double
  %827 = fadd double %822, %826
  call void @_ZN7VariantC1Ed(%struct.Variant* %0, double %827)
  br label %1057

; <label>:828:                                    ; preds = %806
  %829 = getelementptr inbounds %struct.Variant, %struct.Variant* %1, i32 0, i32 0
  %830 = bitcast %union.anon* %829 to double*
  %831 = load double, double* %830, align 8
  %832 = getelementptr inbounds %struct.Variant, %struct.Variant* %2, i32 0, i32 0
  %833 = bitcast %union.anon* %832 to float*
  %834 = load float, float* %833, align 8
  %835 = fpext float %834 to double
  %836 = fadd double %831, %835
  call void @_ZN7VariantC1Ed(%struct.Variant* %0, double %836)
  br label %1057

; <label>:837:                                    ; preds = %806
  %838 = getelementptr inbounds %struct.Variant, %struct.Variant* %1, i32 0, i32 0
  %839 = bitcast %union.anon* %838 to double*
  %840 = load double, double* %839, align 8
  %841 = getelementptr inbounds %struct.Variant, %struct.Variant* %2, i32 0, i32 0
  %842 = bitcast %union.anon* %841 to double*
  %843 = load double, double* %842, align 8
  %844 = fadd double %840, %843
  call void @_ZN7VariantC1Ed(%struct.Variant* %0, double %844)
  br label %1057

; <label>:845:                                    ; preds = %806
  br label %846

; <label>:846:                                    ; preds = %845
  br label %848

; <label>:847:                                    ; preds = %679
  br label %848

; <label>:848:                                    ; preds = %847, %846, %805, %764, %723
  %849 = getelementptr inbounds %struct.Variant, %struct.Variant* %1, i32 0, i32 4
  %850 = getelementptr inbounds %struct.TypeSpecifier, %struct.TypeSpecifier* %849, i32 0, i32 0
  %851 = load i32, i32* %850, align 8
  call void @_ZN3val9typetostrE9ValueType(%"class.std::__1::basic_string"* sret %215, i32 %851)
  store i8* getelementptr inbounds ([27 x i8], [27 x i8]* @.str, i32 0, i32 0), i8** %67, align 8, !noalias !14
  store %"class.std::__1::basic_string"* %215, %"class.std::__1::basic_string"** %68, align 8, !noalias !14
  %852 = load %"class.std::__1::basic_string"*, %"class.std::__1::basic_string"** %68, align 8, !noalias !14
  %853 = load i8*, i8** %67, align 8, !noalias !14
  %854 = invoke dereferenceable(24) %"class.std::__1::basic_string"* @_ZNSt3__112basic_stringIcNS_11char_traitsIcEENS_9allocatorIcEEE6insertEmPKc(%"class.std::__1::basic_string"* %852, i64 0, i8* %853)
          to label %855 unwind label %1058

; <label>:855:                                    ; preds = %848
  store %"class.std::__1::basic_string"* %854, %"class.std::__1::basic_string"** %66, align 8, !noalias !14
  %856 = load %"class.std::__1::basic_string"*, %"class.std::__1::basic_string"** %66, align 8, !noalias !14
  store %"class.std::__1::basic_string"* %214, %"class.std::__1::basic_string"** %64, align 8, !noalias !14
  store %"class.std::__1::basic_string"* %856, %"class.std::__1::basic_string"** %65, align 8, !noalias !14
  %857 = load %"class.std::__1::basic_string"*, %"class.std::__1::basic_string"** %64, align 8, !noalias !14
  %858 = load %"class.std::__1::basic_string"*, %"class.std::__1::basic_string"** %65, align 8, !noalias !14
  store %"class.std::__1::basic_string"* %857, %"class.std::__1::basic_string"** %62, align 8, !noalias !14
  store %"class.std::__1::basic_string"* %858, %"class.std::__1::basic_string"** %63, align 8, !noalias !14
  %859 = load %"class.std::__1::basic_string"*, %"class.std::__1::basic_string"** %62, align 8, !noalias !14
  %860 = bitcast %"class.std::__1::basic_string"* %859 to %"class.std::__1::__basic_string_common"*
  %861 = getelementptr inbounds %"class.std::__1::basic_string", %"class.std::__1::basic_string"* %859, i32 0, i32 0
  %862 = load %"class.std::__1::basic_string"*, %"class.std::__1::basic_string"** %63, align 8, !noalias !14
  %863 = getelementptr inbounds %"class.std::__1::basic_string", %"class.std::__1::basic_string"* %862, i32 0, i32 0
  store %"class.std::__1::__compressed_pair"* %863, %"class.std::__1::__compressed_pair"** %61, align 8, !noalias !14
  %864 = load %"class.std::__1::__compressed_pair"*, %"class.std::__1::__compressed_pair"** %61, align 8, !noalias !14
  %865 = bitcast %"class.std::__1::__compressed_pair"* %861 to i8*
  %866 = bitcast %"class.std::__1::__compressed_pair"* %864 to i8*
  call void @llvm.memcpy.p0i8.p0i8.i64(i8* %865, i8* %866, i64 24, i32 8, i1 false) #10
  %867 = load %"class.std::__1::basic_string"*, %"class.std::__1::basic_string"** %63, align 8, !noalias !14
  store %"class.std::__1::basic_string"* %867, %"class.std::__1::basic_string"** %58, align 8, !noalias !14
  %868 = load %"class.std::__1::basic_string"*, %"class.std::__1::basic_string"** %58, align 8, !noalias !14
  %869 = getelementptr inbounds %"class.std::__1::basic_string", %"class.std::__1::basic_string"* %868, i32 0, i32 0
  store %"class.std::__1::__compressed_pair"* %869, %"class.std::__1::__compressed_pair"** %57, align 8, !noalias !14
  %870 = load %"class.std::__1::__compressed_pair"*, %"class.std::__1::__compressed_pair"** %57, align 8, !noalias !14
  %871 = bitcast %"class.std::__1::__compressed_pair"* %870 to %"class.std::__1::__libcpp_compressed_pair_imp"*
  store %"class.std::__1::__libcpp_compressed_pair_imp"* %871, %"class.std::__1::__libcpp_compressed_pair_imp"** %56, align 8, !noalias !14
  %872 = load %"class.std::__1::__libcpp_compressed_pair_imp"*, %"class.std::__1::__libcpp_compressed_pair_imp"** %56, align 8, !noalias !14
  %873 = getelementptr inbounds %"class.std::__1::__libcpp_compressed_pair_imp", %"class.std::__1::__libcpp_compressed_pair_imp"* %872, i32 0, i32 0
  %874 = getelementptr inbounds %"struct.std::__1::basic_string<char, std::__1::char_traits<char>, std::__1::allocator<char> >::__rep", %"struct.std::__1::basic_string<char, std::__1::char_traits<char>, std::__1::allocator<char> >::__rep"* %873, i32 0, i32 0
  %875 = bitcast %union.anon.0* %874 to %"struct.std::__1::basic_string<char, std::__1::char_traits<char>, std::__1::allocator<char> >::__raw"*
  %876 = getelementptr inbounds %"struct.std::__1::basic_string<char, std::__1::char_traits<char>, std::__1::allocator<char> >::__raw", %"struct.std::__1::basic_string<char, std::__1::char_traits<char>, std::__1::allocator<char> >::__raw"* %875, i32 0, i32 0
  store [3 x i64]* %876, [3 x i64]** %59, align 8, !noalias !14
  store i32 0, i32* %60, align 4, !noalias !14
  br label %877

; <label>:877:                                    ; preds = %880, %855
  %878 = load i32, i32* %60, align 4, !noalias !14
  %879 = icmp ult i32 %878, 3
  br i1 %879, label %880, label %887

; <label>:880:                                    ; preds = %877
  %881 = load i32, i32* %60, align 4, !noalias !14
  %882 = zext i32 %881 to i64
  %883 = load [3 x i64]*, [3 x i64]** %59, align 8, !noalias !14
  %884 = getelementptr inbounds [3 x i64], [3 x i64]* %883, i64 0, i64 %882
  store i64 0, i64* %884, align 8
  %885 = load i32, i32* %60, align 4, !noalias !14
  %886 = add i32 %885, 1
  store i32 %886, i32* %60, align 4, !noalias !14
  br label %877

; <label>:887:                                    ; preds = %877
  br label %888

; <label>:888:                                    ; preds = %887
  store %"class.std::__1::basic_string"* %214, %"class.std::__1::basic_string"** %54, align 8, !noalias !17
  store i8* getelementptr inbounds ([6 x i8], [6 x i8]* @.str.1, i32 0, i32 0), i8** %55, align 8, !noalias !17
  %889 = load %"class.std::__1::basic_string"*, %"class.std::__1::basic_string"** %54, align 8, !noalias !17
  %890 = load i8*, i8** %55, align 8, !noalias !17
  %891 = invoke dereferenceable(24) %"class.std::__1::basic_string"* @_ZNSt3__112basic_stringIcNS_11char_traitsIcEENS_9allocatorIcEEE6appendEPKc(%"class.std::__1::basic_string"* %889, i8* %890)
          to label %892 unwind label %1062

; <label>:892:                                    ; preds = %888
  store %"class.std::__1::basic_string"* %891, %"class.std::__1::basic_string"** %53, align 8, !noalias !17
  %893 = load %"class.std::__1::basic_string"*, %"class.std::__1::basic_string"** %53, align 8, !noalias !17
  store %"class.std::__1::basic_string"* %213, %"class.std::__1::basic_string"** %51, align 8, !noalias !17
  store %"class.std::__1::basic_string"* %893, %"class.std::__1::basic_string"** %52, align 8, !noalias !17
  %894 = load %"class.std::__1::basic_string"*, %"class.std::__1::basic_string"** %51, align 8, !noalias !17
  %895 = load %"class.std::__1::basic_string"*, %"class.std::__1::basic_string"** %52, align 8, !noalias !17
  store %"class.std::__1::basic_string"* %894, %"class.std::__1::basic_string"** %49, align 8, !noalias !17
  store %"class.std::__1::basic_string"* %895, %"class.std::__1::basic_string"** %50, align 8, !noalias !17
  %896 = load %"class.std::__1::basic_string"*, %"class.std::__1::basic_string"** %49, align 8, !noalias !17
  %897 = bitcast %"class.std::__1::basic_string"* %896 to %"class.std::__1::__basic_string_common"*
  %898 = getelementptr inbounds %"class.std::__1::basic_string", %"class.std::__1::basic_string"* %896, i32 0, i32 0
  %899 = load %"class.std::__1::basic_string"*, %"class.std::__1::basic_string"** %50, align 8, !noalias !17
  %900 = getelementptr inbounds %"class.std::__1::basic_string", %"class.std::__1::basic_string"* %899, i32 0, i32 0
  store %"class.std::__1::__compressed_pair"* %900, %"class.std::__1::__compressed_pair"** %48, align 8, !noalias !17
  %901 = load %"class.std::__1::__compressed_pair"*, %"class.std::__1::__compressed_pair"** %48, align 8, !noalias !17
  %902 = bitcast %"class.std::__1::__compressed_pair"* %898 to i8*
  %903 = bitcast %"class.std::__1::__compressed_pair"* %901 to i8*
  call void @llvm.memcpy.p0i8.p0i8.i64(i8* %902, i8* %903, i64 24, i32 8, i1 false) #10
  %904 = load %"class.std::__1::basic_string"*, %"class.std::__1::basic_string"** %50, align 8, !noalias !17
  store %"class.std::__1::basic_string"* %904, %"class.std::__1::basic_string"** %45, align 8, !noalias !17
  %905 = load %"class.std::__1::basic_string"*, %"class.std::__1::basic_string"** %45, align 8, !noalias !17
  %906 = getelementptr inbounds %"class.std::__1::basic_string", %"class.std::__1::basic_string"* %905, i32 0, i32 0
  store %"class.std::__1::__compressed_pair"* %906, %"class.std::__1::__compressed_pair"** %44, align 8, !noalias !17
  %907 = load %"class.std::__1::__compressed_pair"*, %"class.std::__1::__compressed_pair"** %44, align 8, !noalias !17
  %908 = bitcast %"class.std::__1::__compressed_pair"* %907 to %"class.std::__1::__libcpp_compressed_pair_imp"*
  store %"class.std::__1::__libcpp_compressed_pair_imp"* %908, %"class.std::__1::__libcpp_compressed_pair_imp"** %43, align 8, !noalias !17
  %909 = load %"class.std::__1::__libcpp_compressed_pair_imp"*, %"class.std::__1::__libcpp_compressed_pair_imp"** %43, align 8, !noalias !17
  %910 = getelementptr inbounds %"class.std::__1::__libcpp_compressed_pair_imp", %"class.std::__1::__libcpp_compressed_pair_imp"* %909, i32 0, i32 0
  %911 = getelementptr inbounds %"struct.std::__1::basic_string<char, std::__1::char_traits<char>, std::__1::allocator<char> >::__rep", %"struct.std::__1::basic_string<char, std::__1::char_traits<char>, std::__1::allocator<char> >::__rep"* %910, i32 0, i32 0
  %912 = bitcast %union.anon.0* %911 to %"struct.std::__1::basic_string<char, std::__1::char_traits<char>, std::__1::allocator<char> >::__raw"*
  %913 = getelementptr inbounds %"struct.std::__1::basic_string<char, std::__1::char_traits<char>, std::__1::allocator<char> >::__raw", %"struct.std::__1::basic_string<char, std::__1::char_traits<char>, std::__1::allocator<char> >::__raw"* %912, i32 0, i32 0
  store [3 x i64]* %913, [3 x i64]** %46, align 8, !noalias !17
  store i32 0, i32* %47, align 4, !noalias !17
  br label %914

; <label>:914:                                    ; preds = %917, %892
  %915 = load i32, i32* %47, align 4, !noalias !17
  %916 = icmp ult i32 %915, 3
  br i1 %916, label %917, label %924

; <label>:917:                                    ; preds = %914
  %918 = load i32, i32* %47, align 4, !noalias !17
  %919 = zext i32 %918 to i64
  %920 = load [3 x i64]*, [3 x i64]** %46, align 8, !noalias !17
  %921 = getelementptr inbounds [3 x i64], [3 x i64]* %920, i64 0, i64 %919
  store i64 0, i64* %921, align 8
  %922 = load i32, i32* %47, align 4, !noalias !17
  %923 = add i32 %922, 1
  store i32 %923, i32* %47, align 4, !noalias !17
  br label %914

; <label>:924:                                    ; preds = %914
  br label %925

; <label>:925:                                    ; preds = %924
  %926 = getelementptr inbounds %struct.Variant, %struct.Variant* %2, i32 0, i32 4
  %927 = getelementptr inbounds %struct.TypeSpecifier, %struct.TypeSpecifier* %926, i32 0, i32 0
  %928 = load i32, i32* %927, align 8
  invoke void @_ZN3val9typetostrE9ValueType(%"class.std::__1::basic_string"* sret %216, i32 %928)
          to label %929 unwind label %1066

; <label>:929:                                    ; preds = %925
  store %"class.std::__1::basic_string"* %213, %"class.std::__1::basic_string"** %41, align 8, !noalias !20
  store %"class.std::__1::basic_string"* %216, %"class.std::__1::basic_string"** %42, align 8, !noalias !20
  %930 = load %"class.std::__1::basic_string"*, %"class.std::__1::basic_string"** %41, align 8, !noalias !20
  %931 = load %"class.std::__1::basic_string"*, %"class.std::__1::basic_string"** %42, align 8, !noalias !20
  store %"class.std::__1::basic_string"* %930, %"class.std::__1::basic_string"** %39, align 8, !noalias !20
  store %"class.std::__1::basic_string"* %931, %"class.std::__1::basic_string"** %40, align 8, !noalias !20
  %932 = load %"class.std::__1::basic_string"*, %"class.std::__1::basic_string"** %39, align 8, !noalias !20
  %933 = load %"class.std::__1::basic_string"*, %"class.std::__1::basic_string"** %40, align 8, !noalias !20
  store %"class.std::__1::basic_string"* %933, %"class.std::__1::basic_string"** %38, align 8, !noalias !20
  %934 = load %"class.std::__1::basic_string"*, %"class.std::__1::basic_string"** %38, align 8, !noalias !20
  store %"class.std::__1::basic_string"* %934, %"class.std::__1::basic_string"** %37, align 8, !noalias !20
  %935 = load %"class.std::__1::basic_string"*, %"class.std::__1::basic_string"** %37, align 8, !noalias !20
  store %"class.std::__1::basic_string"* %935, %"class.std::__1::basic_string"** %36, align 8, !noalias !20
  %936 = load %"class.std::__1::basic_string"*, %"class.std::__1::basic_string"** %36, align 8, !noalias !20
  %937 = getelementptr inbounds %"class.std::__1::basic_string", %"class.std::__1::basic_string"* %936, i32 0, i32 0
  store %"class.std::__1::__compressed_pair"* %937, %"class.std::__1::__compressed_pair"** %35, align 8, !noalias !20
  %938 = load %"class.std::__1::__compressed_pair"*, %"class.std::__1::__compressed_pair"** %35, align 8, !noalias !20
  %939 = bitcast %"class.std::__1::__compressed_pair"* %938 to %"class.std::__1::__libcpp_compressed_pair_imp"*
  store %"class.std::__1::__libcpp_compressed_pair_imp"* %939, %"class.std::__1::__libcpp_compressed_pair_imp"** %34, align 8, !noalias !20
  %940 = load %"class.std::__1::__libcpp_compressed_pair_imp"*, %"class.std::__1::__libcpp_compressed_pair_imp"** %34, align 8, !noalias !20
  %941 = getelementptr inbounds %"class.std::__1::__libcpp_compressed_pair_imp", %"class.std::__1::__libcpp_compressed_pair_imp"* %940, i32 0, i32 0
  %942 = getelementptr inbounds %"struct.std::__1::basic_string<char, std::__1::char_traits<char>, std::__1::allocator<char> >::__rep", %"struct.std::__1::basic_string<char, std::__1::char_traits<char>, std::__1::allocator<char> >::__rep"* %941, i32 0, i32 0
  %943 = bitcast %union.anon.0* %942 to %"struct.std::__1::basic_string<char, std::__1::char_traits<char>, std::__1::allocator<char> >::__short"*
  %944 = getelementptr inbounds %"struct.std::__1::basic_string<char, std::__1::char_traits<char>, std::__1::allocator<char> >::__short", %"struct.std::__1::basic_string<char, std::__1::char_traits<char>, std::__1::allocator<char> >::__short"* %943, i32 0, i32 0
  %945 = bitcast %union.anon.1* %944 to i8*
  %946 = load i8, i8* %945, align 8, !noalias !20
  %947 = zext i8 %946 to i32
  %948 = and i32 %947, 1
  %949 = icmp ne i32 %948, 0
  br i1 %949, label %950, label %961

; <label>:950:                                    ; preds = %929
  store %"class.std::__1::basic_string"* %935, %"class.std::__1::basic_string"** %28, align 8, !noalias !20
  %951 = load %"class.std::__1::basic_string"*, %"class.std::__1::basic_string"** %28, align 8, !noalias !20
  %952 = getelementptr inbounds %"class.std::__1::basic_string", %"class.std::__1::basic_string"* %951, i32 0, i32 0
  store %"class.std::__1::__compressed_pair"* %952, %"class.std::__1::__compressed_pair"** %27, align 8, !noalias !20
  %953 = load %"class.std::__1::__compressed_pair"*, %"class.std::__1::__compressed_pair"** %27, align 8, !noalias !20
  %954 = bitcast %"class.std::__1::__compressed_pair"* %953 to %"class.std::__1::__libcpp_compressed_pair_imp"*
  store %"class.std::__1::__libcpp_compressed_pair_imp"* %954, %"class.std::__1::__libcpp_compressed_pair_imp"** %26, align 8, !noalias !20
  %955 = load %"class.std::__1::__libcpp_compressed_pair_imp"*, %"class.std::__1::__libcpp_compressed_pair_imp"** %26, align 8, !noalias !20
  %956 = getelementptr inbounds %"class.std::__1::__libcpp_compressed_pair_imp", %"class.std::__1::__libcpp_compressed_pair_imp"* %955, i32 0, i32 0
  %957 = getelementptr inbounds %"struct.std::__1::basic_string<char, std::__1::char_traits<char>, std::__1::allocator<char> >::__rep", %"struct.std::__1::basic_string<char, std::__1::char_traits<char>, std::__1::allocator<char> >::__rep"* %956, i32 0, i32 0
  %958 = bitcast %union.anon.0* %957 to %"struct.std::__1::basic_string<char, std::__1::char_traits<char>, std::__1::allocator<char> >::__long"*
  %959 = getelementptr inbounds %"struct.std::__1::basic_string<char, std::__1::char_traits<char>, std::__1::allocator<char> >::__long", %"struct.std::__1::basic_string<char, std::__1::char_traits<char>, std::__1::allocator<char> >::__long"* %958, i32 0, i32 2
  %960 = load i8*, i8** %959, align 8
  br label %974

; <label>:961:                                    ; preds = %929
  store %"class.std::__1::basic_string"* %935, %"class.std::__1::basic_string"** %33, align 8, !noalias !20
  %962 = load %"class.std::__1::basic_string"*, %"class.std::__1::basic_string"** %33, align 8, !noalias !20
  %963 = getelementptr inbounds %"class.std::__1::basic_string", %"class.std::__1::basic_string"* %962, i32 0, i32 0
  store %"class.std::__1::__compressed_pair"* %963, %"class.std::__1::__compressed_pair"** %32, align 8, !noalias !20
  %964 = load %"class.std::__1::__compressed_pair"*, %"class.std::__1::__compressed_pair"** %32, align 8, !noalias !20
  %965 = bitcast %"class.std::__1::__compressed_pair"* %964 to %"class.std::__1::__libcpp_compressed_pair_imp"*
  store %"class.std::__1::__libcpp_compressed_pair_imp"* %965, %"class.std::__1::__libcpp_compressed_pair_imp"** %31, align 8, !noalias !20
  %966 = load %"class.std::__1::__libcpp_compressed_pair_imp"*, %"class.std::__1::__libcpp_compressed_pair_imp"** %31, align 8, !noalias !20
  %967 = getelementptr inbounds %"class.std::__1::__libcpp_compressed_pair_imp", %"class.std::__1::__libcpp_compressed_pair_imp"* %966, i32 0, i32 0
  %968 = getelementptr inbounds %"struct.std::__1::basic_string<char, std::__1::char_traits<char>, std::__1::allocator<char> >::__rep", %"struct.std::__1::basic_string<char, std::__1::char_traits<char>, std::__1::allocator<char> >::__rep"* %967, i32 0, i32 0
  %969 = bitcast %union.anon.0* %968 to %"struct.std::__1::basic_string<char, std::__1::char_traits<char>, std::__1::allocator<char> >::__short"*
  %970 = getelementptr inbounds %"struct.std::__1::basic_string<char, std::__1::char_traits<char>, std::__1::allocator<char> >::__short", %"struct.std::__1::basic_string<char, std::__1::char_traits<char>, std::__1::allocator<char> >::__short"* %969, i32 0, i32 1
  %971 = getelementptr inbounds [23 x i8], [23 x i8]* %970, i64 0, i64 0
  store i8* %971, i8** %30, align 8, !noalias !20
  %972 = load i8*, i8** %30, align 8, !noalias !20
  store i8* %972, i8** %29, align 8, !noalias !20
  %973 = load i8*, i8** %29, align 8, !noalias !20
  br label %974

; <label>:974:                                    ; preds = %961, %950
  %975 = phi i8* [ %960, %950 ], [ %973, %961 ]
  store i8* %975, i8** %25, align 8, !noalias !20
  %976 = load i8*, i8** %25, align 8, !noalias !20
  %977 = load %"class.std::__1::basic_string"*, %"class.std::__1::basic_string"** %40, align 8, !noalias !20
  store %"class.std::__1::basic_string"* %977, %"class.std::__1::basic_string"** %24, align 8, !noalias !20
  %978 = load %"class.std::__1::basic_string"*, %"class.std::__1::basic_string"** %24, align 8, !noalias !20
  store %"class.std::__1::basic_string"* %978, %"class.std::__1::basic_string"** %23, align 8, !noalias !20
  %979 = load %"class.std::__1::basic_string"*, %"class.std::__1::basic_string"** %23, align 8, !noalias !20
  %980 = getelementptr inbounds %"class.std::__1::basic_string", %"class.std::__1::basic_string"* %979, i32 0, i32 0
  store %"class.std::__1::__compressed_pair"* %980, %"class.std::__1::__compressed_pair"** %22, align 8, !noalias !20
  %981 = load %"class.std::__1::__compressed_pair"*, %"class.std::__1::__compressed_pair"** %22, align 8, !noalias !20
  %982 = bitcast %"class.std::__1::__compressed_pair"* %981 to %"class.std::__1::__libcpp_compressed_pair_imp"*
  store %"class.std::__1::__libcpp_compressed_pair_imp"* %982, %"class.std::__1::__libcpp_compressed_pair_imp"** %21, align 8, !noalias !20
  %983 = load %"class.std::__1::__libcpp_compressed_pair_imp"*, %"class.std::__1::__libcpp_compressed_pair_imp"** %21, align 8, !noalias !20
  %984 = getelementptr inbounds %"class.std::__1::__libcpp_compressed_pair_imp", %"class.std::__1::__libcpp_compressed_pair_imp"* %983, i32 0, i32 0
  %985 = getelementptr inbounds %"struct.std::__1::basic_string<char, std::__1::char_traits<char>, std::__1::allocator<char> >::__rep", %"struct.std::__1::basic_string<char, std::__1::char_traits<char>, std::__1::allocator<char> >::__rep"* %984, i32 0, i32 0
  %986 = bitcast %union.anon.0* %985 to %"struct.std::__1::basic_string<char, std::__1::char_traits<char>, std::__1::allocator<char> >::__short"*
  %987 = getelementptr inbounds %"struct.std::__1::basic_string<char, std::__1::char_traits<char>, std::__1::allocator<char> >::__short", %"struct.std::__1::basic_string<char, std::__1::char_traits<char>, std::__1::allocator<char> >::__short"* %986, i32 0, i32 0
  %988 = bitcast %union.anon.1* %987 to i8*
  %989 = load i8, i8* %988, align 8, !noalias !20
  %990 = zext i8 %989 to i32
  %991 = and i32 %990, 1
  %992 = icmp ne i32 %991, 0
  br i1 %992, label %993, label %1004

; <label>:993:                                    ; preds = %974
  store %"class.std::__1::basic_string"* %978, %"class.std::__1::basic_string"** %17, align 8, !noalias !20
  %994 = load %"class.std::__1::basic_string"*, %"class.std::__1::basic_string"** %17, align 8, !noalias !20
  %995 = getelementptr inbounds %"class.std::__1::basic_string", %"class.std::__1::basic_string"* %994, i32 0, i32 0
  store %"class.std::__1::__compressed_pair"* %995, %"class.std::__1::__compressed_pair"** %16, align 8, !noalias !20
  %996 = load %"class.std::__1::__compressed_pair"*, %"class.std::__1::__compressed_pair"** %16, align 8, !noalias !20
  %997 = bitcast %"class.std::__1::__compressed_pair"* %996 to %"class.std::__1::__libcpp_compressed_pair_imp"*
  store %"class.std::__1::__libcpp_compressed_pair_imp"* %997, %"class.std::__1::__libcpp_compressed_pair_imp"** %15, align 8, !noalias !20
  %998 = load %"class.std::__1::__libcpp_compressed_pair_imp"*, %"class.std::__1::__libcpp_compressed_pair_imp"** %15, align 8, !noalias !20
  %999 = getelementptr inbounds %"class.std::__1::__libcpp_compressed_pair_imp", %"class.std::__1::__libcpp_compressed_pair_imp"* %998, i32 0, i32 0
  %1000 = getelementptr inbounds %"struct.std::__1::basic_string<char, std::__1::char_traits<char>, std::__1::allocator<char> >::__rep", %"struct.std::__1::basic_string<char, std::__1::char_traits<char>, std::__1::allocator<char> >::__rep"* %999, i32 0, i32 0
  %1001 = bitcast %union.anon.0* %1000 to %"struct.std::__1::basic_string<char, std::__1::char_traits<char>, std::__1::allocator<char> >::__long"*
  %1002 = getelementptr inbounds %"struct.std::__1::basic_string<char, std::__1::char_traits<char>, std::__1::allocator<char> >::__long", %"struct.std::__1::basic_string<char, std::__1::char_traits<char>, std::__1::allocator<char> >::__long"* %1001, i32 0, i32 1
  %1003 = load i64, i64* %1002, align 8
  br label %1019

; <label>:1004:                                   ; preds = %974
  store %"class.std::__1::basic_string"* %978, %"class.std::__1::basic_string"** %20, align 8, !noalias !20
  %1005 = load %"class.std::__1::basic_string"*, %"class.std::__1::basic_string"** %20, align 8, !noalias !20
  %1006 = getelementptr inbounds %"class.std::__1::basic_string", %"class.std::__1::basic_string"* %1005, i32 0, i32 0
  store %"class.std::__1::__compressed_pair"* %1006, %"class.std::__1::__compressed_pair"** %19, align 8, !noalias !20
  %1007 = load %"class.std::__1::__compressed_pair"*, %"class.std::__1::__compressed_pair"** %19, align 8, !noalias !20
  %1008 = bitcast %"class.std::__1::__compressed_pair"* %1007 to %"class.std::__1::__libcpp_compressed_pair_imp"*
  store %"class.std::__1::__libcpp_compressed_pair_imp"* %1008, %"class.std::__1::__libcpp_compressed_pair_imp"** %18, align 8, !noalias !20
  %1009 = load %"class.std::__1::__libcpp_compressed_pair_imp"*, %"class.std::__1::__libcpp_compressed_pair_imp"** %18, align 8, !noalias !20
  %1010 = getelementptr inbounds %"class.std::__1::__libcpp_compressed_pair_imp", %"class.std::__1::__libcpp_compressed_pair_imp"* %1009, i32 0, i32 0
  %1011 = getelementptr inbounds %"struct.std::__1::basic_string<char, std::__1::char_traits<char>, std::__1::allocator<char> >::__rep", %"struct.std::__1::basic_string<char, std::__1::char_traits<char>, std::__1::allocator<char> >::__rep"* %1010, i32 0, i32 0
  %1012 = bitcast %union.anon.0* %1011 to %"struct.std::__1::basic_string<char, std::__1::char_traits<char>, std::__1::allocator<char> >::__short"*
  %1013 = getelementptr inbounds %"struct.std::__1::basic_string<char, std::__1::char_traits<char>, std::__1::allocator<char> >::__short", %"struct.std::__1::basic_string<char, std::__1::char_traits<char>, std::__1::allocator<char> >::__short"* %1012, i32 0, i32 0
  %1014 = bitcast %union.anon.1* %1013 to i8*
  %1015 = load i8, i8* %1014, align 8
  %1016 = zext i8 %1015 to i32
  %1017 = ashr i32 %1016, 1
  %1018 = sext i32 %1017 to i64
  br label %1019

; <label>:1019:                                   ; preds = %1004, %993
  %1020 = phi i64 [ %1003, %993 ], [ %1018, %1004 ]
  %1021 = invoke dereferenceable(24) %"class.std::__1::basic_string"* @_ZNSt3__112basic_stringIcNS_11char_traitsIcEENS_9allocatorIcEEE6appendEPKcm(%"class.std::__1::basic_string"* %932, i8* %976, i64 %1020)
          to label %1022 unwind label %1070

; <label>:1022:                                   ; preds = %1019
  store %"class.std::__1::basic_string"* %1021, %"class.std::__1::basic_string"** %14, align 8, !noalias !20
  %1023 = load %"class.std::__1::basic_string"*, %"class.std::__1::basic_string"** %14, align 8, !noalias !20
  store %"class.std::__1::basic_string"* %212, %"class.std::__1::basic_string"** %12, align 8, !noalias !20
  store %"class.std::__1::basic_string"* %1023, %"class.std::__1::basic_string"** %13, align 8, !noalias !20
  %1024 = load %"class.std::__1::basic_string"*, %"class.std::__1::basic_string"** %12, align 8, !noalias !20
  %1025 = load %"class.std::__1::basic_string"*, %"class.std::__1::basic_string"** %13, align 8, !noalias !20
  store %"class.std::__1::basic_string"* %1024, %"class.std::__1::basic_string"** %10, align 8, !noalias !20
  store %"class.std::__1::basic_string"* %1025, %"class.std::__1::basic_string"** %11, align 8, !noalias !20
  %1026 = load %"class.std::__1::basic_string"*, %"class.std::__1::basic_string"** %10, align 8, !noalias !20
  %1027 = bitcast %"class.std::__1::basic_string"* %1026 to %"class.std::__1::__basic_string_common"*
  %1028 = getelementptr inbounds %"class.std::__1::basic_string", %"class.std::__1::basic_string"* %1026, i32 0, i32 0
  %1029 = load %"class.std::__1::basic_string"*, %"class.std::__1::basic_string"** %11, align 8, !noalias !20
  %1030 = getelementptr inbounds %"class.std::__1::basic_string", %"class.std::__1::basic_string"* %1029, i32 0, i32 0
  store %"class.std::__1::__compressed_pair"* %1030, %"class.std::__1::__compressed_pair"** %9, align 8, !noalias !20
  %1031 = load %"class.std::__1::__compressed_pair"*, %"class.std::__1::__compressed_pair"** %9, align 8, !noalias !20
  %1032 = bitcast %"class.std::__1::__compressed_pair"* %1028 to i8*
  %1033 = bitcast %"class.std::__1::__compressed_pair"* %1031 to i8*
  call void @llvm.memcpy.p0i8.p0i8.i64(i8* %1032, i8* %1033, i64 24, i32 8, i1 false) #10
  %1034 = load %"class.std::__1::basic_string"*, %"class.std::__1::basic_string"** %11, align 8, !noalias !20
  store %"class.std::__1::basic_string"* %1034, %"class.std::__1::basic_string"** %6, align 8, !noalias !20
  %1035 = load %"class.std::__1::basic_string"*, %"class.std::__1::basic_string"** %6, align 8, !noalias !20
  %1036 = getelementptr inbounds %"class.std::__1::basic_string", %"class.std::__1::basic_string"* %1035, i32 0, i32 0
  store %"class.std::__1::__compressed_pair"* %1036, %"class.std::__1::__compressed_pair"** %5, align 8, !noalias !20
  %1037 = load %"class.std::__1::__compressed_pair"*, %"class.std::__1::__compressed_pair"** %5, align 8, !noalias !20
  %1038 = bitcast %"class.std::__1::__compressed_pair"* %1037 to %"class.std::__1::__libcpp_compressed_pair_imp"*
  store %"class.std::__1::__libcpp_compressed_pair_imp"* %1038, %"class.std::__1::__libcpp_compressed_pair_imp"** %4, align 8, !noalias !20
  %1039 = load %"class.std::__1::__libcpp_compressed_pair_imp"*, %"class.std::__1::__libcpp_compressed_pair_imp"** %4, align 8, !noalias !20
  %1040 = getelementptr inbounds %"class.std::__1::__libcpp_compressed_pair_imp", %"class.std::__1::__libcpp_compressed_pair_imp"* %1039, i32 0, i32 0
  %1041 = getelementptr inbounds %"struct.std::__1::basic_string<char, std::__1::char_traits<char>, std::__1::allocator<char> >::__rep", %"struct.std::__1::basic_string<char, std::__1::char_traits<char>, std::__1::allocator<char> >::__rep"* %1040, i32 0, i32 0
  %1042 = bitcast %union.anon.0* %1041 to %"struct.std::__1::basic_string<char, std::__1::char_traits<char>, std::__1::allocator<char> >::__raw"*
  %1043 = getelementptr inbounds %"struct.std::__1::basic_string<char, std::__1::char_traits<char>, std::__1::allocator<char> >::__raw", %"struct.std::__1::basic_string<char, std::__1::char_traits<char>, std::__1::allocator<char> >::__raw"* %1042, i32 0, i32 0
  store [3 x i64]* %1043, [3 x i64]** %7, align 8, !noalias !20
  store i32 0, i32* %8, align 4, !noalias !20
  br label %1044

; <label>:1044:                                   ; preds = %1047, %1022
  %1045 = load i32, i32* %8, align 4, !noalias !20
  %1046 = icmp ult i32 %1045, 3
  br i1 %1046, label %1047, label %1054

; <label>:1047:                                   ; preds = %1044
  %1048 = load i32, i32* %8, align 4, !noalias !20
  %1049 = zext i32 %1048 to i64
  %1050 = load [3 x i64]*, [3 x i64]** %7, align 8, !noalias !20
  %1051 = getelementptr inbounds [3 x i64], [3 x i64]* %1050, i64 0, i64 %1049
  store i64 0, i64* %1051, align 8
  %1052 = load i32, i32* %8, align 4, !noalias !20
  %1053 = add i32 %1052, 1
  store i32 %1053, i32* %8, align 4, !noalias !20
  br label %1044

; <label>:1054:                                   ; preds = %1044
  br label %1055

; <label>:1055:                                   ; preds = %1054
  invoke void @_ZN12RuntimeError5raiseE13RuntimeErrorsNSt3__112basic_stringIcNS1_11char_traitsIcEENS1_9allocatorIcEEEEP7AstNode(i32 2, %"class.std::__1::basic_string"* %212, %class.AstNode* null)
          to label %1056 unwind label %1074

; <label>:1056:                                   ; preds = %1055
  call void @_ZNSt3__112basic_stringIcNS_11char_traitsIcEENS_9allocatorIcEEED1Ev(%"class.std::__1::basic_string"* %212) #10
  call void @_ZNSt3__112basic_stringIcNS_11char_traitsIcEENS_9allocatorIcEEED1Ev(%"class.std::__1::basic_string"* %216) #10
  call void @_ZNSt3__112basic_stringIcNS_11char_traitsIcEENS_9allocatorIcEEED1Ev(%"class.std::__1::basic_string"* %213) #10
  call void @_ZNSt3__112basic_stringIcNS_11char_traitsIcEENS_9allocatorIcEEED1Ev(%"class.std::__1::basic_string"* %214) #10
  call void @_ZNSt3__112basic_stringIcNS_11char_traitsIcEENS_9allocatorIcEEED1Ev(%"class.std::__1::basic_string"* %215) #10
  br label %1057

; <label>:1057:                                   ; preds = %1056, %837, %828, %819, %810, %795, %787, %778, %769, %754, %745, %737, %728, %713, %704, %695, %687, %669, %613, %493, %350
  ret void

; <label>:1058:                                   ; preds = %848
  %1059 = landingpad { i8*, i32 }
          cleanup
  %1060 = extractvalue { i8*, i32 } %1059, 0
  store i8* %1060, i8** %204, align 8
  %1061 = extractvalue { i8*, i32 } %1059, 1
  store i32 %1061, i32* %205, align 4
  br label %1081

; <label>:1062:                                   ; preds = %888
  %1063 = landingpad { i8*, i32 }
          cleanup
  %1064 = extractvalue { i8*, i32 } %1063, 0
  store i8* %1064, i8** %204, align 8
  %1065 = extractvalue { i8*, i32 } %1063, 1
  store i32 %1065, i32* %205, align 4
  br label %1080

; <label>:1066:                                   ; preds = %925
  %1067 = landingpad { i8*, i32 }
          cleanup
  %1068 = extractvalue { i8*, i32 } %1067, 0
  store i8* %1068, i8** %204, align 8
  %1069 = extractvalue { i8*, i32 } %1067, 1
  store i32 %1069, i32* %205, align 4
  br label %1079

; <label>:1070:                                   ; preds = %1019
  %1071 = landingpad { i8*, i32 }
          cleanup
  %1072 = extractvalue { i8*, i32 } %1071, 0
  store i8* %1072, i8** %204, align 8
  %1073 = extractvalue { i8*, i32 } %1071, 1
  store i32 %1073, i32* %205, align 4
  br label %1078

; <label>:1074:                                   ; preds = %1055
  %1075 = landingpad { i8*, i32 }
          cleanup
  %1076 = extractvalue { i8*, i32 } %1075, 0
  store i8* %1076, i8** %204, align 8
  %1077 = extractvalue { i8*, i32 } %1075, 1
  store i32 %1077, i32* %205, align 4
  call void @_ZNSt3__112basic_stringIcNS_11char_traitsIcEENS_9allocatorIcEEED1Ev(%"class.std::__1::basic_string"* %212) #10
  br label %1078

; <label>:1078:                                   ; preds = %1074, %1070
  call void @_ZNSt3__112basic_stringIcNS_11char_traitsIcEENS_9allocatorIcEEED1Ev(%"class.std::__1::basic_string"* %216) #10
  br label %1079

; <label>:1079:                                   ; preds = %1078, %1066
  call void @_ZNSt3__112basic_stringIcNS_11char_traitsIcEENS_9allocatorIcEEED1Ev(%"class.std::__1::basic_string"* %213) #10
  br label %1080

; <label>:1080:                                   ; preds = %1079, %1062
  call void @_ZNSt3__112basic_stringIcNS_11char_traitsIcEENS_9allocatorIcEEED1Ev(%"class.std::__1::basic_string"* %214) #10
  br label %1081

; <label>:1081:                                   ; preds = %1080, %1058
  call void @_ZNSt3__112basic_stringIcNS_11char_traitsIcEENS_9allocatorIcEEED1Ev(%"class.std::__1::basic_string"* %215) #10
  br label %1082

; <label>:1082:                                   ; preds = %1081, %678, %622, %502, %359
  %1083 = load i8*, i8** %204, align 8
  %1084 = load i32, i32* %205, align 4
  %1085 = insertvalue { i8*, i32 } undef, i8* %1083, 0
  %1086 = insertvalue { i8*, i32 } %1085, i32 %1084, 1
  resume { i8*, i32 } %1086
}

declare void @_ZN7Variant9to_stringEb(%"class.std::__1::basic_string"* sret, %struct.Variant*, i1 zeroext) #1

declare i32 @__gxx_personality_v0(...)

declare void @_ZN7VariantC1ENSt3__112basic_stringIcNS0_11char_traitsIcEENS0_9allocatorIcEEEE(%struct.Variant*, %"class.std::__1::basic_string"*) unnamed_addr #1

; Function Attrs: nounwind
declare void @_ZNSt3__112basic_stringIcNS_11char_traitsIcEENS_9allocatorIcEEED1Ev(%"class.std::__1::basic_string"*) unnamed_addr #2

declare void @_ZN7VariantC1Ei(%struct.Variant*, i32) unnamed_addr #1

declare void @_ZN7VariantC1El(%struct.Variant*, i64) unnamed_addr #1

declare void @_ZN7VariantC1Ef(%struct.Variant*, float) unnamed_addr #1

declare void @_ZN7VariantC1Ed(%struct.Variant*, double) unnamed_addr #1

declare void @_ZN12RuntimeError5raiseE13RuntimeErrorsNSt3__112basic_stringIcNS1_11char_traitsIcEENS1_9allocatorIcEEEEP7AstNode(i32, %"class.std::__1::basic_string"*, %class.AstNode*) #1

declare void @_ZN3val9typetostrE9ValueType(%"class.std::__1::basic_string"* sret, i32) #1

; Function Attrs: ssp uwtable
define void @_ZN4cdot3var10Arithmetic5minusE7VariantS2_(%struct.Variant* noalias sret, %struct.Variant*, %struct.Variant*) #0 align 2 personality i8* bitcast (i32 (...)* @__gxx_personality_v0 to i8*) {
  %4 = alloca %struct.Variant, align 8
  %5 = alloca %struct.Variant, align 8
  %6 = alloca i8*
  %7 = alloca i32
  call void @_ZN7VariantC1ERKS_(%struct.Variant* %4, %struct.Variant* dereferenceable(264) %1)
  invoke void @_ZN7VariantngEv(%struct.Variant* sret %5, %struct.Variant* %2)
          to label %8 unwind label %10

; <label>:8:                                      ; preds = %3
  invoke void @_ZN4cdot3var10Arithmetic3addE7VariantS2_(%struct.Variant* sret %0, %struct.Variant* %4, %struct.Variant* %5)
          to label %9 unwind label %14

; <label>:9:                                      ; preds = %8
  call void @_ZN7VariantD1Ev(%struct.Variant* %5) #10
  call void @_ZN7VariantD1Ev(%struct.Variant* %4) #10
  ret void

; <label>:10:                                     ; preds = %3
  %11 = landingpad { i8*, i32 }
          cleanup
  %12 = extractvalue { i8*, i32 } %11, 0
  store i8* %12, i8** %6, align 8
  %13 = extractvalue { i8*, i32 } %11, 1
  store i32 %13, i32* %7, align 4
  br label %18

; <label>:14:                                     ; preds = %8
  %15 = landingpad { i8*, i32 }
          cleanup
  %16 = extractvalue { i8*, i32 } %15, 0
  store i8* %16, i8** %6, align 8
  %17 = extractvalue { i8*, i32 } %15, 1
  store i32 %17, i32* %7, align 4
  call void @_ZN7VariantD1Ev(%struct.Variant* %5) #10
  br label %18

; <label>:18:                                     ; preds = %14, %10
  call void @_ZN7VariantD1Ev(%struct.Variant* %4) #10
  br label %19

; <label>:19:                                     ; preds = %18
  %20 = load i8*, i8** %6, align 8
  %21 = load i32, i32* %7, align 4
  %22 = insertvalue { i8*, i32 } undef, i8* %20, 0
  %23 = insertvalue { i8*, i32 } %22, i32 %21, 1
  resume { i8*, i32 } %23
}

declare void @_ZN7VariantC1ERKS_(%struct.Variant*, %struct.Variant* dereferenceable(264)) unnamed_addr #1

declare void @_ZN7VariantngEv(%struct.Variant* sret, %struct.Variant*) #1

; Function Attrs: inlinehint nounwind ssp uwtable
define linkonce_odr void @_ZN7VariantD1Ev(%struct.Variant*) unnamed_addr #3 align 2 {
  %2 = alloca %struct.Variant*, align 8
  store %struct.Variant* %0, %struct.Variant** %2, align 8
  %3 = load %struct.Variant*, %struct.Variant** %2, align 8
  call void @_ZN7VariantD2Ev(%struct.Variant* %3) #10
  ret void
}

; Function Attrs: ssp uwtable
define void @_ZN4cdot3var10Arithmetic8multiplyE7VariantS2_(%struct.Variant* noalias sret, %struct.Variant*, %struct.Variant*) #0 align 2 personality i8* bitcast (i32 (...)* @__gxx_personality_v0 to i8*) {
  %4 = alloca %"class.std::__1::__libcpp_compressed_pair_imp"*, align 8
  %5 = alloca %"class.std::__1::__compressed_pair"*, align 8
  %6 = alloca %"class.std::__1::basic_string"*, align 8
  %7 = alloca [3 x i64]*, align 8
  %8 = alloca i32, align 4
  %9 = alloca %"class.std::__1::__compressed_pair"*, align 8
  %10 = alloca %"class.std::__1::basic_string"*, align 8
  %11 = alloca %"class.std::__1::basic_string"*, align 8
  %12 = alloca %"class.std::__1::basic_string"*, align 8
  %13 = alloca %"class.std::__1::basic_string"*, align 8
  %14 = alloca %"class.std::__1::basic_string"*, align 8
  %15 = alloca %"class.std::__1::__libcpp_compressed_pair_imp"*, align 8
  %16 = alloca %"class.std::__1::__compressed_pair"*, align 8
  %17 = alloca %"class.std::__1::basic_string"*, align 8
  %18 = alloca %"class.std::__1::__libcpp_compressed_pair_imp"*, align 8
  %19 = alloca %"class.std::__1::__compressed_pair"*, align 8
  %20 = alloca %"class.std::__1::basic_string"*, align 8
  %21 = alloca %"class.std::__1::__libcpp_compressed_pair_imp"*, align 8
  %22 = alloca %"class.std::__1::__compressed_pair"*, align 8
  %23 = alloca %"class.std::__1::basic_string"*, align 8
  %24 = alloca %"class.std::__1::basic_string"*, align 8
  %25 = alloca i8*, align 8
  %26 = alloca %"class.std::__1::__libcpp_compressed_pair_imp"*, align 8
  %27 = alloca %"class.std::__1::__compressed_pair"*, align 8
  %28 = alloca %"class.std::__1::basic_string"*, align 8
  %29 = alloca i8*, align 8
  %30 = alloca i8*, align 8
  %31 = alloca %"class.std::__1::__libcpp_compressed_pair_imp"*, align 8
  %32 = alloca %"class.std::__1::__compressed_pair"*, align 8
  %33 = alloca %"class.std::__1::basic_string"*, align 8
  %34 = alloca %"class.std::__1::__libcpp_compressed_pair_imp"*, align 8
  %35 = alloca %"class.std::__1::__compressed_pair"*, align 8
  %36 = alloca %"class.std::__1::basic_string"*, align 8
  %37 = alloca %"class.std::__1::basic_string"*, align 8
  %38 = alloca %"class.std::__1::basic_string"*, align 8
  %39 = alloca %"class.std::__1::basic_string"*, align 8
  %40 = alloca %"class.std::__1::basic_string"*, align 8
  %41 = alloca %"class.std::__1::basic_string"*, align 8
  %42 = alloca %"class.std::__1::basic_string"*, align 8
  %43 = alloca %"class.std::__1::__libcpp_compressed_pair_imp"*, align 8
  %44 = alloca %"class.std::__1::__compressed_pair"*, align 8
  %45 = alloca %"class.std::__1::basic_string"*, align 8
  %46 = alloca [3 x i64]*, align 8
  %47 = alloca i32, align 4
  %48 = alloca %"class.std::__1::__compressed_pair"*, align 8
  %49 = alloca %"class.std::__1::basic_string"*, align 8
  %50 = alloca %"class.std::__1::basic_string"*, align 8
  %51 = alloca %"class.std::__1::basic_string"*, align 8
  %52 = alloca %"class.std::__1::basic_string"*, align 8
  %53 = alloca %"class.std::__1::basic_string"*, align 8
  %54 = alloca %"class.std::__1::basic_string"*, align 8
  %55 = alloca i8*, align 8
  %56 = alloca %"class.std::__1::__libcpp_compressed_pair_imp"*, align 8
  %57 = alloca %"class.std::__1::__compressed_pair"*, align 8
  %58 = alloca %"class.std::__1::basic_string"*, align 8
  %59 = alloca [3 x i64]*, align 8
  %60 = alloca i32, align 4
  %61 = alloca %"class.std::__1::__compressed_pair"*, align 8
  %62 = alloca %"class.std::__1::basic_string"*, align 8
  %63 = alloca %"class.std::__1::basic_string"*, align 8
  %64 = alloca %"class.std::__1::basic_string"*, align 8
  %65 = alloca %"class.std::__1::basic_string"*, align 8
  %66 = alloca %"class.std::__1::basic_string"*, align 8
  %67 = alloca i8*, align 8
  %68 = alloca %"class.std::__1::basic_string"*, align 8
  %69 = alloca %"class.std::__1::basic_string", align 8
  %70 = alloca %"class.std::__1::basic_string", align 8
  %71 = alloca %"class.std::__1::basic_string", align 8
  %72 = alloca %"class.std::__1::basic_string", align 8
  %73 = alloca i8*
  %74 = alloca i32
  %75 = alloca %"class.std::__1::basic_string", align 8
  %76 = getelementptr inbounds %struct.Variant, %struct.Variant* %1, i32 0, i32 4
  %77 = getelementptr inbounds %struct.TypeSpecifier, %struct.TypeSpecifier* %76, i32 0, i32 0
  %78 = load i32, i32* %77, align 8
  switch i32 %78, label %243 [
    i32 0, label %79
    i32 1, label %120
    i32 2, label %161
    i32 3, label %202
  ]

; <label>:79:                                     ; preds = %3
  %80 = getelementptr inbounds %struct.Variant, %struct.Variant* %2, i32 0, i32 4
  %81 = getelementptr inbounds %struct.TypeSpecifier, %struct.TypeSpecifier* %80, i32 0, i32 0
  %82 = load i32, i32* %81, align 8
  switch i32 %82, label %118 [
    i32 0, label %83
    i32 1, label %91
    i32 2, label %100
    i32 3, label %109
  ]

; <label>:83:                                     ; preds = %79
  %84 = getelementptr inbounds %struct.Variant, %struct.Variant* %1, i32 0, i32 0
  %85 = bitcast %union.anon* %84 to i32*
  %86 = load i32, i32* %85, align 8
  %87 = getelementptr inbounds %struct.Variant, %struct.Variant* %2, i32 0, i32 0
  %88 = bitcast %union.anon* %87 to i32*
  %89 = load i32, i32* %88, align 8
  %90 = mul nsw i32 %86, %89
  call void @_ZN7VariantC1Ei(%struct.Variant* %0, i32 %90)
  br label %453

; <label>:91:                                     ; preds = %79
  %92 = getelementptr inbounds %struct.Variant, %struct.Variant* %1, i32 0, i32 0
  %93 = bitcast %union.anon* %92 to i32*
  %94 = load i32, i32* %93, align 8
  %95 = sext i32 %94 to i64
  %96 = getelementptr inbounds %struct.Variant, %struct.Variant* %2, i32 0, i32 0
  %97 = bitcast %union.anon* %96 to i64*
  %98 = load i64, i64* %97, align 8
  %99 = mul nsw i64 %95, %98
  call void @_ZN7VariantC1El(%struct.Variant* %0, i64 %99)
  br label %453

; <label>:100:                                    ; preds = %79
  %101 = getelementptr inbounds %struct.Variant, %struct.Variant* %1, i32 0, i32 0
  %102 = bitcast %union.anon* %101 to i32*
  %103 = load i32, i32* %102, align 8
  %104 = sitofp i32 %103 to float
  %105 = getelementptr inbounds %struct.Variant, %struct.Variant* %2, i32 0, i32 0
  %106 = bitcast %union.anon* %105 to float*
  %107 = load float, float* %106, align 8
  %108 = fmul float %104, %107
  call void @_ZN7VariantC1Ef(%struct.Variant* %0, float %108)
  br label %453

; <label>:109:                                    ; preds = %79
  %110 = getelementptr inbounds %struct.Variant, %struct.Variant* %1, i32 0, i32 0
  %111 = bitcast %union.anon* %110 to i32*
  %112 = load i32, i32* %111, align 8
  %113 = sitofp i32 %112 to double
  %114 = getelementptr inbounds %struct.Variant, %struct.Variant* %2, i32 0, i32 0
  %115 = bitcast %union.anon* %114 to double*
  %116 = load double, double* %115, align 8
  %117 = fmul double %113, %116
  call void @_ZN7VariantC1Ed(%struct.Variant* %0, double %117)
  br label %453

; <label>:118:                                    ; preds = %79
  br label %119

; <label>:119:                                    ; preds = %118
  br label %244

; <label>:120:                                    ; preds = %3
  %121 = getelementptr inbounds %struct.Variant, %struct.Variant* %2, i32 0, i32 4
  %122 = getelementptr inbounds %struct.TypeSpecifier, %struct.TypeSpecifier* %121, i32 0, i32 0
  %123 = load i32, i32* %122, align 8
  switch i32 %123, label %159 [
    i32 0, label %124
    i32 1, label %133
    i32 2, label %141
    i32 3, label %150
  ]

; <label>:124:                                    ; preds = %120
  %125 = getelementptr inbounds %struct.Variant, %struct.Variant* %1, i32 0, i32 0
  %126 = bitcast %union.anon* %125 to i64*
  %127 = load i64, i64* %126, align 8
  %128 = getelementptr inbounds %struct.Variant, %struct.Variant* %2, i32 0, i32 0
  %129 = bitcast %union.anon* %128 to i32*
  %130 = load i32, i32* %129, align 8
  %131 = sext i32 %130 to i64
  %132 = mul nsw i64 %127, %131
  call void @_ZN7VariantC1El(%struct.Variant* %0, i64 %132)
  br label %453

; <label>:133:                                    ; preds = %120
  %134 = getelementptr inbounds %struct.Variant, %struct.Variant* %1, i32 0, i32 0
  %135 = bitcast %union.anon* %134 to i64*
  %136 = load i64, i64* %135, align 8
  %137 = getelementptr inbounds %struct.Variant, %struct.Variant* %2, i32 0, i32 0
  %138 = bitcast %union.anon* %137 to i64*
  %139 = load i64, i64* %138, align 8
  %140 = mul nsw i64 %136, %139
  call void @_ZN7VariantC1El(%struct.Variant* %0, i64 %140)
  br label %453

; <label>:141:                                    ; preds = %120
  %142 = getelementptr inbounds %struct.Variant, %struct.Variant* %1, i32 0, i32 0
  %143 = bitcast %union.anon* %142 to i64*
  %144 = load i64, i64* %143, align 8
  %145 = sitofp i64 %144 to float
  %146 = getelementptr inbounds %struct.Variant, %struct.Variant* %2, i32 0, i32 0
  %147 = bitcast %union.anon* %146 to float*
  %148 = load float, float* %147, align 8
  %149 = fmul float %145, %148
  call void @_ZN7VariantC1Ef(%struct.Variant* %0, float %149)
  br label %453

; <label>:150:                                    ; preds = %120
  %151 = getelementptr inbounds %struct.Variant, %struct.Variant* %1, i32 0, i32 0
  %152 = bitcast %union.anon* %151 to i64*
  %153 = load i64, i64* %152, align 8
  %154 = sitofp i64 %153 to double
  %155 = getelementptr inbounds %struct.Variant, %struct.Variant* %2, i32 0, i32 0
  %156 = bitcast %union.anon* %155 to double*
  %157 = load double, double* %156, align 8
  %158 = fmul double %154, %157
  call void @_ZN7VariantC1Ed(%struct.Variant* %0, double %158)
  br label %453

; <label>:159:                                    ; preds = %120
  br label %160

; <label>:160:                                    ; preds = %159
  br label %244

; <label>:161:                                    ; preds = %3
  %162 = getelementptr inbounds %struct.Variant, %struct.Variant* %2, i32 0, i32 4
  %163 = getelementptr inbounds %struct.TypeSpecifier, %struct.TypeSpecifier* %162, i32 0, i32 0
  %164 = load i32, i32* %163, align 8
  switch i32 %164, label %200 [
    i32 0, label %165
    i32 1, label %174
    i32 2, label %183
    i32 3, label %191
  ]

; <label>:165:                                    ; preds = %161
  %166 = getelementptr inbounds %struct.Variant, %struct.Variant* %1, i32 0, i32 0
  %167 = bitcast %union.anon* %166 to float*
  %168 = load float, float* %167, align 8
  %169 = getelementptr inbounds %struct.Variant, %struct.Variant* %2, i32 0, i32 0
  %170 = bitcast %union.anon* %169 to i32*
  %171 = load i32, i32* %170, align 8
  %172 = sitofp i32 %171 to float
  %173 = fmul float %168, %172
  call void @_ZN7VariantC1Ef(%struct.Variant* %0, float %173)
  br label %453

; <label>:174:                                    ; preds = %161
  %175 = getelementptr inbounds %struct.Variant, %struct.Variant* %1, i32 0, i32 0
  %176 = bitcast %union.anon* %175 to float*
  %177 = load float, float* %176, align 8
  %178 = getelementptr inbounds %struct.Variant, %struct.Variant* %2, i32 0, i32 0
  %179 = bitcast %union.anon* %178 to i64*
  %180 = load i64, i64* %179, align 8
  %181 = sitofp i64 %180 to float
  %182 = fmul float %177, %181
  call void @_ZN7VariantC1Ef(%struct.Variant* %0, float %182)
  br label %453

; <label>:183:                                    ; preds = %161
  %184 = getelementptr inbounds %struct.Variant, %struct.Variant* %1, i32 0, i32 0
  %185 = bitcast %union.anon* %184 to float*
  %186 = load float, float* %185, align 8
  %187 = getelementptr inbounds %struct.Variant, %struct.Variant* %2, i32 0, i32 0
  %188 = bitcast %union.anon* %187 to float*
  %189 = load float, float* %188, align 8
  %190 = fmul float %186, %189
  call void @_ZN7VariantC1Ef(%struct.Variant* %0, float %190)
  br label %453

; <label>:191:                                    ; preds = %161
  %192 = getelementptr inbounds %struct.Variant, %struct.Variant* %1, i32 0, i32 0
  %193 = bitcast %union.anon* %192 to float*
  %194 = load float, float* %193, align 8
  %195 = fpext float %194 to double
  %196 = getelementptr inbounds %struct.Variant, %struct.Variant* %2, i32 0, i32 0
  %197 = bitcast %union.anon* %196 to double*
  %198 = load double, double* %197, align 8
  %199 = fmul double %195, %198
  call void @_ZN7VariantC1Ed(%struct.Variant* %0, double %199)
  br label %453

; <label>:200:                                    ; preds = %161
  br label %201

; <label>:201:                                    ; preds = %200
  br label %244

; <label>:202:                                    ; preds = %3
  %203 = getelementptr inbounds %struct.Variant, %struct.Variant* %2, i32 0, i32 4
  %204 = getelementptr inbounds %struct.TypeSpecifier, %struct.TypeSpecifier* %203, i32 0, i32 0
  %205 = load i32, i32* %204, align 8
  switch i32 %205, label %241 [
    i32 0, label %206
    i32 1, label %215
    i32 2, label %224
    i32 3, label %233
  ]

; <label>:206:                                    ; preds = %202
  %207 = getelementptr inbounds %struct.Variant, %struct.Variant* %1, i32 0, i32 0
  %208 = bitcast %union.anon* %207 to double*
  %209 = load double, double* %208, align 8
  %210 = getelementptr inbounds %struct.Variant, %struct.Variant* %2, i32 0, i32 0
  %211 = bitcast %union.anon* %210 to i32*
  %212 = load i32, i32* %211, align 8
  %213 = sitofp i32 %212 to double
  %214 = fmul double %209, %213
  call void @_ZN7VariantC1Ed(%struct.Variant* %0, double %214)
  br label %453

; <label>:215:                                    ; preds = %202
  %216 = getelementptr inbounds %struct.Variant, %struct.Variant* %1, i32 0, i32 0
  %217 = bitcast %union.anon* %216 to double*
  %218 = load double, double* %217, align 8
  %219 = getelementptr inbounds %struct.Variant, %struct.Variant* %2, i32 0, i32 0
  %220 = bitcast %union.anon* %219 to i64*
  %221 = load i64, i64* %220, align 8
  %222 = sitofp i64 %221 to double
  %223 = fmul double %218, %222
  call void @_ZN7VariantC1Ed(%struct.Variant* %0, double %223)
  br label %453

; <label>:224:                                    ; preds = %202
  %225 = getelementptr inbounds %struct.Variant, %struct.Variant* %1, i32 0, i32 0
  %226 = bitcast %union.anon* %225 to double*
  %227 = load double, double* %226, align 8
  %228 = getelementptr inbounds %struct.Variant, %struct.Variant* %2, i32 0, i32 0
  %229 = bitcast %union.anon* %228 to float*
  %230 = load float, float* %229, align 8
  %231 = fpext float %230 to double
  %232 = fmul double %227, %231
  call void @_ZN7VariantC1Ed(%struct.Variant* %0, double %232)
  br label %453

; <label>:233:                                    ; preds = %202
  %234 = getelementptr inbounds %struct.Variant, %struct.Variant* %1, i32 0, i32 0
  %235 = bitcast %union.anon* %234 to double*
  %236 = load double, double* %235, align 8
  %237 = getelementptr inbounds %struct.Variant, %struct.Variant* %2, i32 0, i32 0
  %238 = bitcast %union.anon* %237 to double*
  %239 = load double, double* %238, align 8
  %240 = fmul double %236, %239
  call void @_ZN7VariantC1Ed(%struct.Variant* %0, double %240)
  br label %453

; <label>:241:                                    ; preds = %202
  br label %242

; <label>:242:                                    ; preds = %241
  br label %244

; <label>:243:                                    ; preds = %3
  br label %244

; <label>:244:                                    ; preds = %243, %242, %201, %160, %119
  %245 = getelementptr inbounds %struct.Variant, %struct.Variant* %1, i32 0, i32 4
  %246 = getelementptr inbounds %struct.TypeSpecifier, %struct.TypeSpecifier* %245, i32 0, i32 0
  %247 = load i32, i32* %246, align 8
  call void @_ZN3val9typetostrE9ValueType(%"class.std::__1::basic_string"* sret %72, i32 %247)
  store i8* getelementptr inbounds ([27 x i8], [27 x i8]* @.str, i32 0, i32 0), i8** %67, align 8, !noalias !23
  store %"class.std::__1::basic_string"* %72, %"class.std::__1::basic_string"** %68, align 8, !noalias !23
  %248 = load %"class.std::__1::basic_string"*, %"class.std::__1::basic_string"** %68, align 8, !noalias !23
  %249 = load i8*, i8** %67, align 8, !noalias !23
  %250 = invoke dereferenceable(24) %"class.std::__1::basic_string"* @_ZNSt3__112basic_stringIcNS_11char_traitsIcEENS_9allocatorIcEEE6insertEmPKc(%"class.std::__1::basic_string"* %248, i64 0, i8* %249)
          to label %251 unwind label %454

; <label>:251:                                    ; preds = %244
  store %"class.std::__1::basic_string"* %250, %"class.std::__1::basic_string"** %66, align 8, !noalias !23
  %252 = load %"class.std::__1::basic_string"*, %"class.std::__1::basic_string"** %66, align 8, !noalias !23
  store %"class.std::__1::basic_string"* %71, %"class.std::__1::basic_string"** %64, align 8, !noalias !23
  store %"class.std::__1::basic_string"* %252, %"class.std::__1::basic_string"** %65, align 8, !noalias !23
  %253 = load %"class.std::__1::basic_string"*, %"class.std::__1::basic_string"** %64, align 8, !noalias !23
  %254 = load %"class.std::__1::basic_string"*, %"class.std::__1::basic_string"** %65, align 8, !noalias !23
  store %"class.std::__1::basic_string"* %253, %"class.std::__1::basic_string"** %62, align 8, !noalias !23
  store %"class.std::__1::basic_string"* %254, %"class.std::__1::basic_string"** %63, align 8, !noalias !23
  %255 = load %"class.std::__1::basic_string"*, %"class.std::__1::basic_string"** %62, align 8, !noalias !23
  %256 = bitcast %"class.std::__1::basic_string"* %255 to %"class.std::__1::__basic_string_common"*
  %257 = getelementptr inbounds %"class.std::__1::basic_string", %"class.std::__1::basic_string"* %255, i32 0, i32 0
  %258 = load %"class.std::__1::basic_string"*, %"class.std::__1::basic_string"** %63, align 8, !noalias !23
  %259 = getelementptr inbounds %"class.std::__1::basic_string", %"class.std::__1::basic_string"* %258, i32 0, i32 0
  store %"class.std::__1::__compressed_pair"* %259, %"class.std::__1::__compressed_pair"** %61, align 8, !noalias !23
  %260 = load %"class.std::__1::__compressed_pair"*, %"class.std::__1::__compressed_pair"** %61, align 8, !noalias !23
  %261 = bitcast %"class.std::__1::__compressed_pair"* %257 to i8*
  %262 = bitcast %"class.std::__1::__compressed_pair"* %260 to i8*
  call void @llvm.memcpy.p0i8.p0i8.i64(i8* %261, i8* %262, i64 24, i32 8, i1 false) #10
  %263 = load %"class.std::__1::basic_string"*, %"class.std::__1::basic_string"** %63, align 8, !noalias !23
  store %"class.std::__1::basic_string"* %263, %"class.std::__1::basic_string"** %58, align 8, !noalias !23
  %264 = load %"class.std::__1::basic_string"*, %"class.std::__1::basic_string"** %58, align 8, !noalias !23
  %265 = getelementptr inbounds %"class.std::__1::basic_string", %"class.std::__1::basic_string"* %264, i32 0, i32 0
  store %"class.std::__1::__compressed_pair"* %265, %"class.std::__1::__compressed_pair"** %57, align 8, !noalias !23
  %266 = load %"class.std::__1::__compressed_pair"*, %"class.std::__1::__compressed_pair"** %57, align 8, !noalias !23
  %267 = bitcast %"class.std::__1::__compressed_pair"* %266 to %"class.std::__1::__libcpp_compressed_pair_imp"*
  store %"class.std::__1::__libcpp_compressed_pair_imp"* %267, %"class.std::__1::__libcpp_compressed_pair_imp"** %56, align 8, !noalias !23
  %268 = load %"class.std::__1::__libcpp_compressed_pair_imp"*, %"class.std::__1::__libcpp_compressed_pair_imp"** %56, align 8, !noalias !23
  %269 = getelementptr inbounds %"class.std::__1::__libcpp_compressed_pair_imp", %"class.std::__1::__libcpp_compressed_pair_imp"* %268, i32 0, i32 0
  %270 = getelementptr inbounds %"struct.std::__1::basic_string<char, std::__1::char_traits<char>, std::__1::allocator<char> >::__rep", %"struct.std::__1::basic_string<char, std::__1::char_traits<char>, std::__1::allocator<char> >::__rep"* %269, i32 0, i32 0
  %271 = bitcast %union.anon.0* %270 to %"struct.std::__1::basic_string<char, std::__1::char_traits<char>, std::__1::allocator<char> >::__raw"*
  %272 = getelementptr inbounds %"struct.std::__1::basic_string<char, std::__1::char_traits<char>, std::__1::allocator<char> >::__raw", %"struct.std::__1::basic_string<char, std::__1::char_traits<char>, std::__1::allocator<char> >::__raw"* %271, i32 0, i32 0
  store [3 x i64]* %272, [3 x i64]** %59, align 8, !noalias !23
  store i32 0, i32* %60, align 4, !noalias !23
  br label %273

; <label>:273:                                    ; preds = %276, %251
  %274 = load i32, i32* %60, align 4, !noalias !23
  %275 = icmp ult i32 %274, 3
  br i1 %275, label %276, label %283

; <label>:276:                                    ; preds = %273
  %277 = load i32, i32* %60, align 4, !noalias !23
  %278 = zext i32 %277 to i64
  %279 = load [3 x i64]*, [3 x i64]** %59, align 8, !noalias !23
  %280 = getelementptr inbounds [3 x i64], [3 x i64]* %279, i64 0, i64 %278
  store i64 0, i64* %280, align 8
  %281 = load i32, i32* %60, align 4, !noalias !23
  %282 = add i32 %281, 1
  store i32 %282, i32* %60, align 4, !noalias !23
  br label %273

; <label>:283:                                    ; preds = %273
  br label %284

; <label>:284:                                    ; preds = %283
  store %"class.std::__1::basic_string"* %71, %"class.std::__1::basic_string"** %54, align 8, !noalias !26
  store i8* getelementptr inbounds ([6 x i8], [6 x i8]* @.str.1, i32 0, i32 0), i8** %55, align 8, !noalias !26
  %285 = load %"class.std::__1::basic_string"*, %"class.std::__1::basic_string"** %54, align 8, !noalias !26
  %286 = load i8*, i8** %55, align 8, !noalias !26
  %287 = invoke dereferenceable(24) %"class.std::__1::basic_string"* @_ZNSt3__112basic_stringIcNS_11char_traitsIcEENS_9allocatorIcEEE6appendEPKc(%"class.std::__1::basic_string"* %285, i8* %286)
          to label %288 unwind label %458

; <label>:288:                                    ; preds = %284
  store %"class.std::__1::basic_string"* %287, %"class.std::__1::basic_string"** %53, align 8, !noalias !26
  %289 = load %"class.std::__1::basic_string"*, %"class.std::__1::basic_string"** %53, align 8, !noalias !26
  store %"class.std::__1::basic_string"* %70, %"class.std::__1::basic_string"** %51, align 8, !noalias !26
  store %"class.std::__1::basic_string"* %289, %"class.std::__1::basic_string"** %52, align 8, !noalias !26
  %290 = load %"class.std::__1::basic_string"*, %"class.std::__1::basic_string"** %51, align 8, !noalias !26
  %291 = load %"class.std::__1::basic_string"*, %"class.std::__1::basic_string"** %52, align 8, !noalias !26
  store %"class.std::__1::basic_string"* %290, %"class.std::__1::basic_string"** %49, align 8, !noalias !26
  store %"class.std::__1::basic_string"* %291, %"class.std::__1::basic_string"** %50, align 8, !noalias !26
  %292 = load %"class.std::__1::basic_string"*, %"class.std::__1::basic_string"** %49, align 8, !noalias !26
  %293 = bitcast %"class.std::__1::basic_string"* %292 to %"class.std::__1::__basic_string_common"*
  %294 = getelementptr inbounds %"class.std::__1::basic_string", %"class.std::__1::basic_string"* %292, i32 0, i32 0
  %295 = load %"class.std::__1::basic_string"*, %"class.std::__1::basic_string"** %50, align 8, !noalias !26
  %296 = getelementptr inbounds %"class.std::__1::basic_string", %"class.std::__1::basic_string"* %295, i32 0, i32 0
  store %"class.std::__1::__compressed_pair"* %296, %"class.std::__1::__compressed_pair"** %48, align 8, !noalias !26
  %297 = load %"class.std::__1::__compressed_pair"*, %"class.std::__1::__compressed_pair"** %48, align 8, !noalias !26
  %298 = bitcast %"class.std::__1::__compressed_pair"* %294 to i8*
  %299 = bitcast %"class.std::__1::__compressed_pair"* %297 to i8*
  call void @llvm.memcpy.p0i8.p0i8.i64(i8* %298, i8* %299, i64 24, i32 8, i1 false) #10
  %300 = load %"class.std::__1::basic_string"*, %"class.std::__1::basic_string"** %50, align 8, !noalias !26
  store %"class.std::__1::basic_string"* %300, %"class.std::__1::basic_string"** %45, align 8, !noalias !26
  %301 = load %"class.std::__1::basic_string"*, %"class.std::__1::basic_string"** %45, align 8, !noalias !26
  %302 = getelementptr inbounds %"class.std::__1::basic_string", %"class.std::__1::basic_string"* %301, i32 0, i32 0
  store %"class.std::__1::__compressed_pair"* %302, %"class.std::__1::__compressed_pair"** %44, align 8, !noalias !26
  %303 = load %"class.std::__1::__compressed_pair"*, %"class.std::__1::__compressed_pair"** %44, align 8, !noalias !26
  %304 = bitcast %"class.std::__1::__compressed_pair"* %303 to %"class.std::__1::__libcpp_compressed_pair_imp"*
  store %"class.std::__1::__libcpp_compressed_pair_imp"* %304, %"class.std::__1::__libcpp_compressed_pair_imp"** %43, align 8, !noalias !26
  %305 = load %"class.std::__1::__libcpp_compressed_pair_imp"*, %"class.std::__1::__libcpp_compressed_pair_imp"** %43, align 8, !noalias !26
  %306 = getelementptr inbounds %"class.std::__1::__libcpp_compressed_pair_imp", %"class.std::__1::__libcpp_compressed_pair_imp"* %305, i32 0, i32 0
  %307 = getelementptr inbounds %"struct.std::__1::basic_string<char, std::__1::char_traits<char>, std::__1::allocator<char> >::__rep", %"struct.std::__1::basic_string<char, std::__1::char_traits<char>, std::__1::allocator<char> >::__rep"* %306, i32 0, i32 0
  %308 = bitcast %union.anon.0* %307 to %"struct.std::__1::basic_string<char, std::__1::char_traits<char>, std::__1::allocator<char> >::__raw"*
  %309 = getelementptr inbounds %"struct.std::__1::basic_string<char, std::__1::char_traits<char>, std::__1::allocator<char> >::__raw", %"struct.std::__1::basic_string<char, std::__1::char_traits<char>, std::__1::allocator<char> >::__raw"* %308, i32 0, i32 0
  store [3 x i64]* %309, [3 x i64]** %46, align 8, !noalias !26
  store i32 0, i32* %47, align 4, !noalias !26
  br label %310

; <label>:310:                                    ; preds = %313, %288
  %311 = load i32, i32* %47, align 4, !noalias !26
  %312 = icmp ult i32 %311, 3
  br i1 %312, label %313, label %320

; <label>:313:                                    ; preds = %310
  %314 = load i32, i32* %47, align 4, !noalias !26
  %315 = zext i32 %314 to i64
  %316 = load [3 x i64]*, [3 x i64]** %46, align 8, !noalias !26
  %317 = getelementptr inbounds [3 x i64], [3 x i64]* %316, i64 0, i64 %315
  store i64 0, i64* %317, align 8
  %318 = load i32, i32* %47, align 4, !noalias !26
  %319 = add i32 %318, 1
  store i32 %319, i32* %47, align 4, !noalias !26
  br label %310

; <label>:320:                                    ; preds = %310
  br label %321

; <label>:321:                                    ; preds = %320
  %322 = getelementptr inbounds %struct.Variant, %struct.Variant* %2, i32 0, i32 4
  %323 = getelementptr inbounds %struct.TypeSpecifier, %struct.TypeSpecifier* %322, i32 0, i32 0
  %324 = load i32, i32* %323, align 8
  invoke void @_ZN3val9typetostrE9ValueType(%"class.std::__1::basic_string"* sret %75, i32 %324)
          to label %325 unwind label %462

; <label>:325:                                    ; preds = %321
  store %"class.std::__1::basic_string"* %70, %"class.std::__1::basic_string"** %41, align 8, !noalias !29
  store %"class.std::__1::basic_string"* %75, %"class.std::__1::basic_string"** %42, align 8, !noalias !29
  %326 = load %"class.std::__1::basic_string"*, %"class.std::__1::basic_string"** %41, align 8, !noalias !29
  %327 = load %"class.std::__1::basic_string"*, %"class.std::__1::basic_string"** %42, align 8, !noalias !29
  store %"class.std::__1::basic_string"* %326, %"class.std::__1::basic_string"** %39, align 8, !noalias !29
  store %"class.std::__1::basic_string"* %327, %"class.std::__1::basic_string"** %40, align 8, !noalias !29
  %328 = load %"class.std::__1::basic_string"*, %"class.std::__1::basic_string"** %39, align 8, !noalias !29
  %329 = load %"class.std::__1::basic_string"*, %"class.std::__1::basic_string"** %40, align 8, !noalias !29
  store %"class.std::__1::basic_string"* %329, %"class.std::__1::basic_string"** %38, align 8, !noalias !29
  %330 = load %"class.std::__1::basic_string"*, %"class.std::__1::basic_string"** %38, align 8, !noalias !29
  store %"class.std::__1::basic_string"* %330, %"class.std::__1::basic_string"** %37, align 8, !noalias !29
  %331 = load %"class.std::__1::basic_string"*, %"class.std::__1::basic_string"** %37, align 8, !noalias !29
  store %"class.std::__1::basic_string"* %331, %"class.std::__1::basic_string"** %36, align 8, !noalias !29
  %332 = load %"class.std::__1::basic_string"*, %"class.std::__1::basic_string"** %36, align 8, !noalias !29
  %333 = getelementptr inbounds %"class.std::__1::basic_string", %"class.std::__1::basic_string"* %332, i32 0, i32 0
  store %"class.std::__1::__compressed_pair"* %333, %"class.std::__1::__compressed_pair"** %35, align 8, !noalias !29
  %334 = load %"class.std::__1::__compressed_pair"*, %"class.std::__1::__compressed_pair"** %35, align 8, !noalias !29
  %335 = bitcast %"class.std::__1::__compressed_pair"* %334 to %"class.std::__1::__libcpp_compressed_pair_imp"*
  store %"class.std::__1::__libcpp_compressed_pair_imp"* %335, %"class.std::__1::__libcpp_compressed_pair_imp"** %34, align 8, !noalias !29
  %336 = load %"class.std::__1::__libcpp_compressed_pair_imp"*, %"class.std::__1::__libcpp_compressed_pair_imp"** %34, align 8, !noalias !29
  %337 = getelementptr inbounds %"class.std::__1::__libcpp_compressed_pair_imp", %"class.std::__1::__libcpp_compressed_pair_imp"* %336, i32 0, i32 0
  %338 = getelementptr inbounds %"struct.std::__1::basic_string<char, std::__1::char_traits<char>, std::__1::allocator<char> >::__rep", %"struct.std::__1::basic_string<char, std::__1::char_traits<char>, std::__1::allocator<char> >::__rep"* %337, i32 0, i32 0
  %339 = bitcast %union.anon.0* %338 to %"struct.std::__1::basic_string<char, std::__1::char_traits<char>, std::__1::allocator<char> >::__short"*
  %340 = getelementptr inbounds %"struct.std::__1::basic_string<char, std::__1::char_traits<char>, std::__1::allocator<char> >::__short", %"struct.std::__1::basic_string<char, std::__1::char_traits<char>, std::__1::allocator<char> >::__short"* %339, i32 0, i32 0
  %341 = bitcast %union.anon.1* %340 to i8*
  %342 = load i8, i8* %341, align 8, !noalias !29
  %343 = zext i8 %342 to i32
  %344 = and i32 %343, 1
  %345 = icmp ne i32 %344, 0
  br i1 %345, label %346, label %357

; <label>:346:                                    ; preds = %325
  store %"class.std::__1::basic_string"* %331, %"class.std::__1::basic_string"** %28, align 8, !noalias !29
  %347 = load %"class.std::__1::basic_string"*, %"class.std::__1::basic_string"** %28, align 8, !noalias !29
  %348 = getelementptr inbounds %"class.std::__1::basic_string", %"class.std::__1::basic_string"* %347, i32 0, i32 0
  store %"class.std::__1::__compressed_pair"* %348, %"class.std::__1::__compressed_pair"** %27, align 8, !noalias !29
  %349 = load %"class.std::__1::__compressed_pair"*, %"class.std::__1::__compressed_pair"** %27, align 8, !noalias !29
  %350 = bitcast %"class.std::__1::__compressed_pair"* %349 to %"class.std::__1::__libcpp_compressed_pair_imp"*
  store %"class.std::__1::__libcpp_compressed_pair_imp"* %350, %"class.std::__1::__libcpp_compressed_pair_imp"** %26, align 8, !noalias !29
  %351 = load %"class.std::__1::__libcpp_compressed_pair_imp"*, %"class.std::__1::__libcpp_compressed_pair_imp"** %26, align 8, !noalias !29
  %352 = getelementptr inbounds %"class.std::__1::__libcpp_compressed_pair_imp", %"class.std::__1::__libcpp_compressed_pair_imp"* %351, i32 0, i32 0
  %353 = getelementptr inbounds %"struct.std::__1::basic_string<char, std::__1::char_traits<char>, std::__1::allocator<char> >::__rep", %"struct.std::__1::basic_string<char, std::__1::char_traits<char>, std::__1::allocator<char> >::__rep"* %352, i32 0, i32 0
  %354 = bitcast %union.anon.0* %353 to %"struct.std::__1::basic_string<char, std::__1::char_traits<char>, std::__1::allocator<char> >::__long"*
  %355 = getelementptr inbounds %"struct.std::__1::basic_string<char, std::__1::char_traits<char>, std::__1::allocator<char> >::__long", %"struct.std::__1::basic_string<char, std::__1::char_traits<char>, std::__1::allocator<char> >::__long"* %354, i32 0, i32 2
  %356 = load i8*, i8** %355, align 8
  br label %370

; <label>:357:                                    ; preds = %325
  store %"class.std::__1::basic_string"* %331, %"class.std::__1::basic_string"** %33, align 8, !noalias !29
  %358 = load %"class.std::__1::basic_string"*, %"class.std::__1::basic_string"** %33, align 8, !noalias !29
  %359 = getelementptr inbounds %"class.std::__1::basic_string", %"class.std::__1::basic_string"* %358, i32 0, i32 0
  store %"class.std::__1::__compressed_pair"* %359, %"class.std::__1::__compressed_pair"** %32, align 8, !noalias !29
  %360 = load %"class.std::__1::__compressed_pair"*, %"class.std::__1::__compressed_pair"** %32, align 8, !noalias !29
  %361 = bitcast %"class.std::__1::__compressed_pair"* %360 to %"class.std::__1::__libcpp_compressed_pair_imp"*
  store %"class.std::__1::__libcpp_compressed_pair_imp"* %361, %"class.std::__1::__libcpp_compressed_pair_imp"** %31, align 8, !noalias !29
  %362 = load %"class.std::__1::__libcpp_compressed_pair_imp"*, %"class.std::__1::__libcpp_compressed_pair_imp"** %31, align 8, !noalias !29
  %363 = getelementptr inbounds %"class.std::__1::__libcpp_compressed_pair_imp", %"class.std::__1::__libcpp_compressed_pair_imp"* %362, i32 0, i32 0
  %364 = getelementptr inbounds %"struct.std::__1::basic_string<char, std::__1::char_traits<char>, std::__1::allocator<char> >::__rep", %"struct.std::__1::basic_string<char, std::__1::char_traits<char>, std::__1::allocator<char> >::__rep"* %363, i32 0, i32 0
  %365 = bitcast %union.anon.0* %364 to %"struct.std::__1::basic_string<char, std::__1::char_traits<char>, std::__1::allocator<char> >::__short"*
  %366 = getelementptr inbounds %"struct.std::__1::basic_string<char, std::__1::char_traits<char>, std::__1::allocator<char> >::__short", %"struct.std::__1::basic_string<char, std::__1::char_traits<char>, std::__1::allocator<char> >::__short"* %365, i32 0, i32 1
  %367 = getelementptr inbounds [23 x i8], [23 x i8]* %366, i64 0, i64 0
  store i8* %367, i8** %30, align 8, !noalias !29
  %368 = load i8*, i8** %30, align 8, !noalias !29
  store i8* %368, i8** %29, align 8, !noalias !29
  %369 = load i8*, i8** %29, align 8, !noalias !29
  br label %370

; <label>:370:                                    ; preds = %357, %346
  %371 = phi i8* [ %356, %346 ], [ %369, %357 ]
  store i8* %371, i8** %25, align 8, !noalias !29
  %372 = load i8*, i8** %25, align 8, !noalias !29
  %373 = load %"class.std::__1::basic_string"*, %"class.std::__1::basic_string"** %40, align 8, !noalias !29
  store %"class.std::__1::basic_string"* %373, %"class.std::__1::basic_string"** %24, align 8, !noalias !29
  %374 = load %"class.std::__1::basic_string"*, %"class.std::__1::basic_string"** %24, align 8, !noalias !29
  store %"class.std::__1::basic_string"* %374, %"class.std::__1::basic_string"** %23, align 8, !noalias !29
  %375 = load %"class.std::__1::basic_string"*, %"class.std::__1::basic_string"** %23, align 8, !noalias !29
  %376 = getelementptr inbounds %"class.std::__1::basic_string", %"class.std::__1::basic_string"* %375, i32 0, i32 0
  store %"class.std::__1::__compressed_pair"* %376, %"class.std::__1::__compressed_pair"** %22, align 8, !noalias !29
  %377 = load %"class.std::__1::__compressed_pair"*, %"class.std::__1::__compressed_pair"** %22, align 8, !noalias !29
  %378 = bitcast %"class.std::__1::__compressed_pair"* %377 to %"class.std::__1::__libcpp_compressed_pair_imp"*
  store %"class.std::__1::__libcpp_compressed_pair_imp"* %378, %"class.std::__1::__libcpp_compressed_pair_imp"** %21, align 8, !noalias !29
  %379 = load %"class.std::__1::__libcpp_compressed_pair_imp"*, %"class.std::__1::__libcpp_compressed_pair_imp"** %21, align 8, !noalias !29
  %380 = getelementptr inbounds %"class.std::__1::__libcpp_compressed_pair_imp", %"class.std::__1::__libcpp_compressed_pair_imp"* %379, i32 0, i32 0
  %381 = getelementptr inbounds %"struct.std::__1::basic_string<char, std::__1::char_traits<char>, std::__1::allocator<char> >::__rep", %"struct.std::__1::basic_string<char, std::__1::char_traits<char>, std::__1::allocator<char> >::__rep"* %380, i32 0, i32 0
  %382 = bitcast %union.anon.0* %381 to %"struct.std::__1::basic_string<char, std::__1::char_traits<char>, std::__1::allocator<char> >::__short"*
  %383 = getelementptr inbounds %"struct.std::__1::basic_string<char, std::__1::char_traits<char>, std::__1::allocator<char> >::__short", %"struct.std::__1::basic_string<char, std::__1::char_traits<char>, std::__1::allocator<char> >::__short"* %382, i32 0, i32 0
  %384 = bitcast %union.anon.1* %383 to i8*
  %385 = load i8, i8* %384, align 8, !noalias !29
  %386 = zext i8 %385 to i32
  %387 = and i32 %386, 1
  %388 = icmp ne i32 %387, 0
  br i1 %388, label %389, label %400

; <label>:389:                                    ; preds = %370
  store %"class.std::__1::basic_string"* %374, %"class.std::__1::basic_string"** %17, align 8, !noalias !29
  %390 = load %"class.std::__1::basic_string"*, %"class.std::__1::basic_string"** %17, align 8, !noalias !29
  %391 = getelementptr inbounds %"class.std::__1::basic_string", %"class.std::__1::basic_string"* %390, i32 0, i32 0
  store %"class.std::__1::__compressed_pair"* %391, %"class.std::__1::__compressed_pair"** %16, align 8, !noalias !29
  %392 = load %"class.std::__1::__compressed_pair"*, %"class.std::__1::__compressed_pair"** %16, align 8, !noalias !29
  %393 = bitcast %"class.std::__1::__compressed_pair"* %392 to %"class.std::__1::__libcpp_compressed_pair_imp"*
  store %"class.std::__1::__libcpp_compressed_pair_imp"* %393, %"class.std::__1::__libcpp_compressed_pair_imp"** %15, align 8, !noalias !29
  %394 = load %"class.std::__1::__libcpp_compressed_pair_imp"*, %"class.std::__1::__libcpp_compressed_pair_imp"** %15, align 8, !noalias !29
  %395 = getelementptr inbounds %"class.std::__1::__libcpp_compressed_pair_imp", %"class.std::__1::__libcpp_compressed_pair_imp"* %394, i32 0, i32 0
  %396 = getelementptr inbounds %"struct.std::__1::basic_string<char, std::__1::char_traits<char>, std::__1::allocator<char> >::__rep", %"struct.std::__1::basic_string<char, std::__1::char_traits<char>, std::__1::allocator<char> >::__rep"* %395, i32 0, i32 0
  %397 = bitcast %union.anon.0* %396 to %"struct.std::__1::basic_string<char, std::__1::char_traits<char>, std::__1::allocator<char> >::__long"*
  %398 = getelementptr inbounds %"struct.std::__1::basic_string<char, std::__1::char_traits<char>, std::__1::allocator<char> >::__long", %"struct.std::__1::basic_string<char, std::__1::char_traits<char>, std::__1::allocator<char> >::__long"* %397, i32 0, i32 1
  %399 = load i64, i64* %398, align 8
  br label %415

; <label>:400:                                    ; preds = %370
  store %"class.std::__1::basic_string"* %374, %"class.std::__1::basic_string"** %20, align 8, !noalias !29
  %401 = load %"class.std::__1::basic_string"*, %"class.std::__1::basic_string"** %20, align 8, !noalias !29
  %402 = getelementptr inbounds %"class.std::__1::basic_string", %"class.std::__1::basic_string"* %401, i32 0, i32 0
  store %"class.std::__1::__compressed_pair"* %402, %"class.std::__1::__compressed_pair"** %19, align 8, !noalias !29
  %403 = load %"class.std::__1::__compressed_pair"*, %"class.std::__1::__compressed_pair"** %19, align 8, !noalias !29
  %404 = bitcast %"class.std::__1::__compressed_pair"* %403 to %"class.std::__1::__libcpp_compressed_pair_imp"*
  store %"class.std::__1::__libcpp_compressed_pair_imp"* %404, %"class.std::__1::__libcpp_compressed_pair_imp"** %18, align 8, !noalias !29
  %405 = load %"class.std::__1::__libcpp_compressed_pair_imp"*, %"class.std::__1::__libcpp_compressed_pair_imp"** %18, align 8, !noalias !29
  %406 = getelementptr inbounds %"class.std::__1::__libcpp_compressed_pair_imp", %"class.std::__1::__libcpp_compressed_pair_imp"* %405, i32 0, i32 0
  %407 = getelementptr inbounds %"struct.std::__1::basic_string<char, std::__1::char_traits<char>, std::__1::allocator<char> >::__rep", %"struct.std::__1::basic_string<char, std::__1::char_traits<char>, std::__1::allocator<char> >::__rep"* %406, i32 0, i32 0
  %408 = bitcast %union.anon.0* %407 to %"struct.std::__1::basic_string<char, std::__1::char_traits<char>, std::__1::allocator<char> >::__short"*
  %409 = getelementptr inbounds %"struct.std::__1::basic_string<char, std::__1::char_traits<char>, std::__1::allocator<char> >::__short", %"struct.std::__1::basic_string<char, std::__1::char_traits<char>, std::__1::allocator<char> >::__short"* %408, i32 0, i32 0
  %410 = bitcast %union.anon.1* %409 to i8*
  %411 = load i8, i8* %410, align 8
  %412 = zext i8 %411 to i32
  %413 = ashr i32 %412, 1
  %414 = sext i32 %413 to i64
  br label %415

; <label>:415:                                    ; preds = %400, %389
  %416 = phi i64 [ %399, %389 ], [ %414, %400 ]
  %417 = invoke dereferenceable(24) %"class.std::__1::basic_string"* @_ZNSt3__112basic_stringIcNS_11char_traitsIcEENS_9allocatorIcEEE6appendEPKcm(%"class.std::__1::basic_string"* %328, i8* %372, i64 %416)
          to label %418 unwind label %466

; <label>:418:                                    ; preds = %415
  store %"class.std::__1::basic_string"* %417, %"class.std::__1::basic_string"** %14, align 8, !noalias !29
  %419 = load %"class.std::__1::basic_string"*, %"class.std::__1::basic_string"** %14, align 8, !noalias !29
  store %"class.std::__1::basic_string"* %69, %"class.std::__1::basic_string"** %12, align 8, !noalias !29
  store %"class.std::__1::basic_string"* %419, %"class.std::__1::basic_string"** %13, align 8, !noalias !29
  %420 = load %"class.std::__1::basic_string"*, %"class.std::__1::basic_string"** %12, align 8, !noalias !29
  %421 = load %"class.std::__1::basic_string"*, %"class.std::__1::basic_string"** %13, align 8, !noalias !29
  store %"class.std::__1::basic_string"* %420, %"class.std::__1::basic_string"** %10, align 8, !noalias !29
  store %"class.std::__1::basic_string"* %421, %"class.std::__1::basic_string"** %11, align 8, !noalias !29
  %422 = load %"class.std::__1::basic_string"*, %"class.std::__1::basic_string"** %10, align 8, !noalias !29
  %423 = bitcast %"class.std::__1::basic_string"* %422 to %"class.std::__1::__basic_string_common"*
  %424 = getelementptr inbounds %"class.std::__1::basic_string", %"class.std::__1::basic_string"* %422, i32 0, i32 0
  %425 = load %"class.std::__1::basic_string"*, %"class.std::__1::basic_string"** %11, align 8, !noalias !29
  %426 = getelementptr inbounds %"class.std::__1::basic_string", %"class.std::__1::basic_string"* %425, i32 0, i32 0
  store %"class.std::__1::__compressed_pair"* %426, %"class.std::__1::__compressed_pair"** %9, align 8, !noalias !29
  %427 = load %"class.std::__1::__compressed_pair"*, %"class.std::__1::__compressed_pair"** %9, align 8, !noalias !29
  %428 = bitcast %"class.std::__1::__compressed_pair"* %424 to i8*
  %429 = bitcast %"class.std::__1::__compressed_pair"* %427 to i8*
  call void @llvm.memcpy.p0i8.p0i8.i64(i8* %428, i8* %429, i64 24, i32 8, i1 false) #10
  %430 = load %"class.std::__1::basic_string"*, %"class.std::__1::basic_string"** %11, align 8, !noalias !29
  store %"class.std::__1::basic_string"* %430, %"class.std::__1::basic_string"** %6, align 8, !noalias !29
  %431 = load %"class.std::__1::basic_string"*, %"class.std::__1::basic_string"** %6, align 8, !noalias !29
  %432 = getelementptr inbounds %"class.std::__1::basic_string", %"class.std::__1::basic_string"* %431, i32 0, i32 0
  store %"class.std::__1::__compressed_pair"* %432, %"class.std::__1::__compressed_pair"** %5, align 8, !noalias !29
  %433 = load %"class.std::__1::__compressed_pair"*, %"class.std::__1::__compressed_pair"** %5, align 8, !noalias !29
  %434 = bitcast %"class.std::__1::__compressed_pair"* %433 to %"class.std::__1::__libcpp_compressed_pair_imp"*
  store %"class.std::__1::__libcpp_compressed_pair_imp"* %434, %"class.std::__1::__libcpp_compressed_pair_imp"** %4, align 8, !noalias !29
  %435 = load %"class.std::__1::__libcpp_compressed_pair_imp"*, %"class.std::__1::__libcpp_compressed_pair_imp"** %4, align 8, !noalias !29
  %436 = getelementptr inbounds %"class.std::__1::__libcpp_compressed_pair_imp", %"class.std::__1::__libcpp_compressed_pair_imp"* %435, i32 0, i32 0
  %437 = getelementptr inbounds %"struct.std::__1::basic_string<char, std::__1::char_traits<char>, std::__1::allocator<char> >::__rep", %"struct.std::__1::basic_string<char, std::__1::char_traits<char>, std::__1::allocator<char> >::__rep"* %436, i32 0, i32 0
  %438 = bitcast %union.anon.0* %437 to %"struct.std::__1::basic_string<char, std::__1::char_traits<char>, std::__1::allocator<char> >::__raw"*
  %439 = getelementptr inbounds %"struct.std::__1::basic_string<char, std::__1::char_traits<char>, std::__1::allocator<char> >::__raw", %"struct.std::__1::basic_string<char, std::__1::char_traits<char>, std::__1::allocator<char> >::__raw"* %438, i32 0, i32 0
  store [3 x i64]* %439, [3 x i64]** %7, align 8, !noalias !29
  store i32 0, i32* %8, align 4, !noalias !29
  br label %440

; <label>:440:                                    ; preds = %443, %418
  %441 = load i32, i32* %8, align 4, !noalias !29
  %442 = icmp ult i32 %441, 3
  br i1 %442, label %443, label %450

; <label>:443:                                    ; preds = %440
  %444 = load i32, i32* %8, align 4, !noalias !29
  %445 = zext i32 %444 to i64
  %446 = load [3 x i64]*, [3 x i64]** %7, align 8, !noalias !29
  %447 = getelementptr inbounds [3 x i64], [3 x i64]* %446, i64 0, i64 %445
  store i64 0, i64* %447, align 8
  %448 = load i32, i32* %8, align 4, !noalias !29
  %449 = add i32 %448, 1
  store i32 %449, i32* %8, align 4, !noalias !29
  br label %440

; <label>:450:                                    ; preds = %440
  br label %451

; <label>:451:                                    ; preds = %450
  invoke void @_ZN12RuntimeError5raiseE13RuntimeErrorsNSt3__112basic_stringIcNS1_11char_traitsIcEENS1_9allocatorIcEEEEP7AstNode(i32 2, %"class.std::__1::basic_string"* %69, %class.AstNode* null)
          to label %452 unwind label %470

; <label>:452:                                    ; preds = %451
  call void @_ZNSt3__112basic_stringIcNS_11char_traitsIcEENS_9allocatorIcEEED1Ev(%"class.std::__1::basic_string"* %69) #10
  call void @_ZNSt3__112basic_stringIcNS_11char_traitsIcEENS_9allocatorIcEEED1Ev(%"class.std::__1::basic_string"* %75) #10
  call void @_ZNSt3__112basic_stringIcNS_11char_traitsIcEENS_9allocatorIcEEED1Ev(%"class.std::__1::basic_string"* %70) #10
  call void @_ZNSt3__112basic_stringIcNS_11char_traitsIcEENS_9allocatorIcEEED1Ev(%"class.std::__1::basic_string"* %71) #10
  call void @_ZNSt3__112basic_stringIcNS_11char_traitsIcEENS_9allocatorIcEEED1Ev(%"class.std::__1::basic_string"* %72) #10
  br label %453

; <label>:453:                                    ; preds = %452, %233, %224, %215, %206, %191, %183, %174, %165, %150, %141, %133, %124, %109, %100, %91, %83
  ret void

; <label>:454:                                    ; preds = %244
  %455 = landingpad { i8*, i32 }
          cleanup
  %456 = extractvalue { i8*, i32 } %455, 0
  store i8* %456, i8** %73, align 8
  %457 = extractvalue { i8*, i32 } %455, 1
  store i32 %457, i32* %74, align 4
  br label %477

; <label>:458:                                    ; preds = %284
  %459 = landingpad { i8*, i32 }
          cleanup
  %460 = extractvalue { i8*, i32 } %459, 0
  store i8* %460, i8** %73, align 8
  %461 = extractvalue { i8*, i32 } %459, 1
  store i32 %461, i32* %74, align 4
  br label %476

; <label>:462:                                    ; preds = %321
  %463 = landingpad { i8*, i32 }
          cleanup
  %464 = extractvalue { i8*, i32 } %463, 0
  store i8* %464, i8** %73, align 8
  %465 = extractvalue { i8*, i32 } %463, 1
  store i32 %465, i32* %74, align 4
  br label %475

; <label>:466:                                    ; preds = %415
  %467 = landingpad { i8*, i32 }
          cleanup
  %468 = extractvalue { i8*, i32 } %467, 0
  store i8* %468, i8** %73, align 8
  %469 = extractvalue { i8*, i32 } %467, 1
  store i32 %469, i32* %74, align 4
  br label %474

; <label>:470:                                    ; preds = %451
  %471 = landingpad { i8*, i32 }
          cleanup
  %472 = extractvalue { i8*, i32 } %471, 0
  store i8* %472, i8** %73, align 8
  %473 = extractvalue { i8*, i32 } %471, 1
  store i32 %473, i32* %74, align 4
  call void @_ZNSt3__112basic_stringIcNS_11char_traitsIcEENS_9allocatorIcEEED1Ev(%"class.std::__1::basic_string"* %69) #10
  br label %474

; <label>:474:                                    ; preds = %470, %466
  call void @_ZNSt3__112basic_stringIcNS_11char_traitsIcEENS_9allocatorIcEEED1Ev(%"class.std::__1::basic_string"* %75) #10
  br label %475

; <label>:475:                                    ; preds = %474, %462
  call void @_ZNSt3__112basic_stringIcNS_11char_traitsIcEENS_9allocatorIcEEED1Ev(%"class.std::__1::basic_string"* %70) #10
  br label %476

; <label>:476:                                    ; preds = %475, %458
  call void @_ZNSt3__112basic_stringIcNS_11char_traitsIcEENS_9allocatorIcEEED1Ev(%"class.std::__1::basic_string"* %71) #10
  br label %477

; <label>:477:                                    ; preds = %476, %454
  call void @_ZNSt3__112basic_stringIcNS_11char_traitsIcEENS_9allocatorIcEEED1Ev(%"class.std::__1::basic_string"* %72) #10
  br label %478

; <label>:478:                                    ; preds = %477
  %479 = load i8*, i8** %73, align 8
  %480 = load i32, i32* %74, align 4
  %481 = insertvalue { i8*, i32 } undef, i8* %479, 0
  %482 = insertvalue { i8*, i32 } %481, i32 %480, 1
  resume { i8*, i32 } %482
}

; Function Attrs: ssp uwtable
define void @_ZN4cdot3var10Arithmetic6divideE7VariantS2_(%struct.Variant* noalias sret, %struct.Variant*, %struct.Variant*) #0 align 2 personality i8* bitcast (i32 (...)* @__gxx_personality_v0 to i8*) {
  %4 = alloca %"class.std::__1::__libcpp_compressed_pair_imp"*, align 8
  %5 = alloca %"class.std::__1::__compressed_pair"*, align 8
  %6 = alloca %"class.std::__1::basic_string"*, align 8
  %7 = alloca [3 x i64]*, align 8
  %8 = alloca i32, align 4
  %9 = alloca %"class.std::__1::__compressed_pair"*, align 8
  %10 = alloca %"class.std::__1::basic_string"*, align 8
  %11 = alloca %"class.std::__1::basic_string"*, align 8
  %12 = alloca %"class.std::__1::basic_string"*, align 8
  %13 = alloca %"class.std::__1::basic_string"*, align 8
  %14 = alloca %"class.std::__1::basic_string"*, align 8
  %15 = alloca %"class.std::__1::__libcpp_compressed_pair_imp"*, align 8
  %16 = alloca %"class.std::__1::__compressed_pair"*, align 8
  %17 = alloca %"class.std::__1::basic_string"*, align 8
  %18 = alloca %"class.std::__1::__libcpp_compressed_pair_imp"*, align 8
  %19 = alloca %"class.std::__1::__compressed_pair"*, align 8
  %20 = alloca %"class.std::__1::basic_string"*, align 8
  %21 = alloca %"class.std::__1::__libcpp_compressed_pair_imp"*, align 8
  %22 = alloca %"class.std::__1::__compressed_pair"*, align 8
  %23 = alloca %"class.std::__1::basic_string"*, align 8
  %24 = alloca %"class.std::__1::basic_string"*, align 8
  %25 = alloca i8*, align 8
  %26 = alloca %"class.std::__1::__libcpp_compressed_pair_imp"*, align 8
  %27 = alloca %"class.std::__1::__compressed_pair"*, align 8
  %28 = alloca %"class.std::__1::basic_string"*, align 8
  %29 = alloca i8*, align 8
  %30 = alloca i8*, align 8
  %31 = alloca %"class.std::__1::__libcpp_compressed_pair_imp"*, align 8
  %32 = alloca %"class.std::__1::__compressed_pair"*, align 8
  %33 = alloca %"class.std::__1::basic_string"*, align 8
  %34 = alloca %"class.std::__1::__libcpp_compressed_pair_imp"*, align 8
  %35 = alloca %"class.std::__1::__compressed_pair"*, align 8
  %36 = alloca %"class.std::__1::basic_string"*, align 8
  %37 = alloca %"class.std::__1::basic_string"*, align 8
  %38 = alloca %"class.std::__1::basic_string"*, align 8
  %39 = alloca %"class.std::__1::basic_string"*, align 8
  %40 = alloca %"class.std::__1::basic_string"*, align 8
  %41 = alloca %"class.std::__1::basic_string"*, align 8
  %42 = alloca %"class.std::__1::basic_string"*, align 8
  %43 = alloca %"class.std::__1::__libcpp_compressed_pair_imp"*, align 8
  %44 = alloca %"class.std::__1::__compressed_pair"*, align 8
  %45 = alloca %"class.std::__1::basic_string"*, align 8
  %46 = alloca [3 x i64]*, align 8
  %47 = alloca i32, align 4
  %48 = alloca %"class.std::__1::__compressed_pair"*, align 8
  %49 = alloca %"class.std::__1::basic_string"*, align 8
  %50 = alloca %"class.std::__1::basic_string"*, align 8
  %51 = alloca %"class.std::__1::basic_string"*, align 8
  %52 = alloca %"class.std::__1::basic_string"*, align 8
  %53 = alloca %"class.std::__1::basic_string"*, align 8
  %54 = alloca %"class.std::__1::basic_string"*, align 8
  %55 = alloca i8*, align 8
  %56 = alloca %"class.std::__1::__libcpp_compressed_pair_imp"*, align 8
  %57 = alloca %"class.std::__1::__compressed_pair"*, align 8
  %58 = alloca %"class.std::__1::basic_string"*, align 8
  %59 = alloca [3 x i64]*, align 8
  %60 = alloca i32, align 4
  %61 = alloca %"class.std::__1::__compressed_pair"*, align 8
  %62 = alloca %"class.std::__1::basic_string"*, align 8
  %63 = alloca %"class.std::__1::basic_string"*, align 8
  %64 = alloca %"class.std::__1::basic_string"*, align 8
  %65 = alloca %"class.std::__1::basic_string"*, align 8
  %66 = alloca %"class.std::__1::basic_string"*, align 8
  %67 = alloca i8*, align 8
  %68 = alloca %"class.std::__1::basic_string"*, align 8
  %69 = alloca %"class.std::__1::basic_string", align 8
  %70 = alloca %"class.std::__1::basic_string", align 8
  %71 = alloca %"class.std::__1::basic_string", align 8
  %72 = alloca %"class.std::__1::basic_string", align 8
  %73 = alloca i8*
  %74 = alloca i32
  %75 = alloca %"class.std::__1::basic_string", align 8
  %76 = getelementptr inbounds %struct.Variant, %struct.Variant* %1, i32 0, i32 4
  %77 = getelementptr inbounds %struct.TypeSpecifier, %struct.TypeSpecifier* %76, i32 0, i32 0
  %78 = load i32, i32* %77, align 8
  switch i32 %78, label %243 [
    i32 0, label %79
    i32 1, label %120
    i32 2, label %161
    i32 3, label %202
  ]

; <label>:79:                                     ; preds = %3
  %80 = getelementptr inbounds %struct.Variant, %struct.Variant* %2, i32 0, i32 4
  %81 = getelementptr inbounds %struct.TypeSpecifier, %struct.TypeSpecifier* %80, i32 0, i32 0
  %82 = load i32, i32* %81, align 8
  switch i32 %82, label %118 [
    i32 0, label %83
    i32 1, label %91
    i32 2, label %100
    i32 3, label %109
  ]

; <label>:83:                                     ; preds = %79
  %84 = getelementptr inbounds %struct.Variant, %struct.Variant* %1, i32 0, i32 0
  %85 = bitcast %union.anon* %84 to i32*
  %86 = load i32, i32* %85, align 8
  %87 = getelementptr inbounds %struct.Variant, %struct.Variant* %2, i32 0, i32 0
  %88 = bitcast %union.anon* %87 to i32*
  %89 = load i32, i32* %88, align 8
  %90 = sdiv i32 %86, %89
  call void @_ZN7VariantC1Ei(%struct.Variant* %0, i32 %90)
  br label %453

; <label>:91:                                     ; preds = %79
  %92 = getelementptr inbounds %struct.Variant, %struct.Variant* %1, i32 0, i32 0
  %93 = bitcast %union.anon* %92 to i32*
  %94 = load i32, i32* %93, align 8
  %95 = sext i32 %94 to i64
  %96 = getelementptr inbounds %struct.Variant, %struct.Variant* %2, i32 0, i32 0
  %97 = bitcast %union.anon* %96 to i64*
  %98 = load i64, i64* %97, align 8
  %99 = sdiv i64 %95, %98
  call void @_ZN7VariantC1El(%struct.Variant* %0, i64 %99)
  br label %453

; <label>:100:                                    ; preds = %79
  %101 = getelementptr inbounds %struct.Variant, %struct.Variant* %1, i32 0, i32 0
  %102 = bitcast %union.anon* %101 to i32*
  %103 = load i32, i32* %102, align 8
  %104 = sitofp i32 %103 to float
  %105 = getelementptr inbounds %struct.Variant, %struct.Variant* %2, i32 0, i32 0
  %106 = bitcast %union.anon* %105 to float*
  %107 = load float, float* %106, align 8
  %108 = fdiv float %104, %107
  call void @_ZN7VariantC1Ef(%struct.Variant* %0, float %108)
  br label %453

; <label>:109:                                    ; preds = %79
  %110 = getelementptr inbounds %struct.Variant, %struct.Variant* %1, i32 0, i32 0
  %111 = bitcast %union.anon* %110 to i32*
  %112 = load i32, i32* %111, align 8
  %113 = sitofp i32 %112 to double
  %114 = getelementptr inbounds %struct.Variant, %struct.Variant* %2, i32 0, i32 0
  %115 = bitcast %union.anon* %114 to double*
  %116 = load double, double* %115, align 8
  %117 = fdiv double %113, %116
  call void @_ZN7VariantC1Ed(%struct.Variant* %0, double %117)
  br label %453

; <label>:118:                                    ; preds = %79
  br label %119

; <label>:119:                                    ; preds = %118
  br label %244

; <label>:120:                                    ; preds = %3
  %121 = getelementptr inbounds %struct.Variant, %struct.Variant* %2, i32 0, i32 4
  %122 = getelementptr inbounds %struct.TypeSpecifier, %struct.TypeSpecifier* %121, i32 0, i32 0
  %123 = load i32, i32* %122, align 8
  switch i32 %123, label %159 [
    i32 0, label %124
    i32 1, label %133
    i32 2, label %141
    i32 3, label %150
  ]

; <label>:124:                                    ; preds = %120
  %125 = getelementptr inbounds %struct.Variant, %struct.Variant* %1, i32 0, i32 0
  %126 = bitcast %union.anon* %125 to i64*
  %127 = load i64, i64* %126, align 8
  %128 = getelementptr inbounds %struct.Variant, %struct.Variant* %2, i32 0, i32 0
  %129 = bitcast %union.anon* %128 to i32*
  %130 = load i32, i32* %129, align 8
  %131 = sext i32 %130 to i64
  %132 = sdiv i64 %127, %131
  call void @_ZN7VariantC1El(%struct.Variant* %0, i64 %132)
  br label %453

; <label>:133:                                    ; preds = %120
  %134 = getelementptr inbounds %struct.Variant, %struct.Variant* %1, i32 0, i32 0
  %135 = bitcast %union.anon* %134 to i64*
  %136 = load i64, i64* %135, align 8
  %137 = getelementptr inbounds %struct.Variant, %struct.Variant* %2, i32 0, i32 0
  %138 = bitcast %union.anon* %137 to i64*
  %139 = load i64, i64* %138, align 8
  %140 = sdiv i64 %136, %139
  call void @_ZN7VariantC1El(%struct.Variant* %0, i64 %140)
  br label %453

; <label>:141:                                    ; preds = %120
  %142 = getelementptr inbounds %struct.Variant, %struct.Variant* %1, i32 0, i32 0
  %143 = bitcast %union.anon* %142 to i64*
  %144 = load i64, i64* %143, align 8
  %145 = sitofp i64 %144 to float
  %146 = getelementptr inbounds %struct.Variant, %struct.Variant* %2, i32 0, i32 0
  %147 = bitcast %union.anon* %146 to float*
  %148 = load float, float* %147, align 8
  %149 = fdiv float %145, %148
  call void @_ZN7VariantC1Ef(%struct.Variant* %0, float %149)
  br label %453

; <label>:150:                                    ; preds = %120
  %151 = getelementptr inbounds %struct.Variant, %struct.Variant* %1, i32 0, i32 0
  %152 = bitcast %union.anon* %151 to i64*
  %153 = load i64, i64* %152, align 8
  %154 = sitofp i64 %153 to double
  %155 = getelementptr inbounds %struct.Variant, %struct.Variant* %2, i32 0, i32 0
  %156 = bitcast %union.anon* %155 to double*
  %157 = load double, double* %156, align 8
  %158 = fdiv double %154, %157
  call void @_ZN7VariantC1Ed(%struct.Variant* %0, double %158)
  br label %453

; <label>:159:                                    ; preds = %120
  br label %160

; <label>:160:                                    ; preds = %159
  br label %244

; <label>:161:                                    ; preds = %3
  %162 = getelementptr inbounds %struct.Variant, %struct.Variant* %2, i32 0, i32 4
  %163 = getelementptr inbounds %struct.TypeSpecifier, %struct.TypeSpecifier* %162, i32 0, i32 0
  %164 = load i32, i32* %163, align 8
  switch i32 %164, label %200 [
    i32 0, label %165
    i32 1, label %174
    i32 2, label %183
    i32 3, label %191
  ]

; <label>:165:                                    ; preds = %161
  %166 = getelementptr inbounds %struct.Variant, %struct.Variant* %1, i32 0, i32 0
  %167 = bitcast %union.anon* %166 to float*
  %168 = load float, float* %167, align 8
  %169 = getelementptr inbounds %struct.Variant, %struct.Variant* %2, i32 0, i32 0
  %170 = bitcast %union.anon* %169 to i32*
  %171 = load i32, i32* %170, align 8
  %172 = sitofp i32 %171 to float
  %173 = fdiv float %168, %172
  call void @_ZN7VariantC1Ef(%struct.Variant* %0, float %173)
  br label %453

; <label>:174:                                    ; preds = %161
  %175 = getelementptr inbounds %struct.Variant, %struct.Variant* %1, i32 0, i32 0
  %176 = bitcast %union.anon* %175 to float*
  %177 = load float, float* %176, align 8
  %178 = getelementptr inbounds %struct.Variant, %struct.Variant* %2, i32 0, i32 0
  %179 = bitcast %union.anon* %178 to i64*
  %180 = load i64, i64* %179, align 8
  %181 = sitofp i64 %180 to float
  %182 = fdiv float %177, %181
  call void @_ZN7VariantC1Ef(%struct.Variant* %0, float %182)
  br label %453

; <label>:183:                                    ; preds = %161
  %184 = getelementptr inbounds %struct.Variant, %struct.Variant* %1, i32 0, i32 0
  %185 = bitcast %union.anon* %184 to float*
  %186 = load float, float* %185, align 8
  %187 = getelementptr inbounds %struct.Variant, %struct.Variant* %2, i32 0, i32 0
  %188 = bitcast %union.anon* %187 to float*
  %189 = load float, float* %188, align 8
  %190 = fdiv float %186, %189
  call void @_ZN7VariantC1Ef(%struct.Variant* %0, float %190)
  br label %453

; <label>:191:                                    ; preds = %161
  %192 = getelementptr inbounds %struct.Variant, %struct.Variant* %1, i32 0, i32 0
  %193 = bitcast %union.anon* %192 to float*
  %194 = load float, float* %193, align 8
  %195 = fpext float %194 to double
  %196 = getelementptr inbounds %struct.Variant, %struct.Variant* %2, i32 0, i32 0
  %197 = bitcast %union.anon* %196 to double*
  %198 = load double, double* %197, align 8
  %199 = fdiv double %195, %198
  call void @_ZN7VariantC1Ed(%struct.Variant* %0, double %199)
  br label %453

; <label>:200:                                    ; preds = %161
  br label %201

; <label>:201:                                    ; preds = %200
  br label %244

; <label>:202:                                    ; preds = %3
  %203 = getelementptr inbounds %struct.Variant, %struct.Variant* %2, i32 0, i32 4
  %204 = getelementptr inbounds %struct.TypeSpecifier, %struct.TypeSpecifier* %203, i32 0, i32 0
  %205 = load i32, i32* %204, align 8
  switch i32 %205, label %241 [
    i32 0, label %206
    i32 1, label %215
    i32 2, label %224
    i32 3, label %233
  ]

; <label>:206:                                    ; preds = %202
  %207 = getelementptr inbounds %struct.Variant, %struct.Variant* %1, i32 0, i32 0
  %208 = bitcast %union.anon* %207 to double*
  %209 = load double, double* %208, align 8
  %210 = getelementptr inbounds %struct.Variant, %struct.Variant* %2, i32 0, i32 0
  %211 = bitcast %union.anon* %210 to i32*
  %212 = load i32, i32* %211, align 8
  %213 = sitofp i32 %212 to double
  %214 = fdiv double %209, %213
  call void @_ZN7VariantC1Ed(%struct.Variant* %0, double %214)
  br label %453

; <label>:215:                                    ; preds = %202
  %216 = getelementptr inbounds %struct.Variant, %struct.Variant* %1, i32 0, i32 0
  %217 = bitcast %union.anon* %216 to double*
  %218 = load double, double* %217, align 8
  %219 = getelementptr inbounds %struct.Variant, %struct.Variant* %2, i32 0, i32 0
  %220 = bitcast %union.anon* %219 to i64*
  %221 = load i64, i64* %220, align 8
  %222 = sitofp i64 %221 to double
  %223 = fdiv double %218, %222
  call void @_ZN7VariantC1Ed(%struct.Variant* %0, double %223)
  br label %453

; <label>:224:                                    ; preds = %202
  %225 = getelementptr inbounds %struct.Variant, %struct.Variant* %1, i32 0, i32 0
  %226 = bitcast %union.anon* %225 to double*
  %227 = load double, double* %226, align 8
  %228 = getelementptr inbounds %struct.Variant, %struct.Variant* %2, i32 0, i32 0
  %229 = bitcast %union.anon* %228 to float*
  %230 = load float, float* %229, align 8
  %231 = fpext float %230 to double
  %232 = fdiv double %227, %231
  call void @_ZN7VariantC1Ed(%struct.Variant* %0, double %232)
  br label %453

; <label>:233:                                    ; preds = %202
  %234 = getelementptr inbounds %struct.Variant, %struct.Variant* %1, i32 0, i32 0
  %235 = bitcast %union.anon* %234 to double*
  %236 = load double, double* %235, align 8
  %237 = getelementptr inbounds %struct.Variant, %struct.Variant* %2, i32 0, i32 0
  %238 = bitcast %union.anon* %237 to double*
  %239 = load double, double* %238, align 8
  %240 = fdiv double %236, %239
  call void @_ZN7VariantC1Ed(%struct.Variant* %0, double %240)
  br label %453

; <label>:241:                                    ; preds = %202
  br label %242

; <label>:242:                                    ; preds = %241
  br label %244

; <label>:243:                                    ; preds = %3
  br label %244

; <label>:244:                                    ; preds = %243, %242, %201, %160, %119
  %245 = getelementptr inbounds %struct.Variant, %struct.Variant* %1, i32 0, i32 4
  %246 = getelementptr inbounds %struct.TypeSpecifier, %struct.TypeSpecifier* %245, i32 0, i32 0
  %247 = load i32, i32* %246, align 8
  call void @_ZN3val9typetostrE9ValueType(%"class.std::__1::basic_string"* sret %72, i32 %247)
  store i8* getelementptr inbounds ([27 x i8], [27 x i8]* @.str, i32 0, i32 0), i8** %67, align 8, !noalias !32
  store %"class.std::__1::basic_string"* %72, %"class.std::__1::basic_string"** %68, align 8, !noalias !32
  %248 = load %"class.std::__1::basic_string"*, %"class.std::__1::basic_string"** %68, align 8, !noalias !32
  %249 = load i8*, i8** %67, align 8, !noalias !32
  %250 = invoke dereferenceable(24) %"class.std::__1::basic_string"* @_ZNSt3__112basic_stringIcNS_11char_traitsIcEENS_9allocatorIcEEE6insertEmPKc(%"class.std::__1::basic_string"* %248, i64 0, i8* %249)
          to label %251 unwind label %454

; <label>:251:                                    ; preds = %244
  store %"class.std::__1::basic_string"* %250, %"class.std::__1::basic_string"** %66, align 8, !noalias !32
  %252 = load %"class.std::__1::basic_string"*, %"class.std::__1::basic_string"** %66, align 8, !noalias !32
  store %"class.std::__1::basic_string"* %71, %"class.std::__1::basic_string"** %64, align 8, !noalias !32
  store %"class.std::__1::basic_string"* %252, %"class.std::__1::basic_string"** %65, align 8, !noalias !32
  %253 = load %"class.std::__1::basic_string"*, %"class.std::__1::basic_string"** %64, align 8, !noalias !32
  %254 = load %"class.std::__1::basic_string"*, %"class.std::__1::basic_string"** %65, align 8, !noalias !32
  store %"class.std::__1::basic_string"* %253, %"class.std::__1::basic_string"** %62, align 8, !noalias !32
  store %"class.std::__1::basic_string"* %254, %"class.std::__1::basic_string"** %63, align 8, !noalias !32
  %255 = load %"class.std::__1::basic_string"*, %"class.std::__1::basic_string"** %62, align 8, !noalias !32
  %256 = bitcast %"class.std::__1::basic_string"* %255 to %"class.std::__1::__basic_string_common"*
  %257 = getelementptr inbounds %"class.std::__1::basic_string", %"class.std::__1::basic_string"* %255, i32 0, i32 0
  %258 = load %"class.std::__1::basic_string"*, %"class.std::__1::basic_string"** %63, align 8, !noalias !32
  %259 = getelementptr inbounds %"class.std::__1::basic_string", %"class.std::__1::basic_string"* %258, i32 0, i32 0
  store %"class.std::__1::__compressed_pair"* %259, %"class.std::__1::__compressed_pair"** %61, align 8, !noalias !32
  %260 = load %"class.std::__1::__compressed_pair"*, %"class.std::__1::__compressed_pair"** %61, align 8, !noalias !32
  %261 = bitcast %"class.std::__1::__compressed_pair"* %257 to i8*
  %262 = bitcast %"class.std::__1::__compressed_pair"* %260 to i8*
  call void @llvm.memcpy.p0i8.p0i8.i64(i8* %261, i8* %262, i64 24, i32 8, i1 false) #10
  %263 = load %"class.std::__1::basic_string"*, %"class.std::__1::basic_string"** %63, align 8, !noalias !32
  store %"class.std::__1::basic_string"* %263, %"class.std::__1::basic_string"** %58, align 8, !noalias !32
  %264 = load %"class.std::__1::basic_string"*, %"class.std::__1::basic_string"** %58, align 8, !noalias !32
  %265 = getelementptr inbounds %"class.std::__1::basic_string", %"class.std::__1::basic_string"* %264, i32 0, i32 0
  store %"class.std::__1::__compressed_pair"* %265, %"class.std::__1::__compressed_pair"** %57, align 8, !noalias !32
  %266 = load %"class.std::__1::__compressed_pair"*, %"class.std::__1::__compressed_pair"** %57, align 8, !noalias !32
  %267 = bitcast %"class.std::__1::__compressed_pair"* %266 to %"class.std::__1::__libcpp_compressed_pair_imp"*
  store %"class.std::__1::__libcpp_compressed_pair_imp"* %267, %"class.std::__1::__libcpp_compressed_pair_imp"** %56, align 8, !noalias !32
  %268 = load %"class.std::__1::__libcpp_compressed_pair_imp"*, %"class.std::__1::__libcpp_compressed_pair_imp"** %56, align 8, !noalias !32
  %269 = getelementptr inbounds %"class.std::__1::__libcpp_compressed_pair_imp", %"class.std::__1::__libcpp_compressed_pair_imp"* %268, i32 0, i32 0
  %270 = getelementptr inbounds %"struct.std::__1::basic_string<char, std::__1::char_traits<char>, std::__1::allocator<char> >::__rep", %"struct.std::__1::basic_string<char, std::__1::char_traits<char>, std::__1::allocator<char> >::__rep"* %269, i32 0, i32 0
  %271 = bitcast %union.anon.0* %270 to %"struct.std::__1::basic_string<char, std::__1::char_traits<char>, std::__1::allocator<char> >::__raw"*
  %272 = getelementptr inbounds %"struct.std::__1::basic_string<char, std::__1::char_traits<char>, std::__1::allocator<char> >::__raw", %"struct.std::__1::basic_string<char, std::__1::char_traits<char>, std::__1::allocator<char> >::__raw"* %271, i32 0, i32 0
  store [3 x i64]* %272, [3 x i64]** %59, align 8, !noalias !32
  store i32 0, i32* %60, align 4, !noalias !32
  br label %273

; <label>:273:                                    ; preds = %276, %251
  %274 = load i32, i32* %60, align 4, !noalias !32
  %275 = icmp ult i32 %274, 3
  br i1 %275, label %276, label %283

; <label>:276:                                    ; preds = %273
  %277 = load i32, i32* %60, align 4, !noalias !32
  %278 = zext i32 %277 to i64
  %279 = load [3 x i64]*, [3 x i64]** %59, align 8, !noalias !32
  %280 = getelementptr inbounds [3 x i64], [3 x i64]* %279, i64 0, i64 %278
  store i64 0, i64* %280, align 8
  %281 = load i32, i32* %60, align 4, !noalias !32
  %282 = add i32 %281, 1
  store i32 %282, i32* %60, align 4, !noalias !32
  br label %273

; <label>:283:                                    ; preds = %273
  br label %284

; <label>:284:                                    ; preds = %283
  store %"class.std::__1::basic_string"* %71, %"class.std::__1::basic_string"** %54, align 8, !noalias !35
  store i8* getelementptr inbounds ([6 x i8], [6 x i8]* @.str.1, i32 0, i32 0), i8** %55, align 8, !noalias !35
  %285 = load %"class.std::__1::basic_string"*, %"class.std::__1::basic_string"** %54, align 8, !noalias !35
  %286 = load i8*, i8** %55, align 8, !noalias !35
  %287 = invoke dereferenceable(24) %"class.std::__1::basic_string"* @_ZNSt3__112basic_stringIcNS_11char_traitsIcEENS_9allocatorIcEEE6appendEPKc(%"class.std::__1::basic_string"* %285, i8* %286)
          to label %288 unwind label %458

; <label>:288:                                    ; preds = %284
  store %"class.std::__1::basic_string"* %287, %"class.std::__1::basic_string"** %53, align 8, !noalias !35
  %289 = load %"class.std::__1::basic_string"*, %"class.std::__1::basic_string"** %53, align 8, !noalias !35
  store %"class.std::__1::basic_string"* %70, %"class.std::__1::basic_string"** %51, align 8, !noalias !35
  store %"class.std::__1::basic_string"* %289, %"class.std::__1::basic_string"** %52, align 8, !noalias !35
  %290 = load %"class.std::__1::basic_string"*, %"class.std::__1::basic_string"** %51, align 8, !noalias !35
  %291 = load %"class.std::__1::basic_string"*, %"class.std::__1::basic_string"** %52, align 8, !noalias !35
  store %"class.std::__1::basic_string"* %290, %"class.std::__1::basic_string"** %49, align 8, !noalias !35
  store %"class.std::__1::basic_string"* %291, %"class.std::__1::basic_string"** %50, align 8, !noalias !35
  %292 = load %"class.std::__1::basic_string"*, %"class.std::__1::basic_string"** %49, align 8, !noalias !35
  %293 = bitcast %"class.std::__1::basic_string"* %292 to %"class.std::__1::__basic_string_common"*
  %294 = getelementptr inbounds %"class.std::__1::basic_string", %"class.std::__1::basic_string"* %292, i32 0, i32 0
  %295 = load %"class.std::__1::basic_string"*, %"class.std::__1::basic_string"** %50, align 8, !noalias !35
  %296 = getelementptr inbounds %"class.std::__1::basic_string", %"class.std::__1::basic_string"* %295, i32 0, i32 0
  store %"class.std::__1::__compressed_pair"* %296, %"class.std::__1::__compressed_pair"** %48, align 8, !noalias !35
  %297 = load %"class.std::__1::__compressed_pair"*, %"class.std::__1::__compressed_pair"** %48, align 8, !noalias !35
  %298 = bitcast %"class.std::__1::__compressed_pair"* %294 to i8*
  %299 = bitcast %"class.std::__1::__compressed_pair"* %297 to i8*
  call void @llvm.memcpy.p0i8.p0i8.i64(i8* %298, i8* %299, i64 24, i32 8, i1 false) #10
  %300 = load %"class.std::__1::basic_string"*, %"class.std::__1::basic_string"** %50, align 8, !noalias !35
  store %"class.std::__1::basic_string"* %300, %"class.std::__1::basic_string"** %45, align 8, !noalias !35
  %301 = load %"class.std::__1::basic_string"*, %"class.std::__1::basic_string"** %45, align 8, !noalias !35
  %302 = getelementptr inbounds %"class.std::__1::basic_string", %"class.std::__1::basic_string"* %301, i32 0, i32 0
  store %"class.std::__1::__compressed_pair"* %302, %"class.std::__1::__compressed_pair"** %44, align 8, !noalias !35
  %303 = load %"class.std::__1::__compressed_pair"*, %"class.std::__1::__compressed_pair"** %44, align 8, !noalias !35
  %304 = bitcast %"class.std::__1::__compressed_pair"* %303 to %"class.std::__1::__libcpp_compressed_pair_imp"*
  store %"class.std::__1::__libcpp_compressed_pair_imp"* %304, %"class.std::__1::__libcpp_compressed_pair_imp"** %43, align 8, !noalias !35
  %305 = load %"class.std::__1::__libcpp_compressed_pair_imp"*, %"class.std::__1::__libcpp_compressed_pair_imp"** %43, align 8, !noalias !35
  %306 = getelementptr inbounds %"class.std::__1::__libcpp_compressed_pair_imp", %"class.std::__1::__libcpp_compressed_pair_imp"* %305, i32 0, i32 0
  %307 = getelementptr inbounds %"struct.std::__1::basic_string<char, std::__1::char_traits<char>, std::__1::allocator<char> >::__rep", %"struct.std::__1::basic_string<char, std::__1::char_traits<char>, std::__1::allocator<char> >::__rep"* %306, i32 0, i32 0
  %308 = bitcast %union.anon.0* %307 to %"struct.std::__1::basic_string<char, std::__1::char_traits<char>, std::__1::allocator<char> >::__raw"*
  %309 = getelementptr inbounds %"struct.std::__1::basic_string<char, std::__1::char_traits<char>, std::__1::allocator<char> >::__raw", %"struct.std::__1::basic_string<char, std::__1::char_traits<char>, std::__1::allocator<char> >::__raw"* %308, i32 0, i32 0
  store [3 x i64]* %309, [3 x i64]** %46, align 8, !noalias !35
  store i32 0, i32* %47, align 4, !noalias !35
  br label %310

; <label>:310:                                    ; preds = %313, %288
  %311 = load i32, i32* %47, align 4, !noalias !35
  %312 = icmp ult i32 %311, 3
  br i1 %312, label %313, label %320

; <label>:313:                                    ; preds = %310
  %314 = load i32, i32* %47, align 4, !noalias !35
  %315 = zext i32 %314 to i64
  %316 = load [3 x i64]*, [3 x i64]** %46, align 8, !noalias !35
  %317 = getelementptr inbounds [3 x i64], [3 x i64]* %316, i64 0, i64 %315
  store i64 0, i64* %317, align 8
  %318 = load i32, i32* %47, align 4, !noalias !35
  %319 = add i32 %318, 1
  store i32 %319, i32* %47, align 4, !noalias !35
  br label %310

; <label>:320:                                    ; preds = %310
  br label %321

; <label>:321:                                    ; preds = %320
  %322 = getelementptr inbounds %struct.Variant, %struct.Variant* %2, i32 0, i32 4
  %323 = getelementptr inbounds %struct.TypeSpecifier, %struct.TypeSpecifier* %322, i32 0, i32 0
  %324 = load i32, i32* %323, align 8
  invoke void @_ZN3val9typetostrE9ValueType(%"class.std::__1::basic_string"* sret %75, i32 %324)
          to label %325 unwind label %462

; <label>:325:                                    ; preds = %321
  store %"class.std::__1::basic_string"* %70, %"class.std::__1::basic_string"** %41, align 8, !noalias !38
  store %"class.std::__1::basic_string"* %75, %"class.std::__1::basic_string"** %42, align 8, !noalias !38
  %326 = load %"class.std::__1::basic_string"*, %"class.std::__1::basic_string"** %41, align 8, !noalias !38
  %327 = load %"class.std::__1::basic_string"*, %"class.std::__1::basic_string"** %42, align 8, !noalias !38
  store %"class.std::__1::basic_string"* %326, %"class.std::__1::basic_string"** %39, align 8, !noalias !38
  store %"class.std::__1::basic_string"* %327, %"class.std::__1::basic_string"** %40, align 8, !noalias !38
  %328 = load %"class.std::__1::basic_string"*, %"class.std::__1::basic_string"** %39, align 8, !noalias !38
  %329 = load %"class.std::__1::basic_string"*, %"class.std::__1::basic_string"** %40, align 8, !noalias !38
  store %"class.std::__1::basic_string"* %329, %"class.std::__1::basic_string"** %38, align 8, !noalias !38
  %330 = load %"class.std::__1::basic_string"*, %"class.std::__1::basic_string"** %38, align 8, !noalias !38
  store %"class.std::__1::basic_string"* %330, %"class.std::__1::basic_string"** %37, align 8, !noalias !38
  %331 = load %"class.std::__1::basic_string"*, %"class.std::__1::basic_string"** %37, align 8, !noalias !38
  store %"class.std::__1::basic_string"* %331, %"class.std::__1::basic_string"** %36, align 8, !noalias !38
  %332 = load %"class.std::__1::basic_string"*, %"class.std::__1::basic_string"** %36, align 8, !noalias !38
  %333 = getelementptr inbounds %"class.std::__1::basic_string", %"class.std::__1::basic_string"* %332, i32 0, i32 0
  store %"class.std::__1::__compressed_pair"* %333, %"class.std::__1::__compressed_pair"** %35, align 8, !noalias !38
  %334 = load %"class.std::__1::__compressed_pair"*, %"class.std::__1::__compressed_pair"** %35, align 8, !noalias !38
  %335 = bitcast %"class.std::__1::__compressed_pair"* %334 to %"class.std::__1::__libcpp_compressed_pair_imp"*
  store %"class.std::__1::__libcpp_compressed_pair_imp"* %335, %"class.std::__1::__libcpp_compressed_pair_imp"** %34, align 8, !noalias !38
  %336 = load %"class.std::__1::__libcpp_compressed_pair_imp"*, %"class.std::__1::__libcpp_compressed_pair_imp"** %34, align 8, !noalias !38
  %337 = getelementptr inbounds %"class.std::__1::__libcpp_compressed_pair_imp", %"class.std::__1::__libcpp_compressed_pair_imp"* %336, i32 0, i32 0
  %338 = getelementptr inbounds %"struct.std::__1::basic_string<char, std::__1::char_traits<char>, std::__1::allocator<char> >::__rep", %"struct.std::__1::basic_string<char, std::__1::char_traits<char>, std::__1::allocator<char> >::__rep"* %337, i32 0, i32 0
  %339 = bitcast %union.anon.0* %338 to %"struct.std::__1::basic_string<char, std::__1::char_traits<char>, std::__1::allocator<char> >::__short"*
  %340 = getelementptr inbounds %"struct.std::__1::basic_string<char, std::__1::char_traits<char>, std::__1::allocator<char> >::__short", %"struct.std::__1::basic_string<char, std::__1::char_traits<char>, std::__1::allocator<char> >::__short"* %339, i32 0, i32 0
  %341 = bitcast %union.anon.1* %340 to i8*
  %342 = load i8, i8* %341, align 8, !noalias !38
  %343 = zext i8 %342 to i32
  %344 = and i32 %343, 1
  %345 = icmp ne i32 %344, 0
  br i1 %345, label %346, label %357

; <label>:346:                                    ; preds = %325
  store %"class.std::__1::basic_string"* %331, %"class.std::__1::basic_string"** %28, align 8, !noalias !38
  %347 = load %"class.std::__1::basic_string"*, %"class.std::__1::basic_string"** %28, align 8, !noalias !38
  %348 = getelementptr inbounds %"class.std::__1::basic_string", %"class.std::__1::basic_string"* %347, i32 0, i32 0
  store %"class.std::__1::__compressed_pair"* %348, %"class.std::__1::__compressed_pair"** %27, align 8, !noalias !38
  %349 = load %"class.std::__1::__compressed_pair"*, %"class.std::__1::__compressed_pair"** %27, align 8, !noalias !38
  %350 = bitcast %"class.std::__1::__compressed_pair"* %349 to %"class.std::__1::__libcpp_compressed_pair_imp"*
  store %"class.std::__1::__libcpp_compressed_pair_imp"* %350, %"class.std::__1::__libcpp_compressed_pair_imp"** %26, align 8, !noalias !38
  %351 = load %"class.std::__1::__libcpp_compressed_pair_imp"*, %"class.std::__1::__libcpp_compressed_pair_imp"** %26, align 8, !noalias !38
  %352 = getelementptr inbounds %"class.std::__1::__libcpp_compressed_pair_imp", %"class.std::__1::__libcpp_compressed_pair_imp"* %351, i32 0, i32 0
  %353 = getelementptr inbounds %"struct.std::__1::basic_string<char, std::__1::char_traits<char>, std::__1::allocator<char> >::__rep", %"struct.std::__1::basic_string<char, std::__1::char_traits<char>, std::__1::allocator<char> >::__rep"* %352, i32 0, i32 0
  %354 = bitcast %union.anon.0* %353 to %"struct.std::__1::basic_string<char, std::__1::char_traits<char>, std::__1::allocator<char> >::__long"*
  %355 = getelementptr inbounds %"struct.std::__1::basic_string<char, std::__1::char_traits<char>, std::__1::allocator<char> >::__long", %"struct.std::__1::basic_string<char, std::__1::char_traits<char>, std::__1::allocator<char> >::__long"* %354, i32 0, i32 2
  %356 = load i8*, i8** %355, align 8
  br label %370

; <label>:357:                                    ; preds = %325
  store %"class.std::__1::basic_string"* %331, %"class.std::__1::basic_string"** %33, align 8, !noalias !38
  %358 = load %"class.std::__1::basic_string"*, %"class.std::__1::basic_string"** %33, align 8, !noalias !38
  %359 = getelementptr inbounds %"class.std::__1::basic_string", %"class.std::__1::basic_string"* %358, i32 0, i32 0
  store %"class.std::__1::__compressed_pair"* %359, %"class.std::__1::__compressed_pair"** %32, align 8, !noalias !38
  %360 = load %"class.std::__1::__compressed_pair"*, %"class.std::__1::__compressed_pair"** %32, align 8, !noalias !38
  %361 = bitcast %"class.std::__1::__compressed_pair"* %360 to %"class.std::__1::__libcpp_compressed_pair_imp"*
  store %"class.std::__1::__libcpp_compressed_pair_imp"* %361, %"class.std::__1::__libcpp_compressed_pair_imp"** %31, align 8, !noalias !38
  %362 = load %"class.std::__1::__libcpp_compressed_pair_imp"*, %"class.std::__1::__libcpp_compressed_pair_imp"** %31, align 8, !noalias !38
  %363 = getelementptr inbounds %"class.std::__1::__libcpp_compressed_pair_imp", %"class.std::__1::__libcpp_compressed_pair_imp"* %362, i32 0, i32 0
  %364 = getelementptr inbounds %"struct.std::__1::basic_string<char, std::__1::char_traits<char>, std::__1::allocator<char> >::__rep", %"struct.std::__1::basic_string<char, std::__1::char_traits<char>, std::__1::allocator<char> >::__rep"* %363, i32 0, i32 0
  %365 = bitcast %union.anon.0* %364 to %"struct.std::__1::basic_string<char, std::__1::char_traits<char>, std::__1::allocator<char> >::__short"*
  %366 = getelementptr inbounds %"struct.std::__1::basic_string<char, std::__1::char_traits<char>, std::__1::allocator<char> >::__short", %"struct.std::__1::basic_string<char, std::__1::char_traits<char>, std::__1::allocator<char> >::__short"* %365, i32 0, i32 1
  %367 = getelementptr inbounds [23 x i8], [23 x i8]* %366, i64 0, i64 0
  store i8* %367, i8** %30, align 8, !noalias !38
  %368 = load i8*, i8** %30, align 8, !noalias !38
  store i8* %368, i8** %29, align 8, !noalias !38
  %369 = load i8*, i8** %29, align 8, !noalias !38
  br label %370

; <label>:370:                                    ; preds = %357, %346
  %371 = phi i8* [ %356, %346 ], [ %369, %357 ]
  store i8* %371, i8** %25, align 8, !noalias !38
  %372 = load i8*, i8** %25, align 8, !noalias !38
  %373 = load %"class.std::__1::basic_string"*, %"class.std::__1::basic_string"** %40, align 8, !noalias !38
  store %"class.std::__1::basic_string"* %373, %"class.std::__1::basic_string"** %24, align 8, !noalias !38
  %374 = load %"class.std::__1::basic_string"*, %"class.std::__1::basic_string"** %24, align 8, !noalias !38
  store %"class.std::__1::basic_string"* %374, %"class.std::__1::basic_string"** %23, align 8, !noalias !38
  %375 = load %"class.std::__1::basic_string"*, %"class.std::__1::basic_string"** %23, align 8, !noalias !38
  %376 = getelementptr inbounds %"class.std::__1::basic_string", %"class.std::__1::basic_string"* %375, i32 0, i32 0
  store %"class.std::__1::__compressed_pair"* %376, %"class.std::__1::__compressed_pair"** %22, align 8, !noalias !38
  %377 = load %"class.std::__1::__compressed_pair"*, %"class.std::__1::__compressed_pair"** %22, align 8, !noalias !38
  %378 = bitcast %"class.std::__1::__compressed_pair"* %377 to %"class.std::__1::__libcpp_compressed_pair_imp"*
  store %"class.std::__1::__libcpp_compressed_pair_imp"* %378, %"class.std::__1::__libcpp_compressed_pair_imp"** %21, align 8, !noalias !38
  %379 = load %"class.std::__1::__libcpp_compressed_pair_imp"*, %"class.std::__1::__libcpp_compressed_pair_imp"** %21, align 8, !noalias !38
  %380 = getelementptr inbounds %"class.std::__1::__libcpp_compressed_pair_imp", %"class.std::__1::__libcpp_compressed_pair_imp"* %379, i32 0, i32 0
  %381 = getelementptr inbounds %"struct.std::__1::basic_string<char, std::__1::char_traits<char>, std::__1::allocator<char> >::__rep", %"struct.std::__1::basic_string<char, std::__1::char_traits<char>, std::__1::allocator<char> >::__rep"* %380, i32 0, i32 0
  %382 = bitcast %union.anon.0* %381 to %"struct.std::__1::basic_string<char, std::__1::char_traits<char>, std::__1::allocator<char> >::__short"*
  %383 = getelementptr inbounds %"struct.std::__1::basic_string<char, std::__1::char_traits<char>, std::__1::allocator<char> >::__short", %"struct.std::__1::basic_string<char, std::__1::char_traits<char>, std::__1::allocator<char> >::__short"* %382, i32 0, i32 0
  %384 = bitcast %union.anon.1* %383 to i8*
  %385 = load i8, i8* %384, align 8, !noalias !38
  %386 = zext i8 %385 to i32
  %387 = and i32 %386, 1
  %388 = icmp ne i32 %387, 0
  br i1 %388, label %389, label %400

; <label>:389:                                    ; preds = %370
  store %"class.std::__1::basic_string"* %374, %"class.std::__1::basic_string"** %17, align 8, !noalias !38
  %390 = load %"class.std::__1::basic_string"*, %"class.std::__1::basic_string"** %17, align 8, !noalias !38
  %391 = getelementptr inbounds %"class.std::__1::basic_string", %"class.std::__1::basic_string"* %390, i32 0, i32 0
  store %"class.std::__1::__compressed_pair"* %391, %"class.std::__1::__compressed_pair"** %16, align 8, !noalias !38
  %392 = load %"class.std::__1::__compressed_pair"*, %"class.std::__1::__compressed_pair"** %16, align 8, !noalias !38
  %393 = bitcast %"class.std::__1::__compressed_pair"* %392 to %"class.std::__1::__libcpp_compressed_pair_imp"*
  store %"class.std::__1::__libcpp_compressed_pair_imp"* %393, %"class.std::__1::__libcpp_compressed_pair_imp"** %15, align 8, !noalias !38
  %394 = load %"class.std::__1::__libcpp_compressed_pair_imp"*, %"class.std::__1::__libcpp_compressed_pair_imp"** %15, align 8, !noalias !38
  %395 = getelementptr inbounds %"class.std::__1::__libcpp_compressed_pair_imp", %"class.std::__1::__libcpp_compressed_pair_imp"* %394, i32 0, i32 0
  %396 = getelementptr inbounds %"struct.std::__1::basic_string<char, std::__1::char_traits<char>, std::__1::allocator<char> >::__rep", %"struct.std::__1::basic_string<char, std::__1::char_traits<char>, std::__1::allocator<char> >::__rep"* %395, i32 0, i32 0
  %397 = bitcast %union.anon.0* %396 to %"struct.std::__1::basic_string<char, std::__1::char_traits<char>, std::__1::allocator<char> >::__long"*
  %398 = getelementptr inbounds %"struct.std::__1::basic_string<char, std::__1::char_traits<char>, std::__1::allocator<char> >::__long", %"struct.std::__1::basic_string<char, std::__1::char_traits<char>, std::__1::allocator<char> >::__long"* %397, i32 0, i32 1
  %399 = load i64, i64* %398, align 8
  br label %415

; <label>:400:                                    ; preds = %370
  store %"class.std::__1::basic_string"* %374, %"class.std::__1::basic_string"** %20, align 8, !noalias !38
  %401 = load %"class.std::__1::basic_string"*, %"class.std::__1::basic_string"** %20, align 8, !noalias !38
  %402 = getelementptr inbounds %"class.std::__1::basic_string", %"class.std::__1::basic_string"* %401, i32 0, i32 0
  store %"class.std::__1::__compressed_pair"* %402, %"class.std::__1::__compressed_pair"** %19, align 8, !noalias !38
  %403 = load %"class.std::__1::__compressed_pair"*, %"class.std::__1::__compressed_pair"** %19, align 8, !noalias !38
  %404 = bitcast %"class.std::__1::__compressed_pair"* %403 to %"class.std::__1::__libcpp_compressed_pair_imp"*
  store %"class.std::__1::__libcpp_compressed_pair_imp"* %404, %"class.std::__1::__libcpp_compressed_pair_imp"** %18, align 8, !noalias !38
  %405 = load %"class.std::__1::__libcpp_compressed_pair_imp"*, %"class.std::__1::__libcpp_compressed_pair_imp"** %18, align 8, !noalias !38
  %406 = getelementptr inbounds %"class.std::__1::__libcpp_compressed_pair_imp", %"class.std::__1::__libcpp_compressed_pair_imp"* %405, i32 0, i32 0
  %407 = getelementptr inbounds %"struct.std::__1::basic_string<char, std::__1::char_traits<char>, std::__1::allocator<char> >::__rep", %"struct.std::__1::basic_string<char, std::__1::char_traits<char>, std::__1::allocator<char> >::__rep"* %406, i32 0, i32 0
  %408 = bitcast %union.anon.0* %407 to %"struct.std::__1::basic_string<char, std::__1::char_traits<char>, std::__1::allocator<char> >::__short"*
  %409 = getelementptr inbounds %"struct.std::__1::basic_string<char, std::__1::char_traits<char>, std::__1::allocator<char> >::__short", %"struct.std::__1::basic_string<char, std::__1::char_traits<char>, std::__1::allocator<char> >::__short"* %408, i32 0, i32 0
  %410 = bitcast %union.anon.1* %409 to i8*
  %411 = load i8, i8* %410, align 8
  %412 = zext i8 %411 to i32
  %413 = ashr i32 %412, 1
  %414 = sext i32 %413 to i64
  br label %415

; <label>:415:                                    ; preds = %400, %389
  %416 = phi i64 [ %399, %389 ], [ %414, %400 ]
  %417 = invoke dereferenceable(24) %"class.std::__1::basic_string"* @_ZNSt3__112basic_stringIcNS_11char_traitsIcEENS_9allocatorIcEEE6appendEPKcm(%"class.std::__1::basic_string"* %328, i8* %372, i64 %416)
          to label %418 unwind label %466

; <label>:418:                                    ; preds = %415
  store %"class.std::__1::basic_string"* %417, %"class.std::__1::basic_string"** %14, align 8, !noalias !38
  %419 = load %"class.std::__1::basic_string"*, %"class.std::__1::basic_string"** %14, align 8, !noalias !38
  store %"class.std::__1::basic_string"* %69, %"class.std::__1::basic_string"** %12, align 8, !noalias !38
  store %"class.std::__1::basic_string"* %419, %"class.std::__1::basic_string"** %13, align 8, !noalias !38
  %420 = load %"class.std::__1::basic_string"*, %"class.std::__1::basic_string"** %12, align 8, !noalias !38
  %421 = load %"class.std::__1::basic_string"*, %"class.std::__1::basic_string"** %13, align 8, !noalias !38
  store %"class.std::__1::basic_string"* %420, %"class.std::__1::basic_string"** %10, align 8, !noalias !38
  store %"class.std::__1::basic_string"* %421, %"class.std::__1::basic_string"** %11, align 8, !noalias !38
  %422 = load %"class.std::__1::basic_string"*, %"class.std::__1::basic_string"** %10, align 8, !noalias !38
  %423 = bitcast %"class.std::__1::basic_string"* %422 to %"class.std::__1::__basic_string_common"*
  %424 = getelementptr inbounds %"class.std::__1::basic_string", %"class.std::__1::basic_string"* %422, i32 0, i32 0
  %425 = load %"class.std::__1::basic_string"*, %"class.std::__1::basic_string"** %11, align 8, !noalias !38
  %426 = getelementptr inbounds %"class.std::__1::basic_string", %"class.std::__1::basic_string"* %425, i32 0, i32 0
  store %"class.std::__1::__compressed_pair"* %426, %"class.std::__1::__compressed_pair"** %9, align 8, !noalias !38
  %427 = load %"class.std::__1::__compressed_pair"*, %"class.std::__1::__compressed_pair"** %9, align 8, !noalias !38
  %428 = bitcast %"class.std::__1::__compressed_pair"* %424 to i8*
  %429 = bitcast %"class.std::__1::__compressed_pair"* %427 to i8*
  call void @llvm.memcpy.p0i8.p0i8.i64(i8* %428, i8* %429, i64 24, i32 8, i1 false) #10
  %430 = load %"class.std::__1::basic_string"*, %"class.std::__1::basic_string"** %11, align 8, !noalias !38
  store %"class.std::__1::basic_string"* %430, %"class.std::__1::basic_string"** %6, align 8, !noalias !38
  %431 = load %"class.std::__1::basic_string"*, %"class.std::__1::basic_string"** %6, align 8, !noalias !38
  %432 = getelementptr inbounds %"class.std::__1::basic_string", %"class.std::__1::basic_string"* %431, i32 0, i32 0
  store %"class.std::__1::__compressed_pair"* %432, %"class.std::__1::__compressed_pair"** %5, align 8, !noalias !38
  %433 = load %"class.std::__1::__compressed_pair"*, %"class.std::__1::__compressed_pair"** %5, align 8, !noalias !38
  %434 = bitcast %"class.std::__1::__compressed_pair"* %433 to %"class.std::__1::__libcpp_compressed_pair_imp"*
  store %"class.std::__1::__libcpp_compressed_pair_imp"* %434, %"class.std::__1::__libcpp_compressed_pair_imp"** %4, align 8, !noalias !38
  %435 = load %"class.std::__1::__libcpp_compressed_pair_imp"*, %"class.std::__1::__libcpp_compressed_pair_imp"** %4, align 8, !noalias !38
  %436 = getelementptr inbounds %"class.std::__1::__libcpp_compressed_pair_imp", %"class.std::__1::__libcpp_compressed_pair_imp"* %435, i32 0, i32 0
  %437 = getelementptr inbounds %"struct.std::__1::basic_string<char, std::__1::char_traits<char>, std::__1::allocator<char> >::__rep", %"struct.std::__1::basic_string<char, std::__1::char_traits<char>, std::__1::allocator<char> >::__rep"* %436, i32 0, i32 0
  %438 = bitcast %union.anon.0* %437 to %"struct.std::__1::basic_string<char, std::__1::char_traits<char>, std::__1::allocator<char> >::__raw"*
  %439 = getelementptr inbounds %"struct.std::__1::basic_string<char, std::__1::char_traits<char>, std::__1::allocator<char> >::__raw", %"struct.std::__1::basic_string<char, std::__1::char_traits<char>, std::__1::allocator<char> >::__raw"* %438, i32 0, i32 0
  store [3 x i64]* %439, [3 x i64]** %7, align 8, !noalias !38
  store i32 0, i32* %8, align 4, !noalias !38
  br label %440

; <label>:440:                                    ; preds = %443, %418
  %441 = load i32, i32* %8, align 4, !noalias !38
  %442 = icmp ult i32 %441, 3
  br i1 %442, label %443, label %450

; <label>:443:                                    ; preds = %440
  %444 = load i32, i32* %8, align 4, !noalias !38
  %445 = zext i32 %444 to i64
  %446 = load [3 x i64]*, [3 x i64]** %7, align 8, !noalias !38
  %447 = getelementptr inbounds [3 x i64], [3 x i64]* %446, i64 0, i64 %445
  store i64 0, i64* %447, align 8
  %448 = load i32, i32* %8, align 4, !noalias !38
  %449 = add i32 %448, 1
  store i32 %449, i32* %8, align 4, !noalias !38
  br label %440

; <label>:450:                                    ; preds = %440
  br label %451

; <label>:451:                                    ; preds = %450
  invoke void @_ZN12RuntimeError5raiseE13RuntimeErrorsNSt3__112basic_stringIcNS1_11char_traitsIcEENS1_9allocatorIcEEEEP7AstNode(i32 2, %"class.std::__1::basic_string"* %69, %class.AstNode* null)
          to label %452 unwind label %470

; <label>:452:                                    ; preds = %451
  call void @_ZNSt3__112basic_stringIcNS_11char_traitsIcEENS_9allocatorIcEEED1Ev(%"class.std::__1::basic_string"* %69) #10
  call void @_ZNSt3__112basic_stringIcNS_11char_traitsIcEENS_9allocatorIcEEED1Ev(%"class.std::__1::basic_string"* %75) #10
  call void @_ZNSt3__112basic_stringIcNS_11char_traitsIcEENS_9allocatorIcEEED1Ev(%"class.std::__1::basic_string"* %70) #10
  call void @_ZNSt3__112basic_stringIcNS_11char_traitsIcEENS_9allocatorIcEEED1Ev(%"class.std::__1::basic_string"* %71) #10
  call void @_ZNSt3__112basic_stringIcNS_11char_traitsIcEENS_9allocatorIcEEED1Ev(%"class.std::__1::basic_string"* %72) #10
  br label %453

; <label>:453:                                    ; preds = %452, %233, %224, %215, %206, %191, %183, %174, %165, %150, %141, %133, %124, %109, %100, %91, %83
  ret void

; <label>:454:                                    ; preds = %244
  %455 = landingpad { i8*, i32 }
          cleanup
  %456 = extractvalue { i8*, i32 } %455, 0
  store i8* %456, i8** %73, align 8
  %457 = extractvalue { i8*, i32 } %455, 1
  store i32 %457, i32* %74, align 4
  br label %477

; <label>:458:                                    ; preds = %284
  %459 = landingpad { i8*, i32 }
          cleanup
  %460 = extractvalue { i8*, i32 } %459, 0
  store i8* %460, i8** %73, align 8
  %461 = extractvalue { i8*, i32 } %459, 1
  store i32 %461, i32* %74, align 4
  br label %476

; <label>:462:                                    ; preds = %321
  %463 = landingpad { i8*, i32 }
          cleanup
  %464 = extractvalue { i8*, i32 } %463, 0
  store i8* %464, i8** %73, align 8
  %465 = extractvalue { i8*, i32 } %463, 1
  store i32 %465, i32* %74, align 4
  br label %475

; <label>:466:                                    ; preds = %415
  %467 = landingpad { i8*, i32 }
          cleanup
  %468 = extractvalue { i8*, i32 } %467, 0
  store i8* %468, i8** %73, align 8
  %469 = extractvalue { i8*, i32 } %467, 1
  store i32 %469, i32* %74, align 4
  br label %474

; <label>:470:                                    ; preds = %451
  %471 = landingpad { i8*, i32 }
          cleanup
  %472 = extractvalue { i8*, i32 } %471, 0
  store i8* %472, i8** %73, align 8
  %473 = extractvalue { i8*, i32 } %471, 1
  store i32 %473, i32* %74, align 4
  call void @_ZNSt3__112basic_stringIcNS_11char_traitsIcEENS_9allocatorIcEEED1Ev(%"class.std::__1::basic_string"* %69) #10
  br label %474

; <label>:474:                                    ; preds = %470, %466
  call void @_ZNSt3__112basic_stringIcNS_11char_traitsIcEENS_9allocatorIcEEED1Ev(%"class.std::__1::basic_string"* %75) #10
  br label %475

; <label>:475:                                    ; preds = %474, %462
  call void @_ZNSt3__112basic_stringIcNS_11char_traitsIcEENS_9allocatorIcEEED1Ev(%"class.std::__1::basic_string"* %70) #10
  br label %476

; <label>:476:                                    ; preds = %475, %458
  call void @_ZNSt3__112basic_stringIcNS_11char_traitsIcEENS_9allocatorIcEEED1Ev(%"class.std::__1::basic_string"* %71) #10
  br label %477

; <label>:477:                                    ; preds = %476, %454
  call void @_ZNSt3__112basic_stringIcNS_11char_traitsIcEENS_9allocatorIcEEED1Ev(%"class.std::__1::basic_string"* %72) #10
  br label %478

; <label>:478:                                    ; preds = %477
  %479 = load i8*, i8** %73, align 8
  %480 = load i32, i32* %74, align 4
  %481 = insertvalue { i8*, i32 } undef, i8* %479, 0
  %482 = insertvalue { i8*, i32 } %481, i32 %480, 1
  resume { i8*, i32 } %482
}

; Function Attrs: ssp uwtable
define void @_ZN4cdot3var10Arithmetic6moduloE7VariantS2_(%struct.Variant* noalias sret, %struct.Variant*, %struct.Variant*) #0 align 2 personality i8* bitcast (i32 (...)* @__gxx_personality_v0 to i8*) {
  %4 = alloca %"class.std::__1::__libcpp_compressed_pair_imp"*, align 8
  %5 = alloca %"class.std::__1::__compressed_pair"*, align 8
  %6 = alloca %"class.std::__1::basic_string"*, align 8
  %7 = alloca [3 x i64]*, align 8
  %8 = alloca i32, align 4
  %9 = alloca %"class.std::__1::__compressed_pair"*, align 8
  %10 = alloca %"class.std::__1::basic_string"*, align 8
  %11 = alloca %"class.std::__1::basic_string"*, align 8
  %12 = alloca %"class.std::__1::basic_string"*, align 8
  %13 = alloca %"class.std::__1::basic_string"*, align 8
  %14 = alloca %"class.std::__1::basic_string"*, align 8
  %15 = alloca %"class.std::__1::__libcpp_compressed_pair_imp"*, align 8
  %16 = alloca %"class.std::__1::__compressed_pair"*, align 8
  %17 = alloca %"class.std::__1::basic_string"*, align 8
  %18 = alloca %"class.std::__1::__libcpp_compressed_pair_imp"*, align 8
  %19 = alloca %"class.std::__1::__compressed_pair"*, align 8
  %20 = alloca %"class.std::__1::basic_string"*, align 8
  %21 = alloca %"class.std::__1::__libcpp_compressed_pair_imp"*, align 8
  %22 = alloca %"class.std::__1::__compressed_pair"*, align 8
  %23 = alloca %"class.std::__1::basic_string"*, align 8
  %24 = alloca %"class.std::__1::basic_string"*, align 8
  %25 = alloca i8*, align 8
  %26 = alloca %"class.std::__1::__libcpp_compressed_pair_imp"*, align 8
  %27 = alloca %"class.std::__1::__compressed_pair"*, align 8
  %28 = alloca %"class.std::__1::basic_string"*, align 8
  %29 = alloca i8*, align 8
  %30 = alloca i8*, align 8
  %31 = alloca %"class.std::__1::__libcpp_compressed_pair_imp"*, align 8
  %32 = alloca %"class.std::__1::__compressed_pair"*, align 8
  %33 = alloca %"class.std::__1::basic_string"*, align 8
  %34 = alloca %"class.std::__1::__libcpp_compressed_pair_imp"*, align 8
  %35 = alloca %"class.std::__1::__compressed_pair"*, align 8
  %36 = alloca %"class.std::__1::basic_string"*, align 8
  %37 = alloca %"class.std::__1::basic_string"*, align 8
  %38 = alloca %"class.std::__1::basic_string"*, align 8
  %39 = alloca %"class.std::__1::basic_string"*, align 8
  %40 = alloca %"class.std::__1::basic_string"*, align 8
  %41 = alloca %"class.std::__1::basic_string"*, align 8
  %42 = alloca %"class.std::__1::basic_string"*, align 8
  %43 = alloca %"class.std::__1::__libcpp_compressed_pair_imp"*, align 8
  %44 = alloca %"class.std::__1::__compressed_pair"*, align 8
  %45 = alloca %"class.std::__1::basic_string"*, align 8
  %46 = alloca [3 x i64]*, align 8
  %47 = alloca i32, align 4
  %48 = alloca %"class.std::__1::__compressed_pair"*, align 8
  %49 = alloca %"class.std::__1::basic_string"*, align 8
  %50 = alloca %"class.std::__1::basic_string"*, align 8
  %51 = alloca %"class.std::__1::basic_string"*, align 8
  %52 = alloca %"class.std::__1::basic_string"*, align 8
  %53 = alloca %"class.std::__1::basic_string"*, align 8
  %54 = alloca %"class.std::__1::basic_string"*, align 8
  %55 = alloca i8*, align 8
  %56 = alloca %"class.std::__1::__libcpp_compressed_pair_imp"*, align 8
  %57 = alloca %"class.std::__1::__compressed_pair"*, align 8
  %58 = alloca %"class.std::__1::basic_string"*, align 8
  %59 = alloca [3 x i64]*, align 8
  %60 = alloca i32, align 4
  %61 = alloca %"class.std::__1::__compressed_pair"*, align 8
  %62 = alloca %"class.std::__1::basic_string"*, align 8
  %63 = alloca %"class.std::__1::basic_string"*, align 8
  %64 = alloca %"class.std::__1::basic_string"*, align 8
  %65 = alloca %"class.std::__1::basic_string"*, align 8
  %66 = alloca %"class.std::__1::basic_string"*, align 8
  %67 = alloca i8*, align 8
  %68 = alloca %"class.std::__1::basic_string"*, align 8
  %69 = alloca %"class.std::__1::basic_string", align 8
  %70 = alloca %"class.std::__1::basic_string", align 8
  %71 = alloca %"class.std::__1::basic_string", align 8
  %72 = alloca %"class.std::__1::basic_string", align 8
  %73 = alloca i8*
  %74 = alloca i32
  %75 = alloca %"class.std::__1::basic_string", align 8
  %76 = getelementptr inbounds %struct.Variant, %struct.Variant* %1, i32 0, i32 4
  %77 = getelementptr inbounds %struct.TypeSpecifier, %struct.TypeSpecifier* %76, i32 0, i32 0
  %78 = load i32, i32* %77, align 8
  switch i32 %78, label %125 [
    i32 0, label %79
    i32 1, label %102
  ]

; <label>:79:                                     ; preds = %3
  %80 = getelementptr inbounds %struct.Variant, %struct.Variant* %2, i32 0, i32 4
  %81 = getelementptr inbounds %struct.TypeSpecifier, %struct.TypeSpecifier* %80, i32 0, i32 0
  %82 = load i32, i32* %81, align 8
  switch i32 %82, label %100 [
    i32 0, label %83
    i32 1, label %91
  ]

; <label>:83:                                     ; preds = %79
  %84 = getelementptr inbounds %struct.Variant, %struct.Variant* %1, i32 0, i32 0
  %85 = bitcast %union.anon* %84 to i32*
  %86 = load i32, i32* %85, align 8
  %87 = getelementptr inbounds %struct.Variant, %struct.Variant* %2, i32 0, i32 0
  %88 = bitcast %union.anon* %87 to i32*
  %89 = load i32, i32* %88, align 8
  %90 = srem i32 %86, %89
  call void @_ZN7VariantC1Ei(%struct.Variant* %0, i32 %90)
  br label %334

; <label>:91:                                     ; preds = %79
  %92 = getelementptr inbounds %struct.Variant, %struct.Variant* %1, i32 0, i32 0
  %93 = bitcast %union.anon* %92 to i32*
  %94 = load i32, i32* %93, align 8
  %95 = sext i32 %94 to i64
  %96 = getelementptr inbounds %struct.Variant, %struct.Variant* %2, i32 0, i32 0
  %97 = bitcast %union.anon* %96 to i64*
  %98 = load i64, i64* %97, align 8
  %99 = srem i64 %95, %98
  call void @_ZN7VariantC1El(%struct.Variant* %0, i64 %99)
  br label %334

; <label>:100:                                    ; preds = %79
  br label %101

; <label>:101:                                    ; preds = %100
  br label %125

; <label>:102:                                    ; preds = %3
  %103 = getelementptr inbounds %struct.Variant, %struct.Variant* %2, i32 0, i32 4
  %104 = getelementptr inbounds %struct.TypeSpecifier, %struct.TypeSpecifier* %103, i32 0, i32 0
  %105 = load i32, i32* %104, align 8
  switch i32 %105, label %123 [
    i32 0, label %106
    i32 1, label %115
  ]

; <label>:106:                                    ; preds = %102
  %107 = getelementptr inbounds %struct.Variant, %struct.Variant* %1, i32 0, i32 0
  %108 = bitcast %union.anon* %107 to i64*
  %109 = load i64, i64* %108, align 8
  %110 = getelementptr inbounds %struct.Variant, %struct.Variant* %2, i32 0, i32 0
  %111 = bitcast %union.anon* %110 to i32*
  %112 = load i32, i32* %111, align 8
  %113 = sext i32 %112 to i64
  %114 = srem i64 %109, %113
  call void @_ZN7VariantC1El(%struct.Variant* %0, i64 %114)
  br label %334

; <label>:115:                                    ; preds = %102
  %116 = getelementptr inbounds %struct.Variant, %struct.Variant* %1, i32 0, i32 0
  %117 = bitcast %union.anon* %116 to i64*
  %118 = load i64, i64* %117, align 8
  %119 = getelementptr inbounds %struct.Variant, %struct.Variant* %2, i32 0, i32 0
  %120 = bitcast %union.anon* %119 to i64*
  %121 = load i64, i64* %120, align 8
  %122 = srem i64 %118, %121
  call void @_ZN7VariantC1El(%struct.Variant* %0, i64 %122)
  br label %334

; <label>:123:                                    ; preds = %102
  br label %124

; <label>:124:                                    ; preds = %123
  br label %125

; <label>:125:                                    ; preds = %3, %124, %101
  %126 = getelementptr inbounds %struct.Variant, %struct.Variant* %1, i32 0, i32 4
  %127 = getelementptr inbounds %struct.TypeSpecifier, %struct.TypeSpecifier* %126, i32 0, i32 0
  %128 = load i32, i32* %127, align 8
  call void @_ZN3val9typetostrE9ValueType(%"class.std::__1::basic_string"* sret %72, i32 %128)
  store i8* getelementptr inbounds ([39 x i8], [39 x i8]* @.str.2, i32 0, i32 0), i8** %67, align 8, !noalias !41
  store %"class.std::__1::basic_string"* %72, %"class.std::__1::basic_string"** %68, align 8, !noalias !41
  %129 = load %"class.std::__1::basic_string"*, %"class.std::__1::basic_string"** %68, align 8, !noalias !41
  %130 = load i8*, i8** %67, align 8, !noalias !41
  %131 = invoke dereferenceable(24) %"class.std::__1::basic_string"* @_ZNSt3__112basic_stringIcNS_11char_traitsIcEENS_9allocatorIcEEE6insertEmPKc(%"class.std::__1::basic_string"* %129, i64 0, i8* %130)
          to label %132 unwind label %335

; <label>:132:                                    ; preds = %125
  store %"class.std::__1::basic_string"* %131, %"class.std::__1::basic_string"** %66, align 8, !noalias !41
  %133 = load %"class.std::__1::basic_string"*, %"class.std::__1::basic_string"** %66, align 8, !noalias !41
  store %"class.std::__1::basic_string"* %71, %"class.std::__1::basic_string"** %64, align 8, !noalias !41
  store %"class.std::__1::basic_string"* %133, %"class.std::__1::basic_string"** %65, align 8, !noalias !41
  %134 = load %"class.std::__1::basic_string"*, %"class.std::__1::basic_string"** %64, align 8, !noalias !41
  %135 = load %"class.std::__1::basic_string"*, %"class.std::__1::basic_string"** %65, align 8, !noalias !41
  store %"class.std::__1::basic_string"* %134, %"class.std::__1::basic_string"** %62, align 8, !noalias !41
  store %"class.std::__1::basic_string"* %135, %"class.std::__1::basic_string"** %63, align 8, !noalias !41
  %136 = load %"class.std::__1::basic_string"*, %"class.std::__1::basic_string"** %62, align 8, !noalias !41
  %137 = bitcast %"class.std::__1::basic_string"* %136 to %"class.std::__1::__basic_string_common"*
  %138 = getelementptr inbounds %"class.std::__1::basic_string", %"class.std::__1::basic_string"* %136, i32 0, i32 0
  %139 = load %"class.std::__1::basic_string"*, %"class.std::__1::basic_string"** %63, align 8, !noalias !41
  %140 = getelementptr inbounds %"class.std::__1::basic_string", %"class.std::__1::basic_string"* %139, i32 0, i32 0
  store %"class.std::__1::__compressed_pair"* %140, %"class.std::__1::__compressed_pair"** %61, align 8, !noalias !41
  %141 = load %"class.std::__1::__compressed_pair"*, %"class.std::__1::__compressed_pair"** %61, align 8, !noalias !41
  %142 = bitcast %"class.std::__1::__compressed_pair"* %138 to i8*
  %143 = bitcast %"class.std::__1::__compressed_pair"* %141 to i8*
  call void @llvm.memcpy.p0i8.p0i8.i64(i8* %142, i8* %143, i64 24, i32 8, i1 false) #10
  %144 = load %"class.std::__1::basic_string"*, %"class.std::__1::basic_string"** %63, align 8, !noalias !41
  store %"class.std::__1::basic_string"* %144, %"class.std::__1::basic_string"** %58, align 8, !noalias !41
  %145 = load %"class.std::__1::basic_string"*, %"class.std::__1::basic_string"** %58, align 8, !noalias !41
  %146 = getelementptr inbounds %"class.std::__1::basic_string", %"class.std::__1::basic_string"* %145, i32 0, i32 0
  store %"class.std::__1::__compressed_pair"* %146, %"class.std::__1::__compressed_pair"** %57, align 8, !noalias !41
  %147 = load %"class.std::__1::__compressed_pair"*, %"class.std::__1::__compressed_pair"** %57, align 8, !noalias !41
  %148 = bitcast %"class.std::__1::__compressed_pair"* %147 to %"class.std::__1::__libcpp_compressed_pair_imp"*
  store %"class.std::__1::__libcpp_compressed_pair_imp"* %148, %"class.std::__1::__libcpp_compressed_pair_imp"** %56, align 8, !noalias !41
  %149 = load %"class.std::__1::__libcpp_compressed_pair_imp"*, %"class.std::__1::__libcpp_compressed_pair_imp"** %56, align 8, !noalias !41
  %150 = getelementptr inbounds %"class.std::__1::__libcpp_compressed_pair_imp", %"class.std::__1::__libcpp_compressed_pair_imp"* %149, i32 0, i32 0
  %151 = getelementptr inbounds %"struct.std::__1::basic_string<char, std::__1::char_traits<char>, std::__1::allocator<char> >::__rep", %"struct.std::__1::basic_string<char, std::__1::char_traits<char>, std::__1::allocator<char> >::__rep"* %150, i32 0, i32 0
  %152 = bitcast %union.anon.0* %151 to %"struct.std::__1::basic_string<char, std::__1::char_traits<char>, std::__1::allocator<char> >::__raw"*
  %153 = getelementptr inbounds %"struct.std::__1::basic_string<char, std::__1::char_traits<char>, std::__1::allocator<char> >::__raw", %"struct.std::__1::basic_string<char, std::__1::char_traits<char>, std::__1::allocator<char> >::__raw"* %152, i32 0, i32 0
  store [3 x i64]* %153, [3 x i64]** %59, align 8, !noalias !41
  store i32 0, i32* %60, align 4, !noalias !41
  br label %154

; <label>:154:                                    ; preds = %157, %132
  %155 = load i32, i32* %60, align 4, !noalias !41
  %156 = icmp ult i32 %155, 3
  br i1 %156, label %157, label %164

; <label>:157:                                    ; preds = %154
  %158 = load i32, i32* %60, align 4, !noalias !41
  %159 = zext i32 %158 to i64
  %160 = load [3 x i64]*, [3 x i64]** %59, align 8, !noalias !41
  %161 = getelementptr inbounds [3 x i64], [3 x i64]* %160, i64 0, i64 %159
  store i64 0, i64* %161, align 8
  %162 = load i32, i32* %60, align 4, !noalias !41
  %163 = add i32 %162, 1
  store i32 %163, i32* %60, align 4, !noalias !41
  br label %154

; <label>:164:                                    ; preds = %154
  br label %165

; <label>:165:                                    ; preds = %164
  store %"class.std::__1::basic_string"* %71, %"class.std::__1::basic_string"** %54, align 8, !noalias !44
  store i8* getelementptr inbounds ([6 x i8], [6 x i8]* @.str.1, i32 0, i32 0), i8** %55, align 8, !noalias !44
  %166 = load %"class.std::__1::basic_string"*, %"class.std::__1::basic_string"** %54, align 8, !noalias !44
  %167 = load i8*, i8** %55, align 8, !noalias !44
  %168 = invoke dereferenceable(24) %"class.std::__1::basic_string"* @_ZNSt3__112basic_stringIcNS_11char_traitsIcEENS_9allocatorIcEEE6appendEPKc(%"class.std::__1::basic_string"* %166, i8* %167)
          to label %169 unwind label %339

; <label>:169:                                    ; preds = %165
  store %"class.std::__1::basic_string"* %168, %"class.std::__1::basic_string"** %53, align 8, !noalias !44
  %170 = load %"class.std::__1::basic_string"*, %"class.std::__1::basic_string"** %53, align 8, !noalias !44
  store %"class.std::__1::basic_string"* %70, %"class.std::__1::basic_string"** %51, align 8, !noalias !44
  store %"class.std::__1::basic_string"* %170, %"class.std::__1::basic_string"** %52, align 8, !noalias !44
  %171 = load %"class.std::__1::basic_string"*, %"class.std::__1::basic_string"** %51, align 8, !noalias !44
  %172 = load %"class.std::__1::basic_string"*, %"class.std::__1::basic_string"** %52, align 8, !noalias !44
  store %"class.std::__1::basic_string"* %171, %"class.std::__1::basic_string"** %49, align 8, !noalias !44
  store %"class.std::__1::basic_string"* %172, %"class.std::__1::basic_string"** %50, align 8, !noalias !44
  %173 = load %"class.std::__1::basic_string"*, %"class.std::__1::basic_string"** %49, align 8, !noalias !44
  %174 = bitcast %"class.std::__1::basic_string"* %173 to %"class.std::__1::__basic_string_common"*
  %175 = getelementptr inbounds %"class.std::__1::basic_string", %"class.std::__1::basic_string"* %173, i32 0, i32 0
  %176 = load %"class.std::__1::basic_string"*, %"class.std::__1::basic_string"** %50, align 8, !noalias !44
  %177 = getelementptr inbounds %"class.std::__1::basic_string", %"class.std::__1::basic_string"* %176, i32 0, i32 0
