; ModuleID = '/Users/Jonas/CLionProjects/HackerRank/XtremeJonasScript/src/Variant/Variant.cpp'
source_filename = "/Users/Jonas/CLionProjects/HackerRank/XtremeJonasScript/src/Variant/Variant.cpp"
target datalayout = "e-m:o-i64:64-f80:128-n8:16:32:64-S128"
target triple = "x86_64-apple-macosx10.12.0"

%"class.std::__1::unordered_map.131" = type { %"class.std::__1::__hash_table.132" }
%"class.std::__1::__hash_table.132" = type <{ %"class.std::__1::unique_ptr.133", %"class.std::__1::__compressed_pair.142", %"class.std::__1::__compressed_pair.146", %"class.std::__1::__compressed_pair.149", [4 x i8] }>
%"class.std::__1::unique_ptr.133" = type { %"class.std::__1::__compressed_pair.134" }
%"class.std::__1::__compressed_pair.134" = type { %"class.std::__1::__libcpp_compressed_pair_imp.135" }
%"class.std::__1::__libcpp_compressed_pair_imp.135" = type { %"struct.std::__1::__hash_node_base.136"**, %"class.std::__1::__bucket_list_deallocator.137" }
%"struct.std::__1::__hash_node_base.136" = type { %"struct.std::__1::__hash_node_base.136"* }
%"class.std::__1::__bucket_list_deallocator.137" = type { %"class.std::__1::__compressed_pair.138" }
%"class.std::__1::__compressed_pair.138" = type { %"class.std::__1::__libcpp_compressed_pair_imp.139" }
%"class.std::__1::__libcpp_compressed_pair_imp.139" = type { i64 }
%"class.std::__1::__compressed_pair.142" = type { %"class.std::__1::__libcpp_compressed_pair_imp.143" }
%"class.std::__1::__libcpp_compressed_pair_imp.143" = type { %"struct.std::__1::__hash_node_base.136" }
%"class.std::__1::__compressed_pair.146" = type { %"class.std::__1::__libcpp_compressed_pair_imp.147" }
%"class.std::__1::__libcpp_compressed_pair_imp.147" = type { i64 }
%"class.std::__1::__compressed_pair.149" = type { %"class.std::__1::__libcpp_compressed_pair_imp.150" }
%"class.std::__1::__libcpp_compressed_pair_imp.150" = type { float }
%"class.std::__1::unordered_map.153" = type { %"class.std::__1::__hash_table.154" }
%"class.std::__1::__hash_table.154" = type <{ %"class.std::__1::unique_ptr.155", %"class.std::__1::__compressed_pair.164", %"class.std::__1::__compressed_pair.168", %"class.std::__1::__compressed_pair.173", [4 x i8] }>
%"class.std::__1::unique_ptr.155" = type { %"class.std::__1::__compressed_pair.156" }
%"class.std::__1::__compressed_pair.156" = type { %"class.std::__1::__libcpp_compressed_pair_imp.157" }
%"class.std::__1::__libcpp_compressed_pair_imp.157" = type { %"struct.std::__1::__hash_node_base.158"**, %"class.std::__1::__bucket_list_deallocator.159" }
%"struct.std::__1::__hash_node_base.158" = type { %"struct.std::__1::__hash_node_base.158"* }
%"class.std::__1::__bucket_list_deallocator.159" = type { %"class.std::__1::__compressed_pair.160" }
%"class.std::__1::__compressed_pair.160" = type { %"class.std::__1::__libcpp_compressed_pair_imp.161" }
%"class.std::__1::__libcpp_compressed_pair_imp.161" = type { i64 }
%"class.std::__1::__compressed_pair.164" = type { %"class.std::__1::__libcpp_compressed_pair_imp.165" }
%"class.std::__1::__libcpp_compressed_pair_imp.165" = type { %"struct.std::__1::__hash_node_base.158" }
%"class.std::__1::__compressed_pair.168" = type { %"class.std::__1::__libcpp_compressed_pair_imp.169" }
%"class.std::__1::__libcpp_compressed_pair_imp.169" = type { i64 }
%"class.std::__1::__compressed_pair.173" = type { %"class.std::__1::__libcpp_compressed_pair_imp.174" }
%"class.std::__1::__libcpp_compressed_pair_imp.174" = type { float }
%"class.std::__1::unordered_map.185" = type { %"class.std::__1::__hash_table.186" }
%"class.std::__1::__hash_table.186" = type <{ %"class.std::__1::unique_ptr.187", %"class.std::__1::__compressed_pair.196", %"class.std::__1::__compressed_pair.200", %"class.std::__1::__compressed_pair.203", [4 x i8] }>
%"class.std::__1::unique_ptr.187" = type { %"class.std::__1::__compressed_pair.188" }
%"class.std::__1::__compressed_pair.188" = type { %"class.std::__1::__libcpp_compressed_pair_imp.189" }
%"class.std::__1::__libcpp_compressed_pair_imp.189" = type { %"struct.std::__1::__hash_node_base.190"**, %"class.std::__1::__bucket_list_deallocator.191" }
%"struct.std::__1::__hash_node_base.190" = type { %"struct.std::__1::__hash_node_base.190"* }
%"class.std::__1::__bucket_list_deallocator.191" = type { %"class.std::__1::__compressed_pair.192" }
%"class.std::__1::__compressed_pair.192" = type { %"class.std::__1::__libcpp_compressed_pair_imp.193" }
%"class.std::__1::__libcpp_compressed_pair_imp.193" = type { i64 }
%"class.std::__1::__compressed_pair.196" = type { %"class.std::__1::__libcpp_compressed_pair_imp.197" }
%"class.std::__1::__libcpp_compressed_pair_imp.197" = type { %"struct.std::__1::__hash_node_base.190" }
%"class.std::__1::__compressed_pair.200" = type { %"class.std::__1::__libcpp_compressed_pair_imp.201" }
%"class.std::__1::__libcpp_compressed_pair_imp.201" = type { i64 }
%"class.std::__1::__compressed_pair.203" = type { %"class.std::__1::__libcpp_compressed_pair_imp.204" }
%"class.std::__1::__libcpp_compressed_pair_imp.204" = type { float }
%"struct.std::__1::piecewise_construct_t" = type { i8 }
%struct.Variant = type <{ %union.anon, i8, [7 x i8], %"class.std::__1::basic_string", %struct.TypeSpecifier, i8, i8, i8, [5 x i8] }>
%union.anon = type { i64 }
%"class.std::__1::basic_string" = type { %"class.std::__1::__compressed_pair" }
%"class.std::__1::__compressed_pair" = type { %"class.std::__1::__libcpp_compressed_pair_imp" }
%"class.std::__1::__libcpp_compressed_pair_imp" = type { %"struct.std::__1::basic_string<char, std::__1::char_traits<char>, std::__1::allocator<char> >::__rep" }
%"struct.std::__1::basic_string<char, std::__1::char_traits<char>, std::__1::allocator<char> >::__rep" = type { %union.anon.0 }
%union.anon.0 = type { %"struct.std::__1::basic_string<char, std::__1::char_traits<char>, std::__1::allocator<char> >::__long" }
%"struct.std::__1::basic_string<char, std::__1::char_traits<char>, std::__1::allocator<char> >::__long" = type { i64, i64, i8* }
%struct.TypeSpecifier = type { i32, %"class.std::__1::basic_string", %"class.std::__1::shared_ptr", i8, i8, i8, i8, i64, i32, i8, i8, %"class.std::__1::basic_string", i8, [7 x i8], %"class.std::__1::unordered_map", i8, i8, i8, i8, i8, i8, i8, i32, %"class.std::__1::vector", %"class.std::__1::vector.20", %union.anon.26 }
%"class.std::__1::shared_ptr" = type { %class.Expression*, %"class.std::__1::__shared_weak_count"* }
%class.Expression = type { %class.Statement.base, %"class.std::__1::shared_ptr", i8, %"class.std::__1::shared_ptr", i8, %"class.std::__1::unique_ptr.27", i8, %struct.TypeSpecifier }
%class.Statement.base = type { %class.AstNode.base }
%class.AstNode.base = type <{ i32 (...)**, i32, i32, i64, %class.AstNode*, %class.DeclStmt*, i8, [3 x i8], i32, %"class.std::__1::vector", %struct.TypeSpecifier, %struct.TypeSpecifier, i8, [7 x i8], %"class.std::__1::basic_string", i8, i8 }>
%class.AstNode = type <{ i32 (...)**, i32, i32, i64, %class.AstNode*, %class.DeclStmt*, i8, [3 x i8], i32, %"class.std::__1::vector", %struct.TypeSpecifier, %struct.TypeSpecifier, i8, [7 x i8], %"class.std::__1::basic_string", i8, i8, [6 x i8] }>
%class.DeclStmt = type opaque
%"class.std::__1::unique_ptr.27" = type { %"class.std::__1::__compressed_pair.28" }
%"class.std::__1::__compressed_pair.28" = type { %"class.std::__1::__libcpp_compressed_pair_imp.29" }
%"class.std::__1::__libcpp_compressed_pair_imp.29" = type { %struct.Variant* }
%"class.std::__1::__shared_weak_count" = type { %"class.std::__1::__shared_count", i64 }
%"class.std::__1::__shared_count" = type { i32 (...)**, i64 }
%"class.std::__1::unordered_map" = type { %"class.std::__1::__hash_table" }
%"class.std::__1::__hash_table" = type <{ %"class.std::__1::unique_ptr", %"class.std::__1::__compressed_pair.8", %"class.std::__1::__compressed_pair.12", %"class.std::__1::__compressed_pair.14", [4 x i8] }>
%"class.std::__1::unique_ptr" = type { %"class.std::__1::__compressed_pair.2" }
%"class.std::__1::__compressed_pair.2" = type { %"class.std::__1::__libcpp_compressed_pair_imp.3" }
%"class.std::__1::__libcpp_compressed_pair_imp.3" = type { %"struct.std::__1::__hash_node_base"**, %"class.std::__1::__bucket_list_deallocator" }
%"struct.std::__1::__hash_node_base" = type { %"struct.std::__1::__hash_node_base"* }
%"class.std::__1::__bucket_list_deallocator" = type { %"class.std::__1::__compressed_pair.4" }
%"class.std::__1::__compressed_pair.4" = type { %"class.std::__1::__libcpp_compressed_pair_imp.5" }
%"class.std::__1::__libcpp_compressed_pair_imp.5" = type { i64 }
%"class.std::__1::__compressed_pair.8" = type { %"class.std::__1::__libcpp_compressed_pair_imp.9" }
%"class.std::__1::__libcpp_compressed_pair_imp.9" = type { %"struct.std::__1::__hash_node_base" }
%"class.std::__1::__compressed_pair.12" = type { %"class.std::__1::__libcpp_compressed_pair_imp.13" }
%"class.std::__1::__libcpp_compressed_pair_imp.13" = type { i64 }
%"class.std::__1::__compressed_pair.14" = type { %"class.std::__1::__libcpp_compressed_pair_imp.15" }
%"class.std::__1::__libcpp_compressed_pair_imp.15" = type { float }
%"class.std::__1::vector" = type { %"class.std::__1::__vector_base" }
%"class.std::__1::__vector_base" = type { %"class.std::__1::basic_string"*, %"class.std::__1::basic_string"*, %"class.std::__1::__compressed_pair.16" }
%"class.std::__1::__compressed_pair.16" = type { %"class.std::__1::__libcpp_compressed_pair_imp.17" }
%"class.std::__1::__libcpp_compressed_pair_imp.17" = type { %"class.std::__1::basic_string"* }
%"class.std::__1::vector.20" = type { %"class.std::__1::__vector_base.21" }
%"class.std::__1::__vector_base.21" = type { %struct.TypeSpecifier*, %struct.TypeSpecifier*, %"class.std::__1::__compressed_pair.22" }
%"class.std::__1::__compressed_pair.22" = type { %"class.std::__1::__libcpp_compressed_pair_imp.23" }
%"class.std::__1::__libcpp_compressed_pair_imp.23" = type { %struct.TypeSpecifier* }
%union.anon.26 = type { %struct.TypeSpecifier* }
%"class.std::__1::allocator" = type { i8 }
%"class.std::__1::__basic_string_common" = type { i8 }
%"struct.std::__1::basic_string<char, std::__1::char_traits<char>, std::__1::allocator<char> >::__raw" = type { [3 x i64] }
%"struct.std::__1::integral_constant" = type { i8 }
%"struct.std::__1::__scalar_hash.41" = type { i8 }
%union.anon.351 = type { i64 }
%"struct.std::__1::hash.40" = type { i8 }
%"struct.std::__1::__scalar_hash" = type { i8 }
%union.anon.350 = type { double }
%"struct.std::__1::hash.38" = type { i8 }
%"struct.std::__1::hash.36" = type { i8 }
%"struct.std::__1::hash.34" = type { i8 }
%"struct.std::__1::hash.32" = type { i8 }
%"struct.std::__1::hash.30" = type { i8 }
%"struct.std::__1::hash" = type { i8 }
%"struct.std::__1::__murmur2_or_cityhash" = type { i8 }
%"struct.std::__1::basic_string<char, std::__1::char_traits<char>, std::__1::allocator<char> >::__short" = type { %union.anon.1, [23 x i8] }
%union.anon.1 = type { i8 }
%class.Namespace = type { %"class.std::__1::unordered_map.43", %"class.std::__1::basic_string", %class.Namespace*, %"class.std::__1::unordered_map.65", %"class.std::__1::unordered_map.87", %"class.std::__1::unordered_map.109", %"class.std::__1::unordered_map", %"class.std::__1::unordered_map" }
%"class.std::__1::unordered_map.43" = type { %"class.std::__1::__hash_table.44" }
%"class.std::__1::__hash_table.44" = type <{ %"class.std::__1::unique_ptr.45", %"class.std::__1::__compressed_pair.54", %"class.std::__1::__compressed_pair.58", %"class.std::__1::__compressed_pair.61", [4 x i8] }>
%"class.std::__1::unique_ptr.45" = type { %"class.std::__1::__compressed_pair.46" }
%"class.std::__1::__compressed_pair.46" = type { %"class.std::__1::__libcpp_compressed_pair_imp.47" }
%"class.std::__1::__libcpp_compressed_pair_imp.47" = type { %"struct.std::__1::__hash_node_base.48"**, %"class.std::__1::__bucket_list_deallocator.49" }
%"struct.std::__1::__hash_node_base.48" = type { %"struct.std::__1::__hash_node_base.48"* }
%"class.std::__1::__bucket_list_deallocator.49" = type { %"class.std::__1::__compressed_pair.50" }
%"class.std::__1::__compressed_pair.50" = type { %"class.std::__1::__libcpp_compressed_pair_imp.51" }
%"class.std::__1::__libcpp_compressed_pair_imp.51" = type { i64 }
%"class.std::__1::__compressed_pair.54" = type { %"class.std::__1::__libcpp_compressed_pair_imp.55" }
%"class.std::__1::__libcpp_compressed_pair_imp.55" = type { %"struct.std::__1::__hash_node_base.48" }
%"class.std::__1::__compressed_pair.58" = type { %"class.std::__1::__libcpp_compressed_pair_imp.59" }
%"class.std::__1::__libcpp_compressed_pair_imp.59" = type { i64 }
%"class.std::__1::__compressed_pair.61" = type { %"class.std::__1::__libcpp_compressed_pair_imp.62" }
%"class.std::__1::__libcpp_compressed_pair_imp.62" = type { float }
%"class.std::__1::unordered_map.65" = type { %"class.std::__1::__hash_table.66" }
%"class.std::__1::__hash_table.66" = type <{ %"class.std::__1::unique_ptr.67", %"class.std::__1::__compressed_pair.76", %"class.std::__1::__compressed_pair.80", %"class.std::__1::__compressed_pair.83", [4 x i8] }>
%"class.std::__1::unique_ptr.67" = type { %"class.std::__1::__compressed_pair.68" }
%"class.std::__1::__compressed_pair.68" = type { %"class.std::__1::__libcpp_compressed_pair_imp.69" }
%"class.std::__1::__libcpp_compressed_pair_imp.69" = type { %"struct.std::__1::__hash_node_base.70"**, %"class.std::__1::__bucket_list_deallocator.71" }
%"struct.std::__1::__hash_node_base.70" = type { %"struct.std::__1::__hash_node_base.70"* }
%"class.std::__1::__bucket_list_deallocator.71" = type { %"class.std::__1::__compressed_pair.72" }
%"class.std::__1::__compressed_pair.72" = type { %"class.std::__1::__libcpp_compressed_pair_imp.73" }
%"class.std::__1::__libcpp_compressed_pair_imp.73" = type { i64 }
%"class.std::__1::__compressed_pair.76" = type { %"class.std::__1::__libcpp_compressed_pair_imp.77" }
%"class.std::__1::__libcpp_compressed_pair_imp.77" = type { %"struct.std::__1::__hash_node_base.70" }
%"class.std::__1::__compressed_pair.80" = type { %"class.std::__1::__libcpp_compressed_pair_imp.81" }
%"class.std::__1::__libcpp_compressed_pair_imp.81" = type { i64 }
%"class.std::__1::__compressed_pair.83" = type { %"class.std::__1::__libcpp_compressed_pair_imp.84" }
%"class.std::__1::__libcpp_compressed_pair_imp.84" = type { float }
%"class.std::__1::unordered_map.87" = type { %"class.std::__1::__hash_table.88" }
%"class.std::__1::__hash_table.88" = type <{ %"class.std::__1::unique_ptr.89", %"class.std::__1::__compressed_pair.98", %"class.std::__1::__compressed_pair.102", %"class.std::__1::__compressed_pair.105", [4 x i8] }>
%"class.std::__1::unique_ptr.89" = type { %"class.std::__1::__compressed_pair.90" }
%"class.std::__1::__compressed_pair.90" = type { %"class.std::__1::__libcpp_compressed_pair_imp.91" }
%"class.std::__1::__libcpp_compressed_pair_imp.91" = type { %"struct.std::__1::__hash_node_base.92"**, %"class.std::__1::__bucket_list_deallocator.93" }
%"struct.std::__1::__hash_node_base.92" = type { %"struct.std::__1::__hash_node_base.92"* }
%"class.std::__1::__bucket_list_deallocator.93" = type { %"class.std::__1::__compressed_pair.94" }
%"class.std::__1::__compressed_pair.94" = type { %"class.std::__1::__libcpp_compressed_pair_imp.95" }
%"class.std::__1::__libcpp_compressed_pair_imp.95" = type { i64 }
%"class.std::__1::__compressed_pair.98" = type { %"class.std::__1::__libcpp_compressed_pair_imp.99" }
%"class.std::__1::__libcpp_compressed_pair_imp.99" = type { %"struct.std::__1::__hash_node_base.92" }
%"class.std::__1::__compressed_pair.102" = type { %"class.std::__1::__libcpp_compressed_pair_imp.103" }
%"class.std::__1::__libcpp_compressed_pair_imp.103" = type { i64 }
%"class.std::__1::__compressed_pair.105" = type { %"class.std::__1::__libcpp_compressed_pair_imp.106" }
%"class.std::__1::__libcpp_compressed_pair_imp.106" = type { float }
%"class.std::__1::unordered_map.109" = type { %"class.std::__1::__hash_table.110" }
%"class.std::__1::__hash_table.110" = type <{ %"class.std::__1::unique_ptr.111", %"class.std::__1::__compressed_pair.120", %"class.std::__1::__compressed_pair.124", %"class.std::__1::__compressed_pair.127", [4 x i8] }>
%"class.std::__1::unique_ptr.111" = type { %"class.std::__1::__compressed_pair.112" }
%"class.std::__1::__compressed_pair.112" = type { %"class.std::__1::__libcpp_compressed_pair_imp.113" }
%"class.std::__1::__libcpp_compressed_pair_imp.113" = type { %"struct.std::__1::__hash_node_base.114"**, %"class.std::__1::__bucket_list_deallocator.115" }
%"struct.std::__1::__hash_node_base.114" = type { %"struct.std::__1::__hash_node_base.114"* }
%"class.std::__1::__bucket_list_deallocator.115" = type { %"class.std::__1::__compressed_pair.116" }
%"class.std::__1::__compressed_pair.116" = type { %"class.std::__1::__libcpp_compressed_pair_imp.117" }
%"class.std::__1::__libcpp_compressed_pair_imp.117" = type { i64 }
%"class.std::__1::__compressed_pair.120" = type { %"class.std::__1::__libcpp_compressed_pair_imp.121" }
%"class.std::__1::__libcpp_compressed_pair_imp.121" = type { %"struct.std::__1::__hash_node_base.114" }
%"class.std::__1::__compressed_pair.124" = type { %"class.std::__1::__libcpp_compressed_pair_imp.125" }
%"class.std::__1::__libcpp_compressed_pair_imp.125" = type { i64 }
%"class.std::__1::__compressed_pair.127" = type { %"class.std::__1::__libcpp_compressed_pair_imp.128" }
%"class.std::__1::__libcpp_compressed_pair_imp.128" = type { float }
%"class.std::__1::__wrap_iter" = type { %struct.TypeSpecifier* }
%"class.std::__1::tuple.365" = type { i8 }
%"struct.std::__1::equal_to" = type { i8 }
%"class.std::__1::__unordered_map_equal" = type { i8 }
%"union.std::__1::__hash_value_type" = type { %"struct.std::__1::pair.348" }
%"struct.std::__1::pair.348" = type { %"class.std::__1::basic_string", %struct.TypeSpecifier }
%"class.std::__1::tuple" = type { %"struct.std::__1::__tuple_impl" }
%"struct.std::__1::__tuple_impl" = type { %"class.std::__1::__tuple_leaf" }
%"class.std::__1::__tuple_leaf" = type { %"class.std::__1::basic_string"* }
%"struct.std::__1::__less" = type { i8 }
%"class.std::__1::__libcpp_compressed_pair_imp.357" = type { %"struct.std::__1::__hash_node"*, %"class.std::__1::__hash_node_destructor" }
%"struct.std::__1::__hash_node" = type { %"struct.std::__1::__hash_node_base", i64, %"union.std::__1::__hash_value_type" }
%"class.std::__1::__hash_node_destructor" = type <{ %"class.std::__1::allocator.10"*, i8, [7 x i8] }>
%"class.std::__1::allocator.10" = type { i8 }
%"class.std::__1::__compressed_pair.356" = type { %"class.std::__1::__libcpp_compressed_pair_imp.357" }
%"struct.std::__1::__has_destroy.349" = type { i8 }
%"class.std::__1::unique_ptr.355" = type { %"class.std::__1::__compressed_pair.356" }
%"class.std::__1::__unordered_map_hasher" = type { i8 }
%"class.std::__1::__hash_iterator.354" = type { %"struct.std::__1::__hash_node_base"* }
%"struct.std::__1::pair.353" = type <{ %"class.std::__1::__hash_iterator.354", i8, [7 x i8] }>
%"struct.std::__1::__tuple_indices" = type { i8 }
%"struct.std::__1::__tuple_types" = type { i8 }
%"struct.std::__1::__tuple_indices.367" = type { i8 }
%"struct.std::__1::__tuple_types.368" = type { i8 }
%"class.std::__1::__vector_base_common" = type { i8 }
%"class.std::__1::__unordered_map_equal.151" = type { i8 }
%"union.std::__1::__hash_value_type.372" = type { %"struct.std::__1::pair.373" }
%"struct.std::__1::pair.373" = type <{ %"class.std::__1::basic_string", i32, [4 x i8] }>
%"class.std::__1::__libcpp_compressed_pair_imp.380" = type { %"struct.std::__1::__hash_node.377"*, %"class.std::__1::__hash_node_destructor.381" }
%"struct.std::__1::__hash_node.377" = type { %"struct.std::__1::__hash_node_base.136", i64, %"union.std::__1::__hash_value_type.372" }
%"class.std::__1::__hash_node_destructor.381" = type <{ %"class.std::__1::allocator.144"*, i8, [7 x i8] }>
%"class.std::__1::allocator.144" = type { i8 }
%"class.std::__1::__compressed_pair.379" = type { %"class.std::__1::__libcpp_compressed_pair_imp.380" }
%"struct.std::__1::__has_destroy.384" = type { i8 }
%"class.std::__1::unique_ptr.378" = type { %"class.std::__1::__compressed_pair.379" }
%"class.std::__1::__unordered_map_hasher.148" = type { i8 }
%"class.std::__1::__hash_iterator.370" = type { %"struct.std::__1::__hash_node_base.136"* }
%"struct.std::__1::pair.369" = type <{ %"class.std::__1::__hash_iterator.370", i8, [7 x i8] }>
%"struct.std::__1::equal_to.176" = type { i8 }
%"class.std::__1::__unordered_map_equal.175" = type { i8 }
%"union.std::__1::__hash_value_type.390" = type { %"struct.std::__1::pair.391" }
%"struct.std::__1::pair.391" = type { i32, %"class.std::__1::basic_string" }
%"class.std::__1::tuple.387" = type { %"struct.std::__1::__tuple_impl.388" }
%"struct.std::__1::__tuple_impl.388" = type { %"class.std::__1::__tuple_leaf.389" }
%"class.std::__1::__tuple_leaf.389" = type { i32* }
%"class.std::__1::__libcpp_compressed_pair_imp.396" = type { %"struct.std::__1::__hash_node.393"*, %"class.std::__1::__hash_node_destructor.397" }
%"struct.std::__1::__hash_node.393" = type { %"struct.std::__1::__hash_node_base.158", i64, %"union.std::__1::__hash_value_type.390" }
%"class.std::__1::__hash_node_destructor.397" = type <{ %"class.std::__1::allocator.166"*, i8, [7 x i8] }>
%"class.std::__1::allocator.166" = type { i8 }
%"class.std::__1::__compressed_pair.395" = type { %"class.std::__1::__libcpp_compressed_pair_imp.396" }
%"struct.std::__1::__has_destroy.402" = type { i8 }
%"class.std::__1::unique_ptr.394" = type { %"class.std::__1::__compressed_pair.395" }
%"struct.std::__1::hash.399" = type { i8 }
%"struct.std::__1::hash.171" = type { i8 }
%"class.std::__1::__unordered_map_hasher.170" = type { i8 }
%"class.std::__1::__hash_iterator" = type { %"struct.std::__1::__hash_node_base.158"* }
%"struct.std::__1::pair.385" = type <{ %"class.std::__1::__hash_iterator", i8, [7 x i8] }>
%"struct.std::__1::__tuple_types.403" = type { i8 }
%"class.std::__1::__hash_map_iterator" = type { %"class.std::__1::__hash_iterator" }
%"class.std::__1::vector.179" = type { %"class.std::__1::__vector_base.180" }
%"class.std::__1::__vector_base.180" = type { i32*, i32*, %"class.std::__1::__compressed_pair.181" }
%"class.std::__1::__compressed_pair.181" = type { %"class.std::__1::__libcpp_compressed_pair_imp.182" }
%"class.std::__1::__libcpp_compressed_pair_imp.182" = type { i32* }
%"class.std::__1::__unordered_map_equal.205" = type { i8 }
%"union.std::__1::__hash_value_type.407" = type { %"struct.std::__1::pair.408" }
%"struct.std::__1::pair.408" = type { i32, %"class.std::__1::vector.179" }
%"class.std::__1::__libcpp_compressed_pair_imp.413" = type { %"struct.std::__1::__hash_node.410"*, %"class.std::__1::__hash_node_destructor.414" }
%"struct.std::__1::__hash_node.410" = type { %"struct.std::__1::__hash_node_base.190", i64, %"union.std::__1::__hash_value_type.407" }
%"class.std::__1::__hash_node_destructor.414" = type <{ %"class.std::__1::allocator.198"*, i8, [7 x i8] }>
%"class.std::__1::allocator.198" = type { i8 }
%"class.std::__1::__compressed_pair.412" = type { %"class.std::__1::__libcpp_compressed_pair_imp.413" }
%"struct.std::__1::__has_destroy.417" = type { i8 }
%"class.std::__1::unique_ptr.411" = type { %"class.std::__1::__compressed_pair.412" }
%"class.std::__1::__unordered_map_hasher.202" = type { i8 }
%"class.std::__1::__hash_iterator.405" = type { %"struct.std::__1::__hash_node_base.190"* }
%"struct.std::__1::pair.404" = type <{ %"class.std::__1::__hash_iterator.405", i8, [7 x i8] }>
%"class.cdot::cl::Class" = type { i32, %"class.std::__1::basic_string", %"class.cdot::cl::Class"*, %"class.std::__1::vector.207", %class.ClassDecl*, %"class.std::__1::vector", %"class.std::__1::map", %"class.std::__1::vector", %"class.std::__1::vector.219", %"class.std::__1::unordered_multimap", %"class.std::__1::vector", %"class.std::__1::vector.246", %"class.std::__1::unordered_map", %"class.std::__1::vector.253", %"class.std::__1::vector", %"class.std::__1::vector", %"class.std::__1::unordered_map.279", %"class.std::__1::unordered_map.301", %class.Namespace*, %"class.std::__1::vector.323", i8, %"class.std::__1::vector.330" }
%"class.std::__1::vector.207" = type { %"class.std::__1::__vector_base.208" }
%"class.std::__1::__vector_base.208" = type { %"class.cdot::cl::Class"**, %"class.cdot::cl::Class"**, %"class.std::__1::__compressed_pair.209" }
%"class.std::__1::__compressed_pair.209" = type { %"class.std::__1::__libcpp_compressed_pair_imp.210" }
%"class.std::__1::__libcpp_compressed_pair_imp.210" = type { %"class.cdot::cl::Class"** }
%class.ClassDecl = type opaque
%"class.std::__1::map" = type { %"class.std::__1::__tree" }
%"class.std::__1::__tree" = type { %"class.std::__1::__tree_end_node"*, %"class.std::__1::__compressed_pair.213", %"class.std::__1::__compressed_pair.217" }
%"class.std::__1::__tree_end_node" = type { %"class.std::__1::__tree_node_base"* }
%"class.std::__1::__tree_node_base" = type <{ %"class.std::__1::__tree_end_node", %"class.std::__1::__tree_node_base"*, %"class.std::__1::__tree_end_node"*, i8, [7 x i8] }>
%"class.std::__1::__compressed_pair.213" = type { %"class.std::__1::__libcpp_compressed_pair_imp.214" }
%"class.std::__1::__libcpp_compressed_pair_imp.214" = type { %"class.std::__1::__tree_end_node" }
%"class.std::__1::__compressed_pair.217" = type { %"class.std::__1::__libcpp_compressed_pair_imp.218" }
%"class.std::__1::__libcpp_compressed_pair_imp.218" = type { i64 }
%"class.std::__1::vector.219" = type { %"class.std::__1::__vector_base.220" }
%"class.std::__1::__vector_base.220" = type { %"struct.std::__1::pair"*, %"struct.std::__1::pair"*, %"class.std::__1::__compressed_pair.221" }
%"struct.std::__1::pair" = type { %"class.std::__1::basic_string", %"struct.cdot::cl::Field"* }
%"struct.cdot::cl::Field" = type { %"class.std::__1::basic_string", %"class.std::__1::basic_string", %struct.TypeSpecifier, i32, %"class.std::__1::shared_ptr", %"class.llvm::Type"* }
%"class.llvm::Type" = type { %"class.llvm::LLVMContext"*, i32, i32, %"class.llvm::Type"** }
%"class.llvm::LLVMContext" = type { %"class.llvm::LLVMContextImpl"* }
%"class.llvm::LLVMContextImpl" = type opaque
%"class.std::__1::__compressed_pair.221" = type { %"class.std::__1::__libcpp_compressed_pair_imp.222" }
%"class.std::__1::__libcpp_compressed_pair_imp.222" = type { %"struct.std::__1::pair"* }
%"class.std::__1::unordered_multimap" = type { %"class.std::__1::__hash_table.225" }
%"class.std::__1::__hash_table.225" = type <{ %"class.std::__1::unique_ptr.226", %"class.std::__1::__compressed_pair.235", %"class.std::__1::__compressed_pair.239", %"class.std::__1::__compressed_pair.242", [4 x i8] }>
%"class.std::__1::unique_ptr.226" = type { %"class.std::__1::__compressed_pair.227" }
%"class.std::__1::__compressed_pair.227" = type { %"class.std::__1::__libcpp_compressed_pair_imp.228" }
%"class.std::__1::__libcpp_compressed_pair_imp.228" = type { %"struct.std::__1::__hash_node_base.229"**, %"class.std::__1::__bucket_list_deallocator.230" }
%"struct.std::__1::__hash_node_base.229" = type { %"struct.std::__1::__hash_node_base.229"* }
%"class.std::__1::__bucket_list_deallocator.230" = type { %"class.std::__1::__compressed_pair.231" }
%"class.std::__1::__compressed_pair.231" = type { %"class.std::__1::__libcpp_compressed_pair_imp.232" }
%"class.std::__1::__libcpp_compressed_pair_imp.232" = type { i64 }
%"class.std::__1::__compressed_pair.235" = type { %"class.std::__1::__libcpp_compressed_pair_imp.236" }
%"class.std::__1::__libcpp_compressed_pair_imp.236" = type { %"struct.std::__1::__hash_node_base.229" }
%"class.std::__1::__compressed_pair.239" = type { %"class.std::__1::__libcpp_compressed_pair_imp.240" }
%"class.std::__1::__libcpp_compressed_pair_imp.240" = type { i64 }
%"class.std::__1::__compressed_pair.242" = type { %"class.std::__1::__libcpp_compressed_pair_imp.243" }
%"class.std::__1::__libcpp_compressed_pair_imp.243" = type { float }
%"class.std::__1::vector.246" = type { %"class.std::__1::__vector_base.247" }
%"class.std::__1::__vector_base.247" = type { %"struct.std::__1::pair.248"*, %"struct.std::__1::pair.248"*, %"class.std::__1::__compressed_pair.249" }
%"struct.std::__1::pair.248" = type opaque
%"class.std::__1::__compressed_pair.249" = type { %"class.std::__1::__libcpp_compressed_pair_imp.250" }
%"class.std::__1::__libcpp_compressed_pair_imp.250" = type { %"struct.std::__1::pair.248"* }
%"class.std::__1::vector.253" = type { %"class.std::__1::__vector_base.254" }
%"class.std::__1::__vector_base.254" = type { %"struct.cdot::cl::Method"**, %"struct.cdot::cl::Method"**, %"class.std::__1::__compressed_pair.275" }
%"struct.cdot::cl::Method" = type { %"class.std::__1::basic_string", %"class.std::__1::basic_string", %struct.TypeSpecifier, %"class.std::__1::vector", %"class.std::__1::vector.20", %"class.std::__1::vector.255", i32, %struct.TypeSpecifier*, %"class.llvm::Function"* }
%"class.std::__1::vector.255" = type { %"class.std::__1::__vector_base.256" }
%"class.std::__1::__vector_base.256" = type { %"class.std::__1::shared_ptr"*, %"class.std::__1::shared_ptr"*, %"class.std::__1::__compressed_pair.257" }
%"class.std::__1::__compressed_pair.257" = type { %"class.std::__1::__libcpp_compressed_pair_imp.258" }
%"class.std::__1::__libcpp_compressed_pair_imp.258" = type { %"class.std::__1::shared_ptr"* }
%"class.llvm::Function" = type { %"class.llvm::GlobalObject", %"class.llvm::ilist_node", %"class.llvm::SymbolTableList", %"class.llvm::SymbolTableList.262", %"class.std::__1::unique_ptr.270", %"class.llvm::AttributeSet" }
%"class.llvm::GlobalObject" = type { %"class.llvm::GlobalValue", %"class.llvm::Comdat"* }
%"class.llvm::GlobalValue" = type { %"class.llvm::Constant", %"class.llvm::Type"*, i32, i32, %"class.llvm::Module"* }
%"class.llvm::Constant" = type { %"class.llvm::User" }
%"class.llvm::User" = type { %"class.llvm::Value" }
%"class.llvm::Value" = type { i32 (...)**, %"class.llvm::Type"*, %"class.llvm::Use"*, i8, i8, i16, i32 }
%"class.llvm::Use" = type { %"class.llvm::Value"*, %"class.llvm::Use"*, %"class.llvm::PointerIntPair" }
%"class.llvm::PointerIntPair" = type { i64 }
%"class.llvm::Module" = type opaque
%"class.llvm::Comdat" = type opaque
%"class.llvm::ilist_node" = type { %"class.llvm::ilist_node_impl" }
%"class.llvm::ilist_node_impl" = type { %"class.llvm::ilist_node_base" }
%"class.llvm::ilist_node_base" = type { %"class.llvm::ilist_node_base"*, %"class.llvm::ilist_node_base"* }
%"class.llvm::SymbolTableList" = type { %"class.llvm::iplist_impl" }
%"class.llvm::iplist_impl" = type { %"class.llvm::simple_ilist" }
%"class.llvm::simple_ilist" = type { %"class.llvm::ilist_sentinel" }
%"class.llvm::ilist_sentinel" = type { %"class.llvm::ilist_node_impl.261" }
%"class.llvm::ilist_node_impl.261" = type { %"class.llvm::ilist_node_base" }
%"class.llvm::SymbolTableList.262" = type { %"class.llvm::iplist_impl.263" }
%"class.llvm::iplist_impl.263" = type { %"class.llvm::simple_ilist.266" }
%"class.llvm::simple_ilist.266" = type { %"class.llvm::ilist_sentinel.268" }
%"class.llvm::ilist_sentinel.268" = type { %"class.llvm::ilist_node_impl.269" }
%"class.llvm::ilist_node_impl.269" = type { %"class.llvm::ilist_node_base" }
%"class.std::__1::unique_ptr.270" = type { %"class.std::__1::__compressed_pair.271" }
%"class.std::__1::__compressed_pair.271" = type { %"class.std::__1::__libcpp_compressed_pair_imp.272" }
%"class.std::__1::__libcpp_compressed_pair_imp.272" = type { %"class.llvm::ValueSymbolTable"* }
%"class.llvm::ValueSymbolTable" = type opaque
%"class.llvm::AttributeSet" = type { %"class.llvm::AttributeSetImpl"* }
%"class.llvm::AttributeSetImpl" = type opaque
%"class.std::__1::__compressed_pair.275" = type { %"class.std::__1::__libcpp_compressed_pair_imp.276" }
%"class.std::__1::__libcpp_compressed_pair_imp.276" = type { %"struct.cdot::cl::Method"** }
%"class.std::__1::unordered_map.279" = type { %"class.std::__1::__hash_table.280" }
%"class.std::__1::__hash_table.280" = type <{ %"class.std::__1::unique_ptr.281", %"class.std::__1::__compressed_pair.290", %"class.std::__1::__compressed_pair.294", %"class.std::__1::__compressed_pair.297", [4 x i8] }>
%"class.std::__1::unique_ptr.281" = type { %"class.std::__1::__compressed_pair.282" }
%"class.std::__1::__compressed_pair.282" = type { %"class.std::__1::__libcpp_compressed_pair_imp.283" }
%"class.std::__1::__libcpp_compressed_pair_imp.283" = type { %"struct.std::__1::__hash_node_base.284"**, %"class.std::__1::__bucket_list_deallocator.285" }
%"struct.std::__1::__hash_node_base.284" = type { %"struct.std::__1::__hash_node_base.284"* }
%"class.std::__1::__bucket_list_deallocator.285" = type { %"class.std::__1::__compressed_pair.286" }
%"class.std::__1::__compressed_pair.286" = type { %"class.std::__1::__libcpp_compressed_pair_imp.287" }
%"class.std::__1::__libcpp_compressed_pair_imp.287" = type { i64 }
%"class.std::__1::__compressed_pair.290" = type { %"class.std::__1::__libcpp_compressed_pair_imp.291" }
%"class.std::__1::__libcpp_compressed_pair_imp.291" = type { %"struct.std::__1::__hash_node_base.284" }
%"class.std::__1::__compressed_pair.294" = type { %"class.std::__1::__libcpp_compressed_pair_imp.295" }
%"class.std::__1::__libcpp_compressed_pair_imp.295" = type { i64 }
%"class.std::__1::__compressed_pair.297" = type { %"class.std::__1::__libcpp_compressed_pair_imp.298" }
%"class.std::__1::__libcpp_compressed_pair_imp.298" = type { float }
%"class.std::__1::unordered_map.301" = type { %"class.std::__1::__hash_table.302" }
%"class.std::__1::__hash_table.302" = type <{ %"class.std::__1::unique_ptr.303", %"class.std::__1::__compressed_pair.312", %"class.std::__1::__compressed_pair.316", %"class.std::__1::__compressed_pair.319", [4 x i8] }>
%"class.std::__1::unique_ptr.303" = type { %"class.std::__1::__compressed_pair.304" }
%"class.std::__1::__compressed_pair.304" = type { %"class.std::__1::__libcpp_compressed_pair_imp.305" }
%"class.std::__1::__libcpp_compressed_pair_imp.305" = type { %"struct.std::__1::__hash_node_base.306"**, %"class.std::__1::__bucket_list_deallocator.307" }
%"struct.std::__1::__hash_node_base.306" = type { %"struct.std::__1::__hash_node_base.306"* }
%"class.std::__1::__bucket_list_deallocator.307" = type { %"class.std::__1::__compressed_pair.308" }
%"class.std::__1::__compressed_pair.308" = type { %"class.std::__1::__libcpp_compressed_pair_imp.309" }
%"class.std::__1::__libcpp_compressed_pair_imp.309" = type { i64 }
%"class.std::__1::__compressed_pair.312" = type { %"class.std::__1::__libcpp_compressed_pair_imp.313" }
%"class.std::__1::__libcpp_compressed_pair_imp.313" = type { %"struct.std::__1::__hash_node_base.306" }
%"class.std::__1::__compressed_pair.316" = type { %"class.std::__1::__libcpp_compressed_pair_imp.317" }
%"class.std::__1::__libcpp_compressed_pair_imp.317" = type { i64 }
%"class.std::__1::__compressed_pair.319" = type { %"class.std::__1::__libcpp_compressed_pair_imp.320" }
%"class.std::__1::__libcpp_compressed_pair_imp.320" = type { float }
%"class.std::__1::vector.323" = type { %"class.std::__1::__vector_base.324" }
%"class.std::__1::__vector_base.324" = type { %"struct.std::__1::pair.325"*, %"struct.std::__1::pair.325"*, %"class.std::__1::__compressed_pair.326" }
%"struct.std::__1::pair.325" = type { %"class.std::__1::basic_string", %struct.TypeSpecifier }
%"class.std::__1::__compressed_pair.326" = type { %"class.std::__1::__libcpp_compressed_pair_imp.327" }
%"class.std::__1::__libcpp_compressed_pair_imp.327" = type { %"struct.std::__1::pair.325"* }
%"class.std::__1::vector.330" = type { %"class.std::__1::__vector_base.331" }
%"class.std::__1::__vector_base.331" = type { %"struct.std::__1::pair.332"*, %"struct.std::__1::pair.332"*, %"class.std::__1::__compressed_pair.333" }
%"struct.std::__1::pair.332" = type { %"class.std::__1::basic_string", %"class.std::__1::basic_string" }
%"class.std::__1::__compressed_pair.333" = type { %"class.std::__1::__libcpp_compressed_pair_imp.334" }
%"class.std::__1::__libcpp_compressed_pair_imp.334" = type { %"struct.std::__1::pair.332"* }
%"class.std::__1::__wrap_iter.362" = type { %"class.std::__1::basic_string"* }
%"class.std::__1::__wrap_iter.337" = type { i32* }
%"class.std::__1::allocator.342" = type { i8 }
%"class.std::__1::__libcpp_compressed_pair_imp.341" = type { %class.AstNode** }
%"class.std::__1::__compressed_pair.340" = type { %"class.std::__1::__libcpp_compressed_pair_imp.341" }
%"class.std::__1::__vector_base.339" = type { %class.AstNode**, %class.AstNode**, %"class.std::__1::__compressed_pair.340" }
%"class.std::__1::vector.338" = type { %"class.std::__1::__vector_base.339" }
%"class.std::__1::allocator.24" = type { i8 }
%"class.std::__1::allocator.6" = type { i8 }
%"class.std::__1::allocator.18" = type { i8 }
%"struct.std::__1::integral_constant.344" = type { i8 }
%"struct.std::__1::__has_destroy" = type { i8 }
%"struct.std::__1::random_access_iterator_tag" = type { i8 }
%"struct.std::__1::__has_construct" = type { i8 }
%"struct.std::__1::vector<std::__1::basic_string<char>, std::__1::allocator<std::__1::basic_string<char> > >::__RAII_IncreaseAnnotator" = type { i8 }
%"struct.std::__1::__has_max_size" = type { i8 }
%"struct.std::__1::__has_destroy.346" = type { i8 }
%"struct.std::__1::__has_construct.345" = type { i8 }
%"struct.std::__1::vector<TypeSpecifier, std::__1::allocator<TypeSpecifier> >::__RAII_IncreaseAnnotator" = type { i8 }
%"struct.std::__1::__has_max_size.347" = type { i8 }
%"class.std::__1::__hash_const_iterator" = type { %"struct.std::__1::__hash_node_base"* }
%"class.std::__1::__hash_map_const_iterator" = type { %"class.std::__1::__hash_const_iterator" }
%"struct.std::__1::__has_select_on_container_copy_construction" = type { i8 }
%"struct.std::__1::__has_select_on_container_copy_construction.352" = type { i8 }
%"struct.std::__1::__has_construct.358" = type { i8 }
%"struct.std::__1::__has_select_on_container_copy_construction.359" = type { i8 }
%"struct.std::__1::__has_select_on_container_copy_construction.360" = type { i8 }
%"class.std::__1::allocator.183" = type { i8 }
%"struct.std::__1::__has_destroy.361" = type { i8 }
%"struct.std::__1::__has_destroy.363" = type { i8 }
%"struct.std::__1::pair.364" = type { i64, i64 }
%"struct.std::__1::__has_construct.366" = type { i8 }
%"struct.std::__1::__has_construct.383" = type { i8 }
%"class.std::__1::allocator.140" = type { i8 }
%"struct.std::__1::__has_construct.401" = type { i8 }
%"class.std::__1::allocator.162" = type { i8 }
%"struct.std::__1::__has_construct.416" = type { i8 }
%"class.std::__1::allocator.194" = type { i8 }
%"struct.std::__1::__has_select_on_container_copy_construction.418" = type { i8 }
%"struct.std::__1::vector<ValueType, std::__1::allocator<ValueType> >::__RAII_IncreaseAnnotator" = type { i8 }
%"struct.std::__1::__has_max_size.419" = type { i8 }

@_ZN4llvm24DisableABIBreakingChecksE = external global i32, align 4
@_ZN4llvm30VerifyDisableABIBreakingChecksE = weak hidden global i32* @_ZN4llvm24DisableABIBreakingChecksE, align 8
@.str = private unnamed_addr constant [5 x i8] c"Bool\00", align 1
@.str.1 = private unnamed_addr constant [7 x i8] c"Double\00", align 1
@.str.2 = private unnamed_addr constant [4 x i8] c"Int\00", align 1
@.str.3 = private unnamed_addr constant [6 x i8] c"Float\00", align 1
@.str.4 = private unnamed_addr constant [5 x i8] c"Char\00", align 1
@.str.5 = private unnamed_addr constant [7 x i8] c"String\00", align 1
@.str.6 = private unnamed_addr constant [1 x i8] zeroinitializer, align 1
@.str.7 = private unnamed_addr constant [36 x i8] c"Value cannot be converted to double\00", align 1
@.str.8 = private unnamed_addr constant [33 x i8] c"Value cannot be converted to int\00", align 1
@.str.9 = private unnamed_addr constant [34 x i8] c"Value cannot be converted to long\00", align 1
@.str.10 = private unnamed_addr constant [35 x i8] c"Value cannot be converted to float\00", align 1
@.str.11 = private unnamed_addr constant [34 x i8] c"Value cannot be converted to char\00", align 1
@.str.12 = private unnamed_addr constant [22 x i8] c"Value is not a string\00", align 1
@.str.13 = private unnamed_addr constant [5 x i8] c"null\00", align 1
@.str.14 = private unnamed_addr constant [5 x i8] c"true\00", align 1
@.str.15 = private unnamed_addr constant [6 x i8] c"false\00", align 1
@.str.16 = private unnamed_addr constant [27 x i8] c"Cannot hash value of type \00", align 1
@.str.17 = private unnamed_addr constant [32 x i8] c"Trying to assign value of type \00", align 1
@.str.18 = private unnamed_addr constant [22 x i8] c" to variable of type \00", align 1
@.str.19 = private unnamed_addr constant [2 x i8] c"?\00", align 1
@.str.20 = private unnamed_addr constant [2 x i8] c"[\00", align 1
@.str.21 = private unnamed_addr constant [2 x i8] c"]\00", align 1
@.str.22 = private unnamed_addr constant [2 x i8] c"(\00", align 1
@.str.23 = private unnamed_addr constant [3 x i8] c", \00", align 1
@.str.24 = private unnamed_addr constant [6 x i8] c") -> \00", align 1
@_ZN4util7typemapE = external global %"class.std::__1::unordered_map.131", align 8
@.str.25 = private unnamed_addr constant [5 x i8] c"auto\00", align 1
@_ZN4util5typesE = external global %"class.std::__1::unordered_map.153", align 8
@_ZN4util8classmapE = external global %"class.std::__1::unordered_map.153", align 8
@_ZN4util25implicit_type_conversionsE = external global %"class.std::__1::unordered_map.185", align 8
@_ZN4util25explicit_type_conversionsE = external global %"class.std::__1::unordered_map.185", align 8
@.str.26 = private unnamed_addr constant [5 x i8] c"init\00", align 1
@_ZNSt3__1L19piecewise_constructE = internal constant %"struct.std::__1::piecewise_construct_t" undef, align 1

; Function Attrs: ssp uwtable
define void @_ZN7VariantC2Ev(%struct.Variant*) unnamed_addr #0 align 2 personality i8* bitcast (i32 (...)* @__gxx_personality_v0 to i8*) {
  %2 = alloca %"class.std::__1::__libcpp_compressed_pair_imp"*, align 8
  %3 = alloca %"class.std::__1::__compressed_pair"*, align 8
  %4 = alloca %"class.std::__1::basic_string"*, align 8
  %5 = alloca [3 x i64]*, align 8
  %6 = alloca i32, align 4
  %7 = alloca %"class.std::__1::allocator"*, align 8
  %8 = alloca %"class.std::__1::__libcpp_compressed_pair_imp"*, align 8
  %9 = alloca %"class.std::__1::__compressed_pair"*, align 8
  %10 = alloca %"class.std::__1::__compressed_pair"*, align 8
  %11 = alloca %"class.std::__1::basic_string"*, align 8
  %12 = alloca %"class.std::__1::basic_string"*, align 8
  %13 = alloca %struct.Variant*, align 8
  %14 = alloca i8*
  %15 = alloca i32
  store %struct.Variant* %0, %struct.Variant** %13, align 8
  %16 = load %struct.Variant*, %struct.Variant** %13, align 8
  %17 = getelementptr inbounds %struct.Variant, %struct.Variant* %16, i32 0, i32 1
  store i8 0, i8* %17, align 8
  %18 = getelementptr inbounds %struct.Variant, %struct.Variant* %16, i32 0, i32 3
  store %"class.std::__1::basic_string"* %18, %"class.std::__1::basic_string"** %12, align 8
  %19 = load %"class.std::__1::basic_string"*, %"class.std::__1::basic_string"** %12, align 8
  store %"class.std::__1::basic_string"* %19, %"class.std::__1::basic_string"** %11, align 8
  %20 = load %"class.std::__1::basic_string"*, %"class.std::__1::basic_string"** %11, align 8
  %21 = bitcast %"class.std::__1::basic_string"* %20 to %"class.std::__1::__basic_string_common"*
  %22 = getelementptr inbounds %"class.std::__1::basic_string", %"class.std::__1::basic_string"* %20, i32 0, i32 0
  store %"class.std::__1::__compressed_pair"* %22, %"class.std::__1::__compressed_pair"** %10, align 8
  %23 = load %"class.std::__1::__compressed_pair"*, %"class.std::__1::__compressed_pair"** %10, align 8
  store %"class.std::__1::__compressed_pair"* %23, %"class.std::__1::__compressed_pair"** %9, align 8
  %24 = load %"class.std::__1::__compressed_pair"*, %"class.std::__1::__compressed_pair"** %9, align 8
  %25 = bitcast %"class.std::__1::__compressed_pair"* %24 to %"class.std::__1::__libcpp_compressed_pair_imp"*
  store %"class.std::__1::__libcpp_compressed_pair_imp"* %25, %"class.std::__1::__libcpp_compressed_pair_imp"** %8, align 8
  %26 = load %"class.std::__1::__libcpp_compressed_pair_imp"*, %"class.std::__1::__libcpp_compressed_pair_imp"** %8, align 8
  %27 = bitcast %"class.std::__1::__libcpp_compressed_pair_imp"* %26 to %"class.std::__1::allocator"*
  store %"class.std::__1::allocator"* %27, %"class.std::__1::allocator"** %7, align 8
  %28 = load %"class.std::__1::allocator"*, %"class.std::__1::allocator"** %7, align 8
  %29 = getelementptr inbounds %"class.std::__1::__libcpp_compressed_pair_imp", %"class.std::__1::__libcpp_compressed_pair_imp"* %26, i32 0, i32 0
  %30 = bitcast %"struct.std::__1::basic_string<char, std::__1::char_traits<char>, std::__1::allocator<char> >::__rep"* %29 to i8*
  call void @llvm.memset.p0i8.i64(i8* %30, i8 0, i64 24, i32 8, i1 false) #12
  store %"class.std::__1::basic_string"* %20, %"class.std::__1::basic_string"** %4, align 8
  %31 = load %"class.std::__1::basic_string"*, %"class.std::__1::basic_string"** %4, align 8
  %32 = getelementptr inbounds %"class.std::__1::basic_string", %"class.std::__1::basic_string"* %31, i32 0, i32 0
  store %"class.std::__1::__compressed_pair"* %32, %"class.std::__1::__compressed_pair"** %3, align 8
  %33 = load %"class.std::__1::__compressed_pair"*, %"class.std::__1::__compressed_pair"** %3, align 8
  %34 = bitcast %"class.std::__1::__compressed_pair"* %33 to %"class.std::__1::__libcpp_compressed_pair_imp"*
  store %"class.std::__1::__libcpp_compressed_pair_imp"* %34, %"class.std::__1::__libcpp_compressed_pair_imp"** %2, align 8
  %35 = load %"class.std::__1::__libcpp_compressed_pair_imp"*, %"class.std::__1::__libcpp_compressed_pair_imp"** %2, align 8
  %36 = getelementptr inbounds %"class.std::__1::__libcpp_compressed_pair_imp", %"class.std::__1::__libcpp_compressed_pair_imp"* %35, i32 0, i32 0
  %37 = getelementptr inbounds %"struct.std::__1::basic_string<char, std::__1::char_traits<char>, std::__1::allocator<char> >::__rep", %"struct.std::__1::basic_string<char, std::__1::char_traits<char>, std::__1::allocator<char> >::__rep"* %36, i32 0, i32 0
  %38 = bitcast %union.anon.0* %37 to %"struct.std::__1::basic_string<char, std::__1::char_traits<char>, std::__1::allocator<char> >::__raw"*
  %39 = getelementptr inbounds %"struct.std::__1::basic_string<char, std::__1::char_traits<char>, std::__1::allocator<char> >::__raw", %"struct.std::__1::basic_string<char, std::__1::char_traits<char>, std::__1::allocator<char> >::__raw"* %38, i32 0, i32 0
  store [3 x i64]* %39, [3 x i64]** %5, align 8
  store i32 0, i32* %6, align 4
  br label %40

; <label>:40:                                     ; preds = %43, %1
  %41 = load i32, i32* %6, align 4
  %42 = icmp ult i32 %41, 3
  br i1 %42, label %43, label %50

; <label>:43:                                     ; preds = %40
  %44 = load i32, i32* %6, align 4
  %45 = zext i32 %44 to i64
  %46 = load [3 x i64]*, [3 x i64]** %5, align 8
  %47 = getelementptr inbounds [3 x i64], [3 x i64]* %46, i64 0, i64 %45
  store i64 0, i64* %47, align 8
  %48 = load i32, i32* %6, align 4
  %49 = add i32 %48, 1
  store i32 %49, i32* %6, align 4
  br label %40

; <label>:50:                                     ; preds = %40
  %51 = getelementptr inbounds %struct.Variant, %struct.Variant* %16, i32 0, i32 4
  invoke void @_ZN13TypeSpecifierC1Ev(%struct.TypeSpecifier* %51)
          to label %52 unwind label %59

; <label>:52:                                     ; preds = %50
  %53 = getelementptr inbounds %struct.Variant, %struct.Variant* %16, i32 0, i32 5
  store i8 0, i8* %53, align 8
  %54 = getelementptr inbounds %struct.Variant, %struct.Variant* %16, i32 0, i32 6
  store i8 0, i8* %54, align 1
  %55 = getelementptr inbounds %struct.Variant, %struct.Variant* %16, i32 0, i32 7
  store i8 1, i8* %55, align 2
  %56 = getelementptr inbounds %struct.Variant, %struct.Variant* %16, i32 0, i32 4
  %57 = getelementptr inbounds %struct.TypeSpecifier, %struct.TypeSpecifier* %56, i32 0, i32 0
  store i32 9, i32* %57, align 8
  %58 = getelementptr inbounds %struct.Variant, %struct.Variant* %16, i32 0, i32 5
  store i8 1, i8* %58, align 8
  ret void

; <label>:59:                                     ; preds = %50
  %60 = landingpad { i8*, i32 }
          cleanup
  %61 = extractvalue { i8*, i32 } %60, 0
  store i8* %61, i8** %14, align 8
  %62 = extractvalue { i8*, i32 } %60, 1
  store i32 %62, i32* %15, align 4
  call void @_ZNSt3__112basic_stringIcNS_11char_traitsIcEENS_9allocatorIcEEED1Ev(%"class.std::__1::basic_string"* %18) #12
  br label %63

; <label>:63:                                     ; preds = %59
  %64 = load i8*, i8** %14, align 8
  %65 = load i32, i32* %15, align 4
  %66 = insertvalue { i8*, i32 } undef, i8* %64, 0
  %67 = insertvalue { i8*, i32 } %66, i32 %65, 1
  resume { i8*, i32 } %67
}

; Function Attrs: ssp uwtable
define linkonce_odr void @_ZN13TypeSpecifierC1Ev(%struct.TypeSpecifier*) unnamed_addr #0 align 2 {
  %2 = alloca %struct.TypeSpecifier*, align 8
  store %struct.TypeSpecifier* %0, %struct.TypeSpecifier** %2, align 8
  %3 = load %struct.TypeSpecifier*, %struct.TypeSpecifier** %2, align 8
  call void @_ZN13TypeSpecifierC2Ev(%struct.TypeSpecifier* %3)
  ret void
}

declare i32 @__gxx_personality_v0(...)

; Function Attrs: nounwind
declare void @_ZNSt3__112basic_stringIcNS_11char_traitsIcEENS_9allocatorIcEEED1Ev(%"class.std::__1::basic_string"*) unnamed_addr #1

; Function Attrs: ssp uwtable
define void @_ZN7VariantC1Ev(%struct.Variant*) unnamed_addr #0 align 2 {
  %2 = alloca %struct.Variant*, align 8
  store %struct.Variant* %0, %struct.Variant** %2, align 8
  %3 = load %struct.Variant*, %struct.Variant** %2, align 8
  call void @_ZN7VariantC2Ev(%struct.Variant* %3)
  ret void
}

; Function Attrs: ssp uwtable
define void @_ZN7VariantC2Eb(%struct.Variant*, i1 zeroext) unnamed_addr #0 align 2 personality i8* bitcast (i32 (...)* @__gxx_personality_v0 to i8*) {
  %3 = alloca %"class.std::__1::basic_string"*, align 8
  %4 = alloca i8*, align 8
  %5 = alloca %struct.Variant*, align 8
  %6 = alloca i8, align 1
  %7 = alloca i8*
  %8 = alloca i32
  store %struct.Variant* %0, %struct.Variant** %5, align 8
  %9 = zext i1 %1 to i8
  store i8 %9, i8* %6, align 1
  %10 = load %struct.Variant*, %struct.Variant** %5, align 8
  call void @_ZN7VariantC2Ev(%struct.Variant* %10)
  %11 = load i8, i8* %6, align 1
  %12 = trunc i8 %11 to i1
  %13 = getelementptr inbounds %struct.Variant, %struct.Variant* %10, i32 0, i32 0
  %14 = bitcast %union.anon* %13 to i8*
  %15 = zext i1 %12 to i8
  store i8 %15, i8* %14, align 8
  %16 = getelementptr inbounds %struct.Variant, %struct.Variant* %10, i32 0, i32 6
  store i8 1, i8* %16, align 1
  %17 = getelementptr inbounds %struct.Variant, %struct.Variant* %10, i32 0, i32 4
  %18 = getelementptr inbounds %struct.TypeSpecifier, %struct.TypeSpecifier* %17, i32 0, i32 1
  store %"class.std::__1::basic_string"* %18, %"class.std::__1::basic_string"** %3, align 8
  store i8* getelementptr inbounds ([5 x i8], [5 x i8]* @.str, i32 0, i32 0), i8** %4, align 8
  %19 = load %"class.std::__1::basic_string"*, %"class.std::__1::basic_string"** %3, align 8
  %20 = load i8*, i8** %4, align 8
  %21 = invoke dereferenceable(24) %"class.std::__1::basic_string"* @_ZNSt3__112basic_stringIcNS_11char_traitsIcEENS_9allocatorIcEEE6assignEPKc(%"class.std::__1::basic_string"* %19, i8* %20)
          to label %22 unwind label %29

; <label>:22:                                     ; preds = %2
  br label %23

; <label>:23:                                     ; preds = %22
  %24 = getelementptr inbounds %struct.Variant, %struct.Variant* %10, i32 0, i32 4
  %25 = getelementptr inbounds %struct.TypeSpecifier, %struct.TypeSpecifier* %24, i32 0, i32 0
  store i32 5, i32* %25, align 8
  %26 = getelementptr inbounds %struct.Variant, %struct.Variant* %10, i32 0, i32 4
  %27 = getelementptr inbounds %struct.TypeSpecifier, %struct.TypeSpecifier* %26, i32 0, i32 16
  store i8 1, i8* %27, align 1
  %28 = getelementptr inbounds %struct.Variant, %struct.Variant* %10, i32 0, i32 5
  store i8 0, i8* %28, align 8
  ret void

; <label>:29:                                     ; preds = %2
  %30 = landingpad { i8*, i32 }
          cleanup
  %31 = extractvalue { i8*, i32 } %30, 0
  store i8* %31, i8** %7, align 8
  %32 = extractvalue { i8*, i32 } %30, 1
  store i32 %32, i32* %8, align 4
  call void @_ZN7VariantD2Ev(%struct.Variant* %10) #12
  br label %33

; <label>:33:                                     ; preds = %29
  %34 = load i8*, i8** %7, align 8
  %35 = load i32, i32* %8, align 4
  %36 = insertvalue { i8*, i32 } undef, i8* %34, 0
  %37 = insertvalue { i8*, i32 } %36, i32 %35, 1
  resume { i8*, i32 } %37
}

; Function Attrs: inlinehint nounwind ssp uwtable
define linkonce_odr void @_ZN7VariantD2Ev(%struct.Variant*) unnamed_addr #2 align 2 {
  %2 = alloca %struct.Variant*, align 8
  store %struct.Variant* %0, %struct.Variant** %2, align 8
  %3 = load %struct.Variant*, %struct.Variant** %2, align 8
  %4 = getelementptr inbounds %struct.Variant, %struct.Variant* %3, i32 0, i32 4
  call void @_ZN13TypeSpecifierD1Ev(%struct.TypeSpecifier* %4) #12
  %5 = getelementptr inbounds %struct.Variant, %struct.Variant* %3, i32 0, i32 3
  call void @_ZNSt3__112basic_stringIcNS_11char_traitsIcEENS_9allocatorIcEEED1Ev(%"class.std::__1::basic_string"* %5) #12
  ret void
}

; Function Attrs: ssp uwtable
define void @_ZN7VariantC1Eb(%struct.Variant*, i1 zeroext) unnamed_addr #0 align 2 personality i8* bitcast (i32 (...)* @__gxx_personality_v0 to i8*) {
  %3 = alloca %"class.std::__1::basic_string"*, align 8
  %4 = alloca i8*, align 8
  %5 = alloca %struct.Variant*, align 8
  %6 = alloca i8, align 1
  %7 = alloca i8*
  %8 = alloca i32
  store %struct.Variant* %0, %struct.Variant** %5, align 8
  %9 = zext i1 %1 to i8
  store i8 %9, i8* %6, align 1
  %10 = load %struct.Variant*, %struct.Variant** %5, align 8
  call void @_ZN7VariantC1Ev(%struct.Variant* %10)
  %11 = load i8, i8* %6, align 1
  %12 = trunc i8 %11 to i1
  %13 = getelementptr inbounds %struct.Variant, %struct.Variant* %10, i32 0, i32 0
  %14 = bitcast %union.anon* %13 to i8*
  %15 = zext i1 %12 to i8
  store i8 %15, i8* %14, align 8
  %16 = getelementptr inbounds %struct.Variant, %struct.Variant* %10, i32 0, i32 6
  store i8 1, i8* %16, align 1
  %17 = getelementptr inbounds %struct.Variant, %struct.Variant* %10, i32 0, i32 4
  %18 = getelementptr inbounds %struct.TypeSpecifier, %struct.TypeSpecifier* %17, i32 0, i32 1
  store %"class.std::__1::basic_string"* %18, %"class.std::__1::basic_string"** %3, align 8
  store i8* getelementptr inbounds ([5 x i8], [5 x i8]* @.str, i32 0, i32 0), i8** %4, align 8
  %19 = load %"class.std::__1::basic_string"*, %"class.std::__1::basic_string"** %3, align 8
  %20 = load i8*, i8** %4, align 8
  %21 = invoke dereferenceable(24) %"class.std::__1::basic_string"* @_ZNSt3__112basic_stringIcNS_11char_traitsIcEENS_9allocatorIcEEE6assignEPKc(%"class.std::__1::basic_string"* %19, i8* %20)
          to label %22 unwind label %29

; <label>:22:                                     ; preds = %2
  br label %23

; <label>:23:                                     ; preds = %22
  %24 = getelementptr inbounds %struct.Variant, %struct.Variant* %10, i32 0, i32 4
  %25 = getelementptr inbounds %struct.TypeSpecifier, %struct.TypeSpecifier* %24, i32 0, i32 0
  store i32 5, i32* %25, align 8
  %26 = getelementptr inbounds %struct.Variant, %struct.Variant* %10, i32 0, i32 4
  %27 = getelementptr inbounds %struct.TypeSpecifier, %struct.TypeSpecifier* %26, i32 0, i32 16
  store i8 1, i8* %27, align 1
  %28 = getelementptr inbounds %struct.Variant, %struct.Variant* %10, i32 0, i32 5
  store i8 0, i8* %28, align 8
  ret void

; <label>:29:                                     ; preds = %2
  %30 = landingpad { i8*, i32 }
          cleanup
  %31 = extractvalue { i8*, i32 } %30, 0
  store i8* %31, i8** %7, align 8
  %32 = extractvalue { i8*, i32 } %30, 1
  store i32 %32, i32* %8, align 4
  call void @_ZN7VariantD1Ev(%struct.Variant* %10) #12
  br label %33

; <label>:33:                                     ; preds = %29
  %34 = load i8*, i8** %7, align 8
  %35 = load i32, i32* %8, align 4
  %36 = insertvalue { i8*, i32 } undef, i8* %34, 0
  %37 = insertvalue { i8*, i32 } %36, i32 %35, 1
  resume { i8*, i32 } %37
}

; Function Attrs: inlinehint nounwind ssp uwtable
define linkonce_odr void @_ZN7VariantD1Ev(%struct.Variant*) unnamed_addr #2 align 2 {
  %2 = alloca %struct.Variant*, align 8
  store %struct.Variant* %0, %struct.Variant** %2, align 8
  %3 = load %struct.Variant*, %struct.Variant** %2, align 8
  call void @_ZN7VariantD2Ev(%struct.Variant* %3) #12
  ret void
}

; Function Attrs: ssp uwtable
define void @_ZN7VariantC2Ed(%struct.Variant*, double) unnamed_addr #0 align 2 personality i8* bitcast (i32 (...)* @__gxx_personality_v0 to i8*) {
  %3 = alloca %"class.std::__1::basic_string"*, align 8
  %4 = alloca i8*, align 8
  %5 = alloca %struct.Variant*, align 8
  %6 = alloca double, align 8
  %7 = alloca i8*
  %8 = alloca i32
  store %struct.Variant* %0, %struct.Variant** %5, align 8
  store double %1, double* %6, align 8
  %9 = load %struct.Variant*, %struct.Variant** %5, align 8
  call void @_ZN7VariantC2Ev(%struct.Variant* %9)
  %10 = getelementptr inbounds %struct.Variant, %struct.Variant* %9, i32 0, i32 6
  store i8 1, i8* %10, align 1
  %11 = load double, double* %6, align 8
  %12 = getelementptr inbounds %struct.Variant, %struct.Variant* %9, i32 0, i32 0
  %13 = bitcast %union.anon* %12 to double*
  store double %11, double* %13, align 8
  %14 = getelementptr inbounds %struct.Variant, %struct.Variant* %9, i32 0, i32 4
  %15 = getelementptr inbounds %struct.TypeSpecifier, %struct.TypeSpecifier* %14, i32 0, i32 1
  store %"class.std::__1::basic_string"* %15, %"class.std::__1::basic_string"** %3, align 8
  store i8* getelementptr inbounds ([7 x i8], [7 x i8]* @.str.1, i32 0, i32 0), i8** %4, align 8
  %16 = load %"class.std::__1::basic_string"*, %"class.std::__1::basic_string"** %3, align 8
  %17 = load i8*, i8** %4, align 8
  %18 = invoke dereferenceable(24) %"class.std::__1::basic_string"* @_ZNSt3__112basic_stringIcNS_11char_traitsIcEENS_9allocatorIcEEE6assignEPKc(%"class.std::__1::basic_string"* %16, i8* %17)
          to label %19 unwind label %26

; <label>:19:                                     ; preds = %2
  br label %20

; <label>:20:                                     ; preds = %19
  %21 = getelementptr inbounds %struct.Variant, %struct.Variant* %9, i32 0, i32 4
  %22 = getelementptr inbounds %struct.TypeSpecifier, %struct.TypeSpecifier* %21, i32 0, i32 0
  store i32 3, i32* %22, align 8
  %23 = getelementptr inbounds %struct.Variant, %struct.Variant* %9, i32 0, i32 4
  %24 = getelementptr inbounds %struct.TypeSpecifier, %struct.TypeSpecifier* %23, i32 0, i32 16
  store i8 1, i8* %24, align 1
  %25 = getelementptr inbounds %struct.Variant, %struct.Variant* %9, i32 0, i32 5
  store i8 0, i8* %25, align 8
  ret void

; <label>:26:                                     ; preds = %2
  %27 = landingpad { i8*, i32 }
          cleanup
  %28 = extractvalue { i8*, i32 } %27, 0
  store i8* %28, i8** %7, align 8
  %29 = extractvalue { i8*, i32 } %27, 1
  store i32 %29, i32* %8, align 4
  call void @_ZN7VariantD2Ev(%struct.Variant* %9) #12
  br label %30

; <label>:30:                                     ; preds = %26
  %31 = load i8*, i8** %7, align 8
  %32 = load i32, i32* %8, align 4
  %33 = insertvalue { i8*, i32 } undef, i8* %31, 0
  %34 = insertvalue { i8*, i32 } %33, i32 %32, 1
  resume { i8*, i32 } %34
}

; Function Attrs: ssp uwtable
define void @_ZN7VariantC1Ed(%struct.Variant*, double) unnamed_addr #0 align 2 personality i8* bitcast (i32 (...)* @__gxx_personality_v0 to i8*) {
  %3 = alloca %"class.std::__1::basic_string"*, align 8
  %4 = alloca i8*, align 8
  %5 = alloca %struct.Variant*, align 8
  %6 = alloca double, align 8
  %7 = alloca i8*
  %8 = alloca i32
  store %struct.Variant* %0, %struct.Variant** %5, align 8
  store double %1, double* %6, align 8
  %9 = load %struct.Variant*, %struct.Variant** %5, align 8
  call void @_ZN7VariantC1Ev(%struct.Variant* %9)
  %10 = getelementptr inbounds %struct.Variant, %struct.Variant* %9, i32 0, i32 6
  store i8 1, i8* %10, align 1
  %11 = load double, double* %6, align 8
  %12 = getelementptr inbounds %struct.Variant, %struct.Variant* %9, i32 0, i32 0
  %13 = bitcast %union.anon* %12 to double*
  store double %11, double* %13, align 8
  %14 = getelementptr inbounds %struct.Variant, %struct.Variant* %9, i32 0, i32 4
  %15 = getelementptr inbounds %struct.TypeSpecifier, %struct.TypeSpecifier* %14, i32 0, i32 1
  store %"class.std::__1::basic_string"* %15, %"class.std::__1::basic_string"** %3, align 8
  store i8* getelementptr inbounds ([7 x i8], [7 x i8]* @.str.1, i32 0, i32 0), i8** %4, align 8
  %16 = load %"class.std::__1::basic_string"*, %"class.std::__1::basic_string"** %3, align 8
  %17 = load i8*, i8** %4, align 8
  %18 = invoke dereferenceable(24) %"class.std::__1::basic_string"* @_ZNSt3__112basic_stringIcNS_11char_traitsIcEENS_9allocatorIcEEE6assignEPKc(%"class.std::__1::basic_string"* %16, i8* %17)
          to label %19 unwind label %26

; <label>:19:                                     ; preds = %2
  br label %20

; <label>:20:                                     ; preds = %19
  %21 = getelementptr inbounds %struct.Variant, %struct.Variant* %9, i32 0, i32 4
  %22 = getelementptr inbounds %struct.TypeSpecifier, %struct.TypeSpecifier* %21, i32 0, i32 0
  store i32 3, i32* %22, align 8
  %23 = getelementptr inbounds %struct.Variant, %struct.Variant* %9, i32 0, i32 4
  %24 = getelementptr inbounds %struct.TypeSpecifier, %struct.TypeSpecifier* %23, i32 0, i32 16
  store i8 1, i8* %24, align 1
  %25 = getelementptr inbounds %struct.Variant, %struct.Variant* %9, i32 0, i32 5
  store i8 0, i8* %25, align 8
  ret void

; <label>:26:                                     ; preds = %2
  %27 = landingpad { i8*, i32 }
          cleanup
  %28 = extractvalue { i8*, i32 } %27, 0
  store i8* %28, i8** %7, align 8
  %29 = extractvalue { i8*, i32 } %27, 1
  store i32 %29, i32* %8, align 4
  call void @_ZN7VariantD1Ev(%struct.Variant* %9) #12
  br label %30

; <label>:30:                                     ; preds = %26
  %31 = load i8*, i8** %7, align 8
  %32 = load i32, i32* %8, align 4
  %33 = insertvalue { i8*, i32 } undef, i8* %31, 0
  %34 = insertvalue { i8*, i32 } %33, i32 %32, 1
  resume { i8*, i32 } %34
}

; Function Attrs: ssp uwtable
define void @_ZN7VariantC2Ei(%struct.Variant*, i32) unnamed_addr #0 align 2 personality i8* bitcast (i32 (...)* @__gxx_personality_v0 to i8*) {
  %3 = alloca %"class.std::__1::basic_string"*, align 8
  %4 = alloca i8*, align 8
  %5 = alloca %struct.Variant*, align 8
  %6 = alloca i32, align 4
  %7 = alloca i8*
  %8 = alloca i32
  store %struct.Variant* %0, %struct.Variant** %5, align 8
  store i32 %1, i32* %6, align 4
  %9 = load %struct.Variant*, %struct.Variant** %5, align 8
  call void @_ZN7VariantC2Ev(%struct.Variant* %9)
  %10 = load i32, i32* %6, align 4
  %11 = getelementptr inbounds %struct.Variant, %struct.Variant* %9, i32 0, i32 0
  %12 = bitcast %union.anon* %11 to i32*
  store i32 %10, i32* %12, align 8
  %13 = getelementptr inbounds %struct.Variant, %struct.Variant* %9, i32 0, i32 6
  store i8 1, i8* %13, align 1
  %14 = getelementptr inbounds %struct.Variant, %struct.Variant* %9, i32 0, i32 4
  %15 = getelementptr inbounds %struct.TypeSpecifier, %struct.TypeSpecifier* %14, i32 0, i32 1
  store %"class.std::__1::basic_string"* %15, %"class.std::__1::basic_string"** %3, align 8
  store i8* getelementptr inbounds ([4 x i8], [4 x i8]* @.str.2, i32 0, i32 0), i8** %4, align 8
  %16 = load %"class.std::__1::basic_string"*, %"class.std::__1::basic_string"** %3, align 8
  %17 = load i8*, i8** %4, align 8
  %18 = invoke dereferenceable(24) %"class.std::__1::basic_string"* @_ZNSt3__112basic_stringIcNS_11char_traitsIcEENS_9allocatorIcEEE6assignEPKc(%"class.std::__1::basic_string"* %16, i8* %17)
          to label %19 unwind label %26

; <label>:19:                                     ; preds = %2
  br label %20

; <label>:20:                                     ; preds = %19
  %21 = getelementptr inbounds %struct.Variant, %struct.Variant* %9, i32 0, i32 4
  %22 = getelementptr inbounds %struct.TypeSpecifier, %struct.TypeSpecifier* %21, i32 0, i32 16
  store i8 1, i8* %22, align 1
  %23 = getelementptr inbounds %struct.Variant, %struct.Variant* %9, i32 0, i32 4
  %24 = getelementptr inbounds %struct.TypeSpecifier, %struct.TypeSpecifier* %23, i32 0, i32 0
  store i32 0, i32* %24, align 8
  %25 = getelementptr inbounds %struct.Variant, %struct.Variant* %9, i32 0, i32 5
  store i8 0, i8* %25, align 8
  ret void

; <label>:26:                                     ; preds = %2
  %27 = landingpad { i8*, i32 }
          cleanup
  %28 = extractvalue { i8*, i32 } %27, 0
  store i8* %28, i8** %7, align 8
  %29 = extractvalue { i8*, i32 } %27, 1
  store i32 %29, i32* %8, align 4
  call void @_ZN7VariantD2Ev(%struct.Variant* %9) #12
  br label %30

; <label>:30:                                     ; preds = %26
  %31 = load i8*, i8** %7, align 8
  %32 = load i32, i32* %8, align 4
  %33 = insertvalue { i8*, i32 } undef, i8* %31, 0
  %34 = insertvalue { i8*, i32 } %33, i32 %32, 1
  resume { i8*, i32 } %34
}

; Function Attrs: ssp uwtable
define void @_ZN7VariantC1Ei(%struct.Variant*, i32) unnamed_addr #0 align 2 personality i8* bitcast (i32 (...)* @__gxx_personality_v0 to i8*) {
  %3 = alloca %"class.std::__1::basic_string"*, align 8
  %4 = alloca i8*, align 8
  %5 = alloca %struct.Variant*, align 8
  %6 = alloca i32, align 4
  %7 = alloca i8*
  %8 = alloca i32
  store %struct.Variant* %0, %struct.Variant** %5, align 8
  store i32 %1, i32* %6, align 4
  %9 = load %struct.Variant*, %struct.Variant** %5, align 8
  call void @_ZN7VariantC1Ev(%struct.Variant* %9)
  %10 = load i32, i32* %6, align 4
  %11 = getelementptr inbounds %struct.Variant, %struct.Variant* %9, i32 0, i32 0
  %12 = bitcast %union.anon* %11 to i32*
  store i32 %10, i32* %12, align 8
  %13 = getelementptr inbounds %struct.Variant, %struct.Variant* %9, i32 0, i32 6
  store i8 1, i8* %13, align 1
  %14 = getelementptr inbounds %struct.Variant, %struct.Variant* %9, i32 0, i32 4
  %15 = getelementptr inbounds %struct.TypeSpecifier, %struct.TypeSpecifier* %14, i32 0, i32 1
  store %"class.std::__1::basic_string"* %15, %"class.std::__1::basic_string"** %3, align 8
  store i8* getelementptr inbounds ([4 x i8], [4 x i8]* @.str.2, i32 0, i32 0), i8** %4, align 8
  %16 = load %"class.std::__1::basic_string"*, %"class.std::__1::basic_string"** %3, align 8
  %17 = load i8*, i8** %4, align 8
  %18 = invoke dereferenceable(24) %"class.std::__1::basic_string"* @_ZNSt3__112basic_stringIcNS_11char_traitsIcEENS_9allocatorIcEEE6assignEPKc(%"class.std::__1::basic_string"* %16, i8* %17)
          to label %19 unwind label %26

; <label>:19:                                     ; preds = %2
  br label %20

; <label>:20:                                     ; preds = %19
  %21 = getelementptr inbounds %struct.Variant, %struct.Variant* %9, i32 0, i32 4
  %22 = getelementptr inbounds %struct.TypeSpecifier, %struct.TypeSpecifier* %21, i32 0, i32 16
  store i8 1, i8* %22, align 1
  %23 = getelementptr inbounds %struct.Variant, %struct.Variant* %9, i32 0, i32 4
  %24 = getelementptr inbounds %struct.TypeSpecifier, %struct.TypeSpecifier* %23, i32 0, i32 0
  store i32 0, i32* %24, align 8
  %25 = getelementptr inbounds %struct.Variant, %struct.Variant* %9, i32 0, i32 5
  store i8 0, i8* %25, align 8
  ret void

; <label>:26:                                     ; preds = %2
  %27 = landingpad { i8*, i32 }
          cleanup
  %28 = extractvalue { i8*, i32 } %27, 0
  store i8* %28, i8** %7, align 8
  %29 = extractvalue { i8*, i32 } %27, 1
  store i32 %29, i32* %8, align 4
  call void @_ZN7VariantD1Ev(%struct.Variant* %9) #12
  br label %30

; <label>:30:                                     ; preds = %26
  %31 = load i8*, i8** %7, align 8
  %32 = load i32, i32* %8, align 4
  %33 = insertvalue { i8*, i32 } undef, i8* %31, 0
  %34 = insertvalue { i8*, i32 } %33, i32 %32, 1
  resume { i8*, i32 } %34
}

; Function Attrs: ssp uwtable
define void @_ZN7VariantC2Ef(%struct.Variant*, float) unnamed_addr #0 align 2 personality i8* bitcast (i32 (...)* @__gxx_personality_v0 to i8*) {
  %3 = alloca %"class.std::__1::basic_string"*, align 8
  %4 = alloca i8*, align 8
  %5 = alloca %struct.Variant*, align 8
  %6 = alloca float, align 4
  %7 = alloca i8*
  %8 = alloca i32
  store %struct.Variant* %0, %struct.Variant** %5, align 8
  store float %1, float* %6, align 4
  %9 = load %struct.Variant*, %struct.Variant** %5, align 8
  call void @_ZN7VariantC2Ev(%struct.Variant* %9)
  %10 = load float, float* %6, align 4
  %11 = getelementptr inbounds %struct.Variant, %struct.Variant* %9, i32 0, i32 0
  %12 = bitcast %union.anon* %11 to float*
  store float %10, float* %12, align 8
  %13 = getelementptr inbounds %struct.Variant, %struct.Variant* %9, i32 0, i32 6
  store i8 1, i8* %13, align 1
  %14 = getelementptr inbounds %struct.Variant, %struct.Variant* %9, i32 0, i32 4
  %15 = getelementptr inbounds %struct.TypeSpecifier, %struct.TypeSpecifier* %14, i32 0, i32 1
  store %"class.std::__1::basic_string"* %15, %"class.std::__1::basic_string"** %3, align 8
  store i8* getelementptr inbounds ([6 x i8], [6 x i8]* @.str.3, i32 0, i32 0), i8** %4, align 8
  %16 = load %"class.std::__1::basic_string"*, %"class.std::__1::basic_string"** %3, align 8
  %17 = load i8*, i8** %4, align 8
  %18 = invoke dereferenceable(24) %"class.std::__1::basic_string"* @_ZNSt3__112basic_stringIcNS_11char_traitsIcEENS_9allocatorIcEEE6assignEPKc(%"class.std::__1::basic_string"* %16, i8* %17)
          to label %19 unwind label %26

; <label>:19:                                     ; preds = %2
  br label %20

; <label>:20:                                     ; preds = %19
  %21 = getelementptr inbounds %struct.Variant, %struct.Variant* %9, i32 0, i32 4
  %22 = getelementptr inbounds %struct.TypeSpecifier, %struct.TypeSpecifier* %21, i32 0, i32 0
  store i32 2, i32* %22, align 8
  %23 = getelementptr inbounds %struct.Variant, %struct.Variant* %9, i32 0, i32 4
  %24 = getelementptr inbounds %struct.TypeSpecifier, %struct.TypeSpecifier* %23, i32 0, i32 16
  store i8 1, i8* %24, align 1
  %25 = getelementptr inbounds %struct.Variant, %struct.Variant* %9, i32 0, i32 5
  store i8 0, i8* %25, align 8
  ret void

; <label>:26:                                     ; preds = %2
  %27 = landingpad { i8*, i32 }
          cleanup
  %28 = extractvalue { i8*, i32 } %27, 0
  store i8* %28, i8** %7, align 8
  %29 = extractvalue { i8*, i32 } %27, 1
  store i32 %29, i32* %8, align 4
  call void @_ZN7VariantD2Ev(%struct.Variant* %9) #12
  br label %30

; <label>:30:                                     ; preds = %26
  %31 = load i8*, i8** %7, align 8
  %32 = load i32, i32* %8, align 4
  %33 = insertvalue { i8*, i32 } undef, i8* %31, 0
  %34 = insertvalue { i8*, i32 } %33, i32 %32, 1
  resume { i8*, i32 } %34
}

; Function Attrs: ssp uwtable
define void @_ZN7VariantC1Ef(%struct.Variant*, float) unnamed_addr #0 align 2 personality i8* bitcast (i32 (...)* @__gxx_personality_v0 to i8*) {
  %3 = alloca %"class.std::__1::basic_string"*, align 8
  %4 = alloca i8*, align 8
  %5 = alloca %struct.Variant*, align 8
  %6 = alloca float, align 4
  %7 = alloca i8*
  %8 = alloca i32
  store %struct.Variant* %0, %struct.Variant** %5, align 8
  store float %1, float* %6, align 4
  %9 = load %struct.Variant*, %struct.Variant** %5, align 8
  call void @_ZN7VariantC1Ev(%struct.Variant* %9)
  %10 = load float, float* %6, align 4
  %11 = getelementptr inbounds %struct.Variant, %struct.Variant* %9, i32 0, i32 0
  %12 = bitcast %union.anon* %11 to float*
  store float %10, float* %12, align 8
  %13 = getelementptr inbounds %struct.Variant, %struct.Variant* %9, i32 0, i32 6
  store i8 1, i8* %13, align 1
  %14 = getelementptr inbounds %struct.Variant, %struct.Variant* %9, i32 0, i32 4
  %15 = getelementptr inbounds %struct.TypeSpecifier, %struct.TypeSpecifier* %14, i32 0, i32 1
  store %"class.std::__1::basic_string"* %15, %"class.std::__1::basic_string"** %3, align 8
  store i8* getelementptr inbounds ([6 x i8], [6 x i8]* @.str.3, i32 0, i32 0), i8** %4, align 8
  %16 = load %"class.std::__1::basic_string"*, %"class.std::__1::basic_string"** %3, align 8
  %17 = load i8*, i8** %4, align 8
  %18 = invoke dereferenceable(24) %"class.std::__1::basic_string"* @_ZNSt3__112basic_stringIcNS_11char_traitsIcEENS_9allocatorIcEEE6assignEPKc(%"class.std::__1::basic_string"* %16, i8* %17)
          to label %19 unwind label %26

; <label>:19:                                     ; preds = %2
  br label %20

; <label>:20:                                     ; preds = %19
  %21 = getelementptr inbounds %struct.Variant, %struct.Variant* %9, i32 0, i32 4
  %22 = getelementptr inbounds %struct.TypeSpecifier, %struct.TypeSpecifier* %21, i32 0, i32 0
  store i32 2, i32* %22, align 8
  %23 = getelementptr inbounds %struct.Variant, %struct.Variant* %9, i32 0, i32 4
  %24 = getelementptr inbounds %struct.TypeSpecifier, %struct.TypeSpecifier* %23, i32 0, i32 16
  store i8 1, i8* %24, align 1
  %25 = getelementptr inbounds %struct.Variant, %struct.Variant* %9, i32 0, i32 5
  store i8 0, i8* %25, align 8
  ret void

; <label>:26:                                     ; preds = %2
  %27 = landingpad { i8*, i32 }
          cleanup
  %28 = extractvalue { i8*, i32 } %27, 0
  store i8* %28, i8** %7, align 8
  %29 = extractvalue { i8*, i32 } %27, 1
  store i32 %29, i32* %8, align 4
  call void @_ZN7VariantD1Ev(%struct.Variant* %9) #12
  br label %30

; <label>:30:                                     ; preds = %26
  %31 = load i8*, i8** %7, align 8
  %32 = load i32, i32* %8, align 4
  %33 = insertvalue { i8*, i32 } undef, i8* %31, 0
  %34 = insertvalue { i8*, i32 } %33, i32 %32, 1
  resume { i8*, i32 } %34
}

; Function Attrs: ssp uwtable
define void @_ZN7VariantC2El(%struct.Variant*, i64) unnamed_addr #0 align 2 {
  %3 = alloca %struct.Variant*, align 8
  %4 = alloca i64, align 8
  store %struct.Variant* %0, %struct.Variant** %3, align 8
  store i64 %1, i64* %4, align 8
  %5 = load %struct.Variant*, %struct.Variant** %3, align 8
  call void @_ZN7VariantC2Ev(%struct.Variant* %5)
  %6 = getelementptr inbounds %struct.Variant, %struct.Variant* %5, i32 0, i32 6
  store i8 1, i8* %6, align 1
  %7 = getelementptr inbounds %struct.Variant, %struct.Variant* %5, i32 0, i32 5
  store i8 0, i8* %7, align 8
  %8 = load i64, i64* %4, align 8
  %9 = getelementptr inbounds %struct.Variant, %struct.Variant* %5, i32 0, i32 0
  %10 = bitcast %union.anon* %9 to i64*
  store i64 %8, i64* %10, align 8
  %11 = getelementptr inbounds %struct.Variant, %struct.Variant* %5, i32 0, i32 4
  %12 = getelementptr inbounds %struct.TypeSpecifier, %struct.TypeSpecifier* %11, i32 0, i32 16
  store i8 1, i8* %12, align 1
  %13 = getelementptr inbounds %struct.Variant, %struct.Variant* %5, i32 0, i32 4
  %14 = getelementptr inbounds %struct.TypeSpecifier, %struct.TypeSpecifier* %13, i32 0, i32 0
  store i32 1, i32* %14, align 8
  ret void
}

; Function Attrs: ssp uwtable
define void @_ZN7VariantC1El(%struct.Variant*, i64) unnamed_addr #0 align 2 {
  %3 = alloca %struct.Variant*, align 8
  %4 = alloca i64, align 8
  store %struct.Variant* %0, %struct.Variant** %3, align 8
  store i64 %1, i64* %4, align 8
  %5 = load %struct.Variant*, %struct.Variant** %3, align 8
  call void @_ZN7VariantC1Ev(%struct.Variant* %5)
  %6 = getelementptr inbounds %struct.Variant, %struct.Variant* %5, i32 0, i32 6
  store i8 1, i8* %6, align 1
  %7 = getelementptr inbounds %struct.Variant, %struct.Variant* %5, i32 0, i32 5
  store i8 0, i8* %7, align 8
  %8 = load i64, i64* %4, align 8
  %9 = getelementptr inbounds %struct.Variant, %struct.Variant* %5, i32 0, i32 0
  %10 = bitcast %union.anon* %9 to i64*
  store i64 %8, i64* %10, align 8
  %11 = getelementptr inbounds %struct.Variant, %struct.Variant* %5, i32 0, i32 4
  %12 = getelementptr inbounds %struct.TypeSpecifier, %struct.TypeSpecifier* %11, i32 0, i32 16
  store i8 1, i8* %12, align 1
  %13 = getelementptr inbounds %struct.Variant, %struct.Variant* %5, i32 0, i32 4
  %14 = getelementptr inbounds %struct.TypeSpecifier, %struct.TypeSpecifier* %13, i32 0, i32 0
  store i32 1, i32* %14, align 8
  ret void
}

; Function Attrs: ssp uwtable
define void @_ZN7VariantC2Ec(%struct.Variant*, i8 signext) unnamed_addr #0 align 2 personality i8* bitcast (i32 (...)* @__gxx_personality_v0 to i8*) {
  %3 = alloca %"class.std::__1::basic_string"*, align 8
  %4 = alloca i8*, align 8
  %5 = alloca %struct.Variant*, align 8
  %6 = alloca i8, align 1
  %7 = alloca i8*
  %8 = alloca i32
  store %struct.Variant* %0, %struct.Variant** %5, align 8
  store i8 %1, i8* %6, align 1
  %9 = load %struct.Variant*, %struct.Variant** %5, align 8
  call void @_ZN7VariantC2Ev(%struct.Variant* %9)
  %10 = load i8, i8* %6, align 1
  %11 = getelementptr inbounds %struct.Variant, %struct.Variant* %9, i32 0, i32 0
  %12 = bitcast %union.anon* %11 to i8*
  store i8 %10, i8* %12, align 8
  %13 = getelementptr inbounds %struct.Variant, %struct.Variant* %9, i32 0, i32 4
  %14 = getelementptr inbounds %struct.TypeSpecifier, %struct.TypeSpecifier* %13, i32 0, i32 0
  store i32 6, i32* %14, align 8
  %15 = getelementptr inbounds %struct.Variant, %struct.Variant* %9, i32 0, i32 4
  %16 = getelementptr inbounds %struct.TypeSpecifier, %struct.TypeSpecifier* %15, i32 0, i32 1
  store %"class.std::__1::basic_string"* %16, %"class.std::__1::basic_string"** %3, align 8
  store i8* getelementptr inbounds ([5 x i8], [5 x i8]* @.str.4, i32 0, i32 0), i8** %4, align 8
  %17 = load %"class.std::__1::basic_string"*, %"class.std::__1::basic_string"** %3, align 8
  %18 = load i8*, i8** %4, align 8
  %19 = invoke dereferenceable(24) %"class.std::__1::basic_string"* @_ZNSt3__112basic_stringIcNS_11char_traitsIcEENS_9allocatorIcEEE6assignEPKc(%"class.std::__1::basic_string"* %17, i8* %18)
          to label %20 unwind label %25

; <label>:20:                                     ; preds = %2
  br label %21

; <label>:21:                                     ; preds = %20
  %22 = getelementptr inbounds %struct.Variant, %struct.Variant* %9, i32 0, i32 4
  %23 = getelementptr inbounds %struct.TypeSpecifier, %struct.TypeSpecifier* %22, i32 0, i32 16
  store i8 1, i8* %23, align 1
  %24 = getelementptr inbounds %struct.Variant, %struct.Variant* %9, i32 0, i32 5
  store i8 0, i8* %24, align 8
  ret void

; <label>:25:                                     ; preds = %2
  %26 = landingpad { i8*, i32 }
          cleanup
  %27 = extractvalue { i8*, i32 } %26, 0
  store i8* %27, i8** %7, align 8
  %28 = extractvalue { i8*, i32 } %26, 1
  store i32 %28, i32* %8, align 4
  call void @_ZN7VariantD2Ev(%struct.Variant* %9) #12
  br label %29

; <label>:29:                                     ; preds = %25
  %30 = load i8*, i8** %7, align 8
  %31 = load i32, i32* %8, align 4
  %32 = insertvalue { i8*, i32 } undef, i8* %30, 0
  %33 = insertvalue { i8*, i32 } %32, i32 %31, 1
  resume { i8*, i32 } %33
}

; Function Attrs: ssp uwtable
define void @_ZN7VariantC1Ec(%struct.Variant*, i8 signext) unnamed_addr #0 align 2 personality i8* bitcast (i32 (...)* @__gxx_personality_v0 to i8*) {
  %3 = alloca %"class.std::__1::basic_string"*, align 8
  %4 = alloca i8*, align 8
  %5 = alloca %struct.Variant*, align 8
  %6 = alloca i8, align 1
  %7 = alloca i8*
  %8 = alloca i32
  store %struct.Variant* %0, %struct.Variant** %5, align 8
  store i8 %1, i8* %6, align 1
  %9 = load %struct.Variant*, %struct.Variant** %5, align 8
  call void @_ZN7VariantC1Ev(%struct.Variant* %9)
  %10 = load i8, i8* %6, align 1
  %11 = getelementptr inbounds %struct.Variant, %struct.Variant* %9, i32 0, i32 0
  %12 = bitcast %union.anon* %11 to i8*
  store i8 %10, i8* %12, align 8
  %13 = getelementptr inbounds %struct.Variant, %struct.Variant* %9, i32 0, i32 4
  %14 = getelementptr inbounds %struct.TypeSpecifier, %struct.TypeSpecifier* %13, i32 0, i32 0
  store i32 6, i32* %14, align 8
  %15 = getelementptr inbounds %struct.Variant, %struct.Variant* %9, i32 0, i32 4
  %16 = getelementptr inbounds %struct.TypeSpecifier, %struct.TypeSpecifier* %15, i32 0, i32 1
  store %"class.std::__1::basic_string"* %16, %"class.std::__1::basic_string"** %3, align 8
  store i8* getelementptr inbounds ([5 x i8], [5 x i8]* @.str.4, i32 0, i32 0), i8** %4, align 8
  %17 = load %"class.std::__1::basic_string"*, %"class.std::__1::basic_string"** %3, align 8
  %18 = load i8*, i8** %4, align 8
  %19 = invoke dereferenceable(24) %"class.std::__1::basic_string"* @_ZNSt3__112basic_stringIcNS_11char_traitsIcEENS_9allocatorIcEEE6assignEPKc(%"class.std::__1::basic_string"* %17, i8* %18)
          to label %20 unwind label %25

; <label>:20:                                     ; preds = %2
  br label %21

; <label>:21:                                     ; preds = %20
  %22 = getelementptr inbounds %struct.Variant, %struct.Variant* %9, i32 0, i32 4
  %23 = getelementptr inbounds %struct.TypeSpecifier, %struct.TypeSpecifier* %22, i32 0, i32 16
  store i8 1, i8* %23, align 1
  %24 = getelementptr inbounds %struct.Variant, %struct.Variant* %9, i32 0, i32 5
  store i8 0, i8* %24, align 8
  ret void

; <label>:25:                                     ; preds = %2
  %26 = landingpad { i8*, i32 }
          cleanup
  %27 = extractvalue { i8*, i32 } %26, 0
  store i8* %27, i8** %7, align 8
  %28 = extractvalue { i8*, i32 } %26, 1
  store i32 %28, i32* %8, align 4
  call void @_ZN7VariantD1Ev(%struct.Variant* %9) #12
  br label %29

; <label>:29:                                     ; preds = %25
  %30 = load i8*, i8** %7, align 8
  %31 = load i32, i32* %8, align 4
  %32 = insertvalue { i8*, i32 } undef, i8* %30, 0
  %33 = insertvalue { i8*, i32 } %32, i32 %31, 1
  resume { i8*, i32 } %33
}

; Function Attrs: ssp uwtable
define void @_ZN7VariantC2ENSt3__112basic_stringIcNS0_11char_traitsIcEENS0_9allocatorIcEEEE(%struct.Variant*, %"class.std::__1::basic_string"*) unnamed_addr #0 align 2 personality i8* bitcast (i32 (...)* @__gxx_personality_v0 to i8*) {
  %3 = alloca %"class.std::__1::basic_string"*, align 8
  %4 = alloca i8*, align 8
  %5 = alloca %struct.Variant*, align 8
  %6 = alloca i8*
  %7 = alloca i32
  store %struct.Variant* %0, %struct.Variant** %5, align 8
  %8 = load %struct.Variant*, %struct.Variant** %5, align 8
  call void @_ZN7VariantC2Ev(%struct.Variant* %8)
  %9 = getelementptr inbounds %struct.Variant, %struct.Variant* %8, i32 0, i32 3
  %10 = invoke dereferenceable(24) %"class.std::__1::basic_string"* @_ZNSt3__112basic_stringIcNS_11char_traitsIcEENS_9allocatorIcEEEaSERKS5_(%"class.std::__1::basic_string"* %9, %"class.std::__1::basic_string"* dereferenceable(24) %1)
          to label %11 unwind label %22

; <label>:11:                                     ; preds = %2
  %12 = getelementptr inbounds %struct.Variant, %struct.Variant* %8, i32 0, i32 4
  %13 = getelementptr inbounds %struct.TypeSpecifier, %struct.TypeSpecifier* %12, i32 0, i32 0
  store i32 7, i32* %13, align 8
  %14 = getelementptr inbounds %struct.Variant, %struct.Variant* %8, i32 0, i32 4
  %15 = getelementptr inbounds %struct.TypeSpecifier, %struct.TypeSpecifier* %14, i32 0, i32 1
  store %"class.std::__1::basic_string"* %15, %"class.std::__1::basic_string"** %3, align 8
  store i8* getelementptr inbounds ([7 x i8], [7 x i8]* @.str.5, i32 0, i32 0), i8** %4, align 8
  %16 = load %"class.std::__1::basic_string"*, %"class.std::__1::basic_string"** %3, align 8
  %17 = load i8*, i8** %4, align 8
  %18 = invoke dereferenceable(24) %"class.std::__1::basic_string"* @_ZNSt3__112basic_stringIcNS_11char_traitsIcEENS_9allocatorIcEEE6assignEPKc(%"class.std::__1::basic_string"* %16, i8* %17)
          to label %19 unwind label %22

; <label>:19:                                     ; preds = %11
  br label %20

; <label>:20:                                     ; preds = %19
  %21 = getelementptr inbounds %struct.Variant, %struct.Variant* %8, i32 0, i32 5
  store i8 0, i8* %21, align 8
  ret void

; <label>:22:                                     ; preds = %11, %2
  %23 = landingpad { i8*, i32 }
          cleanup
  %24 = extractvalue { i8*, i32 } %23, 0
  store i8* %24, i8** %6, align 8
  %25 = extractvalue { i8*, i32 } %23, 1
  store i32 %25, i32* %7, align 4
  call void @_ZN7VariantD2Ev(%struct.Variant* %8) #12
  br label %26

; <label>:26:                                     ; preds = %22
  %27 = load i8*, i8** %6, align 8
  %28 = load i32, i32* %7, align 4
  %29 = insertvalue { i8*, i32 } undef, i8* %27, 0
  %30 = insertvalue { i8*, i32 } %29, i32 %28, 1
  resume { i8*, i32 } %30
}

declare dereferenceable(24) %"class.std::__1::basic_string"* @_ZNSt3__112basic_stringIcNS_11char_traitsIcEENS_9allocatorIcEEEaSERKS5_(%"class.std::__1::basic_string"*, %"class.std::__1::basic_string"* dereferenceable(24)) #3

; Function Attrs: ssp uwtable
define void @_ZN7VariantC1ENSt3__112basic_stringIcNS0_11char_traitsIcEENS0_9allocatorIcEEEE(%struct.Variant*, %"class.std::__1::basic_string"*) unnamed_addr #0 align 2 personality i8* bitcast (i32 (...)* @__gxx_personality_v0 to i8*) {
  %3 = alloca %"class.std::__1::basic_string"*, align 8
  %4 = alloca i8*, align 8
  %5 = alloca %struct.Variant*, align 8
  %6 = alloca i8*
  %7 = alloca i32
  store %struct.Variant* %0, %struct.Variant** %5, align 8
  %8 = load %struct.Variant*, %struct.Variant** %5, align 8
  call void @_ZN7VariantC1Ev(%struct.Variant* %8)
  %9 = getelementptr inbounds %struct.Variant, %struct.Variant* %8, i32 0, i32 3
  %10 = invoke dereferenceable(24) %"class.std::__1::basic_string"* @_ZNSt3__112basic_stringIcNS_11char_traitsIcEENS_9allocatorIcEEEaSERKS5_(%"class.std::__1::basic_string"* %9, %"class.std::__1::basic_string"* dereferenceable(24) %1)
          to label %11 unwind label %22

; <label>:11:                                     ; preds = %2
  %12 = getelementptr inbounds %struct.Variant, %struct.Variant* %8, i32 0, i32 4
  %13 = getelementptr inbounds %struct.TypeSpecifier, %struct.TypeSpecifier* %12, i32 0, i32 0
  store i32 7, i32* %13, align 8
  %14 = getelementptr inbounds %struct.Variant, %struct.Variant* %8, i32 0, i32 4
  %15 = getelementptr inbounds %struct.TypeSpecifier, %struct.TypeSpecifier* %14, i32 0, i32 1
  store %"class.std::__1::basic_string"* %15, %"class.std::__1::basic_string"** %3, align 8
  store i8* getelementptr inbounds ([7 x i8], [7 x i8]* @.str.5, i32 0, i32 0), i8** %4, align 8
  %16 = load %"class.std::__1::basic_string"*, %"class.std::__1::basic_string"** %3, align 8
  %17 = load i8*, i8** %4, align 8
  %18 = invoke dereferenceable(24) %"class.std::__1::basic_string"* @_ZNSt3__112basic_stringIcNS_11char_traitsIcEENS_9allocatorIcEEE6assignEPKc(%"class.std::__1::basic_string"* %16, i8* %17)
          to label %19 unwind label %22

; <label>:19:                                     ; preds = %11
  br label %20

; <label>:20:                                     ; preds = %19
  %21 = getelementptr inbounds %struct.Variant, %struct.Variant* %8, i32 0, i32 5
  store i8 0, i8* %21, align 8
  ret void

; <label>:22:                                     ; preds = %11, %2
  %23 = landingpad { i8*, i32 }
          cleanup
  %24 = extractvalue { i8*, i32 } %23, 0
  store i8* %24, i8** %6, align 8
  %25 = extractvalue { i8*, i32 } %23, 1
  store i32 %25, i32* %7, align 4
  call void @_ZN7VariantD1Ev(%struct.Variant* %8) #12
  br label %26

; <label>:26:                                     ; preds = %22
  %27 = load i8*, i8** %6, align 8
  %28 = load i32, i32* %7, align 4
  %29 = insertvalue { i8*, i32 } undef, i8* %27, 0
  %30 = insertvalue { i8*, i32 } %29, i32 %28, 1
  resume { i8*, i32 } %30
}

; Function Attrs: ssp uwtable
define void @_ZN7VariantC2E13TypeSpecifier(%struct.Variant*, %struct.TypeSpecifier*) unnamed_addr #0 align 2 personality i8* bitcast (i32 (...)* @__gxx_personality_v0 to i8*) {
  %3 = alloca %"class.std::__1::__libcpp_compressed_pair_imp"*, align 8
  %4 = alloca %"class.std::__1::__compressed_pair"*, align 8
  %5 = alloca %"class.std::__1::basic_string"*, align 8
  %6 = alloca [3 x i64]*, align 8
  %7 = alloca i32, align 4
  %8 = alloca %"class.std::__1::allocator"*, align 8
  %9 = alloca %"class.std::__1::__libcpp_compressed_pair_imp"*, align 8
  %10 = alloca %"class.std::__1::__compressed_pair"*, align 8
  %11 = alloca %"class.std::__1::__compressed_pair"*, align 8
  %12 = alloca %"class.std::__1::basic_string"*, align 8
  %13 = alloca %"class.std::__1::basic_string"*, align 8
  %14 = alloca %struct.Variant*, align 8
  %15 = alloca i8*
  %16 = alloca i32
  store %struct.Variant* %0, %struct.Variant** %14, align 8
  %17 = load %struct.Variant*, %struct.Variant** %14, align 8
  %18 = getelementptr inbounds %struct.Variant, %struct.Variant* %17, i32 0, i32 1
  store i8 0, i8* %18, align 8
  %19 = getelementptr inbounds %struct.Variant, %struct.Variant* %17, i32 0, i32 3
  store %"class.std::__1::basic_string"* %19, %"class.std::__1::basic_string"** %13, align 8
  %20 = load %"class.std::__1::basic_string"*, %"class.std::__1::basic_string"** %13, align 8
  store %"class.std::__1::basic_string"* %20, %"class.std::__1::basic_string"** %12, align 8
  %21 = load %"class.std::__1::basic_string"*, %"class.std::__1::basic_string"** %12, align 8
  %22 = bitcast %"class.std::__1::basic_string"* %21 to %"class.std::__1::__basic_string_common"*
  %23 = getelementptr inbounds %"class.std::__1::basic_string", %"class.std::__1::basic_string"* %21, i32 0, i32 0
  store %"class.std::__1::__compressed_pair"* %23, %"class.std::__1::__compressed_pair"** %11, align 8
  %24 = load %"class.std::__1::__compressed_pair"*, %"class.std::__1::__compressed_pair"** %11, align 8
  store %"class.std::__1::__compressed_pair"* %24, %"class.std::__1::__compressed_pair"** %10, align 8
  %25 = load %"class.std::__1::__compressed_pair"*, %"class.std::__1::__compressed_pair"** %10, align 8
  %26 = bitcast %"class.std::__1::__compressed_pair"* %25 to %"class.std::__1::__libcpp_compressed_pair_imp"*
  store %"class.std::__1::__libcpp_compressed_pair_imp"* %26, %"class.std::__1::__libcpp_compressed_pair_imp"** %9, align 8
  %27 = load %"class.std::__1::__libcpp_compressed_pair_imp"*, %"class.std::__1::__libcpp_compressed_pair_imp"** %9, align 8
  %28 = bitcast %"class.std::__1::__libcpp_compressed_pair_imp"* %27 to %"class.std::__1::allocator"*
  store %"class.std::__1::allocator"* %28, %"class.std::__1::allocator"** %8, align 8
  %29 = load %"class.std::__1::allocator"*, %"class.std::__1::allocator"** %8, align 8
  %30 = getelementptr inbounds %"class.std::__1::__libcpp_compressed_pair_imp", %"class.std::__1::__libcpp_compressed_pair_imp"* %27, i32 0, i32 0
  %31 = bitcast %"struct.std::__1::basic_string<char, std::__1::char_traits<char>, std::__1::allocator<char> >::__rep"* %30 to i8*
  call void @llvm.memset.p0i8.i64(i8* %31, i8 0, i64 24, i32 8, i1 false) #12
  store %"class.std::__1::basic_string"* %21, %"class.std::__1::basic_string"** %5, align 8
  %32 = load %"class.std::__1::basic_string"*, %"class.std::__1::basic_string"** %5, align 8
  %33 = getelementptr inbounds %"class.std::__1::basic_string", %"class.std::__1::basic_string"* %32, i32 0, i32 0
  store %"class.std::__1::__compressed_pair"* %33, %"class.std::__1::__compressed_pair"** %4, align 8
  %34 = load %"class.std::__1::__compressed_pair"*, %"class.std::__1::__compressed_pair"** %4, align 8
  %35 = bitcast %"class.std::__1::__compressed_pair"* %34 to %"class.std::__1::__libcpp_compressed_pair_imp"*
  store %"class.std::__1::__libcpp_compressed_pair_imp"* %35, %"class.std::__1::__libcpp_compressed_pair_imp"** %3, align 8
  %36 = load %"class.std::__1::__libcpp_compressed_pair_imp"*, %"class.std::__1::__libcpp_compressed_pair_imp"** %3, align 8
  %37 = getelementptr inbounds %"class.std::__1::__libcpp_compressed_pair_imp", %"class.std::__1::__libcpp_compressed_pair_imp"* %36, i32 0, i32 0
  %38 = getelementptr inbounds %"struct.std::__1::basic_string<char, std::__1::char_traits<char>, std::__1::allocator<char> >::__rep", %"struct.std::__1::basic_string<char, std::__1::char_traits<char>, std::__1::allocator<char> >::__rep"* %37, i32 0, i32 0
  %39 = bitcast %union.anon.0* %38 to %"struct.std::__1::basic_string<char, std::__1::char_traits<char>, std::__1::allocator<char> >::__raw"*
  %40 = getelementptr inbounds %"struct.std::__1::basic_string<char, std::__1::char_traits<char>, std::__1::allocator<char> >::__raw", %"struct.std::__1::basic_string<char, std::__1::char_traits<char>, std::__1::allocator<char> >::__raw"* %39, i32 0, i32 0
  store [3 x i64]* %40, [3 x i64]** %6, align 8
  store i32 0, i32* %7, align 4
  br label %41

; <label>:41:                                     ; preds = %44, %2
  %42 = load i32, i32* %7, align 4
  %43 = icmp ult i32 %42, 3
  br i1 %43, label %44, label %51

; <label>:44:                                     ; preds = %41
  %45 = load i32, i32* %7, align 4
  %46 = zext i32 %45 to i64
  %47 = load [3 x i64]*, [3 x i64]** %6, align 8
  %48 = getelementptr inbounds [3 x i64], [3 x i64]* %47, i64 0, i64 %46
  store i64 0, i64* %48, align 8
  %49 = load i32, i32* %7, align 4
  %50 = add i32 %49, 1
  store i32 %50, i32* %7, align 4
  br label %41

; <label>:51:                                     ; preds = %41
  %52 = getelementptr inbounds %struct.Variant, %struct.Variant* %17, i32 0, i32 4
  invoke void @_ZN13TypeSpecifierC1Ev(%struct.TypeSpecifier* %52)
          to label %53 unwind label %61

; <label>:53:                                     ; preds = %51
  %54 = getelementptr inbounds %struct.Variant, %struct.Variant* %17, i32 0, i32 5
  store i8 0, i8* %54, align 8
  %55 = getelementptr inbounds %struct.Variant, %struct.Variant* %17, i32 0, i32 6
  store i8 0, i8* %55, align 1
  %56 = getelementptr inbounds %struct.Variant, %struct.Variant* %17, i32 0, i32 7
  store i8 1, i8* %56, align 2
  %57 = getelementptr inbounds %struct.Variant, %struct.Variant* %17, i32 0, i32 4
  %58 = invoke dereferenceable(216) %struct.TypeSpecifier* @_ZN13TypeSpecifieraSERKS_(%struct.TypeSpecifier* %57, %struct.TypeSpecifier* dereferenceable(216) %1)
          to label %59 unwind label %65

; <label>:59:                                     ; preds = %53
  %60 = getelementptr inbounds %struct.Variant, %struct.Variant* %17, i32 0, i32 5
  store i8 1, i8* %60, align 8
  ret void

; <label>:61:                                     ; preds = %51
  %62 = landingpad { i8*, i32 }
          cleanup
  %63 = extractvalue { i8*, i32 } %62, 0
  store i8* %63, i8** %15, align 8
  %64 = extractvalue { i8*, i32 } %62, 1
  store i32 %64, i32* %16, align 4
  br label %69

; <label>:65:                                     ; preds = %53
  %66 = landingpad { i8*, i32 }
          cleanup
  %67 = extractvalue { i8*, i32 } %66, 0
  store i8* %67, i8** %15, align 8
  %68 = extractvalue { i8*, i32 } %66, 1
  store i32 %68, i32* %16, align 4
  call void @_ZN13TypeSpecifierD1Ev(%struct.TypeSpecifier* %52) #12
  br label %69

; <label>:69:                                     ; preds = %65, %61
  call void @_ZNSt3__112basic_stringIcNS_11char_traitsIcEENS_9allocatorIcEEED1Ev(%"class.std::__1::basic_string"* %19) #12
  br label %70

; <label>:70:                                     ; preds = %69
  %71 = load i8*, i8** %15, align 8
  %72 = load i32, i32* %16, align 4
  %73 = insertvalue { i8*, i32 } undef, i8* %71, 0
  %74 = insertvalue { i8*, i32 } %73, i32 %72, 1
  resume { i8*, i32 } %74
}

; Function Attrs: ssp uwtable
define linkonce_odr dereferenceable(216) %struct.TypeSpecifier* @_ZN13TypeSpecifieraSERKS_(%struct.TypeSpecifier*, %struct.TypeSpecifier* dereferenceable(216)) #0 align 2 {
  %3 = alloca %"class.std::__1::__vector_base.21"*, align 8
  %4 = alloca %"class.std::__1::__vector_base.21"*, align 8
  %5 = alloca %"class.std::__1::__vector_base.21"*, align 8
  %6 = alloca %"class.std::__1::__vector_base.21"*, align 8
  %7 = alloca %"struct.std::__1::integral_constant", align 1
  %8 = alloca %"class.std::__1::vector.20"*, align 8
  %9 = alloca %"class.std::__1::vector.20"*, align 8
  %10 = alloca %"class.std::__1::unordered_map"*, align 8
  %11 = alloca %"class.std::__1::unordered_map"*, align 8
  %12 = alloca %"class.std::__1::__shared_weak_count"**, align 8
  %13 = alloca %"class.std::__1::__shared_weak_count"**, align 8
  %14 = alloca %"class.std::__1::__shared_weak_count"**, align 8
  %15 = alloca %"class.std::__1::__shared_weak_count"**, align 8
  %16 = alloca %"class.std::__1::__shared_weak_count"**, align 8
  %17 = alloca %"class.std::__1::__shared_weak_count"*, align 8
  %18 = alloca %class.Expression**, align 8
  %19 = alloca %class.Expression**, align 8
  %20 = alloca %class.Expression**, align 8
  %21 = alloca %class.Expression**, align 8
  %22 = alloca %class.Expression**, align 8
  %23 = alloca %class.Expression*, align 8
  %24 = alloca %"class.std::__1::shared_ptr"*, align 8
  %25 = alloca %"class.std::__1::shared_ptr"*, align 8
  %26 = alloca %"class.std::__1::shared_ptr"*, align 8
  %27 = alloca %"class.std::__1::shared_ptr"*, align 8
  %28 = alloca %"class.std::__1::shared_ptr"*, align 8
  %29 = alloca %"class.std::__1::shared_ptr"*, align 8
  %30 = alloca %"class.std::__1::shared_ptr"*, align 8
  %31 = alloca %"class.std::__1::shared_ptr"*, align 8
  %32 = alloca %"class.std::__1::shared_ptr", align 8
  %33 = alloca %"class.std::__1::__vector_base"*, align 8
  %34 = alloca %"class.std::__1::__vector_base"*, align 8
  %35 = alloca %"class.std::__1::__vector_base"*, align 8
  %36 = alloca %"class.std::__1::__vector_base"*, align 8
  %37 = alloca %"struct.std::__1::integral_constant", align 1
  %38 = alloca %"class.std::__1::vector"*, align 8
  %39 = alloca %"class.std::__1::vector"*, align 8
  %40 = alloca %struct.TypeSpecifier*, align 8
  %41 = alloca %struct.TypeSpecifier*, align 8
  store %struct.TypeSpecifier* %0, %struct.TypeSpecifier** %40, align 8
  store %struct.TypeSpecifier* %1, %struct.TypeSpecifier** %41, align 8
  %42 = load %struct.TypeSpecifier*, %struct.TypeSpecifier** %40, align 8
  %43 = load %struct.TypeSpecifier*, %struct.TypeSpecifier** %41, align 8
  %44 = getelementptr inbounds %struct.TypeSpecifier, %struct.TypeSpecifier* %43, i32 0, i32 0
  %45 = load i32, i32* %44, align 8
  %46 = getelementptr inbounds %struct.TypeSpecifier, %struct.TypeSpecifier* %42, i32 0, i32 0
  store i32 %45, i32* %46, align 8
  %47 = getelementptr inbounds %struct.TypeSpecifier, %struct.TypeSpecifier* %42, i32 0, i32 1
  %48 = load %struct.TypeSpecifier*, %struct.TypeSpecifier** %41, align 8
  %49 = getelementptr inbounds %struct.TypeSpecifier, %struct.TypeSpecifier* %48, i32 0, i32 1
  %50 = call dereferenceable(24) %"class.std::__1::basic_string"* @_ZNSt3__112basic_stringIcNS_11char_traitsIcEENS_9allocatorIcEEEaSERKS5_(%"class.std::__1::basic_string"* %47, %"class.std::__1::basic_string"* dereferenceable(24) %49)
  %51 = getelementptr inbounds %struct.TypeSpecifier, %struct.TypeSpecifier* %42, i32 0, i32 2
  %52 = load %struct.TypeSpecifier*, %struct.TypeSpecifier** %41, align 8
  %53 = getelementptr inbounds %struct.TypeSpecifier, %struct.TypeSpecifier* %52, i32 0, i32 2
  store %"class.std::__1::shared_ptr"* %51, %"class.std::__1::shared_ptr"** %30, align 8
  store %"class.std::__1::shared_ptr"* %53, %"class.std::__1::shared_ptr"** %31, align 8
  %54 = load %"class.std::__1::shared_ptr"*, %"class.std::__1::shared_ptr"** %30, align 8
  %55 = load %"class.std::__1::shared_ptr"*, %"class.std::__1::shared_ptr"** %31, align 8
  store %"class.std::__1::shared_ptr"* %32, %"class.std::__1::shared_ptr"** %28, align 8
  store %"class.std::__1::shared_ptr"* %55, %"class.std::__1::shared_ptr"** %29, align 8
  %56 = load %"class.std::__1::shared_ptr"*, %"class.std::__1::shared_ptr"** %28, align 8
  %57 = load %"class.std::__1::shared_ptr"*, %"class.std::__1::shared_ptr"** %29, align 8
  store %"class.std::__1::shared_ptr"* %56, %"class.std::__1::shared_ptr"** %26, align 8
  store %"class.std::__1::shared_ptr"* %57, %"class.std::__1::shared_ptr"** %27, align 8
  %58 = load %"class.std::__1::shared_ptr"*, %"class.std::__1::shared_ptr"** %26, align 8
  %59 = getelementptr inbounds %"class.std::__1::shared_ptr", %"class.std::__1::shared_ptr"* %58, i32 0, i32 0
  %60 = load %"class.std::__1::shared_ptr"*, %"class.std::__1::shared_ptr"** %27, align 8
  %61 = getelementptr inbounds %"class.std::__1::shared_ptr", %"class.std::__1::shared_ptr"* %60, i32 0, i32 0
  %62 = load %class.Expression*, %class.Expression** %61, align 8
  store %class.Expression* %62, %class.Expression** %59, align 8
  %63 = getelementptr inbounds %"class.std::__1::shared_ptr", %"class.std::__1::shared_ptr"* %58, i32 0, i32 1
  %64 = load %"class.std::__1::shared_ptr"*, %"class.std::__1::shared_ptr"** %27, align 8
  %65 = getelementptr inbounds %"class.std::__1::shared_ptr", %"class.std::__1::shared_ptr"* %64, i32 0, i32 1
  %66 = load %"class.std::__1::__shared_weak_count"*, %"class.std::__1::__shared_weak_count"** %65, align 8
  store %"class.std::__1::__shared_weak_count"* %66, %"class.std::__1::__shared_weak_count"** %63, align 8
  %67 = getelementptr inbounds %"class.std::__1::shared_ptr", %"class.std::__1::shared_ptr"* %58, i32 0, i32 1
  %68 = load %"class.std::__1::__shared_weak_count"*, %"class.std::__1::__shared_weak_count"** %67, align 8
  %69 = icmp ne %"class.std::__1::__shared_weak_count"* %68, null
  br i1 %69, label %70, label %73

; <label>:70:                                     ; preds = %2
  %71 = getelementptr inbounds %"class.std::__1::shared_ptr", %"class.std::__1::shared_ptr"* %58, i32 0, i32 1
  %72 = load %"class.std::__1::__shared_weak_count"*, %"class.std::__1::__shared_weak_count"** %71, align 8
  call void @_ZNSt3__119__shared_weak_count12__add_sharedEv(%"class.std::__1::__shared_weak_count"* %72) #12
  br label %73

; <label>:73:                                     ; preds = %2, %70
  store %"class.std::__1::shared_ptr"* %32, %"class.std::__1::shared_ptr"** %24, align 8
  store %"class.std::__1::shared_ptr"* %54, %"class.std::__1::shared_ptr"** %25, align 8
  %74 = load %"class.std::__1::shared_ptr"*, %"class.std::__1::shared_ptr"** %24, align 8
  %75 = getelementptr inbounds %"class.std::__1::shared_ptr", %"class.std::__1::shared_ptr"* %74, i32 0, i32 0
  %76 = load %"class.std::__1::shared_ptr"*, %"class.std::__1::shared_ptr"** %25, align 8
  %77 = getelementptr inbounds %"class.std::__1::shared_ptr", %"class.std::__1::shared_ptr"* %76, i32 0, i32 0
  store %class.Expression** %75, %class.Expression*** %21, align 8
  store %class.Expression** %77, %class.Expression*** %22, align 8
  %78 = load %class.Expression**, %class.Expression*** %21, align 8
  store %class.Expression** %78, %class.Expression*** %20, align 8
  %79 = load %class.Expression**, %class.Expression*** %20, align 8
  %80 = load %class.Expression*, %class.Expression** %79, align 8
  store %class.Expression* %80, %class.Expression** %23, align 8
  %81 = load %class.Expression**, %class.Expression*** %22, align 8
  store %class.Expression** %81, %class.Expression*** %18, align 8
  %82 = load %class.Expression**, %class.Expression*** %18, align 8
  %83 = load %class.Expression*, %class.Expression** %82, align 8
  %84 = load %class.Expression**, %class.Expression*** %21, align 8
  store %class.Expression* %83, %class.Expression** %84, align 8
  store %class.Expression** %23, %class.Expression*** %19, align 8
  %85 = load %class.Expression**, %class.Expression*** %19, align 8
  %86 = load %class.Expression*, %class.Expression** %85, align 8
  %87 = load %class.Expression**, %class.Expression*** %22, align 8
  store %class.Expression* %86, %class.Expression** %87, align 8
  %88 = getelementptr inbounds %"class.std::__1::shared_ptr", %"class.std::__1::shared_ptr"* %74, i32 0, i32 1
  %89 = load %"class.std::__1::shared_ptr"*, %"class.std::__1::shared_ptr"** %25, align 8
  %90 = getelementptr inbounds %"class.std::__1::shared_ptr", %"class.std::__1::shared_ptr"* %89, i32 0, i32 1
  store %"class.std::__1::__shared_weak_count"** %88, %"class.std::__1::__shared_weak_count"*** %15, align 8
  store %"class.std::__1::__shared_weak_count"** %90, %"class.std::__1::__shared_weak_count"*** %16, align 8
  %91 = load %"class.std::__1::__shared_weak_count"**, %"class.std::__1::__shared_weak_count"*** %15, align 8
  store %"class.std::__1::__shared_weak_count"** %91, %"class.std::__1::__shared_weak_count"*** %14, align 8
  %92 = load %"class.std::__1::__shared_weak_count"**, %"class.std::__1::__shared_weak_count"*** %14, align 8
  %93 = load %"class.std::__1::__shared_weak_count"*, %"class.std::__1::__shared_weak_count"** %92, align 8
  store %"class.std::__1::__shared_weak_count"* %93, %"class.std::__1::__shared_weak_count"** %17, align 8
  %94 = load %"class.std::__1::__shared_weak_count"**, %"class.std::__1::__shared_weak_count"*** %16, align 8
  store %"class.std::__1::__shared_weak_count"** %94, %"class.std::__1::__shared_weak_count"*** %12, align 8
  %95 = load %"class.std::__1::__shared_weak_count"**, %"class.std::__1::__shared_weak_count"*** %12, align 8
  %96 = load %"class.std::__1::__shared_weak_count"*, %"class.std::__1::__shared_weak_count"** %95, align 8
  %97 = load %"class.std::__1::__shared_weak_count"**, %"class.std::__1::__shared_weak_count"*** %15, align 8
  store %"class.std::__1::__shared_weak_count"* %96, %"class.std::__1::__shared_weak_count"** %97, align 8
  store %"class.std::__1::__shared_weak_count"** %17, %"class.std::__1::__shared_weak_count"*** %13, align 8
  %98 = load %"class.std::__1::__shared_weak_count"**, %"class.std::__1::__shared_weak_count"*** %13, align 8
  %99 = load %"class.std::__1::__shared_weak_count"*, %"class.std::__1::__shared_weak_count"** %98, align 8
  %100 = load %"class.std::__1::__shared_weak_count"**, %"class.std::__1::__shared_weak_count"*** %16, align 8
  store %"class.std::__1::__shared_weak_count"* %99, %"class.std::__1::__shared_weak_count"** %100, align 8
  call void @_ZNSt3__110shared_ptrI10ExpressionED1Ev(%"class.std::__1::shared_ptr"* %32) #12
  %101 = getelementptr inbounds %struct.TypeSpecifier, %struct.TypeSpecifier* %42, i32 0, i32 3
  %102 = load %struct.TypeSpecifier*, %struct.TypeSpecifier** %41, align 8
  %103 = getelementptr inbounds %struct.TypeSpecifier, %struct.TypeSpecifier* %102, i32 0, i32 3
  call void @llvm.memcpy.p0i8.p0i8.i64(i8* %101, i8* %103, i64 22, i32 8, i1 false)
  %104 = getelementptr inbounds %struct.TypeSpecifier, %struct.TypeSpecifier* %42, i32 0, i32 11
  %105 = load %struct.TypeSpecifier*, %struct.TypeSpecifier** %41, align 8
  %106 = getelementptr inbounds %struct.TypeSpecifier, %struct.TypeSpecifier* %105, i32 0, i32 11
  %107 = call dereferenceable(24) %"class.std::__1::basic_string"* @_ZNSt3__112basic_stringIcNS_11char_traitsIcEENS_9allocatorIcEEEaSERKS5_(%"class.std::__1::basic_string"* %104, %"class.std::__1::basic_string"* dereferenceable(24) %106)
  %108 = load %struct.TypeSpecifier*, %struct.TypeSpecifier** %41, align 8
  %109 = getelementptr inbounds %struct.TypeSpecifier, %struct.TypeSpecifier* %108, i32 0, i32 12
  %110 = load i8, i8* %109, align 8
  %111 = trunc i8 %110 to i1
  %112 = getelementptr inbounds %struct.TypeSpecifier, %struct.TypeSpecifier* %42, i32 0, i32 12
  %113 = zext i1 %111 to i8
  store i8 %113, i8* %112, align 8
  %114 = getelementptr inbounds %struct.TypeSpecifier, %struct.TypeSpecifier* %42, i32 0, i32 14
  %115 = load %struct.TypeSpecifier*, %struct.TypeSpecifier** %41, align 8
  %116 = getelementptr inbounds %struct.TypeSpecifier, %struct.TypeSpecifier* %115, i32 0, i32 14
  store %"class.std::__1::unordered_map"* %114, %"class.std::__1::unordered_map"** %10, align 8
  store %"class.std::__1::unordered_map"* %116, %"class.std::__1::unordered_map"** %11, align 8
  %117 = load %"class.std::__1::unordered_map"*, %"class.std::__1::unordered_map"** %10, align 8
  %118 = getelementptr inbounds %"class.std::__1::unordered_map", %"class.std::__1::unordered_map"* %117, i32 0, i32 0
  %119 = load %"class.std::__1::unordered_map"*, %"class.std::__1::unordered_map"** %11, align 8
  %120 = getelementptr inbounds %"class.std::__1::unordered_map", %"class.std::__1::unordered_map"* %119, i32 0, i32 0
  %121 = call dereferenceable(40) %"class.std::__1::__hash_table"* @_ZNSt3__112__hash_tableINS_17__hash_value_typeINS_12basic_stringIcNS_11char_traitsIcEENS_9allocatorIcEEEE13TypeSpecifierEENS_22__unordered_map_hasherIS7_S9_NS_4hashIS7_EELb1EEENS_21__unordered_map_equalIS7_S9_NS_8equal_toIS7_EELb1EEENS5_IS9_EEEaSERKSJ_(%"class.std::__1::__hash_table"* %118, %"class.std::__1::__hash_table"* dereferenceable(40) %120)
  %122 = getelementptr inbounds %struct.TypeSpecifier, %struct.TypeSpecifier* %42, i32 0, i32 15
  %123 = load %struct.TypeSpecifier*, %struct.TypeSpecifier** %41, align 8
  %124 = getelementptr inbounds %struct.TypeSpecifier, %struct.TypeSpecifier* %123, i32 0, i32 15
  call void @llvm.memcpy.p0i8.p0i8.i64(i8* %122, i8* %124, i64 12, i32 8, i1 false)
  %125 = getelementptr inbounds %struct.TypeSpecifier, %struct.TypeSpecifier* %42, i32 0, i32 23
  %126 = load %struct.TypeSpecifier*, %struct.TypeSpecifier** %41, align 8
  %127 = getelementptr inbounds %struct.TypeSpecifier, %struct.TypeSpecifier* %126, i32 0, i32 23
  store %"class.std::__1::vector"* %125, %"class.std::__1::vector"** %38, align 8
  store %"class.std::__1::vector"* %127, %"class.std::__1::vector"** %39, align 8
  %128 = load %"class.std::__1::vector"*, %"class.std::__1::vector"** %38, align 8
  %129 = load %"class.std::__1::vector"*, %"class.std::__1::vector"** %39, align 8
  %130 = icmp ne %"class.std::__1::vector"* %128, %129
  br i1 %130, label %131, label %146

; <label>:131:                                    ; preds = %73
  %132 = bitcast %"class.std::__1::vector"* %128 to %"class.std::__1::__vector_base"*
  %133 = load %"class.std::__1::vector"*, %"class.std::__1::vector"** %39, align 8
  %134 = bitcast %"class.std::__1::vector"* %133 to %"class.std::__1::__vector_base"*
  store %"class.std::__1::__vector_base"* %132, %"class.std::__1::__vector_base"** %35, align 8
  store %"class.std::__1::__vector_base"* %134, %"class.std::__1::__vector_base"** %36, align 8
  %135 = load %"class.std::__1::__vector_base"*, %"class.std::__1::__vector_base"** %35, align 8
  %136 = load %"class.std::__1::__vector_base"*, %"class.std::__1::__vector_base"** %36, align 8
  store %"class.std::__1::__vector_base"* %135, %"class.std::__1::__vector_base"** %33, align 8
  store %"class.std::__1::__vector_base"* %136, %"class.std::__1::__vector_base"** %34, align 8
  %137 = load %"class.std::__1::__vector_base"*, %"class.std::__1::__vector_base"** %33, align 8
  %138 = load %"class.std::__1::vector"*, %"class.std::__1::vector"** %39, align 8
  %139 = bitcast %"class.std::__1::vector"* %138 to %"class.std::__1::__vector_base"*
  %140 = getelementptr inbounds %"class.std::__1::__vector_base", %"class.std::__1::__vector_base"* %139, i32 0, i32 0
  %141 = load %"class.std::__1::basic_string"*, %"class.std::__1::basic_string"** %140, align 8
  %142 = load %"class.std::__1::vector"*, %"class.std::__1::vector"** %39, align 8
  %143 = bitcast %"class.std::__1::vector"* %142 to %"class.std::__1::__vector_base"*
  %144 = getelementptr inbounds %"class.std::__1::__vector_base", %"class.std::__1::__vector_base"* %143, i32 0, i32 1
  %145 = load %"class.std::__1::basic_string"*, %"class.std::__1::basic_string"** %144, align 8
  call void @_ZNSt3__16vectorINS_12basic_stringIcNS_11char_traitsIcEENS_9allocatorIcEEEENS4_IS6_EEE6assignIPS6_EENS_9enable_ifIXaasr21__is_forward_iteratorIT_EE5valuesr16is_constructibleIS6_NS_15iterator_traitsISC_E9referenceEEE5valueEvE4typeESC_SC_(%"class.std::__1::vector"* %128, %"class.std::__1::basic_string"* %141, %"class.std::__1::basic_string"* %145)
  br label %146

; <label>:146:                                    ; preds = %73, %131
  %147 = getelementptr inbounds %struct.TypeSpecifier, %struct.TypeSpecifier* %42, i32 0, i32 24
  %148 = load %struct.TypeSpecifier*, %struct.TypeSpecifier** %41, align 8
  %149 = getelementptr inbounds %struct.TypeSpecifier, %struct.TypeSpecifier* %148, i32 0, i32 24
  store %"class.std::__1::vector.20"* %147, %"class.std::__1::vector.20"** %8, align 8
  store %"class.std::__1::vector.20"* %149, %"class.std::__1::vector.20"** %9, align 8
  %150 = load %"class.std::__1::vector.20"*, %"class.std::__1::vector.20"** %8, align 8
  %151 = load %"class.std::__1::vector.20"*, %"class.std::__1::vector.20"** %9, align 8
  %152 = icmp ne %"class.std::__1::vector.20"* %150, %151
  br i1 %152, label %153, label %168

; <label>:153:                                    ; preds = %146
  %154 = bitcast %"class.std::__1::vector.20"* %150 to %"class.std::__1::__vector_base.21"*
  %155 = load %"class.std::__1::vector.20"*, %"class.std::__1::vector.20"** %9, align 8
  %156 = bitcast %"class.std::__1::vector.20"* %155 to %"class.std::__1::__vector_base.21"*
  store %"class.std::__1::__vector_base.21"* %154, %"class.std::__1::__vector_base.21"** %5, align 8
  store %"class.std::__1::__vector_base.21"* %156, %"class.std::__1::__vector_base.21"** %6, align 8
  %157 = load %"class.std::__1::__vector_base.21"*, %"class.std::__1::__vector_base.21"** %5, align 8
  %158 = load %"class.std::__1::__vector_base.21"*, %"class.std::__1::__vector_base.21"** %6, align 8
  store %"class.std::__1::__vector_base.21"* %157, %"class.std::__1::__vector_base.21"** %3, align 8
  store %"class.std::__1::__vector_base.21"* %158, %"class.std::__1::__vector_base.21"** %4, align 8
  %159 = load %"class.std::__1::__vector_base.21"*, %"class.std::__1::__vector_base.21"** %3, align 8
  %160 = load %"class.std::__1::vector.20"*, %"class.std::__1::vector.20"** %9, align 8
  %161 = bitcast %"class.std::__1::vector.20"* %160 to %"class.std::__1::__vector_base.21"*
  %162 = getelementptr inbounds %"class.std::__1::__vector_base.21", %"class.std::__1::__vector_base.21"* %161, i32 0, i32 0
  %163 = load %struct.TypeSpecifier*, %struct.TypeSpecifier** %162, align 8
  %164 = load %"class.std::__1::vector.20"*, %"class.std::__1::vector.20"** %9, align 8
  %165 = bitcast %"class.std::__1::vector.20"* %164 to %"class.std::__1::__vector_base.21"*
  %166 = getelementptr inbounds %"class.std::__1::__vector_base.21", %"class.std::__1::__vector_base.21"* %165, i32 0, i32 1
  %167 = load %struct.TypeSpecifier*, %struct.TypeSpecifier** %166, align 8
  call void @_ZNSt3__16vectorI13TypeSpecifierNS_9allocatorIS1_EEE6assignIPS1_EENS_9enable_ifIXaasr21__is_forward_iteratorIT_EE5valuesr16is_constructibleIS1_NS_15iterator_traitsIS8_E9referenceEEE5valueEvE4typeES8_S8_(%"class.std::__1::vector.20"* %150, %struct.TypeSpecifier* %163, %struct.TypeSpecifier* %167)
  br label %168

; <label>:168:                                    ; preds = %146, %153
  %169 = getelementptr inbounds %struct.TypeSpecifier, %struct.TypeSpecifier* %42, i32 0, i32 25
  %170 = load %struct.TypeSpecifier*, %struct.TypeSpecifier** %41, align 8
  %171 = getelementptr inbounds %struct.TypeSpecifier, %struct.TypeSpecifier* %170, i32 0, i32 25
  %172 = bitcast %union.anon.26* %169 to i8*
  %173 = bitcast %union.anon.26* %171 to i8*
  call void @llvm.memcpy.p0i8.p0i8.i64(i8* %172, i8* %173, i64 8, i32 8, i1 false)
  ret %struct.TypeSpecifier* %42
}

; Function Attrs: inlinehint nounwind ssp uwtable
define linkonce_odr void @_ZN13TypeSpecifierD1Ev(%struct.TypeSpecifier*) unnamed_addr #2 align 2 {
  %2 = alloca %struct.TypeSpecifier*, align 8
  store %struct.TypeSpecifier* %0, %struct.TypeSpecifier** %2, align 8
  %3 = load %struct.TypeSpecifier*, %struct.TypeSpecifier** %2, align 8
  call void @_ZN13TypeSpecifierD2Ev(%struct.TypeSpecifier* %3) #12
  ret void
}

; Function Attrs: ssp uwtable
define void @_ZN7VariantC1E13TypeSpecifier(%struct.Variant*, %struct.TypeSpecifier*) unnamed_addr #0 align 2 {
  %3 = alloca %struct.Variant*, align 8
  store %struct.Variant* %0, %struct.Variant** %3, align 8
  %4 = load %struct.Variant*, %struct.Variant** %3, align 8
  call void @_ZN7VariantC2E13TypeSpecifier(%struct.Variant* %4, %struct.TypeSpecifier* %1)
  ret void
}

; Function Attrs: nounwind ssp uwtable
define dereferenceable(216) %struct.TypeSpecifier* @_ZN7Variant8get_typeEv(%struct.Variant*) #4 align 2 {
  %2 = alloca %struct.Variant*, align 8
  store %struct.Variant* %0, %struct.Variant** %2, align 8
  %3 = load %struct.Variant*, %struct.Variant** %2, align 8
  %4 = getelementptr inbounds %struct.Variant, %struct.Variant* %3, i32 0, i32 4
  ret %struct.TypeSpecifier* %4
}

; Function Attrs: ssp uwtable
define void @_ZN7Variant11set_defaultEv(%struct.Variant*) #0 align 2 {
  %2 = alloca %"class.std::__1::basic_string"*, align 8
  %3 = alloca i8*, align 8
  %4 = alloca %struct.Variant*, align 8
  store %struct.Variant* %0, %struct.Variant** %4, align 8
  %5 = load %struct.Variant*, %struct.Variant** %4, align 8
  %6 = getelementptr inbounds %struct.Variant, %struct.Variant* %5, i32 0, i32 4
  %7 = getelementptr inbounds %struct.TypeSpecifier, %struct.TypeSpecifier* %6, i32 0, i32 0
  %8 = load i32, i32* %7, align 8
  switch i32 %8, label %32 [
    i32 0, label %9
    i32 1, label %12
    i32 2, label %15
    i32 3, label %18
    i32 5, label %21
    i32 6, label %24
    i32 4, label %27
  ]

; <label>:9:                                      ; preds = %1
  %10 = getelementptr inbounds %struct.Variant, %struct.Variant* %5, i32 0, i32 0
  %11 = bitcast %union.anon* %10 to i32*
  store i32 0, i32* %11, align 8
  br label %33

; <label>:12:                                     ; preds = %1
  %13 = getelementptr inbounds %struct.Variant, %struct.Variant* %5, i32 0, i32 0
  %14 = bitcast %union.anon* %13 to i64*
  store i64 0, i64* %14, align 8
  br label %33

; <label>:15:                                     ; preds = %1
  %16 = getelementptr inbounds %struct.Variant, %struct.Variant* %5, i32 0, i32 0
  %17 = bitcast %union.anon* %16 to float*
  store float 0.000000e+00, float* %17, align 8
  br label %33

; <label>:18:                                     ; preds = %1
  %19 = getelementptr inbounds %struct.Variant, %struct.Variant* %5, i32 0, i32 0
  %20 = bitcast %union.anon* %19 to double*
  store double 0.000000e+00, double* %20, align 8
  br label %33

; <label>:21:                                     ; preds = %1
  %22 = getelementptr inbounds %struct.Variant, %struct.Variant* %5, i32 0, i32 0
  %23 = bitcast %union.anon* %22 to i8*
  store i8 0, i8* %23, align 8
  br label %33

; <label>:24:                                     ; preds = %1
  %25 = getelementptr inbounds %struct.Variant, %struct.Variant* %5, i32 0, i32 0
  %26 = bitcast %union.anon* %25 to i8*
  store i8 0, i8* %26, align 8
  br label %33

; <label>:27:                                     ; preds = %1
  %28 = getelementptr inbounds %struct.Variant, %struct.Variant* %5, i32 0, i32 3
  store %"class.std::__1::basic_string"* %28, %"class.std::__1::basic_string"** %2, align 8
  store i8* getelementptr inbounds ([1 x i8], [1 x i8]* @.str.6, i32 0, i32 0), i8** %3, align 8
  %29 = load %"class.std::__1::basic_string"*, %"class.std::__1::basic_string"** %2, align 8
  %30 = load i8*, i8** %3, align 8
  %31 = call dereferenceable(24) %"class.std::__1::basic_string"* @_ZNSt3__112basic_stringIcNS_11char_traitsIcEENS_9allocatorIcEEE6assignEPKc(%"class.std::__1::basic_string"* %29, i8* %30)
  br label %33

; <label>:32:                                     ; preds = %1
  br label %35

; <label>:33:                                     ; preds = %27, %24, %21, %18, %15, %12, %9
  %34 = getelementptr inbounds %struct.Variant, %struct.Variant* %5, i32 0, i32 5
  store i8 0, i8* %34, align 8
  br label %35

; <label>:35:                                     ; preds = %33, %32
  ret void
}

; Function Attrs: nounwind ssp uwtable
define void @_ZN7Variant11is_any_typeEb(%struct.Variant*, i1 zeroext) #4 align 2 {
  %3 = alloca %struct.Variant*, align 8
  %4 = alloca i8, align 1
  store %struct.Variant* %0, %struct.Variant** %3, align 8
  %5 = zext i1 %1 to i8
  store i8 %5, i8* %4, align 1
  %6 = load %struct.Variant*, %struct.Variant** %3, align 8
  %7 = load i8, i8* %4, align 1
  %8 = trunc i8 %7 to i1
  %9 = getelementptr inbounds %struct.Variant, %struct.Variant* %6, i32 0, i32 1
  %10 = zext i1 %8 to i8
  store i8 %10, i8* %9, align 8
  ret void
}

; Function Attrs: ssp uwtable
define double @_ZN7Variant3getIdEET_v(%struct.Variant*) #0 align 2 personality i8* bitcast (i32 (...)* @__gxx_personality_v0 to i8*) {
  %2 = alloca %"class.std::__1::allocator"*, align 8
  %3 = alloca %"class.std::__1::__libcpp_compressed_pair_imp"*, align 8
  %4 = alloca %"class.std::__1::__compressed_pair"*, align 8
  %5 = alloca %"class.std::__1::__compressed_pair"*, align 8
  %6 = alloca %"class.std::__1::basic_string"*, align 8
  %7 = alloca i8*, align 8
  %8 = alloca %"class.std::__1::basic_string"*, align 8
  %9 = alloca i8*, align 8
  %10 = alloca %struct.Variant*, align 8
  %11 = alloca %"class.std::__1::basic_string", align 8
  %12 = alloca i8*
  %13 = alloca i32
  store %struct.Variant* %0, %struct.Variant** %10, align 8
  %14 = load %struct.Variant*, %struct.Variant** %10, align 8
  %15 = getelementptr inbounds %struct.Variant, %struct.Variant* %14, i32 0, i32 6
  %16 = load i8, i8* %15, align 1
  %17 = trunc i8 %16 to i1
  br i1 %17, label %40, label %18

; <label>:18:                                     ; preds = %1
  store %"class.std::__1::basic_string"* %11, %"class.std::__1::basic_string"** %8, align 8
  store i8* getelementptr inbounds ([36 x i8], [36 x i8]* @.str.7, i32 0, i32 0), i8** %9, align 8
  %19 = load %"class.std::__1::basic_string"*, %"class.std::__1::basic_string"** %8, align 8
  %20 = load i8*, i8** %9, align 8
  store %"class.std::__1::basic_string"* %19, %"class.std::__1::basic_string"** %6, align 8
  store i8* %20, i8** %7, align 8
  %21 = load %"class.std::__1::basic_string"*, %"class.std::__1::basic_string"** %6, align 8
  %22 = bitcast %"class.std::__1::basic_string"* %21 to %"class.std::__1::__basic_string_common"*
  %23 = getelementptr inbounds %"class.std::__1::basic_string", %"class.std::__1::basic_string"* %21, i32 0, i32 0
  store %"class.std::__1::__compressed_pair"* %23, %"class.std::__1::__compressed_pair"** %5, align 8
  %24 = load %"class.std::__1::__compressed_pair"*, %"class.std::__1::__compressed_pair"** %5, align 8
  store %"class.std::__1::__compressed_pair"* %24, %"class.std::__1::__compressed_pair"** %4, align 8
  %25 = load %"class.std::__1::__compressed_pair"*, %"class.std::__1::__compressed_pair"** %4, align 8
  %26 = bitcast %"class.std::__1::__compressed_pair"* %25 to %"class.std::__1::__libcpp_compressed_pair_imp"*
  store %"class.std::__1::__libcpp_compressed_pair_imp"* %26, %"class.std::__1::__libcpp_compressed_pair_imp"** %3, align 8
  %27 = load %"class.std::__1::__libcpp_compressed_pair_imp"*, %"class.std::__1::__libcpp_compressed_pair_imp"** %3, align 8
  %28 = bitcast %"class.std::__1::__libcpp_compressed_pair_imp"* %27 to %"class.std::__1::allocator"*
  store %"class.std::__1::allocator"* %28, %"class.std::__1::allocator"** %2, align 8
  %29 = load %"class.std::__1::allocator"*, %"class.std::__1::allocator"** %2, align 8
  %30 = getelementptr inbounds %"class.std::__1::__libcpp_compressed_pair_imp", %"class.std::__1::__libcpp_compressed_pair_imp"* %27, i32 0, i32 0
  %31 = bitcast %"struct.std::__1::basic_string<char, std::__1::char_traits<char>, std::__1::allocator<char> >::__rep"* %30 to i8*
  call void @llvm.memset.p0i8.i64(i8* %31, i8 0, i64 24, i32 8, i1 false) #12
  %32 = load i8*, i8** %7, align 8
  %33 = load i8*, i8** %7, align 8
  %34 = call i64 @_ZNSt3__111char_traitsIcE6lengthEPKc(i8* %33)
  call void @_ZNSt3__112basic_stringIcNS_11char_traitsIcEENS_9allocatorIcEEE6__initEPKcm(%"class.std::__1::basic_string"* %21, i8* %32, i64 %34)
  invoke void @_ZN12RuntimeError5raiseE13RuntimeErrorsNSt3__112basic_stringIcNS1_11char_traitsIcEENS1_9allocatorIcEEEEP7AstNode(i32 7, %"class.std::__1::basic_string"* %11, %class.AstNode* null)
          to label %35 unwind label %36

; <label>:35:                                     ; preds = %18
  call void @_ZNSt3__112basic_stringIcNS_11char_traitsIcEENS_9allocatorIcEEED1Ev(%"class.std::__1::basic_string"* %11) #12
  br label %40

; <label>:36:                                     ; preds = %18
  %37 = landingpad { i8*, i32 }
          cleanup
  %38 = extractvalue { i8*, i32 } %37, 0
  store i8* %38, i8** %12, align 8
  %39 = extractvalue { i8*, i32 } %37, 1
  store i32 %39, i32* %13, align 4
  call void @_ZNSt3__112basic_stringIcNS_11char_traitsIcEENS_9allocatorIcEEED1Ev(%"class.std::__1::basic_string"* %11) #12
  br label %44

; <label>:40:                                     ; preds = %35, %1
  %41 = getelementptr inbounds %struct.Variant, %struct.Variant* %14, i32 0, i32 0
  %42 = bitcast %union.anon* %41 to double*
  %43 = load double, double* %42, align 8
  ret double %43

; <label>:44:                                     ; preds = %36
  %45 = load i8*, i8** %12, align 8
  %46 = load i32, i32* %13, align 4
  %47 = insertvalue { i8*, i32 } undef, i8* %45, 0
  %48 = insertvalue { i8*, i32 } %47, i32 %46, 1
  resume { i8*, i32 } %48
}

declare void @_ZN12RuntimeError5raiseE13RuntimeErrorsNSt3__112basic_stringIcNS1_11char_traitsIcEENS1_9allocatorIcEEEEP7AstNode(i32, %"class.std::__1::basic_string"*, %class.AstNode*) #3

; Function Attrs: ssp uwtable
define i32 @_ZN7Variant3getIiEET_v(%struct.Variant*) #0 align 2 personality i8* bitcast (i32 (...)* @__gxx_personality_v0 to i8*) {
  %2 = alloca %"class.std::__1::allocator"*, align 8
  %3 = alloca %"class.std::__1::__libcpp_compressed_pair_imp"*, align 8
  %4 = alloca %"class.std::__1::__compressed_pair"*, align 8
  %5 = alloca %"class.std::__1::__compressed_pair"*, align 8
  %6 = alloca %"class.std::__1::basic_string"*, align 8
  %7 = alloca i8*, align 8
  %8 = alloca %"class.std::__1::basic_string"*, align 8
  %9 = alloca i8*, align 8
  %10 = alloca %struct.Variant*, align 8
  %11 = alloca %"class.std::__1::basic_string", align 8
  %12 = alloca i8*
  %13 = alloca i32
  store %struct.Variant* %0, %struct.Variant** %10, align 8
  %14 = load %struct.Variant*, %struct.Variant** %10, align 8
  %15 = getelementptr inbounds %struct.Variant, %struct.Variant* %14, i32 0, i32 6
  %16 = load i8, i8* %15, align 1
  %17 = trunc i8 %16 to i1
  br i1 %17, label %40, label %18

; <label>:18:                                     ; preds = %1
  store %"class.std::__1::basic_string"* %11, %"class.std::__1::basic_string"** %8, align 8
  store i8* getelementptr inbounds ([33 x i8], [33 x i8]* @.str.8, i32 0, i32 0), i8** %9, align 8
  %19 = load %"class.std::__1::basic_string"*, %"class.std::__1::basic_string"** %8, align 8
  %20 = load i8*, i8** %9, align 8
  store %"class.std::__1::basic_string"* %19, %"class.std::__1::basic_string"** %6, align 8
  store i8* %20, i8** %7, align 8
  %21 = load %"class.std::__1::basic_string"*, %"class.std::__1::basic_string"** %6, align 8
  %22 = bitcast %"class.std::__1::basic_string"* %21 to %"class.std::__1::__basic_string_common"*
  %23 = getelementptr inbounds %"class.std::__1::basic_string", %"class.std::__1::basic_string"* %21, i32 0, i32 0
  store %"class.std::__1::__compressed_pair"* %23, %"class.std::__1::__compressed_pair"** %5, align 8
  %24 = load %"class.std::__1::__compressed_pair"*, %"class.std::__1::__compressed_pair"** %5, align 8
  store %"class.std::__1::__compressed_pair"* %24, %"class.std::__1::__compressed_pair"** %4, align 8
  %25 = load %"class.std::__1::__compressed_pair"*, %"class.std::__1::__compressed_pair"** %4, align 8
  %26 = bitcast %"class.std::__1::__compressed_pair"* %25 to %"class.std::__1::__libcpp_compressed_pair_imp"*
  store %"class.std::__1::__libcpp_compressed_pair_imp"* %26, %"class.std::__1::__libcpp_compressed_pair_imp"** %3, align 8
  %27 = load %"class.std::__1::__libcpp_compressed_pair_imp"*, %"class.std::__1::__libcpp_compressed_pair_imp"** %3, align 8
  %28 = bitcast %"class.std::__1::__libcpp_compressed_pair_imp"* %27 to %"class.std::__1::allocator"*
  store %"class.std::__1::allocator"* %28, %"class.std::__1::allocator"** %2, align 8
  %29 = load %"class.std::__1::allocator"*, %"class.std::__1::allocator"** %2, align 8
  %30 = getelementptr inbounds %"class.std::__1::__libcpp_compressed_pair_imp", %"class.std::__1::__libcpp_compressed_pair_imp"* %27, i32 0, i32 0
  %31 = bitcast %"struct.std::__1::basic_string<char, std::__1::char_traits<char>, std::__1::allocator<char> >::__rep"* %30 to i8*
  call void @llvm.memset.p0i8.i64(i8* %31, i8 0, i64 24, i32 8, i1 false) #12
  %32 = load i8*, i8** %7, align 8
  %33 = load i8*, i8** %7, align 8
  %34 = call i64 @_ZNSt3__111char_traitsIcE6lengthEPKc(i8* %33)
  call void @_ZNSt3__112basic_stringIcNS_11char_traitsIcEENS_9allocatorIcEEE6__initEPKcm(%"class.std::__1::basic_string"* %21, i8* %32, i64 %34)
  invoke void @_ZN12RuntimeError5raiseE13RuntimeErrorsNSt3__112basic_stringIcNS1_11char_traitsIcEENS1_9allocatorIcEEEEP7AstNode(i32 7, %"class.std::__1::basic_string"* %11, %class.AstNode* null)
          to label %35 unwind label %36

; <label>:35:                                     ; preds = %18
  call void @_ZNSt3__112basic_stringIcNS_11char_traitsIcEENS_9allocatorIcEEED1Ev(%"class.std::__1::basic_string"* %11) #12
  br label %40

; <label>:36:                                     ; preds = %18
  %37 = landingpad { i8*, i32 }
          cleanup
  %38 = extractvalue { i8*, i32 } %37, 0
  store i8* %38, i8** %12, align 8
  %39 = extractvalue { i8*, i32 } %37, 1
  store i32 %39, i32* %13, align 4
  call void @_ZNSt3__112basic_stringIcNS_11char_traitsIcEENS_9allocatorIcEEED1Ev(%"class.std::__1::basic_string"* %11) #12
  br label %44

; <label>:40:                                     ; preds = %35, %1
  %41 = getelementptr inbounds %struct.Variant, %struct.Variant* %14, i32 0, i32 0
  %42 = bitcast %union.anon* %41 to i32*
  %43 = load i32, i32* %42, align 8
  ret i32 %43

; <label>:44:                                     ; preds = %36
  %45 = load i8*, i8** %12, align 8
  %46 = load i32, i32* %13, align 4
  %47 = insertvalue { i8*, i32 } undef, i8* %45, 0
  %48 = insertvalue { i8*, i32 } %47, i32 %46, 1
  resume { i8*, i32 } %48
}

; Function Attrs: ssp uwtable
define i64 @_ZN7Variant3getIlEET_v(%struct.Variant*) #0 align 2 personality i8* bitcast (i32 (...)* @__gxx_personality_v0 to i8*) {
  %2 = alloca %"class.std::__1::allocator"*, align 8
  %3 = alloca %"class.std::__1::__libcpp_compressed_pair_imp"*, align 8
  %4 = alloca %"class.std::__1::__compressed_pair"*, align 8
  %5 = alloca %"class.std::__1::__compressed_pair"*, align 8
  %6 = alloca %"class.std::__1::basic_string"*, align 8
  %7 = alloca i8*, align 8
  %8 = alloca %"class.std::__1::basic_string"*, align 8
  %9 = alloca i8*, align 8
  %10 = alloca %struct.Variant*, align 8
  %11 = alloca %"class.std::__1::basic_string", align 8
  %12 = alloca i8*
  %13 = alloca i32
  store %struct.Variant* %0, %struct.Variant** %10, align 8
  %14 = load %struct.Variant*, %struct.Variant** %10, align 8
  %15 = getelementptr inbounds %struct.Variant, %struct.Variant* %14, i32 0, i32 6
  %16 = load i8, i8* %15, align 1
  %17 = trunc i8 %16 to i1
  br i1 %17, label %40, label %18

; <label>:18:                                     ; preds = %1
  store %"class.std::__1::basic_string"* %11, %"class.std::__1::basic_string"** %8, align 8
  store i8* getelementptr inbounds ([34 x i8], [34 x i8]* @.str.9, i32 0, i32 0), i8** %9, align 8
  %19 = load %"class.std::__1::basic_string"*, %"class.std::__1::basic_string"** %8, align 8
  %20 = load i8*, i8** %9, align 8
  store %"class.std::__1::basic_string"* %19, %"class.std::__1::basic_string"** %6, align 8
  store i8* %20, i8** %7, align 8
  %21 = load %"class.std::__1::basic_string"*, %"class.std::__1::basic_string"** %6, align 8
  %22 = bitcast %"class.std::__1::basic_string"* %21 to %"class.std::__1::__basic_string_common"*
  %23 = getelementptr inbounds %"class.std::__1::basic_string", %"class.std::__1::basic_string"* %21, i32 0, i32 0
  store %"class.std::__1::__compressed_pair"* %23, %"class.std::__1::__compressed_pair"** %5, align 8
  %24 = load %"class.std::__1::__compressed_pair"*, %"class.std::__1::__compressed_pair"** %5, align 8
  store %"class.std::__1::__compressed_pair"* %24, %"class.std::__1::__compressed_pair"** %4, align 8
  %25 = load %"class.std::__1::__compressed_pair"*, %"class.std::__1::__compressed_pair"** %4, align 8
  %26 = bitcast %"class.std::__1::__compressed_pair"* %25 to %"class.std::__1::__libcpp_compressed_pair_imp"*
  store %"class.std::__1::__libcpp_compressed_pair_imp"* %26, %"class.std::__1::__libcpp_compressed_pair_imp"** %3, align 8
  %27 = load %"class.std::__1::__libcpp_compressed_pair_imp"*, %"class.std::__1::__libcpp_compressed_pair_imp"** %3, align 8
  %28 = bitcast %"class.std::__1::__libcpp_compressed_pair_imp"* %27 to %"class.std::__1::allocator"*
  store %"class.std::__1::allocator"* %28, %"class.std::__1::allocator"** %2, align 8
  %29 = load %"class.std::__1::allocator"*, %"class.std::__1::allocator"** %2, align 8
  %30 = getelementptr inbounds %"class.std::__1::__libcpp_compressed_pair_imp", %"class.std::__1::__libcpp_compressed_pair_imp"* %27, i32 0, i32 0
  %31 = bitcast %"struct.std::__1::basic_string<char, std::__1::char_traits<char>, std::__1::allocator<char> >::__rep"* %30 to i8*
  call void @llvm.memset.p0i8.i64(i8* %31, i8 0, i64 24, i32 8, i1 false) #12
  %32 = load i8*, i8** %7, align 8
  %33 = load i8*, i8** %7, align 8
  %34 = call i64 @_ZNSt3__111char_traitsIcE6lengthEPKc(i8* %33)
  call void @_ZNSt3__112basic_stringIcNS_11char_traitsIcEENS_9allocatorIcEEE6__initEPKcm(%"class.std::__1::basic_string"* %21, i8* %32, i64 %34)
  invoke void @_ZN12RuntimeError5raiseE13RuntimeErrorsNSt3__112basic_stringIcNS1_11char_traitsIcEENS1_9allocatorIcEEEEP7AstNode(i32 7, %"class.std::__1::basic_string"* %11, %class.AstNode* null)
          to label %35 unwind label %36

; <label>:35:                                     ; preds = %18
  call void @_ZNSt3__112basic_stringIcNS_11char_traitsIcEENS_9allocatorIcEEED1Ev(%"class.std::__1::basic_string"* %11) #12
  br label %40

; <label>:36:                                     ; preds = %18
  %37 = landingpad { i8*, i32 }
          cleanup
  %38 = extractvalue { i8*, i32 } %37, 0
  store i8* %38, i8** %12, align 8
  %39 = extractvalue { i8*, i32 } %37, 1
  store i32 %39, i32* %13, align 4
  call void @_ZNSt3__112basic_stringIcNS_11char_traitsIcEENS_9allocatorIcEEED1Ev(%"class.std::__1::basic_string"* %11) #12
  br label %44

; <label>:40:                                     ; preds = %35, %1
  %41 = getelementptr inbounds %struct.Variant, %struct.Variant* %14, i32 0, i32 0
  %42 = bitcast %union.anon* %41 to i64*
  %43 = load i64, i64* %42, align 8
  ret i64 %43

; <label>:44:                                     ; preds = %36
  %45 = load i8*, i8** %12, align 8
  %46 = load i32, i32* %13, align 4
  %47 = insertvalue { i8*, i32 } undef, i8* %45, 0
  %48 = insertvalue { i8*, i32 } %47, i32 %46, 1
  resume { i8*, i32 } %48
}

; Function Attrs: ssp uwtable
define float @_ZN7Variant3getIfEET_v(%struct.Variant*) #0 align 2 personality i8* bitcast (i32 (...)* @__gxx_personality_v0 to i8*) {
  %2 = alloca %"class.std::__1::allocator"*, align 8
  %3 = alloca %"class.std::__1::__libcpp_compressed_pair_imp"*, align 8
  %4 = alloca %"class.std::__1::__compressed_pair"*, align 8
  %5 = alloca %"class.std::__1::__compressed_pair"*, align 8
  %6 = alloca %"class.std::__1::basic_string"*, align 8
  %7 = alloca i8*, align 8
  %8 = alloca %"class.std::__1::basic_string"*, align 8
  %9 = alloca i8*, align 8
  %10 = alloca %struct.Variant*, align 8
  %11 = alloca %"class.std::__1::basic_string", align 8
  %12 = alloca i8*
  %13 = alloca i32
  store %struct.Variant* %0, %struct.Variant** %10, align 8
  %14 = load %struct.Variant*, %struct.Variant** %10, align 8
  %15 = getelementptr inbounds %struct.Variant, %struct.Variant* %14, i32 0, i32 6
  %16 = load i8, i8* %15, align 1
  %17 = trunc i8 %16 to i1
  br i1 %17, label %40, label %18

; <label>:18:                                     ; preds = %1
  store %"class.std::__1::basic_string"* %11, %"class.std::__1::basic_string"** %8, align 8
  store i8* getelementptr inbounds ([35 x i8], [35 x i8]* @.str.10, i32 0, i32 0), i8** %9, align 8
  %19 = load %"class.std::__1::basic_string"*, %"class.std::__1::basic_string"** %8, align 8
  %20 = load i8*, i8** %9, align 8
  store %"class.std::__1::basic_string"* %19, %"class.std::__1::basic_string"** %6, align 8
  store i8* %20, i8** %7, align 8
  %21 = load %"class.std::__1::basic_string"*, %"class.std::__1::basic_string"** %6, align 8
  %22 = bitcast %"class.std::__1::basic_string"* %21 to %"class.std::__1::__basic_string_common"*
  %23 = getelementptr inbounds %"class.std::__1::basic_string", %"class.std::__1::basic_string"* %21, i32 0, i32 0
  store %"class.std::__1::__compressed_pair"* %23, %"class.std::__1::__compressed_pair"** %5, align 8
  %24 = load %"class.std::__1::__compressed_pair"*, %"class.std::__1::__compressed_pair"** %5, align 8
  store %"class.std::__1::__compressed_pair"* %24, %"class.std::__1::__compressed_pair"** %4, align 8
  %25 = load %"class.std::__1::__compressed_pair"*, %"class.std::__1::__compressed_pair"** %4, align 8
  %26 = bitcast %"class.std::__1::__compressed_pair"* %25 to %"class.std::__1::__libcpp_compressed_pair_imp"*
  store %"class.std::__1::__libcpp_compressed_pair_imp"* %26, %"class.std::__1::__libcpp_compressed_pair_imp"** %3, align 8
  %27 = load %"class.std::__1::__libcpp_compressed_pair_imp"*, %"class.std::__1::__libcpp_compressed_pair_imp"** %3, align 8
  %28 = bitcast %"class.std::__1::__libcpp_compressed_pair_imp"* %27 to %"class.std::__1::allocator"*
  store %"class.std::__1::allocator"* %28, %"class.std::__1::allocator"** %2, align 8
  %29 = load %"class.std::__1::allocator"*, %"class.std::__1::allocator"** %2, align 8
  %30 = getelementptr inbounds %"class.std::__1::__libcpp_compressed_pair_imp", %"class.std::__1::__libcpp_compressed_pair_imp"* %27, i32 0, i32 0
  %31 = bitcast %"struct.std::__1::basic_string<char, std::__1::char_traits<char>, std::__1::allocator<char> >::__rep"* %30 to i8*
  call void @llvm.memset.p0i8.i64(i8* %31, i8 0, i64 24, i32 8, i1 false) #12
  %32 = load i8*, i8** %7, align 8
  %33 = load i8*, i8** %7, align 8
  %34 = call i64 @_ZNSt3__111char_traitsIcE6lengthEPKc(i8* %33)
  call void @_ZNSt3__112basic_stringIcNS_11char_traitsIcEENS_9allocatorIcEEE6__initEPKcm(%"class.std::__1::basic_string"* %21, i8* %32, i64 %34)
  invoke void @_ZN12RuntimeError5raiseE13RuntimeErrorsNSt3__112basic_stringIcNS1_11char_traitsIcEENS1_9allocatorIcEEEEP7AstNode(i32 7, %"class.std::__1::basic_string"* %11, %class.AstNode* null)
          to label %35 unwind label %36

; <label>:35:                                     ; preds = %18
  call void @_ZNSt3__112basic_stringIcNS_11char_traitsIcEENS_9allocatorIcEEED1Ev(%"class.std::__1::basic_string"* %11) #12
  br label %40

; <label>:36:                                     ; preds = %18
  %37 = landingpad { i8*, i32 }
          cleanup
  %38 = extractvalue { i8*, i32 } %37, 0
  store i8* %38, i8** %12, align 8
  %39 = extractvalue { i8*, i32 } %37, 1
  store i32 %39, i32* %13, align 4
  call void @_ZNSt3__112basic_stringIcNS_11char_traitsIcEENS_9allocatorIcEEED1Ev(%"class.std::__1::basic_string"* %11) #12
  br label %44

; <label>:40:                                     ; preds = %35, %1
  %41 = getelementptr inbounds %struct.Variant, %struct.Variant* %14, i32 0, i32 0
  %42 = bitcast %union.anon* %41 to float*
  %43 = load float, float* %42, align 8
  ret float %43

; <label>:44:                                     ; preds = %36
  %45 = load i8*, i8** %12, align 8
  %46 = load i32, i32* %13, align 4
  %47 = insertvalue { i8*, i32 } undef, i8* %45, 0
  %48 = insertvalue { i8*, i32 } %47, i32 %46, 1
  resume { i8*, i32 } %48
}

; Function Attrs: ssp uwtable
define zeroext i1 @_ZN7Variant3getIbEET_v(%struct.Variant*) #0 align 2 personality i8* bitcast (i32 (...)* @__gxx_personality_v0 to i8*) {
  %2 = alloca i1, align 1
  %3 = alloca %struct.Variant*, align 8
  %4 = alloca %struct.Variant, align 8
  %5 = alloca i8*
  %6 = alloca i32
  store %struct.Variant* %0, %struct.Variant** %3, align 8
  %7 = load %struct.Variant*, %struct.Variant** %3, align 8
  %8 = getelementptr inbounds %struct.Variant, %struct.Variant* %7, i32 0, i32 4
  %9 = getelementptr inbounds %struct.TypeSpecifier, %struct.TypeSpecifier* %8, i32 0, i32 0
  %10 = load i32, i32* %9, align 8
  %11 = icmp ne i32 %10, 5
  br i1 %11, label %12, label %19

; <label>:12:                                     ; preds = %1
  call void @_ZN7Variant7cast_toE9ValueType(%struct.Variant* sret %4, %struct.Variant* %7, i32 5)
  %13 = invoke zeroext i1 @_ZN7Variant3getIbEET_v(%struct.Variant* %4)
          to label %14 unwind label %15

; <label>:14:                                     ; preds = %12
  store i1 %13, i1* %2, align 1
  call void @_ZN7VariantD1Ev(%struct.Variant* %4) #12
  br label %24

; <label>:15:                                     ; preds = %12
  %16 = landingpad { i8*, i32 }
          cleanup
  %17 = extractvalue { i8*, i32 } %16, 0
  store i8* %17, i8** %5, align 8
  %18 = extractvalue { i8*, i32 } %16, 1
  store i32 %18, i32* %6, align 4
  call void @_ZN7VariantD1Ev(%struct.Variant* %4) #12
  br label %26

; <label>:19:                                     ; preds = %1
  %20 = getelementptr inbounds %struct.Variant, %struct.Variant* %7, i32 0, i32 0
  %21 = bitcast %union.anon* %20 to i8*
  %22 = load i8, i8* %21, align 8
  %23 = trunc i8 %22 to i1
  store i1 %23, i1* %2, align 1
  br label %24

; <label>:24:                                     ; preds = %19, %14
  %25 = load i1, i1* %2, align 1
  ret i1 %25

; <label>:26:                                     ; preds = %15
  %27 = load i8*, i8** %5, align 8
  %28 = load i32, i32* %6, align 4
  %29 = insertvalue { i8*, i32 } undef, i8* %27, 0
  %30 = insertvalue { i8*, i32 } %29, i32 %28, 1
  resume { i8*, i32 } %30
}

; Function Attrs: ssp uwtable
define void @_ZN7Variant7cast_toE9ValueType(%struct.Variant* noalias sret, %struct.Variant*, i32) #0 align 2 personality i8* bitcast (i32 (...)* @__gxx_personality_v0 to i8*) {
  %4 = alloca %struct.Variant*, align 8
  %5 = alloca i32, align 4
  %6 = alloca %struct.Variant, align 8
  %7 = alloca i8*
  %8 = alloca i32
  store %struct.Variant* %1, %struct.Variant** %4, align 8
  store i32 %2, i32* %5, align 4
  %9 = load %struct.Variant*, %struct.Variant** %4, align 8
  call void @_ZN7VariantC1ERKS_(%struct.Variant* %6, %struct.Variant* dereferenceable(264) %9)
  %10 = load i32, i32* %5, align 4
  invoke void @_ZN4cdot3var9Converter4castE7Variant9ValueType(%struct.Variant* sret %0, %struct.Variant* %6, i32 %10)
          to label %11 unwind label %12

; <label>:11:                                     ; preds = %3
  call void @_ZN7VariantD1Ev(%struct.Variant* %6) #12
  ret void

; <label>:12:                                     ; preds = %3
  %13 = landingpad { i8*, i32 }
          cleanup
  %14 = extractvalue { i8*, i32 } %13, 0
  store i8* %14, i8** %7, align 8
  %15 = extractvalue { i8*, i32 } %13, 1
  store i32 %15, i32* %8, align 4
  call void @_ZN7VariantD1Ev(%struct.Variant* %6) #12
  br label %16

; <label>:16:                                     ; preds = %12
  %17 = load i8*, i8** %7, align 8
  %18 = load i32, i32* %8, align 4
  %19 = insertvalue { i8*, i32 } undef, i8* %17, 0
  %20 = insertvalue { i8*, i32 } %19, i32 %18, 1
  resume { i8*, i32 } %20
}

; Function Attrs: ssp uwtable
define signext i8 @_ZN7Variant3getIcEET_v(%struct.Variant*) #0 align 2 personality i8* bitcast (i32 (...)* @__gxx_personality_v0 to i8*) {
  %2 = alloca %"class.std::__1::allocator"*, align 8
  %3 = alloca %"class.std::__1::__libcpp_compressed_pair_imp"*, align 8
  %4 = alloca %"class.std::__1::__compressed_pair"*, align 8
  %5 = alloca %"class.std::__1::__compressed_pair"*, align 8
  %6 = alloca %"class.std::__1::basic_string"*, align 8
  %7 = alloca i8*, align 8
  %8 = alloca %"class.std::__1::basic_string"*, align 8
  %9 = alloca i8*, align 8
  %10 = alloca %struct.Variant*, align 8
  %11 = alloca %"class.std::__1::basic_string", align 8
  %12 = alloca i8*
  %13 = alloca i32
  store %struct.Variant* %0, %struct.Variant** %10, align 8
  %14 = load %struct.Variant*, %struct.Variant** %10, align 8
  %15 = getelementptr inbounds %struct.Variant, %struct.Variant* %14, i32 0, i32 4
  %16 = getelementptr inbounds %struct.TypeSpecifier, %struct.TypeSpecifier* %15, i32 0, i32 0
  %17 = load i32, i32* %16, align 8
  %18 = icmp ne i32 %17, 6
  br i1 %18, label %19, label %41

; <label>:19:                                     ; preds = %1
  store %"class.std::__1::basic_string"* %11, %"class.std::__1::basic_string"** %8, align 8
  store i8* getelementptr inbounds ([34 x i8], [34 x i8]* @.str.11, i32 0, i32 0), i8** %9, align 8
  %20 = load %"class.std::__1::basic_string"*, %"class.std::__1::basic_string"** %8, align 8
  %21 = load i8*, i8** %9, align 8
  store %"class.std::__1::basic_string"* %20, %"class.std::__1::basic_string"** %6, align 8
  store i8* %21, i8** %7, align 8
  %22 = load %"class.std::__1::basic_string"*, %"class.std::__1::basic_string"** %6, align 8
  %23 = bitcast %"class.std::__1::basic_string"* %22 to %"class.std::__1::__basic_string_common"*
  %24 = getelementptr inbounds %"class.std::__1::basic_string", %"class.std::__1::basic_string"* %22, i32 0, i32 0
  store %"class.std::__1::__compressed_pair"* %24, %"class.std::__1::__compressed_pair"** %5, align 8
  %25 = load %"class.std::__1::__compressed_pair"*, %"class.std::__1::__compressed_pair"** %5, align 8
  store %"class.std::__1::__compressed_pair"* %25, %"class.std::__1::__compressed_pair"** %4, align 8
  %26 = load %"class.std::__1::__compressed_pair"*, %"class.std::__1::__compressed_pair"** %4, align 8
  %27 = bitcast %"class.std::__1::__compressed_pair"* %26 to %"class.std::__1::__libcpp_compressed_pair_imp"*
  store %"class.std::__1::__libcpp_compressed_pair_imp"* %27, %"class.std::__1::__libcpp_compressed_pair_imp"** %3, align 8
  %28 = load %"class.std::__1::__libcpp_compressed_pair_imp"*, %"class.std::__1::__libcpp_compressed_pair_imp"** %3, align 8
  %29 = bitcast %"class.std::__1::__libcpp_compressed_pair_imp"* %28 to %"class.std::__1::allocator"*
  store %"class.std::__1::allocator"* %29, %"class.std::__1::allocator"** %2, align 8
  %30 = load %"class.std::__1::allocator"*, %"class.std::__1::allocator"** %2, align 8
  %31 = getelementptr inbounds %"class.std::__1::__libcpp_compressed_pair_imp", %"class.std::__1::__libcpp_compressed_pair_imp"* %28, i32 0, i32 0
  %32 = bitcast %"struct.std::__1::basic_string<char, std::__1::char_traits<char>, std::__1::allocator<char> >::__rep"* %31 to i8*
  call void @llvm.memset.p0i8.i64(i8* %32, i8 0, i64 24, i32 8, i1 false) #12
  %33 = load i8*, i8** %7, align 8
  %34 = load i8*, i8** %7, align 8
  %35 = call i64 @_ZNSt3__111char_traitsIcE6lengthEPKc(i8* %34)
  call void @_ZNSt3__112basic_stringIcNS_11char_traitsIcEENS_9allocatorIcEEE6__initEPKcm(%"class.std::__1::basic_string"* %22, i8* %33, i64 %35)
  invoke void @_ZN12RuntimeError5raiseE13RuntimeErrorsNSt3__112basic_stringIcNS1_11char_traitsIcEENS1_9allocatorIcEEEEP7AstNode(i32 7, %"class.std::__1::basic_string"* %11, %class.AstNode* null)
          to label %36 unwind label %37

; <label>:36:                                     ; preds = %19
  call void @_ZNSt3__112basic_stringIcNS_11char_traitsIcEENS_9allocatorIcEEED1Ev(%"class.std::__1::basic_string"* %11) #12
  br label %41

; <label>:37:                                     ; preds = %19
  %38 = landingpad { i8*, i32 }
          cleanup
  %39 = extractvalue { i8*, i32 } %38, 0
  store i8* %39, i8** %12, align 8
  %40 = extractvalue { i8*, i32 } %38, 1
  store i32 %40, i32* %13, align 4
  call void @_ZNSt3__112basic_stringIcNS_11char_traitsIcEENS_9allocatorIcEEED1Ev(%"class.std::__1::basic_string"* %11) #12
  br label %45

; <label>:41:                                     ; preds = %36, %1
  %42 = getelementptr inbounds %struct.Variant, %struct.Variant* %14, i32 0, i32 0
  %43 = bitcast %union.anon* %42 to i8*
  %44 = load i8, i8* %43, align 8
  ret i8 %44

; <label>:45:                                     ; preds = %37
  %46 = load i8*, i8** %12, align 8
  %47 = load i32, i32* %13, align 4
  %48 = insertvalue { i8*, i32 } undef, i8* %46, 0
  %49 = insertvalue { i8*, i32 } %48, i32 %47, 1
  resume { i8*, i32 } %49
}

; Function Attrs: ssp uwtable
define void @_ZN7Variant3getINSt3__112basic_stringIcNS1_11char_traitsIcEENS1_9allocatorIcEEEEEET_v(%"class.std::__1::basic_string"* noalias sret, %struct.Variant*) #0 align 2 personality i8* bitcast (i32 (...)* @__gxx_personality_v0 to i8*) {
  %3 = alloca %"class.std::__1::allocator"*, align 8
  %4 = alloca %"class.std::__1::__libcpp_compressed_pair_imp"*, align 8
  %5 = alloca %"class.std::__1::__compressed_pair"*, align 8
  %6 = alloca %"class.std::__1::__compressed_pair"*, align 8
  %7 = alloca %"class.std::__1::basic_string"*, align 8
  %8 = alloca i8*, align 8
  %9 = alloca %"class.std::__1::basic_string"*, align 8
  %10 = alloca i8*, align 8
  %11 = alloca %"class.std::__1::basic_string"*, align 8
  %12 = alloca i8*, align 8
  %13 = alloca %"class.std::__1::basic_string"*, align 8
  %14 = alloca i8*, align 8
  %15 = alloca %struct.Variant*, align 8
  %16 = alloca %"class.std::__1::basic_string", align 8
  %17 = alloca i8*
  %18 = alloca i32
  store %struct.Variant* %1, %struct.Variant** %15, align 8
  %19 = load %struct.Variant*, %struct.Variant** %15, align 8
  %20 = getelementptr inbounds %struct.Variant, %struct.Variant* %19, i32 0, i32 4
  %21 = getelementptr inbounds %struct.TypeSpecifier, %struct.TypeSpecifier* %20, i32 0, i32 1
  store %"class.std::__1::basic_string"* %21, %"class.std::__1::basic_string"** %13, align 8
  store i8* getelementptr inbounds ([7 x i8], [7 x i8]* @.str.5, i32 0, i32 0), i8** %14, align 8
  %22 = load %"class.std::__1::basic_string"*, %"class.std::__1::basic_string"** %13, align 8
  %23 = load i8*, i8** %14, align 8
  store %"class.std::__1::basic_string"* %22, %"class.std::__1::basic_string"** %11, align 8
  store i8* %23, i8** %12, align 8
  %24 = load %"class.std::__1::basic_string"*, %"class.std::__1::basic_string"** %11, align 8
  %25 = load i8*, i8** %12, align 8
  %26 = call i32 @_ZNKSt3__112basic_stringIcNS_11char_traitsIcEENS_9allocatorIcEEE7compareEPKc(%"class.std::__1::basic_string"* %24, i8* %25) #12
  %27 = icmp eq i32 %26, 0
  %28 = xor i1 %27, true
  br i1 %28, label %29, label %51

; <label>:29:                                     ; preds = %2
  store %"class.std::__1::basic_string"* %16, %"class.std::__1::basic_string"** %9, align 8
  store i8* getelementptr inbounds ([22 x i8], [22 x i8]* @.str.12, i32 0, i32 0), i8** %10, align 8
  %30 = load %"class.std::__1::basic_string"*, %"class.std::__1::basic_string"** %9, align 8
  %31 = load i8*, i8** %10, align 8
  store %"class.std::__1::basic_string"* %30, %"class.std::__1::basic_string"** %7, align 8
  store i8* %31, i8** %8, align 8
  %32 = load %"class.std::__1::basic_string"*, %"class.std::__1::basic_string"** %7, align 8
  %33 = bitcast %"class.std::__1::basic_string"* %32 to %"class.std::__1::__basic_string_common"*
  %34 = getelementptr inbounds %"class.std::__1::basic_string", %"class.std::__1::basic_string"* %32, i32 0, i32 0
  store %"class.std::__1::__compressed_pair"* %34, %"class.std::__1::__compressed_pair"** %6, align 8
  %35 = load %"class.std::__1::__compressed_pair"*, %"class.std::__1::__compressed_pair"** %6, align 8
  store %"class.std::__1::__compressed_pair"* %35, %"class.std::__1::__compressed_pair"** %5, align 8
  %36 = load %"class.std::__1::__compressed_pair"*, %"class.std::__1::__compressed_pair"** %5, align 8
  %37 = bitcast %"class.std::__1::__compressed_pair"* %36 to %"class.std::__1::__libcpp_compressed_pair_imp"*
  store %"class.std::__1::__libcpp_compressed_pair_imp"* %37, %"class.std::__1::__libcpp_compressed_pair_imp"** %4, align 8
  %38 = load %"class.std::__1::__libcpp_compressed_pair_imp"*, %"class.std::__1::__libcpp_compressed_pair_imp"** %4, align 8
  %39 = bitcast %"class.std::__1::__libcpp_compressed_pair_imp"* %38 to %"class.std::__1::allocator"*
  store %"class.std::__1::allocator"* %39, %"class.std::__1::allocator"** %3, align 8
  %40 = load %"class.std::__1::allocator"*, %"class.std::__1::allocator"** %3, align 8
  %41 = getelementptr inbounds %"class.std::__1::__libcpp_compressed_pair_imp", %"class.std::__1::__libcpp_compressed_pair_imp"* %38, i32 0, i32 0
  %42 = bitcast %"struct.std::__1::basic_string<char, std::__1::char_traits<char>, std::__1::allocator<char> >::__rep"* %41 to i8*
  call void @llvm.memset.p0i8.i64(i8* %42, i8 0, i64 24, i32 8, i1 false) #12
  %43 = load i8*, i8** %8, align 8
  %44 = load i8*, i8** %8, align 8
  %45 = call i64 @_ZNSt3__111char_traitsIcE6lengthEPKc(i8* %44)
  call void @_ZNSt3__112basic_stringIcNS_11char_traitsIcEENS_9allocatorIcEEE6__initEPKcm(%"class.std::__1::basic_string"* %32, i8* %43, i64 %45)
  invoke void @_ZN12RuntimeError5raiseE13RuntimeErrorsNSt3__112basic_stringIcNS1_11char_traitsIcEENS1_9allocatorIcEEEEP7AstNode(i32 7, %"class.std::__1::basic_string"* %16, %class.AstNode* null)
          to label %46 unwind label %47

; <label>:46:                                     ; preds = %29
  call void @_ZNSt3__112basic_stringIcNS_11char_traitsIcEENS_9allocatorIcEEED1Ev(%"class.std::__1::basic_string"* %16) #12
  br label %51

; <label>:47:                                     ; preds = %29
  %48 = landingpad { i8*, i32 }
          cleanup
  %49 = extractvalue { i8*, i32 } %48, 0
  store i8* %49, i8** %17, align 8
  %50 = extractvalue { i8*, i32 } %48, 1
  store i32 %50, i32* %18, align 4
  call void @_ZNSt3__112basic_stringIcNS_11char_traitsIcEENS_9allocatorIcEEED1Ev(%"class.std::__1::basic_string"* %16) #12
  br label %53

; <label>:51:                                     ; preds = %46, %2
  %52 = getelementptr inbounds %struct.Variant, %struct.Variant* %19, i32 0, i32 3
  call void @_ZNSt3__112basic_stringIcNS_11char_traitsIcEENS_9allocatorIcEEEC1ERKS5_(%"class.std::__1::basic_string"* %0, %"class.std::__1::basic_string"* dereferenceable(24) %52)
  ret void

; <label>:53:                                     ; preds = %47
  %54 = load i8*, i8** %17, align 8
  %55 = load i32, i32* %18, align 4
  %56 = insertvalue { i8*, i32 } undef, i8* %54, 0
  %57 = insertvalue { i8*, i32 } %56, i32 %55, 1
  resume { i8*, i32 } %57
}

declare void @_ZNSt3__112basic_stringIcNS_11char_traitsIcEENS_9allocatorIcEEEC1ERKS5_(%"class.std::__1::basic_string"*, %"class.std::__1::basic_string"* dereferenceable(24)) unnamed_addr #3

; Function Attrs: nounwind ssp uwtable
define void @_ZN7Variant13check_numericEv(%struct.Variant*) #4 align 2 {
  %2 = alloca %struct.Variant*, align 8
  store %struct.Variant* %0, %struct.Variant** %2, align 8
  %3 = load %struct.Variant*, %struct.Variant** %2, align 8
  %4 = getelementptr inbounds %struct.Variant, %struct.Variant* %3, i32 0, i32 4
  %5 = getelementptr inbounds %struct.TypeSpecifier, %struct.TypeSpecifier* %4, i32 0, i32 0
  %6 = load i32, i32* %5, align 8
  switch i32 %6, label %9 [
    i32 0, label %7
    i32 2, label %7
    i32 3, label %7
    i32 1, label %7
    i32 5, label %7
    i32 6, label %7
  ]

; <label>:7:                                      ; preds = %1, %1, %1, %1, %1, %1
  %8 = getelementptr inbounds %struct.Variant, %struct.Variant* %3, i32 0, i32 6
  store i8 1, i8* %8, align 1
  br label %11

; <label>:9:                                      ; preds = %1
  %10 = getelementptr inbounds %struct.Variant, %struct.Variant* %3, i32 0, i32 6
  store i8 0, i8* %10, align 1
  br label %11

; <label>:11:                                     ; preds = %9, %7
  ret void
}

; Function Attrs: ssp uwtable
define void @_ZN7VariantC2ERKS_(%struct.Variant*, %struct.Variant* dereferenceable(264)) unnamed_addr #0 align 2 personality i8* bitcast (i32 (...)* @__gxx_personality_v0 to i8*) {
  %3 = alloca %"class.std::__1::basic_string"*, align 8
  %4 = alloca i8*, align 8
  %5 = alloca %"class.std::__1::__libcpp_compressed_pair_imp"*, align 8
  %6 = alloca %"class.std::__1::__compressed_pair"*, align 8
  %7 = alloca %"class.std::__1::basic_string"*, align 8
  %8 = alloca [3 x i64]*, align 8
  %9 = alloca i32, align 4
  %10 = alloca %"class.std::__1::allocator"*, align 8
  %11 = alloca %"class.std::__1::__libcpp_compressed_pair_imp"*, align 8
  %12 = alloca %"class.std::__1::__compressed_pair"*, align 8
  %13 = alloca %"class.std::__1::__compressed_pair"*, align 8
  %14 = alloca %"class.std::__1::basic_string"*, align 8
  %15 = alloca %"class.std::__1::basic_string"*, align 8
  %16 = alloca %struct.Variant*, align 8
  %17 = alloca %struct.Variant*, align 8
  %18 = alloca i8*
  %19 = alloca i32
  store %struct.Variant* %0, %struct.Variant** %16, align 8
  store %struct.Variant* %1, %struct.Variant** %17, align 8
  %20 = load %struct.Variant*, %struct.Variant** %16, align 8
  %21 = getelementptr inbounds %struct.Variant, %struct.Variant* %20, i32 0, i32 1
  store i8 0, i8* %21, align 8
  %22 = getelementptr inbounds %struct.Variant, %struct.Variant* %20, i32 0, i32 3
  store %"class.std::__1::basic_string"* %22, %"class.std::__1::basic_string"** %15, align 8
  %23 = load %"class.std::__1::basic_string"*, %"class.std::__1::basic_string"** %15, align 8
  store %"class.std::__1::basic_string"* %23, %"class.std::__1::basic_string"** %14, align 8
  %24 = load %"class.std::__1::basic_string"*, %"class.std::__1::basic_string"** %14, align 8
  %25 = bitcast %"class.std::__1::basic_string"* %24 to %"class.std::__1::__basic_string_common"*
  %26 = getelementptr inbounds %"class.std::__1::basic_string", %"class.std::__1::basic_string"* %24, i32 0, i32 0
  store %"class.std::__1::__compressed_pair"* %26, %"class.std::__1::__compressed_pair"** %13, align 8
  %27 = load %"class.std::__1::__compressed_pair"*, %"class.std::__1::__compressed_pair"** %13, align 8
  store %"class.std::__1::__compressed_pair"* %27, %"class.std::__1::__compressed_pair"** %12, align 8
  %28 = load %"class.std::__1::__compressed_pair"*, %"class.std::__1::__compressed_pair"** %12, align 8
  %29 = bitcast %"class.std::__1::__compressed_pair"* %28 to %"class.std::__1::__libcpp_compressed_pair_imp"*
  store %"class.std::__1::__libcpp_compressed_pair_imp"* %29, %"class.std::__1::__libcpp_compressed_pair_imp"** %11, align 8
  %30 = load %"class.std::__1::__libcpp_compressed_pair_imp"*, %"class.std::__1::__libcpp_compressed_pair_imp"** %11, align 8
  %31 = bitcast %"class.std::__1::__libcpp_compressed_pair_imp"* %30 to %"class.std::__1::allocator"*
  store %"class.std::__1::allocator"* %31, %"class.std::__1::allocator"** %10, align 8
  %32 = load %"class.std::__1::allocator"*, %"class.std::__1::allocator"** %10, align 8
  %33 = getelementptr inbounds %"class.std::__1::__libcpp_compressed_pair_imp", %"class.std::__1::__libcpp_compressed_pair_imp"* %30, i32 0, i32 0
  %34 = bitcast %"struct.std::__1::basic_string<char, std::__1::char_traits<char>, std::__1::allocator<char> >::__rep"* %33 to i8*
  call void @llvm.memset.p0i8.i64(i8* %34, i8 0, i64 24, i32 8, i1 false) #12
  store %"class.std::__1::basic_string"* %24, %"class.std::__1::basic_string"** %7, align 8
  %35 = load %"class.std::__1::basic_string"*, %"class.std::__1::basic_string"** %7, align 8
  %36 = getelementptr inbounds %"class.std::__1::basic_string", %"class.std::__1::basic_string"* %35, i32 0, i32 0
  store %"class.std::__1::__compressed_pair"* %36, %"class.std::__1::__compressed_pair"** %6, align 8
  %37 = load %"class.std::__1::__compressed_pair"*, %"class.std::__1::__compressed_pair"** %6, align 8
  %38 = bitcast %"class.std::__1::__compressed_pair"* %37 to %"class.std::__1::__libcpp_compressed_pair_imp"*
  store %"class.std::__1::__libcpp_compressed_pair_imp"* %38, %"class.std::__1::__libcpp_compressed_pair_imp"** %5, align 8
  %39 = load %"class.std::__1::__libcpp_compressed_pair_imp"*, %"class.std::__1::__libcpp_compressed_pair_imp"** %5, align 8
  %40 = getelementptr inbounds %"class.std::__1::__libcpp_compressed_pair_imp", %"class.std::__1::__libcpp_compressed_pair_imp"* %39, i32 0, i32 0
  %41 = getelementptr inbounds %"struct.std::__1::basic_string<char, std::__1::char_traits<char>, std::__1::allocator<char> >::__rep", %"struct.std::__1::basic_string<char, std::__1::char_traits<char>, std::__1::allocator<char> >::__rep"* %40, i32 0, i32 0
  %42 = bitcast %union.anon.0* %41 to %"struct.std::__1::basic_string<char, std::__1::char_traits<char>, std::__1::allocator<char> >::__raw"*
  %43 = getelementptr inbounds %"struct.std::__1::basic_string<char, std::__1::char_traits<char>, std::__1::allocator<char> >::__raw", %"struct.std::__1::basic_string<char, std::__1::char_traits<char>, std::__1::allocator<char> >::__raw"* %42, i32 0, i32 0
  store [3 x i64]* %43, [3 x i64]** %8, align 8
  store i32 0, i32* %9, align 4
  br label %44

; <label>:44:                                     ; preds = %47, %2
  %45 = load i32, i32* %9, align 4
  %46 = icmp ult i32 %45, 3
  br i1 %46, label %47, label %54

; <label>:47:                                     ; preds = %44
  %48 = load i32, i32* %9, align 4
  %49 = zext i32 %48 to i64
  %50 = load [3 x i64]*, [3 x i64]** %8, align 8
  %51 = getelementptr inbounds [3 x i64], [3 x i64]* %50, i64 0, i64 %49
  store i64 0, i64* %51, align 8
  %52 = load i32, i32* %9, align 4
  %53 = add i32 %52, 1
  store i32 %53, i32* %9, align 4
  br label %44

; <label>:54:                                     ; preds = %44
  %55 = getelementptr inbounds %struct.Variant, %struct.Variant* %20, i32 0, i32 4
  invoke void @_ZN13TypeSpecifierC1Ev(%struct.TypeSpecifier* %55)
          to label %56 unwind label %64

; <label>:56:                                     ; preds = %54
  %57 = getelementptr inbounds %struct.Variant, %struct.Variant* %20, i32 0, i32 5
  store i8 0, i8* %57, align 8
  %58 = getelementptr inbounds %struct.Variant, %struct.Variant* %20, i32 0, i32 6
  store i8 0, i8* %58, align 1
  %59 = getelementptr inbounds %struct.Variant, %struct.Variant* %20, i32 0, i32 7
  store i8 1, i8* %59, align 2
  %60 = load %struct.Variant*, %struct.Variant** %17, align 8
  %61 = getelementptr inbounds %struct.Variant, %struct.Variant* %60, i32 0, i32 4
  %62 = getelementptr inbounds %struct.TypeSpecifier, %struct.TypeSpecifier* %61, i32 0, i32 0
  %63 = load i32, i32* %62, align 8
  switch i32 %63, label %137 [
    i32 4, label %68
    i32 6, label %84
    i32 5, label %91
    i32 7, label %100
    i32 0, label %108
    i32 1, label %115
    i32 3, label %122
    i32 2, label %129
    i32 9, label %136
  ]

; <label>:64:                                     ; preds = %54
  %65 = landingpad { i8*, i32 }
          cleanup
  %66 = extractvalue { i8*, i32 } %65, 0
  store i8* %66, i8** %18, align 8
  %67 = extractvalue { i8*, i32 } %65, 1
  store i32 %67, i32* %19, align 4
  br label %171

; <label>:68:                                     ; preds = %56
  %69 = load %struct.Variant*, %struct.Variant** %17, align 8
  %70 = getelementptr inbounds %struct.Variant, %struct.Variant* %69, i32 0, i32 4
  %71 = getelementptr inbounds %struct.TypeSpecifier, %struct.TypeSpecifier* %70, i32 0, i32 7
  %72 = load i64, i64* %71, align 8
  %73 = getelementptr inbounds %struct.Variant, %struct.Variant* %20, i32 0, i32 4
  %74 = getelementptr inbounds %struct.TypeSpecifier, %struct.TypeSpecifier* %73, i32 0, i32 7
  store i64 %72, i64* %74, align 8
  %75 = getelementptr inbounds %struct.Variant, %struct.Variant* %20, i32 0, i32 3
  %76 = load %struct.Variant*, %struct.Variant** %17, align 8
  %77 = getelementptr inbounds %struct.Variant, %struct.Variant* %76, i32 0, i32 3
  %78 = invoke dereferenceable(24) %"class.std::__1::basic_string"* @_ZNSt3__112basic_stringIcNS_11char_traitsIcEENS_9allocatorIcEEEaSERKS5_(%"class.std::__1::basic_string"* %75, %"class.std::__1::basic_string"* dereferenceable(24) %77)
          to label %79 unwind label %80

; <label>:79:                                     ; preds = %68
  br label %144

; <label>:80:                                     ; preds = %169, %158, %152, %100, %68
  %81 = landingpad { i8*, i32 }
          cleanup
  %82 = extractvalue { i8*, i32 } %81, 0
  store i8* %82, i8** %18, align 8
  %83 = extractvalue { i8*, i32 } %81, 1
  store i32 %83, i32* %19, align 4
  call void @_ZN13TypeSpecifierD1Ev(%struct.TypeSpecifier* %55) #12
  br label %171

; <label>:84:                                     ; preds = %56
  %85 = load %struct.Variant*, %struct.Variant** %17, align 8
  %86 = getelementptr inbounds %struct.Variant, %struct.Variant* %85, i32 0, i32 0
  %87 = bitcast %union.anon* %86 to i8*
  %88 = load i8, i8* %87, align 8
  %89 = getelementptr inbounds %struct.Variant, %struct.Variant* %20, i32 0, i32 0
  %90 = bitcast %union.anon* %89 to i8*
  store i8 %88, i8* %90, align 8
  br label %144

; <label>:91:                                     ; preds = %56
  %92 = load %struct.Variant*, %struct.Variant** %17, align 8
  %93 = getelementptr inbounds %struct.Variant, %struct.Variant* %92, i32 0, i32 0
  %94 = bitcast %union.anon* %93 to i8*
  %95 = load i8, i8* %94, align 8
  %96 = trunc i8 %95 to i1
  %97 = getelementptr inbounds %struct.Variant, %struct.Variant* %20, i32 0, i32 0
  %98 = bitcast %union.anon* %97 to i8*
  %99 = zext i1 %96 to i8
  store i8 %99, i8* %98, align 8
  br label %144

; <label>:100:                                    ; preds = %56
  %101 = getelementptr inbounds %struct.Variant, %struct.Variant* %20, i32 0, i32 4
  %102 = getelementptr inbounds %struct.TypeSpecifier, %struct.TypeSpecifier* %101, i32 0, i32 1
  %103 = load %struct.Variant*, %struct.Variant** %17, align 8
  %104 = getelementptr inbounds %struct.Variant, %struct.Variant* %103, i32 0, i32 4
  %105 = getelementptr inbounds %struct.TypeSpecifier, %struct.TypeSpecifier* %104, i32 0, i32 1
  %106 = invoke dereferenceable(24) %"class.std::__1::basic_string"* @_ZNSt3__112basic_stringIcNS_11char_traitsIcEENS_9allocatorIcEEEaSERKS5_(%"class.std::__1::basic_string"* %102, %"class.std::__1::basic_string"* dereferenceable(24) %105)
          to label %107 unwind label %80

; <label>:107:                                    ; preds = %100
  br label %108

; <label>:108:                                    ; preds = %56, %107
  %109 = load %struct.Variant*, %struct.Variant** %17, align 8
  %110 = getelementptr inbounds %struct.Variant, %struct.Variant* %109, i32 0, i32 0
  %111 = bitcast %union.anon* %110 to i32*
  %112 = load i32, i32* %111, align 8
  %113 = getelementptr inbounds %struct.Variant, %struct.Variant* %20, i32 0, i32 0
  %114 = bitcast %union.anon* %113 to i32*
  store i32 %112, i32* %114, align 8
  br label %144

; <label>:115:                                    ; preds = %56
  %116 = load %struct.Variant*, %struct.Variant** %17, align 8
  %117 = getelementptr inbounds %struct.Variant, %struct.Variant* %116, i32 0, i32 0
  %118 = bitcast %union.anon* %117 to i64*
  %119 = load i64, i64* %118, align 8
  %120 = getelementptr inbounds %struct.Variant, %struct.Variant* %20, i32 0, i32 0
  %121 = bitcast %union.anon* %120 to i64*
  store i64 %119, i64* %121, align 8
  br label %144

; <label>:122:                                    ; preds = %56
  %123 = load %struct.Variant*, %struct.Variant** %17, align 8
  %124 = getelementptr inbounds %struct.Variant, %struct.Variant* %123, i32 0, i32 0
  %125 = bitcast %union.anon* %124 to double*
  %126 = load double, double* %125, align 8
  %127 = getelementptr inbounds %struct.Variant, %struct.Variant* %20, i32 0, i32 0
  %128 = bitcast %union.anon* %127 to double*
  store double %126, double* %128, align 8
  br label %144

; <label>:129:                                    ; preds = %56
  %130 = load %struct.Variant*, %struct.Variant** %17, align 8
  %131 = getelementptr inbounds %struct.Variant, %struct.Variant* %130, i32 0, i32 0
  %132 = bitcast %union.anon* %131 to float*
  %133 = load float, float* %132, align 8
  %134 = getelementptr inbounds %struct.Variant, %struct.Variant* %20, i32 0, i32 0
  %135 = bitcast %union.anon* %134 to float*
  store float %133, float* %135, align 8
  br label %144

; <label>:136:                                    ; preds = %56
  br label %144

; <label>:137:                                    ; preds = %56
  %138 = load %struct.Variant*, %struct.Variant** %17, align 8
  %139 = getelementptr inbounds %struct.Variant, %struct.Variant* %138, i32 0, i32 0
  %140 = bitcast %union.anon* %139 to double*
  %141 = load double, double* %140, align 8
  %142 = getelementptr inbounds %struct.Variant, %struct.Variant* %20, i32 0, i32 0
  %143 = bitcast %union.anon* %142 to double*
  store double %141, double* %143, align 8
  br label %144

; <label>:144:                                    ; preds = %137, %136, %129, %122, %115, %108, %91, %84, %79
  %145 = load %struct.Variant*, %struct.Variant** %17, align 8
  %146 = getelementptr inbounds %struct.Variant, %struct.Variant* %145, i32 0, i32 4
  %147 = getelementptr inbounds %struct.TypeSpecifier, %struct.TypeSpecifier* %146, i32 0, i32 1
  store %"class.std::__1::basic_string"* %147, %"class.std::__1::basic_string"** %3, align 8
  store i8* getelementptr inbounds ([7 x i8], [7 x i8]* @.str.5, i32 0, i32 0), i8** %4, align 8
  %148 = load %"class.std::__1::basic_string"*, %"class.std::__1::basic_string"** %3, align 8
  %149 = load i8*, i8** %4, align 8
  %150 = call i32 @_ZNKSt3__112basic_stringIcNS_11char_traitsIcEENS_9allocatorIcEEE7compareEPKc(%"class.std::__1::basic_string"* %148, i8* %149) #12
  %151 = icmp eq i32 %150, 0
  br i1 %151, label %152, label %158

; <label>:152:                                    ; preds = %144
  %153 = getelementptr inbounds %struct.Variant, %struct.Variant* %20, i32 0, i32 3
  %154 = load %struct.Variant*, %struct.Variant** %17, align 8
  %155 = getelementptr inbounds %struct.Variant, %struct.Variant* %154, i32 0, i32 3
  %156 = invoke dereferenceable(24) %"class.std::__1::basic_string"* @_ZNSt3__112basic_stringIcNS_11char_traitsIcEENS_9allocatorIcEEEaSERKS5_(%"class.std::__1::basic_string"* %153, %"class.std::__1::basic_string"* dereferenceable(24) %155)
          to label %157 unwind label %80

; <label>:157:                                    ; preds = %152
  br label %158

; <label>:158:                                    ; preds = %157, %144
  %159 = load %struct.Variant*, %struct.Variant** %17, align 8
  %160 = getelementptr inbounds %struct.Variant, %struct.Variant* %159, i32 0, i32 5
  %161 = load i8, i8* %160, align 8
  %162 = trunc i8 %161 to i1
  %163 = getelementptr inbounds %struct.Variant, %struct.Variant* %20, i32 0, i32 5
  %164 = zext i1 %162 to i8
  store i8 %164, i8* %163, align 8
  %165 = getelementptr inbounds %struct.Variant, %struct.Variant* %20, i32 0, i32 4
  %166 = load %struct.Variant*, %struct.Variant** %17, align 8
  %167 = getelementptr inbounds %struct.Variant, %struct.Variant* %166, i32 0, i32 4
  %168 = invoke dereferenceable(216) %struct.TypeSpecifier* @_ZN13TypeSpecifieraSERKS_(%struct.TypeSpecifier* %165, %struct.TypeSpecifier* dereferenceable(216) %167)
          to label %169 unwind label %80

; <label>:169:                                    ; preds = %158
  invoke void @_ZN7Variant13check_numericEv(%struct.Variant* %20)
          to label %170 unwind label %80

; <label>:170:                                    ; preds = %169
  ret void

; <label>:171:                                    ; preds = %80, %64
  call void @_ZNSt3__112basic_stringIcNS_11char_traitsIcEENS_9allocatorIcEEED1Ev(%"class.std::__1::basic_string"* %22) #12
  br label %172

; <label>:172:                                    ; preds = %171
  %173 = load i8*, i8** %18, align 8
  %174 = load i32, i32* %19, align 4
  %175 = insertvalue { i8*, i32 } undef, i8* %173, 0
  %176 = insertvalue { i8*, i32 } %175, i32 %174, 1
  resume { i8*, i32 } %176
}

; Function Attrs: ssp uwtable
define void @_ZN7VariantC1ERKS_(%struct.Variant*, %struct.Variant* dereferenceable(264)) unnamed_addr #0 align 2 {
  %3 = alloca %struct.Variant*, align 8
  %4 = alloca %struct.Variant*, align 8
  store %struct.Variant* %0, %struct.Variant** %3, align 8
  store %struct.Variant* %1, %struct.Variant** %4, align 8
  %5 = load %struct.Variant*, %struct.Variant** %3, align 8
  %6 = load %struct.Variant*, %struct.Variant** %4, align 8
  call void @_ZN7VariantC2ERKS_(%struct.Variant* %5, %struct.Variant* dereferenceable(264) %6)
  ret void
}

; Function Attrs: ssp uwtable
define void @_ZN7Variant9to_stringEb(%"class.std::__1::basic_string"* noalias sret, %struct.Variant*, i1 zeroext) #0 align 2 personality i8* bitcast (i32 (...)* @__gxx_personality_v0 to i8*) {
  %4 = alloca %"class.std::__1::allocator"*, align 8
  %5 = alloca %"class.std::__1::__libcpp_compressed_pair_imp"*, align 8
  %6 = alloca %"class.std::__1::__compressed_pair"*, align 8
  %7 = alloca %"class.std::__1::__compressed_pair"*, align 8
  %8 = alloca %"class.std::__1::basic_string"*, align 8
  %9 = alloca i8*, align 8
  %10 = alloca %"class.std::__1::basic_string"*, align 8
  %11 = alloca i8*, align 8
  %12 = alloca %"class.std::__1::allocator"*, align 8
  %13 = alloca %"class.std::__1::__libcpp_compressed_pair_imp"*, align 8
  %14 = alloca %"class.std::__1::__compressed_pair"*, align 8
  %15 = alloca %"class.std::__1::__compressed_pair"*, align 8
  %16 = alloca %"class.std::__1::basic_string"*, align 8
  %17 = alloca i8*, align 8
  %18 = alloca %"class.std::__1::basic_string"*, align 8
  %19 = alloca i8*, align 8
  %20 = alloca %"class.std::__1::allocator"*, align 8
  %21 = alloca %"class.std::__1::__libcpp_compressed_pair_imp"*, align 8
  %22 = alloca %"class.std::__1::__compressed_pair"*, align 8
  %23 = alloca %"class.std::__1::__compressed_pair"*, align 8
  %24 = alloca %"class.std::__1::basic_string"*, align 8
  %25 = alloca i64, align 8
  %26 = alloca i8, align 1
  %27 = alloca %"class.std::__1::basic_string"*, align 8
  %28 = alloca i64, align 8
  %29 = alloca i8, align 1
  %30 = alloca %"class.std::__1::allocator"*, align 8
  %31 = alloca %"class.std::__1::__libcpp_compressed_pair_imp"*, align 8
  %32 = alloca %"class.std::__1::__compressed_pair"*, align 8
  %33 = alloca %"class.std::__1::__compressed_pair"*, align 8
  %34 = alloca %"class.std::__1::basic_string"*, align 8
  %35 = alloca i64, align 8
  %36 = alloca i8, align 1
  %37 = alloca %"class.std::__1::basic_string"*, align 8
  %38 = alloca i64, align 8
  %39 = alloca i8, align 1
  %40 = alloca %"class.std::__1::basic_string"*, align 8
  %41 = alloca i8*, align 8
  %42 = alloca %"class.std::__1::allocator"*, align 8
  %43 = alloca %"class.std::__1::__libcpp_compressed_pair_imp"*, align 8
  %44 = alloca %"class.std::__1::__compressed_pair"*, align 8
  %45 = alloca %"class.std::__1::__compressed_pair"*, align 8
  %46 = alloca %"class.std::__1::basic_string"*, align 8
  %47 = alloca i8*, align 8
  %48 = alloca %"class.std::__1::basic_string"*, align 8
  %49 = alloca i8*, align 8
  %50 = alloca %struct.Variant*, align 8
  %51 = alloca i8, align 1
  %52 = alloca %"class.std::__1::basic_string", align 8
  %53 = alloca i1, align 1
  %54 = alloca i8*
  %55 = alloca i32
  %56 = alloca %"class.std::__1::basic_string", align 8
  %57 = alloca i1, align 1
  store %struct.Variant* %1, %struct.Variant** %50, align 8
  %58 = zext i1 %2 to i8
  store i8 %58, i8* %51, align 1
  %59 = load %struct.Variant*, %struct.Variant** %50, align 8
  %60 = getelementptr inbounds %struct.Variant, %struct.Variant* %59, i32 0, i32 5
  %61 = load i8, i8* %60, align 8
  %62 = trunc i8 %61 to i1
  br i1 %62, label %63, label %80

; <label>:63:                                     ; preds = %3
  store %"class.std::__1::basic_string"* %0, %"class.std::__1::basic_string"** %48, align 8
  store i8* getelementptr inbounds ([5 x i8], [5 x i8]* @.str.13, i32 0, i32 0), i8** %49, align 8
  %64 = load %"class.std::__1::basic_string"*, %"class.std::__1::basic_string"** %48, align 8
  %65 = load i8*, i8** %49, align 8
  store %"class.std::__1::basic_string"* %64, %"class.std::__1::basic_string"** %46, align 8
  store i8* %65, i8** %47, align 8
  %66 = load %"class.std::__1::basic_string"*, %"class.std::__1::basic_string"** %46, align 8
  %67 = bitcast %"class.std::__1::basic_string"* %66 to %"class.std::__1::__basic_string_common"*
  %68 = getelementptr inbounds %"class.std::__1::basic_string", %"class.std::__1::basic_string"* %66, i32 0, i32 0
  store %"class.std::__1::__compressed_pair"* %68, %"class.std::__1::__compressed_pair"** %45, align 8
  %69 = load %"class.std::__1::__compressed_pair"*, %"class.std::__1::__compressed_pair"** %45, align 8
  store %"class.std::__1::__compressed_pair"* %69, %"class.std::__1::__compressed_pair"** %44, align 8
  %70 = load %"class.std::__1::__compressed_pair"*, %"class.std::__1::__compressed_pair"** %44, align 8
  %71 = bitcast %"class.std::__1::__compressed_pair"* %70 to %"class.std::__1::__libcpp_compressed_pair_imp"*
  store %"class.std::__1::__libcpp_compressed_pair_imp"* %71, %"class.std::__1::__libcpp_compressed_pair_imp"** %43, align 8
  %72 = load %"class.std::__1::__libcpp_compressed_pair_imp"*, %"class.std::__1::__libcpp_compressed_pair_imp"** %43, align 8
  %73 = bitcast %"class.std::__1::__libcpp_compressed_pair_imp"* %72 to %"class.std::__1::allocator"*
  store %"class.std::__1::allocator"* %73, %"class.std::__1::allocator"** %42, align 8
  %74 = load %"class.std::__1::allocator"*, %"class.std::__1::allocator"** %42, align 8
  %75 = getelementptr inbounds %"class.std::__1::__libcpp_compressed_pair_imp", %"class.std::__1::__libcpp_compressed_pair_imp"* %72, i32 0, i32 0
  %76 = bitcast %"struct.std::__1::basic_string<char, std::__1::char_traits<char>, std::__1::allocator<char> >::__rep"* %75 to i8*
  call void @llvm.memset.p0i8.i64(i8* %76, i8 0, i64 24, i32 8, i1 false) #12
  %77 = load i8*, i8** %47, align 8
  %78 = load i8*, i8** %47, align 8
  %79 = call i64 @_ZNSt3__111char_traitsIcE6lengthEPKc(i8* %78)
  call void @_ZNSt3__112basic_stringIcNS_11char_traitsIcEENS_9allocatorIcEEE6__initEPKcm(%"class.std::__1::basic_string"* %66, i8* %77, i64 %79)
  br label %227

; <label>:80:                                     ; preds = %3
  %81 = getelementptr inbounds %struct.Variant, %struct.Variant* %59, i32 0, i32 4
  %82 = getelementptr inbounds %struct.TypeSpecifier, %struct.TypeSpecifier* %81, i32 0, i32 1
  store %"class.std::__1::basic_string"* %82, %"class.std::__1::basic_string"** %40, align 8
  store i8* getelementptr inbounds ([7 x i8], [7 x i8]* @.str.5, i32 0, i32 0), i8** %41, align 8
  %83 = load %"class.std::__1::basic_string"*, %"class.std::__1::basic_string"** %40, align 8
  %84 = load i8*, i8** %41, align 8
  %85 = call i32 @_ZNKSt3__112basic_stringIcNS_11char_traitsIcEENS_9allocatorIcEEE7compareEPKc(%"class.std::__1::basic_string"* %83, i8* %84) #12
  %86 = icmp eq i32 %85, 0
  br i1 %86, label %87, label %107

; <label>:87:                                     ; preds = %80
  %88 = load i8, i8* %51, align 1
  %89 = trunc i8 %88 to i1
  store i1 false, i1* %53, align 1
  br i1 %89, label %90, label %93

; <label>:90:                                     ; preds = %87
  %91 = getelementptr inbounds %struct.Variant, %struct.Variant* %59, i32 0, i32 3
  call void @_ZNSt3__112basic_stringIcNS_11char_traitsIcEENS_9allocatorIcEEEC1ERKS5_(%"class.std::__1::basic_string"* %52, %"class.std::__1::basic_string"* dereferenceable(24) %91)
  store i1 true, i1* %53, align 1
  invoke void @_ZN4util10str_escapeENSt3__112basic_stringIcNS0_11char_traitsIcEENS0_9allocatorIcEEEE(%"class.std::__1::basic_string"* sret %0, %"class.std::__1::basic_string"* %52)
          to label %92 unwind label %100

; <label>:92:                                     ; preds = %90
  br label %96

; <label>:93:                                     ; preds = %87
  %94 = getelementptr inbounds %struct.Variant, %struct.Variant* %59, i32 0, i32 3
  invoke void @_ZNSt3__112basic_stringIcNS_11char_traitsIcEENS_9allocatorIcEEEC1ERKS5_(%"class.std::__1::basic_string"* %0, %"class.std::__1::basic_string"* dereferenceable(24) %94)
          to label %95 unwind label %100

; <label>:95:                                     ; preds = %93
  br label %96

; <label>:96:                                     ; preds = %95, %92
  %97 = load i1, i1* %53, align 1
  br i1 %97, label %98, label %99

; <label>:98:                                     ; preds = %96
  call void @_ZNSt3__112basic_stringIcNS_11char_traitsIcEENS_9allocatorIcEEED1Ev(%"class.std::__1::basic_string"* %52) #12
  br label %99

; <label>:99:                                     ; preds = %98, %96
  br label %227

; <label>:100:                                    ; preds = %93, %90
  %101 = landingpad { i8*, i32 }
          cleanup
  %102 = extractvalue { i8*, i32 } %101, 0
  store i8* %102, i8** %54, align 8
  %103 = extractvalue { i8*, i32 } %101, 1
  store i32 %103, i32* %55, align 4
  %104 = load i1, i1* %53, align 1
  br i1 %104, label %105, label %106

; <label>:105:                                    ; preds = %100
  call void @_ZNSt3__112basic_stringIcNS_11char_traitsIcEENS_9allocatorIcEEED1Ev(%"class.std::__1::basic_string"* %52) #12
  br label %106

; <label>:106:                                    ; preds = %105, %100
  br label %228

; <label>:107:                                    ; preds = %80
  %108 = getelementptr inbounds %struct.Variant, %struct.Variant* %59, i32 0, i32 4
  %109 = getelementptr inbounds %struct.TypeSpecifier, %struct.TypeSpecifier* %108, i32 0, i32 0
  %110 = load i32, i32* %109, align 8
  switch i32 %110, label %223 [
    i32 6, label %111
    i32 5, label %168
    i32 0, label %190
    i32 1, label %194
    i32 3, label %198
    i32 2, label %202
    i32 9, label %206
  ]

; <label>:111:                                    ; preds = %107
  %112 = load i8, i8* %51, align 1
  %113 = trunc i8 %112 to i1
  store i1 false, i1* %57, align 1
  br i1 %113, label %114, label %135

; <label>:114:                                    ; preds = %111
  %115 = getelementptr inbounds %struct.Variant, %struct.Variant* %59, i32 0, i32 0
  %116 = bitcast %union.anon* %115 to i8*
  %117 = load i8, i8* %116, align 8
  store %"class.std::__1::basic_string"* %56, %"class.std::__1::basic_string"** %37, align 8
  store i64 1, i64* %38, align 8
  store i8 %117, i8* %39, align 1
  %118 = load %"class.std::__1::basic_string"*, %"class.std::__1::basic_string"** %37, align 8
  %119 = load i64, i64* %38, align 8
  %120 = load i8, i8* %39, align 1
  store %"class.std::__1::basic_string"* %118, %"class.std::__1::basic_string"** %34, align 8
  store i64 %119, i64* %35, align 8
  store i8 %120, i8* %36, align 1
  %121 = load %"class.std::__1::basic_string"*, %"class.std::__1::basic_string"** %34, align 8
  %122 = bitcast %"class.std::__1::basic_string"* %121 to %"class.std::__1::__basic_string_common"*
  %123 = getelementptr inbounds %"class.std::__1::basic_string", %"class.std::__1::basic_string"* %121, i32 0, i32 0
  store %"class.std::__1::__compressed_pair"* %123, %"class.std::__1::__compressed_pair"** %33, align 8
  %124 = load %"class.std::__1::__compressed_pair"*, %"class.std::__1::__compressed_pair"** %33, align 8
  store %"class.std::__1::__compressed_pair"* %124, %"class.std::__1::__compressed_pair"** %32, align 8
  %125 = load %"class.std::__1::__compressed_pair"*, %"class.std::__1::__compressed_pair"** %32, align 8
  %126 = bitcast %"class.std::__1::__compressed_pair"* %125 to %"class.std::__1::__libcpp_compressed_pair_imp"*
  store %"class.std::__1::__libcpp_compressed_pair_imp"* %126, %"class.std::__1::__libcpp_compressed_pair_imp"** %31, align 8
  %127 = load %"class.std::__1::__libcpp_compressed_pair_imp"*, %"class.std::__1::__libcpp_compressed_pair_imp"** %31, align 8
  %128 = bitcast %"class.std::__1::__libcpp_compressed_pair_imp"* %127 to %"class.std::__1::allocator"*
  store %"class.std::__1::allocator"* %128, %"class.std::__1::allocator"** %30, align 8
  %129 = load %"class.std::__1::allocator"*, %"class.std::__1::allocator"** %30, align 8
  %130 = getelementptr inbounds %"class.std::__1::__libcpp_compressed_pair_imp", %"class.std::__1::__libcpp_compressed_pair_imp"* %127, i32 0, i32 0
  %131 = bitcast %"struct.std::__1::basic_string<char, std::__1::char_traits<char>, std::__1::allocator<char> >::__rep"* %130 to i8*
  call void @llvm.memset.p0i8.i64(i8* %131, i8 0, i64 24, i32 8, i1 false) #12
  %132 = load i64, i64* %35, align 8
  %133 = load i8, i8* %36, align 1
  call void @_ZNSt3__112basic_stringIcNS_11char_traitsIcEENS_9allocatorIcEEE6__initEmc(%"class.std::__1::basic_string"* %121, i64 %132, i8 signext %133)
  store i1 true, i1* %57, align 1
  invoke void @_ZN4util10str_escapeENSt3__112basic_stringIcNS0_11char_traitsIcEENS0_9allocatorIcEEEE(%"class.std::__1::basic_string"* sret %0, %"class.std::__1::basic_string"* %56)
          to label %134 unwind label %161

; <label>:134:                                    ; preds = %114
  br label %157

; <label>:135:                                    ; preds = %111
  %136 = getelementptr inbounds %struct.Variant, %struct.Variant* %59, i32 0, i32 0
  %137 = bitcast %union.anon* %136 to i8*
  %138 = load i8, i8* %137, align 8
  store %"class.std::__1::basic_string"* %0, %"class.std::__1::basic_string"** %27, align 8
  store i64 1, i64* %28, align 8
  store i8 %138, i8* %29, align 1
  %139 = load %"class.std::__1::basic_string"*, %"class.std::__1::basic_string"** %27, align 8
  %140 = load i64, i64* %28, align 8
  %141 = load i8, i8* %29, align 1
  store %"class.std::__1::basic_string"* %139, %"class.std::__1::basic_string"** %24, align 8
  store i64 %140, i64* %25, align 8
  store i8 %141, i8* %26, align 1
  %142 = load %"class.std::__1::basic_string"*, %"class.std::__1::basic_string"** %24, align 8
  %143 = bitcast %"class.std::__1::basic_string"* %142 to %"class.std::__1::__basic_string_common"*
  %144 = getelementptr inbounds %"class.std::__1::basic_string", %"class.std::__1::basic_string"* %142, i32 0, i32 0
  store %"class.std::__1::__compressed_pair"* %144, %"class.std::__1::__compressed_pair"** %23, align 8
  %145 = load %"class.std::__1::__compressed_pair"*, %"class.std::__1::__compressed_pair"** %23, align 8
  store %"class.std::__1::__compressed_pair"* %145, %"class.std::__1::__compressed_pair"** %22, align 8
  %146 = load %"class.std::__1::__compressed_pair"*, %"class.std::__1::__compressed_pair"** %22, align 8
  %147 = bitcast %"class.std::__1::__compressed_pair"* %146 to %"class.std::__1::__libcpp_compressed_pair_imp"*
  store %"class.std::__1::__libcpp_compressed_pair_imp"* %147, %"class.std::__1::__libcpp_compressed_pair_imp"** %21, align 8
  %148 = load %"class.std::__1::__libcpp_compressed_pair_imp"*, %"class.std::__1::__libcpp_compressed_pair_imp"** %21, align 8
  %149 = bitcast %"class.std::__1::__libcpp_compressed_pair_imp"* %148 to %"class.std::__1::allocator"*
  store %"class.std::__1::allocator"* %149, %"class.std::__1::allocator"** %20, align 8
  %150 = load %"class.std::__1::allocator"*, %"class.std::__1::allocator"** %20, align 8
  %151 = getelementptr inbounds %"class.std::__1::__libcpp_compressed_pair_imp", %"class.std::__1::__libcpp_compressed_pair_imp"* %148, i32 0, i32 0
  %152 = bitcast %"struct.std::__1::basic_string<char, std::__1::char_traits<char>, std::__1::allocator<char> >::__rep"* %151 to i8*
  call void @llvm.memset.p0i8.i64(i8* %152, i8 0, i64 24, i32 8, i1 false) #12
  %153 = load i64, i64* %25, align 8
  %154 = load i8, i8* %26, align 1
  invoke void @_ZNSt3__112basic_stringIcNS_11char_traitsIcEENS_9allocatorIcEEE6__initEmc(%"class.std::__1::basic_string"* %142, i64 %153, i8 signext %154)
          to label %155 unwind label %161

; <label>:155:                                    ; preds = %135
  br label %156

; <label>:156:                                    ; preds = %155
  br label %157

; <label>:157:                                    ; preds = %156, %134
  %158 = load i1, i1* %57, align 1
  br i1 %158, label %159, label %160

; <label>:159:                                    ; preds = %157
  call void @_ZNSt3__112basic_stringIcNS_11char_traitsIcEENS_9allocatorIcEEED1Ev(%"class.std::__1::basic_string"* %56) #12
  br label %160

; <label>:160:                                    ; preds = %159, %157
  br label %227

; <label>:161:                                    ; preds = %135, %114
  %162 = landingpad { i8*, i32 }
          cleanup
  %163 = extractvalue { i8*, i32 } %162, 0
  store i8* %163, i8** %54, align 8
  %164 = extractvalue { i8*, i32 } %162, 1
  store i32 %164, i32* %55, align 4
  %165 = load i1, i1* %57, align 1
  br i1 %165, label %166, label %167

; <label>:166:                                    ; preds = %161
  call void @_ZNSt3__112basic_stringIcNS_11char_traitsIcEENS_9allocatorIcEEED1Ev(%"class.std::__1::basic_string"* %56) #12
  br label %167

; <label>:167:                                    ; preds = %166, %161
  br label %228

; <label>:168:                                    ; preds = %107
  %169 = getelementptr inbounds %struct.Variant, %struct.Variant* %59, i32 0, i32 0
  %170 = bitcast %union.anon* %169 to i8*
  %171 = load i8, i8* %170, align 8
  %172 = trunc i8 %171 to i1
  %173 = select i1 %172, i8* getelementptr inbounds ([5 x i8], [5 x i8]* @.str.14, i32 0, i32 0), i8* getelementptr inbounds ([6 x i8], [6 x i8]* @.str.15, i32 0, i32 0)
  store %"class.std::__1::basic_string"* %0, %"class.std::__1::basic_string"** %18, align 8
  store i8* %173, i8** %19, align 8
  %174 = load %"class.std::__1::basic_string"*, %"class.std::__1::basic_string"** %18, align 8
  %175 = load i8*, i8** %19, align 8
  store %"class.std::__1::basic_string"* %174, %"class.std::__1::basic_string"** %16, align 8
  store i8* %175, i8** %17, align 8
  %176 = load %"class.std::__1::basic_string"*, %"class.std::__1::basic_string"** %16, align 8
  %177 = bitcast %"class.std::__1::basic_string"* %176 to %"class.std::__1::__basic_string_common"*
  %178 = getelementptr inbounds %"class.std::__1::basic_string", %"class.std::__1::basic_string"* %176, i32 0, i32 0
  store %"class.std::__1::__compressed_pair"* %178, %"class.std::__1::__compressed_pair"** %15, align 8
  %179 = load %"class.std::__1::__compressed_pair"*, %"class.std::__1::__compressed_pair"** %15, align 8
  store %"class.std::__1::__compressed_pair"* %179, %"class.std::__1::__compressed_pair"** %14, align 8
  %180 = load %"class.std::__1::__compressed_pair"*, %"class.std::__1::__compressed_pair"** %14, align 8
  %181 = bitcast %"class.std::__1::__compressed_pair"* %180 to %"class.std::__1::__libcpp_compressed_pair_imp"*
  store %"class.std::__1::__libcpp_compressed_pair_imp"* %181, %"class.std::__1::__libcpp_compressed_pair_imp"** %13, align 8
  %182 = load %"class.std::__1::__libcpp_compressed_pair_imp"*, %"class.std::__1::__libcpp_compressed_pair_imp"** %13, align 8
  %183 = bitcast %"class.std::__1::__libcpp_compressed_pair_imp"* %182 to %"class.std::__1::allocator"*
  store %"class.std::__1::allocator"* %183, %"class.std::__1::allocator"** %12, align 8
  %184 = load %"class.std::__1::allocator"*, %"class.std::__1::allocator"** %12, align 8
  %185 = getelementptr inbounds %"class.std::__1::__libcpp_compressed_pair_imp", %"class.std::__1::__libcpp_compressed_pair_imp"* %182, i32 0, i32 0
  %186 = bitcast %"struct.std::__1::basic_string<char, std::__1::char_traits<char>, std::__1::allocator<char> >::__rep"* %185 to i8*
  call void @llvm.memset.p0i8.i64(i8* %186, i8 0, i64 24, i32 8, i1 false) #12
  %187 = load i8*, i8** %17, align 8
  %188 = load i8*, i8** %17, align 8
  %189 = call i64 @_ZNSt3__111char_traitsIcE6lengthEPKc(i8* %188)
  call void @_ZNSt3__112basic_stringIcNS_11char_traitsIcEENS_9allocatorIcEEE6__initEPKcm(%"class.std::__1::basic_string"* %176, i8* %187, i64 %189)
  br label %227

; <label>:190:                                    ; preds = %107
  %191 = getelementptr inbounds %struct.Variant, %struct.Variant* %59, i32 0, i32 0
  %192 = bitcast %union.anon* %191 to i32*
  %193 = load i32, i32* %192, align 8
  call void @_ZNSt3__19to_stringEi(%"class.std::__1::basic_string"* sret %0, i32 %193)
  br label %227

; <label>:194:                                    ; preds = %107
  %195 = getelementptr inbounds %struct.Variant, %struct.Variant* %59, i32 0, i32 0
  %196 = bitcast %union.anon* %195 to i64*
  %197 = load i64, i64* %196, align 8
  call void @_ZNSt3__19to_stringEl(%"class.std::__1::basic_string"* sret %0, i64 %197)
  br label %227

; <label>:198:                                    ; preds = %107
  %199 = getelementptr inbounds %struct.Variant, %struct.Variant* %59, i32 0, i32 0
  %200 = bitcast %union.anon* %199 to double*
  %201 = load double, double* %200, align 8
  call void @_ZNSt3__19to_stringEd(%"class.std::__1::basic_string"* sret %0, double %201)
  br label %227

; <label>:202:                                    ; preds = %107
  %203 = getelementptr inbounds %struct.Variant, %struct.Variant* %59, i32 0, i32 0
  %204 = bitcast %union.anon* %203 to float*
  %205 = load float, float* %204, align 8
  call void @_ZNSt3__19to_stringEf(%"class.std::__1::basic_string"* sret %0, float %205)
  br label %227

; <label>:206:                                    ; preds = %107
  store %"class.std::__1::basic_string"* %0, %"class.std::__1::basic_string"** %10, align 8
  store i8* getelementptr inbounds ([5 x i8], [5 x i8]* @.str.13, i32 0, i32 0), i8** %11, align 8
  %207 = load %"class.std::__1::basic_string"*, %"class.std::__1::basic_string"** %10, align 8
  %208 = load i8*, i8** %11, align 8
  store %"class.std::__1::basic_string"* %207, %"class.std::__1::basic_string"** %8, align 8
  store i8* %208, i8** %9, align 8
  %209 = load %"class.std::__1::basic_string"*, %"class.std::__1::basic_string"** %8, align 8
  %210 = bitcast %"class.std::__1::basic_string"* %209 to %"class.std::__1::__basic_string_common"*
  %211 = getelementptr inbounds %"class.std::__1::basic_string", %"class.std::__1::basic_string"* %209, i32 0, i32 0
  store %"class.std::__1::__compressed_pair"* %211, %"class.std::__1::__compressed_pair"** %7, align 8
  %212 = load %"class.std::__1::__compressed_pair"*, %"class.std::__1::__compressed_pair"** %7, align 8
  store %"class.std::__1::__compressed_pair"* %212, %"class.std::__1::__compressed_pair"** %6, align 8
  %213 = load %"class.std::__1::__compressed_pair"*, %"class.std::__1::__compressed_pair"** %6, align 8
  %214 = bitcast %"class.std::__1::__compressed_pair"* %213 to %"class.std::__1::__libcpp_compressed_pair_imp"*
  store %"class.std::__1::__libcpp_compressed_pair_imp"* %214, %"class.std::__1::__libcpp_compressed_pair_imp"** %5, align 8
  %215 = load %"class.std::__1::__libcpp_compressed_pair_imp"*, %"class.std::__1::__libcpp_compressed_pair_imp"** %5, align 8
  %216 = bitcast %"class.std::__1::__libcpp_compressed_pair_imp"* %215 to %"class.std::__1::allocator"*
  store %"class.std::__1::allocator"* %216, %"class.std::__1::allocator"** %4, align 8
  %217 = load %"class.std::__1::allocator"*, %"class.std::__1::allocator"** %4, align 8
  %218 = getelementptr inbounds %"class.std::__1::__libcpp_compressed_pair_imp", %"class.std::__1::__libcpp_compressed_pair_imp"* %215, i32 0, i32 0
  %219 = bitcast %"struct.std::__1::basic_string<char, std::__1::char_traits<char>, std::__1::allocator<char> >::__rep"* %218 to i8*
  call void @llvm.memset.p0i8.i64(i8* %219, i8 0, i64 24, i32 8, i1 false) #12
  %220 = load i8*, i8** %9, align 8
  %221 = load i8*, i8** %9, align 8
  %222 = call i64 @_ZNSt3__111char_traitsIcE6lengthEPKc(i8* %221)
  call void @_ZNSt3__112basic_stringIcNS_11char_traitsIcEENS_9allocatorIcEEE6__initEPKcm(%"class.std::__1::basic_string"* %209, i8* %220, i64 %222)
  br label %227

; <label>:223:                                    ; preds = %107
  %224 = getelementptr inbounds %struct.Variant, %struct.Variant* %59, i32 0, i32 0
  %225 = bitcast %union.anon* %224 to double*
  %226 = load double, double* %225, align 8
  call void @_ZNSt3__19to_stringEd(%"class.std::__1::basic_string"* sret %0, double %226)
  br label %227

; <label>:227:                                    ; preds = %223, %206, %202, %198, %194, %190, %168, %160, %99, %63
  ret void

; <label>:228:                                    ; preds = %167, %106
  %229 = load i8*, i8** %54, align 8
  %230 = load i32, i32* %55, align 4
  %231 = insertvalue { i8*, i32 } undef, i8* %229, 0
  %232 = insertvalue { i8*, i32 } %231, i32 %230, 1
  resume { i8*, i32 } %232
}

declare void @_ZN4util10str_escapeENSt3__112basic_stringIcNS0_11char_traitsIcEENS0_9allocatorIcEEEE(%"class.std::__1::basic_string"* sret, %"class.std::__1::basic_string"*) #3

declare void @_ZNSt3__19to_stringEi(%"class.std::__1::basic_string"* sret, i32) #3

declare void @_ZNSt3__19to_stringEl(%"class.std::__1::basic_string"* sret, i64) #3

declare void @_ZNSt3__19to_stringEd(%"class.std::__1::basic_string"* sret, double) #3

declare void @_ZNSt3__19to_stringEf(%"class.std::__1::basic_string"* sret, float) #3

; Function Attrs: ssp uwtable
define i64 @_ZN7Variant4hashEv(%struct.Variant*) #0 align 2 personality i8* bitcast (i32 (...)* @__gxx_personality_v0 to i8*) {
  %2 = alloca %"struct.std::__1::__scalar_hash.41"*, align 8
  %3 = alloca float, align 4
  %4 = alloca %union.anon.351, align 8
  %5 = alloca i64, align 8
  %6 = alloca %"struct.std::__1::hash.40"*, align 8
  %7 = alloca float, align 4
  %8 = alloca %"struct.std::__1::__scalar_hash"*, align 8
  %9 = alloca double, align 8
  %10 = alloca %union.anon.350, align 8
  %11 = alloca i64, align 8
  %12 = alloca %"struct.std::__1::hash.38"*, align 8
  %13 = alloca double, align 8
  %14 = alloca %"struct.std::__1::hash.36"*, align 8
  %15 = alloca i64, align 8
  %16 = alloca %"class.std::__1::__libcpp_compressed_pair_imp"*, align 8
  %17 = alloca %"class.std::__1::__compressed_pair"*, align 8
  %18 = alloca %"class.std::__1::basic_string"*, align 8
  %19 = alloca [3 x i64]*, align 8
  %20 = alloca i32, align 4
  %21 = alloca %"class.std::__1::__compressed_pair"*, align 8
  %22 = alloca %"class.std::__1::basic_string"*, align 8
  %23 = alloca %"class.std::__1::basic_string"*, align 8
  %24 = alloca %"class.std::__1::basic_string"*, align 8
  %25 = alloca %"class.std::__1::basic_string"*, align 8
  %26 = alloca %"class.std::__1::basic_string"*, align 8
  %27 = alloca i8*, align 8
  %28 = alloca %"class.std::__1::basic_string"*, align 8
  %29 = alloca %"struct.std::__1::hash.34"*, align 8
  %30 = alloca i32, align 4
  %31 = alloca %"struct.std::__1::hash.32"*, align 8
  %32 = alloca i8, align 1
  %33 = alloca %"struct.std::__1::hash.30"*, align 8
  %34 = alloca i8, align 1
  %35 = alloca i64, align 8
  %36 = alloca %struct.Variant*, align 8
  %37 = alloca %"struct.std::__1::hash", align 1
  %38 = alloca %"struct.std::__1::hash.30", align 1
  %39 = alloca %"struct.std::__1::hash.32", align 1
  %40 = alloca %"struct.std::__1::hash.34", align 1
  %41 = alloca %"struct.std::__1::hash.36", align 1
  %42 = alloca %"struct.std::__1::hash.38", align 1
  %43 = alloca %"struct.std::__1::hash.40", align 1
  %44 = alloca %"class.std::__1::basic_string", align 8
  %45 = alloca %"class.std::__1::basic_string", align 8
  %46 = alloca %struct.Variant, align 8
  %47 = alloca i8*
  %48 = alloca i32
  store %struct.Variant* %0, %struct.Variant** %36, align 8
  %49 = load %struct.Variant*, %struct.Variant** %36, align 8
  %50 = getelementptr inbounds %struct.Variant, %struct.Variant* %49, i32 0, i32 4
  %51 = getelementptr inbounds %struct.TypeSpecifier, %struct.TypeSpecifier* %50, i32 0, i32 0
  %52 = load i32, i32* %51, align 8
  switch i32 %52, label %123 [
    i32 4, label %53
    i32 6, label %56
    i32 5, label %63
    i32 0, label %73
    i32 1, label %80
    i32 3, label %86
    i32 2, label %104
  ]

; <label>:53:                                     ; preds = %1
  %54 = getelementptr inbounds %struct.Variant, %struct.Variant* %49, i32 0, i32 3
  %55 = call i64 @_ZNKSt3__14hashINS_12basic_stringIcNS_11char_traitsIcEENS_9allocatorIcEEEEEclERKS6_(%"struct.std::__1::hash"* %37, %"class.std::__1::basic_string"* dereferenceable(24) %54) #12
  store i64 %55, i64* %35, align 8
  br label %163

; <label>:56:                                     ; preds = %1
  %57 = getelementptr inbounds %struct.Variant, %struct.Variant* %49, i32 0, i32 0
  %58 = bitcast %union.anon* %57 to i8*
  %59 = load i8, i8* %58, align 8
  store %"struct.std::__1::hash.30"* %38, %"struct.std::__1::hash.30"** %33, align 8
  store i8 %59, i8* %34, align 1
  %60 = load %"struct.std::__1::hash.30"*, %"struct.std::__1::hash.30"** %33, align 8
  %61 = load i8, i8* %34, align 1
  %62 = sext i8 %61 to i64
  store i64 %62, i64* %35, align 8
  br label %163

; <label>:63:                                     ; preds = %1
  %64 = getelementptr inbounds %struct.Variant, %struct.Variant* %49, i32 0, i32 0
  %65 = bitcast %union.anon* %64 to i8*
  %66 = load i8, i8* %65, align 8
  %67 = trunc i8 %66 to i1
  store %"struct.std::__1::hash.32"* %39, %"struct.std::__1::hash.32"** %31, align 8
  %68 = zext i1 %67 to i8
  store i8 %68, i8* %32, align 1
  %69 = load %"struct.std::__1::hash.32"*, %"struct.std::__1::hash.32"** %31, align 8
  %70 = load i8, i8* %32, align 1
  %71 = trunc i8 %70 to i1
  %72 = zext i1 %71 to i64
  store i64 %72, i64* %35, align 8
  br label %163

; <label>:73:                                     ; preds = %1
  %74 = getelementptr inbounds %struct.Variant, %struct.Variant* %49, i32 0, i32 0
  %75 = bitcast %union.anon* %74 to i32*
  %76 = load i32, i32* %75, align 8
  store %"struct.std::__1::hash.34"* %40, %"struct.std::__1::hash.34"** %29, align 8
  store i32 %76, i32* %30, align 4
  %77 = load %"struct.std::__1::hash.34"*, %"struct.std::__1::hash.34"** %29, align 8
  %78 = load i32, i32* %30, align 4
  %79 = sext i32 %78 to i64
  store i64 %79, i64* %35, align 8
  br label %163

; <label>:80:                                     ; preds = %1
  %81 = getelementptr inbounds %struct.Variant, %struct.Variant* %49, i32 0, i32 0
  %82 = bitcast %union.anon* %81 to i64*
  %83 = load i64, i64* %82, align 8
  store %"struct.std::__1::hash.36"* %41, %"struct.std::__1::hash.36"** %14, align 8
  store i64 %83, i64* %15, align 8
  %84 = load %"struct.std::__1::hash.36"*, %"struct.std::__1::hash.36"** %14, align 8
  %85 = load i64, i64* %15, align 8
  store i64 %85, i64* %35, align 8
  br label %163

; <label>:86:                                     ; preds = %1
  %87 = getelementptr inbounds %struct.Variant, %struct.Variant* %49, i32 0, i32 0
  %88 = bitcast %union.anon* %87 to double*
  %89 = load double, double* %88, align 8
  store %"struct.std::__1::hash.38"* %42, %"struct.std::__1::hash.38"** %12, align 8
  store double %89, double* %13, align 8
  %90 = load %"struct.std::__1::hash.38"*, %"struct.std::__1::hash.38"** %12, align 8
  %91 = load double, double* %13, align 8
  %92 = fcmp oeq double %91, 0.000000e+00
  br i1 %92, label %93, label %94

; <label>:93:                                     ; preds = %86
  store i64 0, i64* %11, align 8
  br label %102

; <label>:94:                                     ; preds = %86
  %95 = bitcast %"struct.std::__1::hash.38"* %90 to %"struct.std::__1::__scalar_hash"*
  %96 = load double, double* %13, align 8
  store %"struct.std::__1::__scalar_hash"* %95, %"struct.std::__1::__scalar_hash"** %8, align 8
  store double %96, double* %9, align 8
  %97 = load %"struct.std::__1::__scalar_hash"*, %"struct.std::__1::__scalar_hash"** %8, align 8
  %98 = load double, double* %9, align 8
  %99 = bitcast %union.anon.350* %10 to double*
  store double %98, double* %99, align 8
  %100 = bitcast %union.anon.350* %10 to i64*
  %101 = load i64, i64* %100, align 8
  store i64 %101, i64* %11, align 8
  br label %102

; <label>:102:                                    ; preds = %93, %94
  %103 = load i64, i64* %11, align 8
  store i64 %103, i64* %35, align 8
  br label %163

; <label>:104:                                    ; preds = %1
  %105 = getelementptr inbounds %struct.Variant, %struct.Variant* %49, i32 0, i32 0
  %106 = bitcast %union.anon* %105 to float*
  %107 = load float, float* %106, align 8
  store %"struct.std::__1::hash.40"* %43, %"struct.std::__1::hash.40"** %6, align 8
  store float %107, float* %7, align 4
  %108 = load %"struct.std::__1::hash.40"*, %"struct.std::__1::hash.40"** %6, align 8
  %109 = load float, float* %7, align 4
  %110 = fcmp oeq float %109, 0.000000e+00
  br i1 %110, label %111, label %112

; <label>:111:                                    ; preds = %104
  store i64 0, i64* %5, align 8
  br label %121

; <label>:112:                                    ; preds = %104
  %113 = bitcast %"struct.std::__1::hash.40"* %108 to %"struct.std::__1::__scalar_hash.41"*
  %114 = load float, float* %7, align 4
  store %"struct.std::__1::__scalar_hash.41"* %113, %"struct.std::__1::__scalar_hash.41"** %2, align 8
  store float %114, float* %3, align 4
  %115 = load %"struct.std::__1::__scalar_hash.41"*, %"struct.std::__1::__scalar_hash.41"** %2, align 8
  %116 = bitcast %union.anon.351* %4 to i64*
  store i64 0, i64* %116, align 8
  %117 = load float, float* %3, align 4
  %118 = bitcast %union.anon.351* %4 to float*
  store float %117, float* %118, align 8
  %119 = bitcast %union.anon.351* %4 to i64*
  %120 = load i64, i64* %119, align 8
  store i64 %120, i64* %5, align 8
  br label %121

; <label>:121:                                    ; preds = %111, %112
  %122 = load i64, i64* %5, align 8
  store i64 %122, i64* %35, align 8
  br label %163

; <label>:123:                                    ; preds = %1
  call void @_ZN7VariantC1ERKS_(%struct.Variant* %46, %struct.Variant* dereferenceable(264) %49)
  invoke void @_ZN3val9type_nameE7Variant(%"class.std::__1::basic_string"* sret %45, %struct.Variant* %46)
          to label %124 unwind label %165

; <label>:124:                                    ; preds = %123
  store i8* getelementptr inbounds ([27 x i8], [27 x i8]* @.str.16, i32 0, i32 0), i8** %27, align 8, !noalias !2
  store %"class.std::__1::basic_string"* %45, %"class.std::__1::basic_string"** %28, align 8, !noalias !2
  %125 = load %"class.std::__1::basic_string"*, %"class.std::__1::basic_string"** %28, align 8, !noalias !2
  %126 = load i8*, i8** %27, align 8, !noalias !2
  %127 = invoke dereferenceable(24) %"class.std::__1::basic_string"* @_ZNSt3__112basic_stringIcNS_11char_traitsIcEENS_9allocatorIcEEE6insertEmPKc(%"class.std::__1::basic_string"* %125, i64 0, i8* %126)
          to label %128 unwind label %169

; <label>:128:                                    ; preds = %124
  store %"class.std::__1::basic_string"* %127, %"class.std::__1::basic_string"** %26, align 8, !noalias !2
  %129 = load %"class.std::__1::basic_string"*, %"class.std::__1::basic_string"** %26, align 8, !noalias !2
  store %"class.std::__1::basic_string"* %44, %"class.std::__1::basic_string"** %24, align 8, !noalias !2
  store %"class.std::__1::basic_string"* %129, %"class.std::__1::basic_string"** %25, align 8, !noalias !2
  %130 = load %"class.std::__1::basic_string"*, %"class.std::__1::basic_string"** %24, align 8, !noalias !2
  %131 = load %"class.std::__1::basic_string"*, %"class.std::__1::basic_string"** %25, align 8, !noalias !2
  store %"class.std::__1::basic_string"* %130, %"class.std::__1::basic_string"** %22, align 8, !noalias !2
  store %"class.std::__1::basic_string"* %131, %"class.std::__1::basic_string"** %23, align 8, !noalias !2
  %132 = load %"class.std::__1::basic_string"*, %"class.std::__1::basic_string"** %22, align 8, !noalias !2
  %133 = bitcast %"class.std::__1::basic_string"* %132 to %"class.std::__1::__basic_string_common"*
  %134 = getelementptr inbounds %"class.std::__1::basic_string", %"class.std::__1::basic_string"* %132, i32 0, i32 0
  %135 = load %"class.std::__1::basic_string"*, %"class.std::__1::basic_string"** %23, align 8, !noalias !2
  %136 = getelementptr inbounds %"class.std::__1::basic_string", %"class.std::__1::basic_string"* %135, i32 0, i32 0
  store %"class.std::__1::__compressed_pair"* %136, %"class.std::__1::__compressed_pair"** %21, align 8, !noalias !2
  %137 = load %"class.std::__1::__compressed_pair"*, %"class.std::__1::__compressed_pair"** %21, align 8, !noalias !2
  %138 = bitcast %"class.std::__1::__compressed_pair"* %134 to i8*
  %139 = bitcast %"class.std::__1::__compressed_pair"* %137 to i8*
  call void @llvm.memcpy.p0i8.p0i8.i64(i8* %138, i8* %139, i64 24, i32 8, i1 false) #12
  %140 = load %"class.std::__1::basic_string"*, %"class.std::__1::basic_string"** %23, align 8, !noalias !2
  store %"class.std::__1::basic_string"* %140, %"class.std::__1::basic_string"** %18, align 8, !noalias !2
  %141 = load %"class.std::__1::basic_string"*, %"class.std::__1::basic_string"** %18, align 8, !noalias !2
  %142 = getelementptr inbounds %"class.std::__1::basic_string", %"class.std::__1::basic_string"* %141, i32 0, i32 0
  store %"class.std::__1::__compressed_pair"* %142, %"class.std::__1::__compressed_pair"** %17, align 8, !noalias !2
  %143 = load %"class.std::__1::__compressed_pair"*, %"class.std::__1::__compressed_pair"** %17, align 8, !noalias !2
  %144 = bitcast %"class.std::__1::__compressed_pair"* %143 to %"class.std::__1::__libcpp_compressed_pair_imp"*
  store %"class.std::__1::__libcpp_compressed_pair_imp"* %144, %"class.std::__1::__libcpp_compressed_pair_imp"** %16, align 8, !noalias !2
  %145 = load %"class.std::__1::__libcpp_compressed_pair_imp"*, %"class.std::__1::__libcpp_compressed_pair_imp"** %16, align 8, !noalias !2
  %146 = getelementptr inbounds %"class.std::__1::__libcpp_compressed_pair_imp", %"class.std::__1::__libcpp_compressed_pair_imp"* %145, i32 0, i32 0
  %147 = getelementptr inbounds %"struct.std::__1::basic_string<char, std::__1::char_traits<char>, std::__1::allocator<char> >::__rep", %"struct.std::__1::basic_string<char, std::__1::char_traits<char>, std::__1::allocator<char> >::__rep"* %146, i32 0, i32 0
  %148 = bitcast %union.anon.0* %147 to %"struct.std::__1::basic_string<char, std::__1::char_traits<char>, std::__1::allocator<char> >::__raw"*
  %149 = getelementptr inbounds %"struct.std::__1::basic_string<char, std::__1::char_traits<char>, std::__1::allocator<char> >::__raw", %"struct.std::__1::basic_string<char, std::__1::char_traits<char>, std::__1::allocator<char> >::__raw"* %148, i32 0, i32 0
  store [3 x i64]* %149, [3 x i64]** %19, align 8, !noalias !2
  store i32 0, i32* %20, align 4, !noalias !2
  br label %150

; <label>:150:                                    ; preds = %153, %128
  %151 = load i32, i32* %20, align 4, !noalias !2
  %152 = icmp ult i32 %151, 3
  br i1 %152, label %153, label %160

; <label>:153:                                    ; preds = %150
  %154 = load i32, i32* %20, align 4, !noalias !2
  %155 = zext i32 %154 to i64
  %156 = load [3 x i64]*, [3 x i64]** %19, align 8, !noalias !2
  %157 = getelementptr inbounds [3 x i64], [3 x i64]* %156, i64 0, i64 %155
  store i64 0, i64* %157, align 8
  %158 = load i32, i32* %20, align 4, !noalias !2
  %159 = add i32 %158, 1
  store i32 %159, i32* %20, align 4, !noalias !2
  br label %150

; <label>:160:                                    ; preds = %150
  br label %161

; <label>:161:                                    ; preds = %160
  invoke void @_ZN12RuntimeError5raiseE13RuntimeErrorsNSt3__112basic_stringIcNS1_11char_traitsIcEENS1_9allocatorIcEEEEP7AstNode(i32 7, %"class.std::__1::basic_string"* %44, %class.AstNode* null)
          to label %162 unwind label %173

; <label>:162:                                    ; preds = %161
  call void @_ZNSt3__112basic_stringIcNS_11char_traitsIcEENS_9allocatorIcEEED1Ev(%"class.std::__1::basic_string"* %44) #12
  call void @_ZNSt3__112basic_stringIcNS_11char_traitsIcEENS_9allocatorIcEEED1Ev(%"class.std::__1::basic_string"* %45) #12
  call void @_ZN7VariantD1Ev(%struct.Variant* %46) #12
  br label %163

; <label>:163:                                    ; preds = %53, %56, %63, %73, %80, %102, %121, %162
  %164 = load i64, i64* %35, align 8
  ret i64 %164

; <label>:165:                                    ; preds = %123
  %166 = landingpad { i8*, i32 }
          cleanup
  %167 = extractvalue { i8*, i32 } %166, 0
  store i8* %167, i8** %47, align 8
  %168 = extractvalue { i8*, i32 } %166, 1
  store i32 %168, i32* %48, align 4
  br label %178

; <label>:169:                                    ; preds = %124
  %170 = landingpad { i8*, i32 }
          cleanup
  %171 = extractvalue { i8*, i32 } %170, 0
  store i8* %171, i8** %47, align 8
  %172 = extractvalue { i8*, i32 } %170, 1
  store i32 %172, i32* %48, align 4
  br label %177

; <label>:173:                                    ; preds = %161
  %174 = landingpad { i8*, i32 }
          cleanup
  %175 = extractvalue { i8*, i32 } %174, 0
  store i8* %175, i8** %47, align 8
  %176 = extractvalue { i8*, i32 } %174, 1
  store i32 %176, i32* %48, align 4
  call void @_ZNSt3__112basic_stringIcNS_11char_traitsIcEENS_9allocatorIcEEED1Ev(%"class.std::__1::basic_string"* %44) #12
  br label %177

; <label>:177:                                    ; preds = %173, %169
  call void @_ZNSt3__112basic_stringIcNS_11char_traitsIcEENS_9allocatorIcEEED1Ev(%"class.std::__1::basic_string"* %45) #12
  br label %178

; <label>:178:                                    ; preds = %177, %165
  call void @_ZN7VariantD1Ev(%struct.Variant* %46) #12
  br label %179

; <label>:179:                                    ; preds = %178
  %180 = load i8*, i8** %47, align 8
  %181 = load i32, i32* %48, align 4
  %182 = insertvalue { i8*, i32 } undef, i8* %180, 0
  %183 = insertvalue { i8*, i32 } %182, i32 %181, 1
  resume { i8*, i32 } %183
}

; Function Attrs: nounwind ssp uwtable
define linkonce_odr i64 @_ZNKSt3__14hashINS_12basic_stringIcNS_11char_traitsIcEENS_9allocatorIcEEEEEclERKS6_(%"struct.std::__1::hash"*, %"class.std::__1::basic_string"* dereferenceable(24)) #4 align 2 personality i8* bitcast (i32 (...)* @__gxx_personality_v0 to i8*) {
  %3 = alloca %"class.std::__1::__libcpp_compressed_pair_imp"*, align 8
  %4 = alloca %"class.std::__1::__compressed_pair"*, align 8
  %5 = alloca %"class.std::__1::basic_string"*, align 8
  %6 = alloca %"class.std::__1::__libcpp_compressed_pair_imp"*, align 8
  %7 = alloca %"class.std::__1::__compressed_pair"*, align 8
  %8 = alloca %"class.std::__1::basic_string"*, align 8
  %9 = alloca %"class.std::__1::__libcpp_compressed_pair_imp"*, align 8
  %10 = alloca %"class.std::__1::__compressed_pair"*, align 8
  %11 = alloca %"class.std::__1::basic_string"*, align 8
  %12 = alloca %"class.std::__1::basic_string"*, align 8
  %13 = alloca i8*, align 8
  %14 = alloca i8*, align 8
  %15 = alloca %"struct.std::__1::__murmur2_or_cityhash", align 1
  %16 = alloca i8*, align 8
  %17 = alloca %"class.std::__1::__libcpp_compressed_pair_imp"*, align 8
  %18 = alloca %"class.std::__1::__compressed_pair"*, align 8
  %19 = alloca %"class.std::__1::basic_string"*, align 8
  %20 = alloca i8*, align 8
  %21 = alloca i8*, align 8
  %22 = alloca %"class.std::__1::__libcpp_compressed_pair_imp"*, align 8
  %23 = alloca %"class.std::__1::__compressed_pair"*, align 8
  %24 = alloca %"class.std::__1::basic_string"*, align 8
  %25 = alloca %"class.std::__1::__libcpp_compressed_pair_imp"*, align 8
  %26 = alloca %"class.std::__1::__compressed_pair"*, align 8
  %27 = alloca %"class.std::__1::basic_string"*, align 8
  %28 = alloca %"class.std::__1::basic_string"*, align 8
  %29 = alloca %"class.std::__1::basic_string"*, align 8
  %30 = alloca i8*, align 8
  %31 = alloca %"class.std::__1::__libcpp_compressed_pair_imp"*, align 8
  %32 = alloca %"class.std::__1::__compressed_pair"*, align 8
  %33 = alloca %"class.std::__1::basic_string"*, align 8
  %34 = alloca i8*, align 8
  %35 = alloca i8*, align 8
  %36 = alloca %"class.std::__1::__libcpp_compressed_pair_imp"*, align 8
  %37 = alloca %"class.std::__1::__compressed_pair"*, align 8
  %38 = alloca %"class.std::__1::basic_string"*, align 8
  %39 = alloca %"class.std::__1::__libcpp_compressed_pair_imp"*, align 8
  %40 = alloca %"class.std::__1::__compressed_pair"*, align 8
  %41 = alloca %"class.std::__1::basic_string"*, align 8
  %42 = alloca %"class.std::__1::basic_string"*, align 8
  %43 = alloca %"class.std::__1::basic_string"*, align 8
  %44 = alloca %"struct.std::__1::hash"*, align 8
  %45 = alloca %"class.std::__1::basic_string"*, align 8
  store %"struct.std::__1::hash"* %0, %"struct.std::__1::hash"** %44, align 8
  store %"class.std::__1::basic_string"* %1, %"class.std::__1::basic_string"** %45, align 8
  %46 = load %"struct.std::__1::hash"*, %"struct.std::__1::hash"** %44, align 8
  %47 = load %"class.std::__1::basic_string"*, %"class.std::__1::basic_string"** %45, align 8
  store %"class.std::__1::basic_string"* %47, %"class.std::__1::basic_string"** %43, align 8
  %48 = load %"class.std::__1::basic_string"*, %"class.std::__1::basic_string"** %43, align 8
  store %"class.std::__1::basic_string"* %48, %"class.std::__1::basic_string"** %42, align 8
  %49 = load %"class.std::__1::basic_string"*, %"class.std::__1::basic_string"** %42, align 8
  store %"class.std::__1::basic_string"* %49, %"class.std::__1::basic_string"** %41, align 8
  %50 = load %"class.std::__1::basic_string"*, %"class.std::__1::basic_string"** %41, align 8
  %51 = getelementptr inbounds %"class.std::__1::basic_string", %"class.std::__1::basic_string"* %50, i32 0, i32 0
  store %"class.std::__1::__compressed_pair"* %51, %"class.std::__1::__compressed_pair"** %40, align 8
  %52 = load %"class.std::__1::__compressed_pair"*, %"class.std::__1::__compressed_pair"** %40, align 8
  %53 = bitcast %"class.std::__1::__compressed_pair"* %52 to %"class.std::__1::__libcpp_compressed_pair_imp"*
  store %"class.std::__1::__libcpp_compressed_pair_imp"* %53, %"class.std::__1::__libcpp_compressed_pair_imp"** %39, align 8
  %54 = load %"class.std::__1::__libcpp_compressed_pair_imp"*, %"class.std::__1::__libcpp_compressed_pair_imp"** %39, align 8
  %55 = getelementptr inbounds %"class.std::__1::__libcpp_compressed_pair_imp", %"class.std::__1::__libcpp_compressed_pair_imp"* %54, i32 0, i32 0
  %56 = getelementptr inbounds %"struct.std::__1::basic_string<char, std::__1::char_traits<char>, std::__1::allocator<char> >::__rep", %"struct.std::__1::basic_string<char, std::__1::char_traits<char>, std::__1::allocator<char> >::__rep"* %55, i32 0, i32 0
  %57 = bitcast %union.anon.0* %56 to %"struct.std::__1::basic_string<char, std::__1::char_traits<char>, std::__1::allocator<char> >::__short"*
  %58 = getelementptr inbounds %"struct.std::__1::basic_string<char, std::__1::char_traits<char>, std::__1::allocator<char> >::__short", %"struct.std::__1::basic_string<char, std::__1::char_traits<char>, std::__1::allocator<char> >::__short"* %57, i32 0, i32 0
  %59 = bitcast %union.anon.1* %58 to i8*
  %60 = load i8, i8* %59, align 8
  %61 = zext i8 %60 to i32
  %62 = and i32 %61, 1
  %63 = icmp ne i32 %62, 0
  br i1 %63, label %64, label %75

; <label>:64:                                     ; preds = %2
  store %"class.std::__1::basic_string"* %49, %"class.std::__1::basic_string"** %33, align 8
  %65 = load %"class.std::__1::basic_string"*, %"class.std::__1::basic_string"** %33, align 8
  %66 = getelementptr inbounds %"class.std::__1::basic_string", %"class.std::__1::basic_string"* %65, i32 0, i32 0
  store %"class.std::__1::__compressed_pair"* %66, %"class.std::__1::__compressed_pair"** %32, align 8
  %67 = load %"class.std::__1::__compressed_pair"*, %"class.std::__1::__compressed_pair"** %32, align 8
  %68 = bitcast %"class.std::__1::__compressed_pair"* %67 to %"class.std::__1::__libcpp_compressed_pair_imp"*
  store %"class.std::__1::__libcpp_compressed_pair_imp"* %68, %"class.std::__1::__libcpp_compressed_pair_imp"** %31, align 8
  %69 = load %"class.std::__1::__libcpp_compressed_pair_imp"*, %"class.std::__1::__libcpp_compressed_pair_imp"** %31, align 8
  %70 = getelementptr inbounds %"class.std::__1::__libcpp_compressed_pair_imp", %"class.std::__1::__libcpp_compressed_pair_imp"* %69, i32 0, i32 0
  %71 = getelementptr inbounds %"struct.std::__1::basic_string<char, std::__1::char_traits<char>, std::__1::allocator<char> >::__rep", %"struct.std::__1::basic_string<char, std::__1::char_traits<char>, std::__1::allocator<char> >::__rep"* %70, i32 0, i32 0
  %72 = bitcast %union.anon.0* %71 to %"struct.std::__1::basic_string<char, std::__1::char_traits<char>, std::__1::allocator<char> >::__long"*
  %73 = getelementptr inbounds %"struct.std::__1::basic_string<char, std::__1::char_traits<char>, std::__1::allocator<char> >::__long", %"struct.std::__1::basic_string<char, std::__1::char_traits<char>, std::__1::allocator<char> >::__long"* %72, i32 0, i32 2
  %74 = load i8*, i8** %73, align 8
  br label %88

; <label>:75:                                     ; preds = %2
  store %"class.std::__1::basic_string"* %49, %"class.std::__1::basic_string"** %38, align 8
  %76 = load %"class.std::__1::basic_string"*, %"class.std::__1::basic_string"** %38, align 8
  %77 = getelementptr inbounds %"class.std::__1::basic_string", %"class.std::__1::basic_string"* %76, i32 0, i32 0
  store %"class.std::__1::__compressed_pair"* %77, %"class.std::__1::__compressed_pair"** %37, align 8
  %78 = load %"class.std::__1::__compressed_pair"*, %"class.std::__1::__compressed_pair"** %37, align 8
  %79 = bitcast %"class.std::__1::__compressed_pair"* %78 to %"class.std::__1::__libcpp_compressed_pair_imp"*
  store %"class.std::__1::__libcpp_compressed_pair_imp"* %79, %"class.std::__1::__libcpp_compressed_pair_imp"** %36, align 8
  %80 = load %"class.std::__1::__libcpp_compressed_pair_imp"*, %"class.std::__1::__libcpp_compressed_pair_imp"** %36, align 8
  %81 = getelementptr inbounds %"class.std::__1::__libcpp_compressed_pair_imp", %"class.std::__1::__libcpp_compressed_pair_imp"* %80, i32 0, i32 0
  %82 = getelementptr inbounds %"struct.std::__1::basic_string<char, std::__1::char_traits<char>, std::__1::allocator<char> >::__rep", %"struct.std::__1::basic_string<char, std::__1::char_traits<char>, std::__1::allocator<char> >::__rep"* %81, i32 0, i32 0
  %83 = bitcast %union.anon.0* %82 to %"struct.std::__1::basic_string<char, std::__1::char_traits<char>, std::__1::allocator<char> >::__short"*
  %84 = getelementptr inbounds %"struct.std::__1::basic_string<char, std::__1::char_traits<char>, std::__1::allocator<char> >::__short", %"struct.std::__1::basic_string<char, std::__1::char_traits<char>, std::__1::allocator<char> >::__short"* %83, i32 0, i32 1
  %85 = getelementptr inbounds [23 x i8], [23 x i8]* %84, i64 0, i64 0
  store i8* %85, i8** %35, align 8
  %86 = load i8*, i8** %35, align 8
  store i8* %86, i8** %34, align 8
  %87 = load i8*, i8** %34, align 8
  br label %88

; <label>:88:                                     ; preds = %64, %75
  %89 = phi i8* [ %74, %64 ], [ %87, %75 ]
  store i8* %89, i8** %30, align 8
  %90 = load i8*, i8** %30, align 8
  %91 = load %"class.std::__1::basic_string"*, %"class.std::__1::basic_string"** %45, align 8
  store %"class.std::__1::basic_string"* %91, %"class.std::__1::basic_string"** %29, align 8
  %92 = load %"class.std::__1::basic_string"*, %"class.std::__1::basic_string"** %29, align 8
  store %"class.std::__1::basic_string"* %92, %"class.std::__1::basic_string"** %28, align 8
  %93 = load %"class.std::__1::basic_string"*, %"class.std::__1::basic_string"** %28, align 8
  store %"class.std::__1::basic_string"* %93, %"class.std::__1::basic_string"** %27, align 8
  %94 = load %"class.std::__1::basic_string"*, %"class.std::__1::basic_string"** %27, align 8
  %95 = getelementptr inbounds %"class.std::__1::basic_string", %"class.std::__1::basic_string"* %94, i32 0, i32 0
  store %"class.std::__1::__compressed_pair"* %95, %"class.std::__1::__compressed_pair"** %26, align 8
  %96 = load %"class.std::__1::__compressed_pair"*, %"class.std::__1::__compressed_pair"** %26, align 8
  %97 = bitcast %"class.std::__1::__compressed_pair"* %96 to %"class.std::__1::__libcpp_compressed_pair_imp"*
  store %"class.std::__1::__libcpp_compressed_pair_imp"* %97, %"class.std::__1::__libcpp_compressed_pair_imp"** %25, align 8
  %98 = load %"class.std::__1::__libcpp_compressed_pair_imp"*, %"class.std::__1::__libcpp_compressed_pair_imp"** %25, align 8
  %99 = getelementptr inbounds %"class.std::__1::__libcpp_compressed_pair_imp", %"class.std::__1::__libcpp_compressed_pair_imp"* %98, i32 0, i32 0
  %100 = getelementptr inbounds %"struct.std::__1::basic_string<char, std::__1::char_traits<char>, std::__1::allocator<char> >::__rep", %"struct.std::__1::basic_string<char, std::__1::char_traits<char>, std::__1::allocator<char> >::__rep"* %99, i32 0, i32 0
  %101 = bitcast %union.anon.0* %100 to %"struct.std::__1::basic_string<char, std::__1::char_traits<char>, std::__1::allocator<char> >::__short"*
  %102 = getelementptr inbounds %"struct.std::__1::basic_string<char, std::__1::char_traits<char>, std::__1::allocator<char> >::__short", %"struct.std::__1::basic_string<char, std::__1::char_traits<char>, std::__1::allocator<char> >::__short"* %101, i32 0, i32 0
  %103 = bitcast %union.anon.1* %102 to i8*
  %104 = load i8, i8* %103, align 8
  %105 = zext i8 %104 to i32
  %106 = and i32 %105, 1
  %107 = icmp ne i32 %106, 0
  br i1 %107, label %108, label %119

; <label>:108:                                    ; preds = %88
  store %"class.std::__1::basic_string"* %93, %"class.std::__1::basic_string"** %19, align 8
  %109 = load %"class.std::__1::basic_string"*, %"class.std::__1::basic_string"** %19, align 8
  %110 = getelementptr inbounds %"class.std::__1::basic_string", %"class.std::__1::basic_string"* %109, i32 0, i32 0
  store %"class.std::__1::__compressed_pair"* %110, %"class.std::__1::__compressed_pair"** %18, align 8
  %111 = load %"class.std::__1::__compressed_pair"*, %"class.std::__1::__compressed_pair"** %18, align 8
  %112 = bitcast %"class.std::__1::__compressed_pair"* %111 to %"class.std::__1::__libcpp_compressed_pair_imp"*
  store %"class.std::__1::__libcpp_compressed_pair_imp"* %112, %"class.std::__1::__libcpp_compressed_pair_imp"** %17, align 8
  %113 = load %"class.std::__1::__libcpp_compressed_pair_imp"*, %"class.std::__1::__libcpp_compressed_pair_imp"** %17, align 8
  %114 = getelementptr inbounds %"class.std::__1::__libcpp_compressed_pair_imp", %"class.std::__1::__libcpp_compressed_pair_imp"* %113, i32 0, i32 0
  %115 = getelementptr inbounds %"struct.std::__1::basic_string<char, std::__1::char_traits<char>, std::__1::allocator<char> >::__rep", %"struct.std::__1::basic_string<char, std::__1::char_traits<char>, std::__1::allocator<char> >::__rep"* %114, i32 0, i32 0
  %116 = bitcast %union.anon.0* %115 to %"struct.std::__1::basic_string<char, std::__1::char_traits<char>, std::__1::allocator<char> >::__long"*
  %117 = getelementptr inbounds %"struct.std::__1::basic_string<char, std::__1::char_traits<char>, std::__1::allocator<char> >::__long", %"struct.std::__1::basic_string<char, std::__1::char_traits<char>, std::__1::allocator<char> >::__long"* %116, i32 0, i32 2
  %118 = load i8*, i8** %117, align 8
  br label %132

; <label>:119:                                    ; preds = %88
  store %"class.std::__1::basic_string"* %93, %"class.std::__1::basic_string"** %24, align 8
  %120 = load %"class.std::__1::basic_string"*, %"class.std::__1::basic_string"** %24, align 8
  %121 = getelementptr inbounds %"class.std::__1::basic_string", %"class.std::__1::basic_string"* %120, i32 0, i32 0
  store %"class.std::__1::__compressed_pair"* %121, %"class.std::__1::__compressed_pair"** %23, align 8
  %122 = load %"class.std::__1::__compressed_pair"*, %"class.std::__1::__compressed_pair"** %23, align 8
  %123 = bitcast %"class.std::__1::__compressed_pair"* %122 to %"class.std::__1::__libcpp_compressed_pair_imp"*
  store %"class.std::__1::__libcpp_compressed_pair_imp"* %123, %"class.std::__1::__libcpp_compressed_pair_imp"** %22, align 8
  %124 = load %"class.std::__1::__libcpp_compressed_pair_imp"*, %"class.std::__1::__libcpp_compressed_pair_imp"** %22, align 8
  %125 = getelementptr inbounds %"class.std::__1::__libcpp_compressed_pair_imp", %"class.std::__1::__libcpp_compressed_pair_imp"* %124, i32 0, i32 0
  %126 = getelementptr inbounds %"struct.std::__1::basic_string<char, std::__1::char_traits<char>, std::__1::allocator<char> >::__rep", %"struct.std::__1::basic_string<char, std::__1::char_traits<char>, std::__1::allocator<char> >::__rep"* %125, i32 0, i32 0
  %127 = bitcast %union.anon.0* %126 to %"struct.std::__1::basic_string<char, std::__1::char_traits<char>, std::__1::allocator<char> >::__short"*
  %128 = getelementptr inbounds %"struct.std::__1::basic_string<char, std::__1::char_traits<char>, std::__1::allocator<char> >::__short", %"struct.std::__1::basic_string<char, std::__1::char_traits<char>, std::__1::allocator<char> >::__short"* %127, i32 0, i32 1
  %129 = getelementptr inbounds [23 x i8], [23 x i8]* %128, i64 0, i64 0
  store i8* %129, i8** %21, align 8
  %130 = load i8*, i8** %21, align 8
  store i8* %130, i8** %20, align 8
  %131 = load i8*, i8** %20, align 8
  br label %132

; <label>:132:                                    ; preds = %108, %119
  %133 = phi i8* [ %118, %108 ], [ %131, %119 ]
  store i8* %133, i8** %16, align 8
  %134 = load i8*, i8** %16, align 8
  %135 = load %"class.std::__1::basic_string"*, %"class.std::__1::basic_string"** %45, align 8
  store %"class.std::__1::basic_string"* %135, %"class.std::__1::basic_string"** %12, align 8
  %136 = load %"class.std::__1::basic_string"*, %"class.std::__1::basic_string"** %12, align 8
  store %"class.std::__1::basic_string"* %136, %"class.std::__1::basic_string"** %11, align 8
  %137 = load %"class.std::__1::basic_string"*, %"class.std::__1::basic_string"** %11, align 8
  %138 = getelementptr inbounds %"class.std::__1::basic_string", %"class.std::__1::basic_string"* %137, i32 0, i32 0
  store %"class.std::__1::__compressed_pair"* %138, %"class.std::__1::__compressed_pair"** %10, align 8
  %139 = load %"class.std::__1::__compressed_pair"*, %"class.std::__1::__compressed_pair"** %10, align 8
  %140 = bitcast %"class.std::__1::__compressed_pair"* %139 to %"class.std::__1::__libcpp_compressed_pair_imp"*
  store %"class.std::__1::__libcpp_compressed_pair_imp"* %140, %"class.std::__1::__libcpp_compressed_pair_imp"** %9, align 8
  %141 = load %"class.std::__1::__libcpp_compressed_pair_imp"*, %"class.std::__1::__libcpp_compressed_pair_imp"** %9, align 8
  %142 = getelementptr inbounds %"class.std::__1::__libcpp_compressed_pair_imp", %"class.std::__1::__libcpp_compressed_pair_imp"* %141, i32 0, i32 0
  %143 = getelementptr inbounds %"struct.std::__1::basic_string<char, std::__1::char_traits<char>, std::__1::allocator<char> >::__rep", %"struct.std::__1::basic_string<char, std::__1::char_traits<char>, std::__1::allocator<char> >::__rep"* %142, i32 0, i32 0
  %144 = bitcast %union.anon.0* %143 to %"struct.std::__1::basic_string<char, std::__1::char_traits<char>, std::__1::allocator<char> >::__short"*
  %145 = getelementptr inbounds %"struct.std::__1::basic_string<char, std::__1::char_traits<char>, std::__1::allocator<char> >::__short", %"struct.std::__1::basic_string<char, std::__1::char_traits<char>, std::__1::allocator<char> >::__short"* %144, i32 0, i32 0
  %146 = bitcast %union.anon.1* %145 to i8*
  %147 = load i8, i8* %146, align 8
  %148 = zext i8 %147 to i32
  %149 = and i32 %148, 1
  %150 = icmp ne i32 %149, 0
  br i1 %150, label %151, label %162

; <label>:151:                                    ; preds = %132
  store %"class.std::__1::basic_string"* %136, %"class.std::__1::basic_string"** %5, align 8
  %152 = load %"class.std::__1::basic_string"*, %"class.std::__1::basic_string"** %5, align 8
  %153 = getelementptr inbounds %"class.std::__1::basic_string", %"class.std::__1::basic_string"* %152, i32 0, i32 0
  store %"class.std::__1::__compressed_pair"* %153, %"class.std::__1::__compressed_pair"** %4, align 8
  %154 = load %"class.std::__1::__compressed_pair"*, %"class.std::__1::__compressed_pair"** %4, align 8
  %155 = bitcast %"class.std::__1::__compressed_pair"* %154 to %"class.std::__1::__libcpp_compressed_pair_imp"*
  store %"class.std::__1::__libcpp_compressed_pair_imp"* %155, %"class.std::__1::__libcpp_compressed_pair_imp"** %3, align 8
  %156 = load %"class.std::__1::__libcpp_compressed_pair_imp"*, %"class.std::__1::__libcpp_compressed_pair_imp"** %3, align 8
  %157 = getelementptr inbounds %"class.std::__1::__libcpp_compressed_pair_imp", %"class.std::__1::__libcpp_compressed_pair_imp"* %156, i32 0, i32 0
  %158 = getelementptr inbounds %"struct.std::__1::basic_string<char, std::__1::char_traits<char>, std::__1::allocator<char> >::__rep", %"struct.std::__1::basic_string<char, std::__1::char_traits<char>, std::__1::allocator<char> >::__rep"* %157, i32 0, i32 0
  %159 = bitcast %union.anon.0* %158 to %"struct.std::__1::basic_string<char, std::__1::char_traits<char>, std::__1::allocator<char> >::__long"*
  %160 = getelementptr inbounds %"struct.std::__1::basic_string<char, std::__1::char_traits<char>, std::__1::allocator<char> >::__long", %"struct.std::__1::basic_string<char, std::__1::char_traits<char>, std::__1::allocator<char> >::__long"* %159, i32 0, i32 1
  %161 = load i64, i64* %160, align 8
  br label %177

; <label>:162:                                    ; preds = %132
  store %"class.std::__1::basic_string"* %136, %"class.std::__1::basic_string"** %8, align 8
  %163 = load %"class.std::__1::basic_string"*, %"class.std::__1::basic_string"** %8, align 8
  %164 = getelementptr inbounds %"class.std::__1::basic_string", %"class.std::__1::basic_string"* %163, i32 0, i32 0
  store %"class.std::__1::__compressed_pair"* %164, %"class.std::__1::__compressed_pair"** %7, align 8
  %165 = load %"class.std::__1::__compressed_pair"*, %"class.std::__1::__compressed_pair"** %7, align 8
  %166 = bitcast %"class.std::__1::__compressed_pair"* %165 to %"class.std::__1::__libcpp_compressed_pair_imp"*
  store %"class.std::__1::__libcpp_compressed_pair_imp"* %166, %"class.std::__1::__libcpp_compressed_pair_imp"** %6, align 8
  %167 = load %"class.std::__1::__libcpp_compressed_pair_imp"*, %"class.std::__1::__libcpp_compressed_pair_imp"** %6, align 8
  %168 = getelementptr inbounds %"class.std::__1::__libcpp_compressed_pair_imp", %"class.std::__1::__libcpp_compressed_pair_imp"* %167, i32 0, i32 0
  %169 = getelementptr inbounds %"struct.std::__1::basic_string<char, std::__1::char_traits<char>, std::__1::allocator<char> >::__rep", %"struct.std::__1::basic_string<char, std::__1::char_traits<char>, std::__1::allocator<char> >::__rep"* %168, i32 0, i32 0
  %170 = bitcast %union.anon.0* %169 to %"struct.std::__1::basic_string<char, std::__1::char_traits<char>, std::__1::allocator<char> >::__short"*
  %171 = getelementptr inbounds %"struct.std::__1::basic_string<char, std::__1::char_traits<char>, std::__1::allocator<char> >::__short", %"struct.std::__1::basic_string<char, std::__1::char_traits<char>, std::__1::allocator<char> >::__short"* %170, i32 0, i32 0
  %172 = bitcast %union.anon.1* %171 to i8*
  %173 = load i8, i8* %172, align 8
  %174 = zext i8 %173 to i32
  %175 = ashr i32 %174, 1
  %176 = sext i32 %175 to i64
  br label %177

; <label>:177:                                    ; preds = %151, %162
  %178 = phi i64 [ %161, %151 ], [ %176, %162 ]
  %179 = getelementptr inbounds i8, i8* %134, i64 %178
  store i8* %90, i8** %13, align 8
  store i8* %179, i8** %14, align 8
  %180 = load i8*, i8** %13, align 8
  %181 = load i8*, i8** %14, align 8
  %182 = load i8*, i8** %13, align 8
  %183 = ptrtoint i8* %181 to i64
  %184 = ptrtoint i8* %182 to i64
  %185 = sub i64 %183, %184
  %186 = invoke i64 @_ZNSt3__121__murmur2_or_cityhashImLm64EEclEPKvm(%"struct.std::__1::__murmur2_or_cityhash"* %15, i8* %180, i64 %185)
          to label %187 unwind label %189

; <label>:187:                                    ; preds = %177
  br label %188

; <label>:188:                                    ; preds = %187
  ret i64 %186

; <label>:189:                                    ; preds = %177
  %190 = landingpad { i8*, i32 }
          catch i8* null
  %191 = extractvalue { i8*, i32 } %190, 0
  call void @__clang_call_terminate(i8* %191) #13
  unreachable
}

; Function Attrs: ssp uwtable
define void @_ZN3val9type_nameE7Variant(%"class.std::__1::basic_string"* noalias sret, %struct.Variant*) #0 {
  %3 = call dereferenceable(216) %struct.TypeSpecifier* @_ZN7Variant8get_typeEv(%struct.Variant* %1)
  %4 = getelementptr inbounds %struct.TypeSpecifier, %struct.TypeSpecifier* %3, i32 0, i32 0
  %5 = load i32, i32* %4, align 8
  call void @_ZN3val9typetostrE9ValueType(%"class.std::__1::basic_string"* sret %0, i32 %5)
  ret void
}

declare void @_ZN4cdot3var9Converter4castE7Variant9ValueType(%struct.Variant* sret, %struct.Variant*, i32) #3

; Function Attrs: ssp uwtable
define void @_ZN7VariantplES_(%struct.Variant* noalias sret, %struct.Variant*, %struct.Variant*) #0 align 2 personality i8* bitcast (i32 (...)* @__gxx_personality_v0 to i8*) {
  %4 = alloca %struct.Variant*, align 8
  %5 = alloca %struct.Variant, align 8
  %6 = alloca %struct.Variant, align 8
  %7 = alloca i8*
  %8 = alloca i32
  store %struct.Variant* %1, %struct.Variant** %4, align 8
  %9 = load %struct.Variant*, %struct.Variant** %4, align 8
  call void @_ZN7VariantC1ERKS_(%struct.Variant* %5, %struct.Variant* dereferenceable(264) %9)
  invoke void @_ZN7VariantC1ERKS_(%struct.Variant* %6, %struct.Variant* dereferenceable(264) %2)
          to label %10 unwind label %12

; <label>:10:                                     ; preds = %3
  invoke void @_ZN4cdot3var10Arithmetic3addE7VariantS2_(%struct.Variant* sret %0, %struct.Variant* %5, %struct.Variant* %6)
          to label %11 unwind label %16

; <label>:11:                                     ; preds = %10
  call void @_ZN7VariantD1Ev(%struct.Variant* %6) #12
  call void @_ZN7VariantD1Ev(%struct.Variant* %5) #12
  ret void

; <label>:12:                                     ; preds = %3
  %13 = landingpad { i8*, i32 }
          cleanup
  %14 = extractvalue { i8*, i32 } %13, 0
  store i8* %14, i8** %7, align 8
  %15 = extractvalue { i8*, i32 } %13, 1
  store i32 %15, i32* %8, align 4
  br label %20

; <label>:16:                                     ; preds = %10
  %17 = landingpad { i8*, i32 }
          cleanup
  %18 = extractvalue { i8*, i32 } %17, 0
  store i8* %18, i8** %7, align 8
  %19 = extractvalue { i8*, i32 } %17, 1
  store i32 %19, i32* %8, align 4
  call void @_ZN7VariantD1Ev(%struct.Variant* %6) #12
  br label %20

; <label>:20:                                     ; preds = %16, %12
  call void @_ZN7VariantD1Ev(%struct.Variant* %5) #12
  br label %21

; <label>:21:                                     ; preds = %20
  %22 = load i8*, i8** %7, align 8
  %23 = load i32, i32* %8, align 4
  %24 = insertvalue { i8*, i32 } undef, i8* %22, 0
  %25 = insertvalue { i8*, i32 } %24, i32 %23, 1
  resume { i8*, i32 } %25
}

declare void @_ZN4cdot3var10Arithmetic3addE7VariantS2_(%struct.Variant* sret, %struct.Variant*, %struct.Variant*) #3

; Function Attrs: ssp uwtable
define void @_ZN7Variant3powES_(%struct.Variant* noalias sret, %struct.Variant*, %struct.Variant*) #0 align 2 personality i8* bitcast (i32 (...)* @__gxx_personality_v0 to i8*) {
  %4 = alloca %struct.Variant*, align 8
  %5 = alloca %struct.Variant, align 8
  %6 = alloca %struct.Variant, align 8
  %7 = alloca i8*
  %8 = alloca i32
  store %struct.Variant* %1, %struct.Variant** %4, align 8
  %9 = load %struct.Variant*, %struct.Variant** %4, align 8
  call void @_ZN7VariantC1ERKS_(%struct.Variant* %5, %struct.Variant* dereferenceable(264) %9)
  invoke void @_ZN7VariantC1ERKS_(%struct.Variant* %6, %struct.Variant* dereferenceable(264) %2)
          to label %10 unwind label %12

; <label>:10:                                     ; preds = %3
  invoke void @_ZN4cdot3var10Arithmetic3powE7VariantS2_(%struct.Variant* sret %0, %struct.Variant* %5, %struct.Variant* %6)
          to label %11 unwind label %16

; <label>:11:                                     ; preds = %10
  call void @_ZN7VariantD1Ev(%struct.Variant* %6) #12
  call void @_ZN7VariantD1Ev(%struct.Variant* %5) #12
  ret void

; <label>:12:                                     ; preds = %3
  %13 = landingpad { i8*, i32 }
          cleanup
  %14 = extractvalue { i8*, i32 } %13, 0
  store i8* %14, i8** %7, align 8
  %15 = extractvalue { i8*, i32 } %13, 1
  store i32 %15, i32* %8, align 4
  br label %20

; <label>:16:                                     ; preds = %10
  %17 = landingpad { i8*, i32 }
          cleanup
  %18 = extractvalue { i8*, i32 } %17, 0
  store i8* %18, i8** %7, align 8
  %19 = extractvalue { i8*, i32 } %17, 1
  store i32 %19, i32* %8, align 4
  call void @_ZN7VariantD1Ev(%struct.Variant* %6) #12
  br label %20

; <label>:20:                                     ; preds = %16, %12
  call void @_ZN7VariantD1Ev(%struct.Variant* %5) #12
  br label %21

; <label>:21:                                     ; preds = %20
  %22 = load i8*, i8** %7, align 8
  %23 = load i32, i32* %8, align 4
  %24 = insertvalue { i8*, i32 } undef, i8* %22, 0
  %25 = insertvalue { i8*, i32 } %24, i32 %23, 1
  resume { i8*, i32 } %25
}

declare void @_ZN4cdot3var10Arithmetic3powE7VariantS2_(%struct.Variant* sret, %struct.Variant*, %struct.Variant*) #3

; Function Attrs: ssp uwtable
define void @_ZN7VariantmiES_(%struct.Variant* noalias sret, %struct.Variant*, %struct.Variant*) #0 align 2 personality i8* bitcast (i32 (...)* @__gxx_personality_v0 to i8*) {
  %4 = alloca %struct.Variant*, align 8
  %5 = alloca %struct.Variant, align 8
  %6 = alloca %struct.Variant, align 8
  %7 = alloca i8*
  %8 = alloca i32
  store %struct.Variant* %1, %struct.Variant** %4, align 8
  %9 = load %struct.Variant*, %struct.Variant** %4, align 8
  call void @_ZN7VariantC1ERKS_(%struct.Variant* %5, %struct.Variant* dereferenceable(264) %9)
  invoke void @_ZN7VariantC1ERKS_(%struct.Variant* %6, %struct.Variant* dereferenceable(264) %2)
          to label %10 unwind label %12

; <label>:10:                                     ; preds = %3
  invoke void @_ZN4cdot3var10Arithmetic5minusE7VariantS2_(%struct.Variant* sret %0, %struct.Variant* %5, %struct.Variant* %6)
          to label %11 unwind label %16

; <label>:11:                                     ; preds = %10
  call void @_ZN7VariantD1Ev(%struct.Variant* %6) #12
  call void @_ZN7VariantD1Ev(%struct.Variant* %5) #12
  ret void

; <label>:12:                                     ; preds = %3
  %13 = landingpad { i8*, i32 }
          cleanup
  %14 = extractvalue { i8*, i32 } %13, 0
  store i8* %14, i8** %7, align 8
  %15 = extractvalue { i8*, i32 } %13, 1
  store i32 %15, i32* %8, align 4
  br label %20

; <label>:16:                                     ; preds = %10
  %17 = landingpad { i8*, i32 }
          cleanup
  %18 = extractvalue { i8*, i32 } %17, 0
  store i8* %18, i8** %7, align 8
  %19 = extractvalue { i8*, i32 } %17, 1
  store i32 %19, i32* %8, align 4
  call void @_ZN7VariantD1Ev(%struct.Variant* %6) #12
  br label %20

; <label>:20:                                     ; preds = %16, %12
  call void @_ZN7VariantD1Ev(%struct.Variant* %5) #12
  br label %21

; <label>:21:                                     ; preds = %20
  %22 = load i8*, i8** %7, align 8
  %23 = load i32, i32* %8, align 4
  %24 = insertvalue { i8*, i32 } undef, i8* %22, 0
  %25 = insertvalue { i8*, i32 } %24, i32 %23, 1
  resume { i8*, i32 } %25
}

declare void @_ZN4cdot3var10Arithmetic5minusE7VariantS2_(%struct.Variant* sret, %struct.Variant*, %struct.Variant*) #3

; Function Attrs: ssp uwtable
define void @_ZN7VariantngEv(%struct.Variant* noalias sret, %struct.Variant*) #0 align 2 personality i8* bitcast (i32 (...)* @__gxx_personality_v0 to i8*) {
  %3 = alloca %struct.Variant*, align 8
  %4 = alloca %struct.Variant, align 8
  %5 = alloca i8*
  %6 = alloca i32
  store %struct.Variant* %1, %struct.Variant** %3, align 8
  %7 = load %struct.Variant*, %struct.Variant** %3, align 8
  call void @_ZN7VariantC1ERKS_(%struct.Variant* %4, %struct.Variant* dereferenceable(264) %7)
  invoke void @_ZN4cdot3var10Arithmetic11unary_minusE7Variant(%struct.Variant* sret %0, %struct.Variant* %4)
          to label %8 unwind label %9

; <label>:8:                                      ; preds = %2
  call void @_ZN7VariantD1Ev(%struct.Variant* %4) #12
  ret void

; <label>:9:                                      ; preds = %2
  %10 = landingpad { i8*, i32 }
          cleanup
  %11 = extractvalue { i8*, i32 } %10, 0
  store i8* %11, i8** %5, align 8
  %12 = extractvalue { i8*, i32 } %10, 1
  store i32 %12, i32* %6, align 4
  call void @_ZN7VariantD1Ev(%struct.Variant* %4) #12
  br label %13

; <label>:13:                                     ; preds = %9
  %14 = load i8*, i8** %5, align 8
  %15 = load i32, i32* %6, align 4
  %16 = insertvalue { i8*, i32 } undef, i8* %14, 0
  %17 = insertvalue { i8*, i32 } %16, i32 %15, 1
  resume { i8*, i32 } %17
}

declare void @_ZN4cdot3var10Arithmetic11unary_minusE7Variant(%struct.Variant* sret, %struct.Variant*) #3

; Function Attrs: ssp uwtable
define dereferenceable(264) %struct.Variant* @_ZN7VariantaSERKS_(%struct.Variant*, %struct.Variant* dereferenceable(264)) #0 align 2 {
  %3 = alloca %"class.std::__1::basic_string"*, align 8
  %4 = alloca i8*, align 8
  %5 = alloca %struct.Variant*, align 8
  %6 = alloca %struct.Variant*, align 8
  %7 = alloca %struct.Variant*, align 8
  store %struct.Variant* %0, %struct.Variant** %6, align 8
  store %struct.Variant* %1, %struct.Variant** %7, align 8
  %8 = load %struct.Variant*, %struct.Variant** %6, align 8
  %9 = load %struct.Variant*, %struct.Variant** %7, align 8
  %10 = getelementptr inbounds %struct.Variant, %struct.Variant* %9, i32 0, i32 4
  %11 = getelementptr inbounds %struct.TypeSpecifier, %struct.TypeSpecifier* %10, i32 0, i32 0
  %12 = load i32, i32* %11, align 8
  switch i32 %12, label %72 [
    i32 0, label %13
    i32 1, label %20
    i32 3, label %27
    i32 2, label %34
    i32 4, label %41
    i32 5, label %52
    i32 6, label %61
    i32 9, label %68
  ]

; <label>:13:                                     ; preds = %2
  %14 = load %struct.Variant*, %struct.Variant** %7, align 8
  %15 = getelementptr inbounds %struct.Variant, %struct.Variant* %14, i32 0, i32 0
  %16 = bitcast %union.anon* %15 to i32*
  %17 = load i32, i32* %16, align 8
  %18 = getelementptr inbounds %struct.Variant, %struct.Variant* %8, i32 0, i32 0
  %19 = bitcast %union.anon* %18 to i32*
  store i32 %17, i32* %19, align 8
  br label %73

; <label>:20:                                     ; preds = %2
  %21 = load %struct.Variant*, %struct.Variant** %7, align 8
  %22 = getelementptr inbounds %struct.Variant, %struct.Variant* %21, i32 0, i32 0
  %23 = bitcast %union.anon* %22 to i64*
  %24 = load i64, i64* %23, align 8
  %25 = getelementptr inbounds %struct.Variant, %struct.Variant* %8, i32 0, i32 0
  %26 = bitcast %union.anon* %25 to i64*
  store i64 %24, i64* %26, align 8
  br label %73

; <label>:27:                                     ; preds = %2
  %28 = load %struct.Variant*, %struct.Variant** %7, align 8
  %29 = getelementptr inbounds %struct.Variant, %struct.Variant* %28, i32 0, i32 0
  %30 = bitcast %union.anon* %29 to double*
  %31 = load double, double* %30, align 8
  %32 = getelementptr inbounds %struct.Variant, %struct.Variant* %8, i32 0, i32 0
  %33 = bitcast %union.anon* %32 to double*
  store double %31, double* %33, align 8
  br label %73

; <label>:34:                                     ; preds = %2
  %35 = load %struct.Variant*, %struct.Variant** %7, align 8
  %36 = getelementptr inbounds %struct.Variant, %struct.Variant* %35, i32 0, i32 0
  %37 = bitcast %union.anon* %36 to float*
  %38 = load float, float* %37, align 8
  %39 = getelementptr inbounds %struct.Variant, %struct.Variant* %8, i32 0, i32 0
  %40 = bitcast %union.anon* %39 to float*
  store float %38, float* %40, align 8
  br label %73

; <label>:41:                                     ; preds = %2
  %42 = load %struct.Variant*, %struct.Variant** %7, align 8
  %43 = getelementptr inbounds %struct.Variant, %struct.Variant* %42, i32 0, i32 4
  %44 = getelementptr inbounds %struct.TypeSpecifier, %struct.TypeSpecifier* %43, i32 0, i32 7
  %45 = load i64, i64* %44, align 8
  %46 = getelementptr inbounds %struct.Variant, %struct.Variant* %8, i32 0, i32 4
  %47 = getelementptr inbounds %struct.TypeSpecifier, %struct.TypeSpecifier* %46, i32 0, i32 7
  store i64 %45, i64* %47, align 8
  %48 = getelementptr inbounds %struct.Variant, %struct.Variant* %8, i32 0, i32 3
  %49 = load %struct.Variant*, %struct.Variant** %7, align 8
  %50 = getelementptr inbounds %struct.Variant, %struct.Variant* %49, i32 0, i32 3
  %51 = call dereferenceable(24) %"class.std::__1::basic_string"* @_ZNSt3__112basic_stringIcNS_11char_traitsIcEENS_9allocatorIcEEEaSERKS5_(%"class.std::__1::basic_string"* %48, %"class.std::__1::basic_string"* dereferenceable(24) %50)
  br label %73

; <label>:52:                                     ; preds = %2
  %53 = load %struct.Variant*, %struct.Variant** %7, align 8
  %54 = getelementptr inbounds %struct.Variant, %struct.Variant* %53, i32 0, i32 0
  %55 = bitcast %union.anon* %54 to i8*
  %56 = load i8, i8* %55, align 8
  %57 = trunc i8 %56 to i1
  %58 = getelementptr inbounds %struct.Variant, %struct.Variant* %8, i32 0, i32 0
  %59 = bitcast %union.anon* %58 to i8*
  %60 = zext i1 %57 to i8
  store i8 %60, i8* %59, align 8
  br label %61

; <label>:61:                                     ; preds = %2, %52
  %62 = load %struct.Variant*, %struct.Variant** %7, align 8
  %63 = getelementptr inbounds %struct.Variant, %struct.Variant* %62, i32 0, i32 0
  %64 = bitcast %union.anon* %63 to i8*
  %65 = load i8, i8* %64, align 8
