; ModuleID = '/Users/Jonas/CLionProjects/HackerRank/XtremeJonasScript/src/AST/Expression/Expression.cpp'
source_filename = "/Users/Jonas/CLionProjects/HackerRank/XtremeJonasScript/src/AST/Expression/Expression.cpp"
target datalayout = "e-m:o-i64:64-f80:128-n8:16:32:64-S128"
target triple = "x86_64-apple-macosx10.12.0"

%class.Expression = type { %class.Statement.base, %"class.std::__1::shared_ptr", i8, %"class.std::__1::shared_ptr", i8, %"class.std::__1::unique_ptr.26", i8, %struct.TypeSpecifier }
%class.Statement.base = type { %class.AstNode.base }
%class.AstNode.base = type <{ i32 (...)**, i32, i32, i64, %class.AstNode*, %class.DeclStmt*, i8, [3 x i8], i32, %"class.std::__1::vector", %struct.TypeSpecifier, %struct.TypeSpecifier, i8, [7 x i8], %"class.std::__1::basic_string", i8, i8 }>
%class.AstNode = type <{ i32 (...)**, i32, i32, i64, %class.AstNode*, %class.DeclStmt*, i8, [3 x i8], i32, %"class.std::__1::vector", %struct.TypeSpecifier, %struct.TypeSpecifier, i8, [7 x i8], %"class.std::__1::basic_string", i8, i8, [6 x i8] }>
%class.DeclStmt = type opaque
%"class.std::__1::vector" = type { %"class.std::__1::__vector_base" }
%"class.std::__1::__vector_base" = type { %"class.std::__1::basic_string"*, %"class.std::__1::basic_string"*, %"class.std::__1::__compressed_pair.1" }
%"class.std::__1::__compressed_pair.1" = type { %"class.std::__1::__libcpp_compressed_pair_imp.2" }
%"class.std::__1::__libcpp_compressed_pair_imp.2" = type { %"class.std::__1::basic_string"* }
%"class.std::__1::basic_string" = type { %"class.std::__1::__compressed_pair" }
%"class.std::__1::__compressed_pair" = type { %"class.std::__1::__libcpp_compressed_pair_imp" }
%"class.std::__1::__libcpp_compressed_pair_imp" = type { %"struct.std::__1::basic_string<char, std::__1::char_traits<char>, std::__1::allocator<char> >::__rep" }
%"struct.std::__1::basic_string<char, std::__1::char_traits<char>, std::__1::allocator<char> >::__rep" = type { %union.anon }
%union.anon = type { %"struct.std::__1::basic_string<char, std::__1::char_traits<char>, std::__1::allocator<char> >::__long" }
%"struct.std::__1::basic_string<char, std::__1::char_traits<char>, std::__1::allocator<char> >::__long" = type { i64, i64, i8* }
%"class.std::__1::shared_ptr" = type { %class.Expression*, %"class.std::__1::__shared_weak_count"* }
%"class.std::__1::__shared_weak_count" = type { %"class.std::__1::__shared_count", i64 }
%"class.std::__1::__shared_count" = type { i32 (...)**, i64 }
%"class.std::__1::unique_ptr.26" = type { %"class.std::__1::__compressed_pair.27" }
%"class.std::__1::__compressed_pair.27" = type { %"class.std::__1::__libcpp_compressed_pair_imp.28" }
%"class.std::__1::__libcpp_compressed_pair_imp.28" = type { %struct.Variant* }
%struct.Variant = type <{ %union.anon.29, i8, [7 x i8], %"class.std::__1::basic_string", %struct.TypeSpecifier, i8, i8, i8, [5 x i8] }>
%union.anon.29 = type { i64 }
%struct.TypeSpecifier = type { i32, %"class.std::__1::basic_string", %"class.std::__1::shared_ptr", i8, i8, i8, i8, i64, i32, i8, i8, %"class.std::__1::basic_string", i8, [7 x i8], %"class.std::__1::unordered_map", i8, i8, i8, i8, i8, i8, i8, i32, %"class.std::__1::vector", %"class.std::__1::vector.19", %union.anon.25 }
%"class.std::__1::unordered_map" = type { %"class.std::__1::__hash_table" }
%"class.std::__1::__hash_table" = type <{ %"class.std::__1::unique_ptr", %"class.std::__1::__compressed_pair.11", %"class.std::__1::__compressed_pair.15", %"class.std::__1::__compressed_pair.17", [4 x i8] }>
%"class.std::__1::unique_ptr" = type { %"class.std::__1::__compressed_pair.5" }
%"class.std::__1::__compressed_pair.5" = type { %"class.std::__1::__libcpp_compressed_pair_imp.6" }
%"class.std::__1::__libcpp_compressed_pair_imp.6" = type { %"struct.std::__1::__hash_node_base"**, %"class.std::__1::__bucket_list_deallocator" }
%"struct.std::__1::__hash_node_base" = type { %"struct.std::__1::__hash_node_base"* }
%"class.std::__1::__bucket_list_deallocator" = type { %"class.std::__1::__compressed_pair.7" }
%"class.std::__1::__compressed_pair.7" = type { %"class.std::__1::__libcpp_compressed_pair_imp.8" }
%"class.std::__1::__libcpp_compressed_pair_imp.8" = type { i64 }
%"class.std::__1::__compressed_pair.11" = type { %"class.std::__1::__libcpp_compressed_pair_imp.12" }
%"class.std::__1::__libcpp_compressed_pair_imp.12" = type { %"struct.std::__1::__hash_node_base" }
%"class.std::__1::__compressed_pair.15" = type { %"class.std::__1::__libcpp_compressed_pair_imp.16" }
%"class.std::__1::__libcpp_compressed_pair_imp.16" = type { i64 }
%"class.std::__1::__compressed_pair.17" = type { %"class.std::__1::__libcpp_compressed_pair_imp.18" }
%"class.std::__1::__libcpp_compressed_pair_imp.18" = type { float }
%"class.std::__1::vector.19" = type { %"class.std::__1::__vector_base.20" }
%"class.std::__1::__vector_base.20" = type { %struct.TypeSpecifier*, %struct.TypeSpecifier*, %"class.std::__1::__compressed_pair.21" }
%"class.std::__1::__compressed_pair.21" = type { %"class.std::__1::__libcpp_compressed_pair_imp.22" }
%"class.std::__1::__libcpp_compressed_pair_imp.22" = type { %struct.TypeSpecifier* }
%union.anon.25 = type { %struct.TypeSpecifier* }
%"struct.std::__1::default_delete" = type { i8 }
%class.Statement = type { %class.AstNode.base, [6 x i8] }
%"class.std::__1::vector.30" = type { %"class.std::__1::__vector_base.31" }
%"class.std::__1::__vector_base.31" = type { %"class.std::__1::shared_ptr.32"*, %"class.std::__1::shared_ptr.32"*, %"class.std::__1::__compressed_pair.33" }
%"class.std::__1::shared_ptr.32" = type { %class.AstNode*, %"class.std::__1::__shared_weak_count"* }
%"class.std::__1::__compressed_pair.33" = type { %"class.std::__1::__libcpp_compressed_pair_imp.34" }
%"class.std::__1::__libcpp_compressed_pair_imp.34" = type { %"class.std::__1::shared_ptr.32"* }
%"class.std::initializer_list" = type { %"class.std::__1::shared_ptr.32"*, i64 }
%"class.std::__1::allocator.35" = type { i8 }
%"class.std::__1::__vector_base_common" = type { i8 }
%"struct.std::__1::shared_ptr<AstNode>::__nat" = type { i32 }
%"class.std::__1::__wrap_iter" = type { %"class.std::__1::shared_ptr.32"* }
%"struct.std::__1::integral_constant.257" = type { i8 }
%class.Visitor = type { i32 (...)** }
%struct.CGValue = type { %"class.llvm::Value"*, i8, i64, i8, i8, i8, i32 }
%"class.llvm::Value" = type { i32 (...)**, %"class.llvm::Type"*, %"class.llvm::Use"*, i8, i8, i16, i32 }
%"class.llvm::Type" = type { %"class.llvm::LLVMContext"*, i32, i32, %"class.llvm::Type"** }
%"class.llvm::LLVMContext" = type { %"class.llvm::LLVMContextImpl"* }
%"class.llvm::LLVMContextImpl" = type opaque
%"class.llvm::Use" = type { %"class.llvm::Value"*, %"class.llvm::Use"*, %"class.llvm::PointerIntPair" }
%"class.llvm::PointerIntPair" = type { i64 }
%class.CodeGenVisitor = type { i32 (...)**, %"class.std::__1::vector.37", %"class.std::__1::vector.57", %"class.std::__1::vector.63", %"class.std::__1::vector.63", %"class.std::__1::unordered_map.78", %"class.std::__1::unordered_map.100", i8, [7 x i8], %"class.std::__1::unordered_map.122", %"class.std::__1::unordered_map.148", %"class.std::__1::unordered_map.170", %"class.std::__1::unordered_map.170", %"class.llvm::ConstantInt"*, %"class.llvm::ConstantInt"*, %"class.llvm::ConstantInt"*, %"class.llvm::ConstantInt"*, %"class.std::__1::unordered_map.193", %"class.std::__1::vector" }
%"class.std::__1::vector.37" = type { %"class.std::__1::__vector_base.38" }
%"class.std::__1::__vector_base.38" = type { %"class.llvm::Function"**, %"class.llvm::Function"**, %"class.std::__1::__compressed_pair.53" }
%"class.llvm::Function" = type { %"class.llvm::GlobalObject", %"class.llvm::ilist_node", %"class.llvm::SymbolTableList", %"class.llvm::SymbolTableList.40", %"class.std::__1::unique_ptr.48", %"class.llvm::AttributeSet" }
%"class.llvm::GlobalObject" = type { %"class.llvm::GlobalValue", %"class.llvm::Comdat"* }
%"class.llvm::GlobalValue" = type { %"class.llvm::Constant", %"class.llvm::Type"*, i32, i32, %"class.llvm::Module"* }
%"class.llvm::Constant" = type { %"class.llvm::User" }
%"class.llvm::User" = type { %"class.llvm::Value" }
%"class.llvm::Module" = type opaque
%"class.llvm::Comdat" = type opaque
%"class.llvm::ilist_node" = type { %"class.llvm::ilist_node_impl" }
%"class.llvm::ilist_node_impl" = type { %"class.llvm::ilist_node_base" }
%"class.llvm::ilist_node_base" = type { %"class.llvm::ilist_node_base"*, %"class.llvm::ilist_node_base"* }
%"class.llvm::SymbolTableList" = type { %"class.llvm::iplist_impl" }
%"class.llvm::iplist_impl" = type { %"class.llvm::simple_ilist" }
%"class.llvm::simple_ilist" = type { %"class.llvm::ilist_sentinel" }
%"class.llvm::ilist_sentinel" = type { %"class.llvm::ilist_node_impl.39" }
%"class.llvm::ilist_node_impl.39" = type { %"class.llvm::ilist_node_base" }
%"class.llvm::SymbolTableList.40" = type { %"class.llvm::iplist_impl.41" }
%"class.llvm::iplist_impl.41" = type { %"class.llvm::simple_ilist.44" }
%"class.llvm::simple_ilist.44" = type { %"class.llvm::ilist_sentinel.46" }
%"class.llvm::ilist_sentinel.46" = type { %"class.llvm::ilist_node_impl.47" }
%"class.llvm::ilist_node_impl.47" = type { %"class.llvm::ilist_node_base" }
%"class.std::__1::unique_ptr.48" = type { %"class.std::__1::__compressed_pair.49" }
%"class.std::__1::__compressed_pair.49" = type { %"class.std::__1::__libcpp_compressed_pair_imp.50" }
%"class.std::__1::__libcpp_compressed_pair_imp.50" = type { %"class.llvm::ValueSymbolTable"* }
%"class.llvm::ValueSymbolTable" = type opaque
%"class.llvm::AttributeSet" = type { %"class.llvm::AttributeSetImpl"* }
%"class.llvm::AttributeSetImpl" = type opaque
%"class.std::__1::__compressed_pair.53" = type { %"class.std::__1::__libcpp_compressed_pair_imp.54" }
%"class.std::__1::__libcpp_compressed_pair_imp.54" = type { %"class.llvm::Function"** }
%"class.std::__1::vector.57" = type { %"class.std::__1::__vector_base.58" }
%"class.std::__1::__vector_base.58" = type { %struct.CGValue**, %struct.CGValue**, %"class.std::__1::__compressed_pair.59" }
%"class.std::__1::__compressed_pair.59" = type { %"class.std::__1::__libcpp_compressed_pair_imp.60" }
%"class.std::__1::__libcpp_compressed_pair_imp.60" = type { %struct.CGValue** }
%"class.std::__1::vector.63" = type { %"class.std::__1::__vector_base.64" }
%"class.std::__1::__vector_base.64" = type { %"class.llvm::BasicBlock"**, %"class.llvm::BasicBlock"**, %"class.std::__1::__compressed_pair.74" }
%"class.llvm::BasicBlock" = type { %"class.llvm::Value", %"class.llvm::ilist_node_with_parent", %"class.llvm::SymbolTableList.66", %"class.llvm::Function"* }
%"class.llvm::ilist_node_with_parent" = type { %"class.llvm::ilist_node.65" }
%"class.llvm::ilist_node.65" = type { %"class.llvm::ilist_node_impl.39" }
%"class.llvm::SymbolTableList.66" = type { %"class.llvm::iplist_impl.67" }
%"class.llvm::iplist_impl.67" = type { %"class.llvm::simple_ilist.70" }
%"class.llvm::simple_ilist.70" = type { %"class.llvm::ilist_sentinel.72" }
%"class.llvm::ilist_sentinel.72" = type { %"class.llvm::ilist_node_impl.73" }
%"class.llvm::ilist_node_impl.73" = type { %"class.llvm::ilist_node_base" }
%"class.std::__1::__compressed_pair.74" = type { %"class.std::__1::__libcpp_compressed_pair_imp.75" }
%"class.std::__1::__libcpp_compressed_pair_imp.75" = type { %"class.llvm::BasicBlock"** }
%"class.std::__1::unordered_map.78" = type { %"class.std::__1::__hash_table.79" }
%"class.std::__1::__hash_table.79" = type <{ %"class.std::__1::unique_ptr.80", %"class.std::__1::__compressed_pair.89", %"class.std::__1::__compressed_pair.93", %"class.std::__1::__compressed_pair.96", [4 x i8] }>
%"class.std::__1::unique_ptr.80" = type { %"class.std::__1::__compressed_pair.81" }
%"class.std::__1::__compressed_pair.81" = type { %"class.std::__1::__libcpp_compressed_pair_imp.82" }
%"class.std::__1::__libcpp_compressed_pair_imp.82" = type { %"struct.std::__1::__hash_node_base.83"**, %"class.std::__1::__bucket_list_deallocator.84" }
%"struct.std::__1::__hash_node_base.83" = type { %"struct.std::__1::__hash_node_base.83"* }
%"class.std::__1::__bucket_list_deallocator.84" = type { %"class.std::__1::__compressed_pair.85" }
%"class.std::__1::__compressed_pair.85" = type { %"class.std::__1::__libcpp_compressed_pair_imp.86" }
%"class.std::__1::__libcpp_compressed_pair_imp.86" = type { i64 }
%"class.std::__1::__compressed_pair.89" = type { %"class.std::__1::__libcpp_compressed_pair_imp.90" }
%"class.std::__1::__libcpp_compressed_pair_imp.90" = type { %"struct.std::__1::__hash_node_base.83" }
%"class.std::__1::__compressed_pair.93" = type { %"class.std::__1::__libcpp_compressed_pair_imp.94" }
%"class.std::__1::__libcpp_compressed_pair_imp.94" = type { i64 }
%"class.std::__1::__compressed_pair.96" = type { %"class.std::__1::__libcpp_compressed_pair_imp.97" }
%"class.std::__1::__libcpp_compressed_pair_imp.97" = type { float }
%"class.std::__1::unordered_map.100" = type { %"class.std::__1::__hash_table.101" }
%"class.std::__1::__hash_table.101" = type <{ %"class.std::__1::unique_ptr.102", %"class.std::__1::__compressed_pair.111", %"class.std::__1::__compressed_pair.115", %"class.std::__1::__compressed_pair.118", [4 x i8] }>
%"class.std::__1::unique_ptr.102" = type { %"class.std::__1::__compressed_pair.103" }
%"class.std::__1::__compressed_pair.103" = type { %"class.std::__1::__libcpp_compressed_pair_imp.104" }
%"class.std::__1::__libcpp_compressed_pair_imp.104" = type { %"struct.std::__1::__hash_node_base.105"**, %"class.std::__1::__bucket_list_deallocator.106" }
%"struct.std::__1::__hash_node_base.105" = type { %"struct.std::__1::__hash_node_base.105"* }
%"class.std::__1::__bucket_list_deallocator.106" = type { %"class.std::__1::__compressed_pair.107" }
%"class.std::__1::__compressed_pair.107" = type { %"class.std::__1::__libcpp_compressed_pair_imp.108" }
%"class.std::__1::__libcpp_compressed_pair_imp.108" = type { i64 }
%"class.std::__1::__compressed_pair.111" = type { %"class.std::__1::__libcpp_compressed_pair_imp.112" }
%"class.std::__1::__libcpp_compressed_pair_imp.112" = type { %"struct.std::__1::__hash_node_base.105" }
%"class.std::__1::__compressed_pair.115" = type { %"class.std::__1::__libcpp_compressed_pair_imp.116" }
%"class.std::__1::__libcpp_compressed_pair_imp.116" = type { i64 }
%"class.std::__1::__compressed_pair.118" = type { %"class.std::__1::__libcpp_compressed_pair_imp.119" }
%"class.std::__1::__libcpp_compressed_pair_imp.119" = type { float }
%"class.std::__1::unordered_map.122" = type { %"class.std::__1::__hash_table.123" }
%"class.std::__1::__hash_table.123" = type <{ %"class.std::__1::unique_ptr.124", %"class.std::__1::__compressed_pair.133", %"class.std::__1::__compressed_pair.137", %"class.std::__1::__compressed_pair.142", [4 x i8] }>
%"class.std::__1::unique_ptr.124" = type { %"class.std::__1::__compressed_pair.125" }
%"class.std::__1::__compressed_pair.125" = type { %"class.std::__1::__libcpp_compressed_pair_imp.126" }
%"class.std::__1::__libcpp_compressed_pair_imp.126" = type { %"struct.std::__1::__hash_node_base.127"**, %"class.std::__1::__bucket_list_deallocator.128" }
%"struct.std::__1::__hash_node_base.127" = type { %"struct.std::__1::__hash_node_base.127"* }
%"class.std::__1::__bucket_list_deallocator.128" = type { %"class.std::__1::__compressed_pair.129" }
%"class.std::__1::__compressed_pair.129" = type { %"class.std::__1::__libcpp_compressed_pair_imp.130" }
%"class.std::__1::__libcpp_compressed_pair_imp.130" = type { i64 }
%"class.std::__1::__compressed_pair.133" = type { %"class.std::__1::__libcpp_compressed_pair_imp.134" }
%"class.std::__1::__libcpp_compressed_pair_imp.134" = type { %"struct.std::__1::__hash_node_base.127" }
%"class.std::__1::__compressed_pair.137" = type { %"class.std::__1::__libcpp_compressed_pair_imp.138" }
%"class.std::__1::__libcpp_compressed_pair_imp.138" = type { i64 }
%"class.std::__1::__compressed_pair.142" = type { %"class.std::__1::__libcpp_compressed_pair_imp.143" }
%"class.std::__1::__libcpp_compressed_pair_imp.143" = type { float }
%"class.std::__1::unordered_map.148" = type { %"class.std::__1::__hash_table.149" }
%"class.std::__1::__hash_table.149" = type <{ %"class.std::__1::unique_ptr.150", %"class.std::__1::__compressed_pair.159", %"class.std::__1::__compressed_pair.163", %"class.std::__1::__compressed_pair.166", [4 x i8] }>
%"class.std::__1::unique_ptr.150" = type { %"class.std::__1::__compressed_pair.151" }
%"class.std::__1::__compressed_pair.151" = type { %"class.std::__1::__libcpp_compressed_pair_imp.152" }
%"class.std::__1::__libcpp_compressed_pair_imp.152" = type { %"struct.std::__1::__hash_node_base.153"**, %"class.std::__1::__bucket_list_deallocator.154" }
%"struct.std::__1::__hash_node_base.153" = type { %"struct.std::__1::__hash_node_base.153"* }
%"class.std::__1::__bucket_list_deallocator.154" = type { %"class.std::__1::__compressed_pair.155" }
%"class.std::__1::__compressed_pair.155" = type { %"class.std::__1::__libcpp_compressed_pair_imp.156" }
%"class.std::__1::__libcpp_compressed_pair_imp.156" = type { i64 }
%"class.std::__1::__compressed_pair.159" = type { %"class.std::__1::__libcpp_compressed_pair_imp.160" }
%"class.std::__1::__libcpp_compressed_pair_imp.160" = type { %"struct.std::__1::__hash_node_base.153" }
%"class.std::__1::__compressed_pair.163" = type { %"class.std::__1::__libcpp_compressed_pair_imp.164" }
%"class.std::__1::__libcpp_compressed_pair_imp.164" = type { i64 }
%"class.std::__1::__compressed_pair.166" = type { %"class.std::__1::__libcpp_compressed_pair_imp.167" }
%"class.std::__1::__libcpp_compressed_pair_imp.167" = type { float }
%"class.std::__1::unordered_map.170" = type { %"class.std::__1::__hash_table.171" }
%"class.std::__1::__hash_table.171" = type <{ %"class.std::__1::unique_ptr.172", %"class.std::__1::__compressed_pair.181", %"class.std::__1::__compressed_pair.185", %"class.std::__1::__compressed_pair.188", [4 x i8] }>
%"class.std::__1::unique_ptr.172" = type { %"class.std::__1::__compressed_pair.173" }
%"class.std::__1::__compressed_pair.173" = type { %"class.std::__1::__libcpp_compressed_pair_imp.174" }
%"class.std::__1::__libcpp_compressed_pair_imp.174" = type { %"struct.std::__1::__hash_node_base.175"**, %"class.std::__1::__bucket_list_deallocator.176" }
%"struct.std::__1::__hash_node_base.175" = type { %"struct.std::__1::__hash_node_base.175"* }
%"class.std::__1::__bucket_list_deallocator.176" = type { %"class.std::__1::__compressed_pair.177" }
%"class.std::__1::__compressed_pair.177" = type { %"class.std::__1::__libcpp_compressed_pair_imp.178" }
%"class.std::__1::__libcpp_compressed_pair_imp.178" = type { i64 }
%"class.std::__1::__compressed_pair.181" = type { %"class.std::__1::__libcpp_compressed_pair_imp.182" }
%"class.std::__1::__libcpp_compressed_pair_imp.182" = type { %"struct.std::__1::__hash_node_base.175" }
%"class.std::__1::__compressed_pair.185" = type { %"class.std::__1::__libcpp_compressed_pair_imp.186" }
%"class.std::__1::__libcpp_compressed_pair_imp.186" = type { i64 }
%"class.std::__1::__compressed_pair.188" = type { %"class.std::__1::__libcpp_compressed_pair_imp.189" }
%"class.std::__1::__libcpp_compressed_pair_imp.189" = type { float }
%"class.llvm::ConstantInt" = type { %"class.llvm::ConstantData", %"class.llvm::APInt" }
%"class.llvm::ConstantData" = type { %"class.llvm::Constant" }
%"class.llvm::APInt" = type { i32, %union.anon.192 }
%union.anon.192 = type { i64 }
%"class.std::__1::unordered_map.193" = type { %"class.std::__1::__hash_table.194" }
%"class.std::__1::__hash_table.194" = type <{ %"class.std::__1::unique_ptr.195", %"class.std::__1::__compressed_pair.204", %"class.std::__1::__compressed_pair.208", %"class.std::__1::__compressed_pair.211", [4 x i8] }>
%"class.std::__1::unique_ptr.195" = type { %"class.std::__1::__compressed_pair.196" }
%"class.std::__1::__compressed_pair.196" = type { %"class.std::__1::__libcpp_compressed_pair_imp.197" }
%"class.std::__1::__libcpp_compressed_pair_imp.197" = type { %"struct.std::__1::__hash_node_base.198"**, %"class.std::__1::__bucket_list_deallocator.199" }
%"struct.std::__1::__hash_node_base.198" = type { %"struct.std::__1::__hash_node_base.198"* }
%"class.std::__1::__bucket_list_deallocator.199" = type { %"class.std::__1::__compressed_pair.200" }
%"class.std::__1::__compressed_pair.200" = type { %"class.std::__1::__libcpp_compressed_pair_imp.201" }
%"class.std::__1::__libcpp_compressed_pair_imp.201" = type { i64 }
%"class.std::__1::__compressed_pair.204" = type { %"class.std::__1::__libcpp_compressed_pair_imp.205" }
%"class.std::__1::__libcpp_compressed_pair_imp.205" = type { %"struct.std::__1::__hash_node_base.198" }
%"class.std::__1::__compressed_pair.208" = type { %"class.std::__1::__libcpp_compressed_pair_imp.209" }
%"class.std::__1::__libcpp_compressed_pair_imp.209" = type { i64 }
%"class.std::__1::__compressed_pair.211" = type { %"class.std::__1::__libcpp_compressed_pair_imp.212" }
%"class.std::__1::__libcpp_compressed_pair_imp.212" = type { float }
%class.TypeCheckVisitor = type { i32 (...)**, %"class.std::__1::unordered_multimap", %"class.std::__1::unordered_map.215", i8, i8, %"class.std::__1::basic_string", %class.TypeCheckVisitor*, %"class.std::__1::vector.237", %"class.std::__1::basic_string", %"class.std::__1::vector.243", %"class.std::__1::basic_string", %"class.std::__1::basic_string", %"class.std::__1::vector", %struct.TypeSpecifier, i8, i8, i8, %"class.std::__1::vector.249", %"class.std::__1::vector.19", %"class.std::__1::vector", i8, %struct.TypeSpecifier, i8, i32, i32, i8, i8, i8, i8, i32, %"class.std::__1::vector" }
%"class.std::__1::unordered_multimap" = type { %"class.std::__1::__hash_table" }
%"class.std::__1::unordered_map.215" = type { %"class.std::__1::__hash_table.216" }
%"class.std::__1::__hash_table.216" = type <{ %"class.std::__1::unique_ptr.217", %"class.std::__1::__compressed_pair.226", %"class.std::__1::__compressed_pair.230", %"class.std::__1::__compressed_pair.233", [4 x i8] }>
%"class.std::__1::unique_ptr.217" = type { %"class.std::__1::__compressed_pair.218" }
%"class.std::__1::__compressed_pair.218" = type { %"class.std::__1::__libcpp_compressed_pair_imp.219" }
%"class.std::__1::__libcpp_compressed_pair_imp.219" = type { %"struct.std::__1::__hash_node_base.220"**, %"class.std::__1::__bucket_list_deallocator.221" }
%"struct.std::__1::__hash_node_base.220" = type { %"struct.std::__1::__hash_node_base.220"* }
%"class.std::__1::__bucket_list_deallocator.221" = type { %"class.std::__1::__compressed_pair.222" }
%"class.std::__1::__compressed_pair.222" = type { %"class.std::__1::__libcpp_compressed_pair_imp.223" }
%"class.std::__1::__libcpp_compressed_pair_imp.223" = type { i64 }
%"class.std::__1::__compressed_pair.226" = type { %"class.std::__1::__libcpp_compressed_pair_imp.227" }
%"class.std::__1::__libcpp_compressed_pair_imp.227" = type { %"struct.std::__1::__hash_node_base.220" }
%"class.std::__1::__compressed_pair.230" = type { %"class.std::__1::__libcpp_compressed_pair_imp.231" }
%"class.std::__1::__libcpp_compressed_pair_imp.231" = type { i64 }
%"class.std::__1::__compressed_pair.233" = type { %"class.std::__1::__libcpp_compressed_pair_imp.234" }
%"class.std::__1::__libcpp_compressed_pair_imp.234" = type { float }
%"class.std::__1::vector.237" = type { %"class.std::__1::__vector_base.238" }
%"class.std::__1::__vector_base.238" = type { %class.TypeCheckVisitor**, %class.TypeCheckVisitor**, %"class.std::__1::__compressed_pair.239" }
%"class.std::__1::__compressed_pair.239" = type { %"class.std::__1::__libcpp_compressed_pair_imp.240" }
%"class.std::__1::__libcpp_compressed_pair_imp.240" = type { %class.TypeCheckVisitor** }
%"class.std::__1::vector.243" = type { %"class.std::__1::__vector_base.244" }
%"class.std::__1::__vector_base.244" = type { %struct.TypeSpecifier**, %struct.TypeSpecifier**, %"class.std::__1::__compressed_pair.245" }
%"class.std::__1::__compressed_pair.245" = type { %"class.std::__1::__libcpp_compressed_pair_imp.246" }
%"class.std::__1::__libcpp_compressed_pair_imp.246" = type { %struct.TypeSpecifier** }
%"class.std::__1::vector.249" = type { %"class.std::__1::__vector_base.250" }
%"class.std::__1::__vector_base.250" = type { %"struct.std::__1::pair"*, %"struct.std::__1::pair"*, %"class.std::__1::__compressed_pair.251" }
%"struct.std::__1::pair" = type { %"class.std::__1::basic_string", %"class.std::__1::basic_string" }
%"class.std::__1::__compressed_pair.251" = type { %"class.std::__1::__libcpp_compressed_pair_imp.252" }
%"class.std::__1::__libcpp_compressed_pair_imp.252" = type { %"struct.std::__1::pair"* }
%"class.std::__1::allocator" = type { i8 }
%"class.std::__1::__unordered_map_equal" = type { i8 }
%"class.std::__1::__unordered_map_hasher" = type { i8 }
%"class.std::__1::allocator.9" = type { i8 }
%"class.std::__1::allocator.13" = type { i8 }
%"class.std::__1::allocator.3" = type { i8 }
%"class.std::__1::allocator.23" = type { i8 }
%"class.std::__1::__basic_string_common" = type { i8 }
%"struct.std::__1::basic_string<char, std::__1::char_traits<char>, std::__1::allocator<char> >::__raw" = type { [3 x i64] }
%"struct.std::__1::hash" = type { i8 }
%"struct.std::__1::equal_to" = type { i8 }
%"struct.std::__1::integral_constant" = type { i8 }
%"struct.std::__1::__has_destroy" = type { i8 }
%"struct.std::__1::pair.255" = type { %"class.std::__1::basic_string", %struct.TypeSpecifier }
%"struct.std::__1::__has_destroy.258" = type { i8 }
%"struct.std::__1::__hash_node" = type { %"struct.std::__1::__hash_node_base", i64, %"union.std::__1::__hash_value_type" }
%"union.std::__1::__hash_value_type" = type { %"struct.std::__1::pair.255" }
%"struct.std::__1::__has_destroy.259" = type { i8 }
%"struct.std::__1::__has_destroy.260" = type { i8 }
%"struct.std::__1::random_access_iterator_tag" = type { i8 }
%"struct.std::__1::__less" = type { i8 }
%"struct.std::__1::__has_construct" = type { i8 }
%"struct.std::__1::vector<std::__1::basic_string<char>, std::__1::allocator<std::__1::basic_string<char> > >::__RAII_IncreaseAnnotator" = type { i8 }
%"struct.std::__1::__has_max_size" = type { i8 }
%"class.std::__1::__hash_const_iterator" = type { %"struct.std::__1::__hash_node_base"* }
%"struct.std::__1::pair.256" = type { %"class.std::__1::basic_string", %struct.TypeSpecifier }
%"class.std::__1::__libcpp_compressed_pair_imp.264" = type { %"struct.std::__1::__hash_node"*, %"class.std::__1::__hash_node_destructor" }
%"class.std::__1::__hash_node_destructor" = type <{ %"class.std::__1::allocator.13"*, i8, [7 x i8] }>
%"class.std::__1::__compressed_pair.263" = type { %"class.std::__1::__libcpp_compressed_pair_imp.264" }
%"class.std::__1::unique_ptr.262" = type { %"class.std::__1::__compressed_pair.263" }
%"class.std::__1::__hash_iterator" = type { %"struct.std::__1::__hash_node_base"* }
%"struct.std::__1::basic_string<char, std::__1::char_traits<char>, std::__1::allocator<char> >::__short" = type { %union.anon.0, [23 x i8] }
%union.anon.0 = type { i8 }
%"struct.std::__1::__murmur2_or_cityhash" = type { i8 }
%"struct.std::__1::pair.261" = type { i64, i64 }
%"struct.std::__1::__has_construct.265" = type { i8 }
%"struct.std::__1::pair.267" = type <{ %"class.std::__1::__hash_iterator", i8, [7 x i8] }>
%"class.std::__1::__hash_map_const_iterator" = type { %"class.std::__1::__hash_const_iterator" }
%"struct.std::__1::__has_select_on_container_copy_construction" = type { i8 }
%"struct.std::__1::__has_select_on_container_copy_construction.266" = type { i8 }
%"struct.std::__1::__has_select_on_container_copy_construction.268" = type { i8 }
%"struct.std::__1::__has_select_on_container_copy_construction.269" = type { i8 }
%"struct.std::__1::__has_construct.271" = type { i8 }
%"struct.std::__1::vector<TypeSpecifier, std::__1::allocator<TypeSpecifier> >::__RAII_IncreaseAnnotator" = type { i8 }
%"struct.std::__1::__has_max_size.270" = type { i8 }
%"struct.std::__1::__has_construct.273" = type { i8 }
%"struct.std::__1::vector<std::__1::shared_ptr<AstNode>, std::__1::allocator<std::__1::shared_ptr<AstNode> > >::__RAII_IncreaseAnnotator" = type { i8 }
%"struct.std::__1::__has_max_size.272" = type { i8 }

@_ZN4llvm24DisableABIBreakingChecksE = external global i32, align 4
@_ZN4llvm30VerifyDisableABIBreakingChecksE = weak hidden global i32* @_ZN4llvm24DisableABIBreakingChecksE, align 8
@_ZTV10Expression = unnamed_addr constant [27 x i8*] [i8* null, i8* bitcast ({ i8*, i8*, i8* }* @_ZTI10Expression to i8*), i8* bitcast (void (%class.Expression*)* @_ZN10ExpressionD1Ev to i8*), i8* bitcast (void (%class.Expression*)* @_ZN10ExpressionD0Ev to i8*), i8* bitcast (void (%"class.std::__1::vector.30"*, %class.Expression*)* @_ZN10Expression12get_childrenEv to i8*), i8* bitcast (void (%class.AstNode*, %class.AstNode*)* @_ZN7AstNode10set_parentEPS_ to i8*), i8* bitcast (%class.AstNode* (%class.AstNode*)* @_ZN7AstNode10get_parentEv to i8*), i8* bitcast (void (%class.AstNode*, i32, i32, i64)* @_ZN7AstNode9set_indexEiim to i8*), i8* bitcast (i32 (%class.AstNode*)* @_ZNK7AstNode9get_startEv to i8*), i8* bitcast (i32 (%class.AstNode*)* @_ZNK7AstNode7get_endEv to i8*), i8* bitcast (void (%class.AstNode*, %"class.std::__1::basic_string"*)* @_ZN7AstNode4bindENSt3__112basic_stringIcNS0_11char_traitsIcEENS0_9allocatorIcEEEE to i8*), i8* bitcast (void (%class.AstNode*, %class.DeclStmt*, i32)* @_ZN7AstNode8set_declEP8DeclStmti to i8*), i8* bitcast (void (%class.AstNode*, %"class.std::__1::vector"*)* @_ZN7AstNode14set_attributesENSt3__16vectorINS0_12basic_stringIcNS0_11char_traitsIcEENS0_9allocatorIcEEEENS5_IS7_EEEE to i8*), i8* bitcast (void (%class.AstNode*, %struct.TypeSpecifier*)* @_ZN7AstNode17set_inferred_typeE13TypeSpecifier to i8*), i8* bitcast (void (%struct.TypeSpecifier*, %class.AstNode*)* @_ZN7AstNode17get_inferred_typeEv to i8*), i8* bitcast (void (%class.AstNode*)* @_ZN7AstNode13alloc_on_heapEv to i8*), i8* bitcast (void (%"class.std::__1::basic_string"*, %class.AstNode*)* @_ZN7AstNode10get_sourceEv to i8*), i8* bitcast (i32 (%class.Expression*)* @_ZN10Expression8get_typeEv to i8*), i8* bitcast (void (%struct.Variant*, %class.Expression*, %class.Visitor*)* @_ZN10Expression6acceptER7Visitor to i8*), i8* bitcast (void (%struct.CGValue*, %class.Expression*, %class.CodeGenVisitor*)* @_ZN10Expression6acceptER14CodeGenVisitor to i8*), i8* bitcast (void (%struct.TypeSpecifier*, %class.Expression*, %class.TypeCheckVisitor*)* @_ZN10Expression6acceptER16TypeCheckVisitor to i8*), i8* bitcast (void (%class.Expression*, i32)* @_ZN10Expression6__dumpEi to i8*), i8* bitcast (void (%class.AstNode*, i32)* @_ZN7AstNode5__tabEi to i8*), i8* bitcast (void (%class.Expression*, %"class.std::__1::shared_ptr"*)* @_ZN10Expression9set_childENSt3__110shared_ptrIS_EE to i8*), i8* bitcast (void (%class.Expression*, i1)* @_ZN10Expression13return_lvalueEb to i8*), i8* bitcast (void (%class.Expression*, i1)* @_ZN10Expression12implicit_refEb to i8*), i8* bitcast (void (%class.Expression*, %"class.std::__1::shared_ptr"*)* @_ZN10Expression15set_member_exprENSt3__110shared_ptrIS_EE to i8*)], align 8
@_ZTVN10__cxxabiv120__si_class_type_infoE = external global i8*
@_ZTS10Expression = constant [13 x i8] c"10Expression\00"
@_ZTS9Statement = linkonce_odr constant [11 x i8] c"9Statement\00"
@_ZTI7AstNode = external constant i8*
@_ZTI9Statement = linkonce_odr constant { i8*, i8*, i8* } { i8* bitcast (i8** getelementptr inbounds (i8*, i8** @_ZTVN10__cxxabiv120__si_class_type_infoE, i64 2) to i8*), i8* getelementptr inbounds ([11 x i8], [11 x i8]* @_ZTS9Statement, i32 0, i32 0), i8* bitcast (i8** @_ZTI7AstNode to i8*) }
@_ZTI10Expression = constant { i8*, i8*, i8* } { i8* bitcast (i8** getelementptr inbounds (i8*, i8** @_ZTVN10__cxxabiv120__si_class_type_infoE, i64 2) to i8*), i8* getelementptr inbounds ([13 x i8], [13 x i8]* @_ZTS10Expression, i32 0, i32 0), i8* bitcast ({ i8*, i8*, i8* }* @_ZTI9Statement to i8*) }
@_ZTV9Statement = linkonce_odr unnamed_addr constant [23 x i8*] [i8* null, i8* bitcast ({ i8*, i8*, i8* }* @_ZTI9Statement to i8*), i8* bitcast (void (%class.Statement*)* @_ZN9StatementD1Ev to i8*), i8* bitcast (void (%class.Statement*)* @_ZN9StatementD0Ev to i8*), i8* bitcast (void (%"class.std::__1::vector.30"*, %class.AstNode*)* @_ZN7AstNode12get_childrenEv to i8*), i8* bitcast (void (%class.AstNode*, %class.AstNode*)* @_ZN7AstNode10set_parentEPS_ to i8*), i8* bitcast (%class.AstNode* (%class.AstNode*)* @_ZN7AstNode10get_parentEv to i8*), i8* bitcast (void (%class.AstNode*, i32, i32, i64)* @_ZN7AstNode9set_indexEiim to i8*), i8* bitcast (i32 (%class.AstNode*)* @_ZNK7AstNode9get_startEv to i8*), i8* bitcast (i32 (%class.AstNode*)* @_ZNK7AstNode7get_endEv to i8*), i8* bitcast (void (%class.AstNode*, %"class.std::__1::basic_string"*)* @_ZN7AstNode4bindENSt3__112basic_stringIcNS0_11char_traitsIcEENS0_9allocatorIcEEEE to i8*), i8* bitcast (void (%class.AstNode*, %class.DeclStmt*, i32)* @_ZN7AstNode8set_declEP8DeclStmti to i8*), i8* bitcast (void (%class.AstNode*, %"class.std::__1::vector"*)* @_ZN7AstNode14set_attributesENSt3__16vectorINS0_12basic_stringIcNS0_11char_traitsIcEENS0_9allocatorIcEEEENS5_IS7_EEEE to i8*), i8* bitcast (void (%class.AstNode*, %struct.TypeSpecifier*)* @_ZN7AstNode17set_inferred_typeE13TypeSpecifier to i8*), i8* bitcast (void (%struct.TypeSpecifier*, %class.AstNode*)* @_ZN7AstNode17get_inferred_typeEv to i8*), i8* bitcast (void (%class.AstNode*)* @_ZN7AstNode13alloc_on_heapEv to i8*), i8* bitcast (void (%"class.std::__1::basic_string"*, %class.AstNode*)* @_ZN7AstNode10get_sourceEv to i8*), i8* bitcast (void ()* @__cxa_pure_virtual to i8*), i8* bitcast (void ()* @__cxa_pure_virtual to i8*), i8* bitcast (void ()* @__cxa_pure_virtual to i8*), i8* bitcast (void ()* @__cxa_pure_virtual to i8*), i8* bitcast (void ()* @__cxa_pure_virtual to i8*), i8* bitcast (void (%class.AstNode*, i32)* @_ZN7AstNode5__tabEi to i8*)], align 8
@_ZTV7AstNode = external unnamed_addr constant [23 x i8*]

; Function Attrs: ssp uwtable
define void @_ZN10ExpressionC2ENSt3__110shared_ptrIS_EE(%class.Expression*, %"class.std::__1::shared_ptr"*) unnamed_addr #0 align 2 personality i8* bitcast (i32 (...)* @__gxx_personality_v0 to i8*) {
  %3 = alloca %"class.std::__1::__libcpp_compressed_pair_imp.28"*, align 8
  %4 = alloca %"class.std::__1::__compressed_pair.27"*, align 8
  %5 = alloca %"class.std::__1::__libcpp_compressed_pair_imp.28"*, align 8
  %6 = alloca %"class.std::__1::__compressed_pair.27"*, align 8
  %7 = alloca %"struct.std::__1::default_delete"*, align 8
  %8 = alloca %struct.Variant*, align 8
  %9 = alloca %"class.std::__1::__libcpp_compressed_pair_imp.28"*, align 8
  %10 = alloca %"class.std::__1::__compressed_pair.27"*, align 8
  %11 = alloca %"class.std::__1::unique_ptr.26"*, align 8
  %12 = alloca %struct.Variant*, align 8
  %13 = alloca %struct.Variant*, align 8
  %14 = alloca %"class.std::__1::unique_ptr.26"*, align 8
  %15 = alloca %"class.std::__1::unique_ptr.26"*, align 8
  %16 = alloca %struct.Variant**, align 8
  %17 = alloca %"class.std::__1::__libcpp_compressed_pair_imp.28"*, align 8
  %18 = alloca %struct.Variant*, align 8
  %19 = alloca %struct.Variant**, align 8
  %20 = alloca %"class.std::__1::__compressed_pair.27"*, align 8
  %21 = alloca %struct.Variant*, align 8
  %22 = alloca %"class.std::__1::__compressed_pair.27"*, align 8
  %23 = alloca %struct.Variant*, align 8
  %24 = alloca %"class.std::__1::unique_ptr.26"*, align 8
  %25 = alloca %"class.std::__1::unique_ptr.26"*, align 8
  %26 = alloca %"class.std::__1::shared_ptr"*, align 8
  %27 = alloca %"class.std::__1::shared_ptr"*, align 8
  %28 = alloca %"class.std::__1::shared_ptr"*, align 8
  %29 = alloca %"class.std::__1::shared_ptr"*, align 8
  %30 = alloca %"class.std::__1::shared_ptr"*, align 8
  %31 = alloca %"class.std::__1::shared_ptr"*, align 8
  %32 = alloca %class.Expression*, align 8
  %33 = alloca i8*
  %34 = alloca i32
  store %class.Expression* %0, %class.Expression** %32, align 8
  %35 = load %class.Expression*, %class.Expression** %32, align 8
  %36 = bitcast %class.Expression* %35 to %class.Statement*
  call void @_ZN9StatementC2Ev(%class.Statement* %36)
  %37 = bitcast %class.Expression* %35 to i32 (...)***
  store i32 (...)** bitcast (i8** getelementptr inbounds ([27 x i8*], [27 x i8*]* @_ZTV10Expression, i32 0, i32 2) to i32 (...)**), i32 (...)*** %37, align 8
  %38 = getelementptr inbounds %class.Expression, %class.Expression* %35, i32 0, i32 1
  store %"class.std::__1::shared_ptr"* %38, %"class.std::__1::shared_ptr"** %30, align 8
  store %"class.std::__1::shared_ptr"* %1, %"class.std::__1::shared_ptr"** %31, align 8
  %39 = load %"class.std::__1::shared_ptr"*, %"class.std::__1::shared_ptr"** %30, align 8
  %40 = load %"class.std::__1::shared_ptr"*, %"class.std::__1::shared_ptr"** %31, align 8
  store %"class.std::__1::shared_ptr"* %39, %"class.std::__1::shared_ptr"** %28, align 8
  store %"class.std::__1::shared_ptr"* %40, %"class.std::__1::shared_ptr"** %29, align 8
  %41 = load %"class.std::__1::shared_ptr"*, %"class.std::__1::shared_ptr"** %28, align 8
  %42 = getelementptr inbounds %"class.std::__1::shared_ptr", %"class.std::__1::shared_ptr"* %41, i32 0, i32 0
  %43 = load %"class.std::__1::shared_ptr"*, %"class.std::__1::shared_ptr"** %29, align 8
  %44 = getelementptr inbounds %"class.std::__1::shared_ptr", %"class.std::__1::shared_ptr"* %43, i32 0, i32 0
  %45 = load %class.Expression*, %class.Expression** %44, align 8
  store %class.Expression* %45, %class.Expression** %42, align 8
  %46 = getelementptr inbounds %"class.std::__1::shared_ptr", %"class.std::__1::shared_ptr"* %41, i32 0, i32 1
  %47 = load %"class.std::__1::shared_ptr"*, %"class.std::__1::shared_ptr"** %29, align 8
  %48 = getelementptr inbounds %"class.std::__1::shared_ptr", %"class.std::__1::shared_ptr"* %47, i32 0, i32 1
  %49 = load %"class.std::__1::__shared_weak_count"*, %"class.std::__1::__shared_weak_count"** %48, align 8
  store %"class.std::__1::__shared_weak_count"* %49, %"class.std::__1::__shared_weak_count"** %46, align 8
  %50 = getelementptr inbounds %"class.std::__1::shared_ptr", %"class.std::__1::shared_ptr"* %41, i32 0, i32 1
  %51 = load %"class.std::__1::__shared_weak_count"*, %"class.std::__1::__shared_weak_count"** %50, align 8
  %52 = icmp ne %"class.std::__1::__shared_weak_count"* %51, null
  br i1 %52, label %53, label %56

; <label>:53:                                     ; preds = %2
  %54 = getelementptr inbounds %"class.std::__1::shared_ptr", %"class.std::__1::shared_ptr"* %41, i32 0, i32 1
  %55 = load %"class.std::__1::__shared_weak_count"*, %"class.std::__1::__shared_weak_count"** %54, align 8
  call void @_ZNSt3__119__shared_weak_count12__add_sharedEv(%"class.std::__1::__shared_weak_count"* %55) #13
  br label %56

; <label>:56:                                     ; preds = %2, %53
  %57 = getelementptr inbounds %class.Expression, %class.Expression* %35, i32 0, i32 2
  store i8 0, i8* %57, align 8
  %58 = getelementptr inbounds %class.Expression, %class.Expression* %35, i32 0, i32 3
  store %"class.std::__1::shared_ptr"* %58, %"class.std::__1::shared_ptr"** %27, align 8
  %59 = load %"class.std::__1::shared_ptr"*, %"class.std::__1::shared_ptr"** %27, align 8
  store %"class.std::__1::shared_ptr"* %59, %"class.std::__1::shared_ptr"** %26, align 8
  %60 = load %"class.std::__1::shared_ptr"*, %"class.std::__1::shared_ptr"** %26, align 8
  %61 = getelementptr inbounds %"class.std::__1::shared_ptr", %"class.std::__1::shared_ptr"* %60, i32 0, i32 0
  store %class.Expression* null, %class.Expression** %61, align 8
  %62 = getelementptr inbounds %"class.std::__1::shared_ptr", %"class.std::__1::shared_ptr"* %60, i32 0, i32 1
  store %"class.std::__1::__shared_weak_count"* null, %"class.std::__1::__shared_weak_count"** %62, align 8
  %63 = getelementptr inbounds %class.Expression, %class.Expression* %35, i32 0, i32 4
  store i8 0, i8* %63, align 8
  %64 = getelementptr inbounds %class.Expression, %class.Expression* %35, i32 0, i32 5
  store %"class.std::__1::unique_ptr.26"* %64, %"class.std::__1::unique_ptr.26"** %25, align 8
  %65 = load %"class.std::__1::unique_ptr.26"*, %"class.std::__1::unique_ptr.26"** %25, align 8
  store %"class.std::__1::unique_ptr.26"* %65, %"class.std::__1::unique_ptr.26"** %24, align 8
  %66 = load %"class.std::__1::unique_ptr.26"*, %"class.std::__1::unique_ptr.26"** %24, align 8
  %67 = getelementptr inbounds %"class.std::__1::unique_ptr.26", %"class.std::__1::unique_ptr.26"* %66, i32 0, i32 0
  store %"class.std::__1::__compressed_pair.27"* %67, %"class.std::__1::__compressed_pair.27"** %22, align 8
  store %struct.Variant* null, %struct.Variant** %23, align 8
  %68 = load %"class.std::__1::__compressed_pair.27"*, %"class.std::__1::__compressed_pair.27"** %22, align 8
  %69 = load %struct.Variant*, %struct.Variant** %23, align 8
  store %"class.std::__1::__compressed_pair.27"* %68, %"class.std::__1::__compressed_pair.27"** %20, align 8
  store %struct.Variant* %69, %struct.Variant** %21, align 8
  %70 = load %"class.std::__1::__compressed_pair.27"*, %"class.std::__1::__compressed_pair.27"** %20, align 8
  %71 = bitcast %"class.std::__1::__compressed_pair.27"* %70 to %"class.std::__1::__libcpp_compressed_pair_imp.28"*
  store %struct.Variant** %21, %struct.Variant*** %19, align 8
  %72 = load %struct.Variant**, %struct.Variant*** %19, align 8
  %73 = load %struct.Variant*, %struct.Variant** %72, align 8
  store %"class.std::__1::__libcpp_compressed_pair_imp.28"* %71, %"class.std::__1::__libcpp_compressed_pair_imp.28"** %17, align 8
  store %struct.Variant* %73, %struct.Variant** %18, align 8
  %74 = load %"class.std::__1::__libcpp_compressed_pair_imp.28"*, %"class.std::__1::__libcpp_compressed_pair_imp.28"** %17, align 8
  %75 = bitcast %"class.std::__1::__libcpp_compressed_pair_imp.28"* %74 to %"struct.std::__1::default_delete"*
  %76 = getelementptr inbounds %"class.std::__1::__libcpp_compressed_pair_imp.28", %"class.std::__1::__libcpp_compressed_pair_imp.28"* %74, i32 0, i32 0
  store %struct.Variant** %18, %struct.Variant*** %16, align 8
  %77 = load %struct.Variant**, %struct.Variant*** %16, align 8
  %78 = load %struct.Variant*, %struct.Variant** %77, align 8
  store %struct.Variant* %78, %struct.Variant** %76, align 8
  %79 = getelementptr inbounds %class.Expression, %class.Expression* %35, i32 0, i32 6
  store i8 0, i8* %79, align 8
  %80 = getelementptr inbounds %class.Expression, %class.Expression* %35, i32 0, i32 7
  invoke void @_ZN13TypeSpecifierC1Ev(%struct.TypeSpecifier* %80)
          to label %81 unwind label %82

; <label>:81:                                     ; preds = %56
  ret void

; <label>:82:                                     ; preds = %56
  %83 = landingpad { i8*, i32 }
          cleanup
  %84 = extractvalue { i8*, i32 } %83, 0
  store i8* %84, i8** %33, align 8
  %85 = extractvalue { i8*, i32 } %83, 1
  store i32 %85, i32* %34, align 4
  store %"class.std::__1::unique_ptr.26"* %64, %"class.std::__1::unique_ptr.26"** %15, align 8
  %86 = load %"class.std::__1::unique_ptr.26"*, %"class.std::__1::unique_ptr.26"** %15, align 8
  store %"class.std::__1::unique_ptr.26"* %86, %"class.std::__1::unique_ptr.26"** %14, align 8
  %87 = load %"class.std::__1::unique_ptr.26"*, %"class.std::__1::unique_ptr.26"** %14, align 8
  store %"class.std::__1::unique_ptr.26"* %87, %"class.std::__1::unique_ptr.26"** %11, align 8
  store %struct.Variant* null, %struct.Variant** %12, align 8
  %88 = load %"class.std::__1::unique_ptr.26"*, %"class.std::__1::unique_ptr.26"** %11, align 8
  %89 = getelementptr inbounds %"class.std::__1::unique_ptr.26", %"class.std::__1::unique_ptr.26"* %88, i32 0, i32 0
  store %"class.std::__1::__compressed_pair.27"* %89, %"class.std::__1::__compressed_pair.27"** %10, align 8
  %90 = load %"class.std::__1::__compressed_pair.27"*, %"class.std::__1::__compressed_pair.27"** %10, align 8
  %91 = bitcast %"class.std::__1::__compressed_pair.27"* %90 to %"class.std::__1::__libcpp_compressed_pair_imp.28"*
  store %"class.std::__1::__libcpp_compressed_pair_imp.28"* %91, %"class.std::__1::__libcpp_compressed_pair_imp.28"** %9, align 8
  %92 = load %"class.std::__1::__libcpp_compressed_pair_imp.28"*, %"class.std::__1::__libcpp_compressed_pair_imp.28"** %9, align 8
  %93 = getelementptr inbounds %"class.std::__1::__libcpp_compressed_pair_imp.28", %"class.std::__1::__libcpp_compressed_pair_imp.28"* %92, i32 0, i32 0
  %94 = load %struct.Variant*, %struct.Variant** %93, align 8
  store %struct.Variant* %94, %struct.Variant** %13, align 8
  %95 = load %struct.Variant*, %struct.Variant** %12, align 8
  %96 = getelementptr inbounds %"class.std::__1::unique_ptr.26", %"class.std::__1::unique_ptr.26"* %88, i32 0, i32 0
  store %"class.std::__1::__compressed_pair.27"* %96, %"class.std::__1::__compressed_pair.27"** %6, align 8
  %97 = load %"class.std::__1::__compressed_pair.27"*, %"class.std::__1::__compressed_pair.27"** %6, align 8
  %98 = bitcast %"class.std::__1::__compressed_pair.27"* %97 to %"class.std::__1::__libcpp_compressed_pair_imp.28"*
  store %"class.std::__1::__libcpp_compressed_pair_imp.28"* %98, %"class.std::__1::__libcpp_compressed_pair_imp.28"** %5, align 8
  %99 = load %"class.std::__1::__libcpp_compressed_pair_imp.28"*, %"class.std::__1::__libcpp_compressed_pair_imp.28"** %5, align 8
  %100 = getelementptr inbounds %"class.std::__1::__libcpp_compressed_pair_imp.28", %"class.std::__1::__libcpp_compressed_pair_imp.28"* %99, i32 0, i32 0
  store %struct.Variant* %95, %struct.Variant** %100, align 8
  %101 = load %struct.Variant*, %struct.Variant** %13, align 8
  %102 = icmp ne %struct.Variant* %101, null
  br i1 %102, label %103, label %116

; <label>:103:                                    ; preds = %82
  %104 = getelementptr inbounds %"class.std::__1::unique_ptr.26", %"class.std::__1::unique_ptr.26"* %88, i32 0, i32 0
  store %"class.std::__1::__compressed_pair.27"* %104, %"class.std::__1::__compressed_pair.27"** %4, align 8
  %105 = load %"class.std::__1::__compressed_pair.27"*, %"class.std::__1::__compressed_pair.27"** %4, align 8
  %106 = bitcast %"class.std::__1::__compressed_pair.27"* %105 to %"class.std::__1::__libcpp_compressed_pair_imp.28"*
  store %"class.std::__1::__libcpp_compressed_pair_imp.28"* %106, %"class.std::__1::__libcpp_compressed_pair_imp.28"** %3, align 8
  %107 = load %"class.std::__1::__libcpp_compressed_pair_imp.28"*, %"class.std::__1::__libcpp_compressed_pair_imp.28"** %3, align 8
  %108 = bitcast %"class.std::__1::__libcpp_compressed_pair_imp.28"* %107 to %"struct.std::__1::default_delete"*
  %109 = load %struct.Variant*, %struct.Variant** %13, align 8
  store %"struct.std::__1::default_delete"* %108, %"struct.std::__1::default_delete"** %7, align 8
  store %struct.Variant* %109, %struct.Variant** %8, align 8
  %110 = load %"struct.std::__1::default_delete"*, %"struct.std::__1::default_delete"** %7, align 8
  %111 = load %struct.Variant*, %struct.Variant** %8, align 8
  %112 = icmp eq %struct.Variant* %111, null
  br i1 %112, label %115, label %113

; <label>:113:                                    ; preds = %103
  call void @_ZN7VariantD1Ev(%struct.Variant* %111) #13
  %114 = bitcast %struct.Variant* %111 to i8*
  call void @_ZdlPv(i8* %114) #14
  br label %115

; <label>:115:                                    ; preds = %113, %103
  br label %116

; <label>:116:                                    ; preds = %82, %115
  call void @_ZNSt3__110shared_ptrI10ExpressionED1Ev(%"class.std::__1::shared_ptr"* %58) #13
  call void @_ZNSt3__110shared_ptrI10ExpressionED1Ev(%"class.std::__1::shared_ptr"* %38) #13
  %117 = bitcast %class.Expression* %35 to %class.Statement*
  call void @_ZN9StatementD2Ev(%class.Statement* %117) #13
  br label %118

; <label>:118:                                    ; preds = %116
  %119 = load i8*, i8** %33, align 8
  %120 = load i32, i32* %34, align 4
  %121 = insertvalue { i8*, i32 } undef, i8* %119, 0
  %122 = insertvalue { i8*, i32 } %121, i32 %120, 1
  resume { i8*, i32 } %122
}

; Function Attrs: inlinehint ssp uwtable
define linkonce_odr void @_ZN9StatementC2Ev(%class.Statement*) unnamed_addr #1 align 2 {
  %2 = alloca %class.Statement*, align 8
  store %class.Statement* %0, %class.Statement** %2, align 8
  %3 = load %class.Statement*, %class.Statement** %2, align 8
  %4 = bitcast %class.Statement* %3 to %class.AstNode*
  call void @_ZN7AstNodeC2Ev(%class.AstNode* %4)
  %5 = bitcast %class.Statement* %3 to i32 (...)***
  store i32 (...)** bitcast (i8** getelementptr inbounds ([23 x i8*], [23 x i8*]* @_ZTV9Statement, i32 0, i32 2) to i32 (...)**), i32 (...)*** %5, align 8
  ret void
}

; Function Attrs: ssp uwtable
define linkonce_odr void @_ZN13TypeSpecifierC1Ev(%struct.TypeSpecifier*) unnamed_addr #0 align 2 {
  %2 = alloca %struct.TypeSpecifier*, align 8
  store %struct.TypeSpecifier* %0, %struct.TypeSpecifier** %2, align 8
  %3 = load %struct.TypeSpecifier*, %struct.TypeSpecifier** %2, align 8
  call void @_ZN13TypeSpecifierC2Ev(%struct.TypeSpecifier* %3)
  ret void
}

declare i32 @__gxx_personality_v0(...)

; Function Attrs: nounwind ssp uwtable
define linkonce_odr void @_ZNSt3__110shared_ptrI10ExpressionED1Ev(%"class.std::__1::shared_ptr"*) unnamed_addr #2 align 2 {
  %2 = alloca %"class.std::__1::shared_ptr"*, align 8
  store %"class.std::__1::shared_ptr"* %0, %"class.std::__1::shared_ptr"** %2, align 8
  %3 = load %"class.std::__1::shared_ptr"*, %"class.std::__1::shared_ptr"** %2, align 8
  call void @_ZNSt3__110shared_ptrI10ExpressionED2Ev(%"class.std::__1::shared_ptr"* %3) #13
  ret void
}

; Function Attrs: inlinehint nounwind ssp uwtable
define linkonce_odr void @_ZN9StatementD2Ev(%class.Statement*) unnamed_addr #3 align 2 {
  %2 = alloca %class.Statement*, align 8
  store %class.Statement* %0, %class.Statement** %2, align 8
  %3 = load %class.Statement*, %class.Statement** %2, align 8
  %4 = bitcast %class.Statement* %3 to %class.AstNode*
  call void @_ZN7AstNodeD2Ev(%class.AstNode* %4) #13
  ret void
}

; Function Attrs: ssp uwtable
define void @_ZN10ExpressionC1ENSt3__110shared_ptrIS_EE(%class.Expression*, %"class.std::__1::shared_ptr"*) unnamed_addr #0 align 2 {
  %3 = alloca %class.Expression*, align 8
  store %class.Expression* %0, %class.Expression** %3, align 8
  %4 = load %class.Expression*, %class.Expression** %3, align 8
  call void @_ZN10ExpressionC2ENSt3__110shared_ptrIS_EE(%class.Expression* %4, %"class.std::__1::shared_ptr"* %1)
  ret void
}

; Function Attrs: ssp uwtable
define void @_ZN10ExpressionC2Ev(%class.Expression*) unnamed_addr #0 align 2 personality i8* bitcast (i32 (...)* @__gxx_personality_v0 to i8*) {
  %2 = alloca %"class.std::__1::__libcpp_compressed_pair_imp.28"*, align 8
  %3 = alloca %"class.std::__1::__compressed_pair.27"*, align 8
  %4 = alloca %"class.std::__1::__libcpp_compressed_pair_imp.28"*, align 8
  %5 = alloca %"class.std::__1::__compressed_pair.27"*, align 8
  %6 = alloca %"struct.std::__1::default_delete"*, align 8
  %7 = alloca %struct.Variant*, align 8
  %8 = alloca %"class.std::__1::__libcpp_compressed_pair_imp.28"*, align 8
  %9 = alloca %"class.std::__1::__compressed_pair.27"*, align 8
  %10 = alloca %"class.std::__1::unique_ptr.26"*, align 8
  %11 = alloca %struct.Variant*, align 8
  %12 = alloca %struct.Variant*, align 8
  %13 = alloca %"class.std::__1::unique_ptr.26"*, align 8
  %14 = alloca %"class.std::__1::unique_ptr.26"*, align 8
  %15 = alloca %struct.Variant**, align 8
  %16 = alloca %"class.std::__1::__libcpp_compressed_pair_imp.28"*, align 8
  %17 = alloca %struct.Variant*, align 8
  %18 = alloca %struct.Variant**, align 8
  %19 = alloca %"class.std::__1::__compressed_pair.27"*, align 8
  %20 = alloca %struct.Variant*, align 8
  %21 = alloca %"class.std::__1::__compressed_pair.27"*, align 8
  %22 = alloca %struct.Variant*, align 8
  %23 = alloca %"class.std::__1::unique_ptr.26"*, align 8
  %24 = alloca %"class.std::__1::unique_ptr.26"*, align 8
  %25 = alloca %"class.std::__1::shared_ptr"*, align 8
  %26 = alloca %"class.std::__1::shared_ptr"*, align 8
  %27 = alloca %"class.std::__1::shared_ptr"*, align 8
  %28 = alloca %"class.std::__1::shared_ptr"*, align 8
  %29 = alloca %class.Expression*, align 8
  %30 = alloca i8*
  %31 = alloca i32
  store %class.Expression* %0, %class.Expression** %29, align 8
  %32 = load %class.Expression*, %class.Expression** %29, align 8
  %33 = bitcast %class.Expression* %32 to %class.Statement*
  call void @_ZN9StatementC2Ev(%class.Statement* %33)
  %34 = bitcast %class.Expression* %32 to i32 (...)***
  store i32 (...)** bitcast (i8** getelementptr inbounds ([27 x i8*], [27 x i8*]* @_ZTV10Expression, i32 0, i32 2) to i32 (...)**), i32 (...)*** %34, align 8
  %35 = getelementptr inbounds %class.Expression, %class.Expression* %32, i32 0, i32 1
  store %"class.std::__1::shared_ptr"* %35, %"class.std::__1::shared_ptr"** %28, align 8
  %36 = load %"class.std::__1::shared_ptr"*, %"class.std::__1::shared_ptr"** %28, align 8
  store %"class.std::__1::shared_ptr"* %36, %"class.std::__1::shared_ptr"** %27, align 8
  %37 = load %"class.std::__1::shared_ptr"*, %"class.std::__1::shared_ptr"** %27, align 8
  %38 = getelementptr inbounds %"class.std::__1::shared_ptr", %"class.std::__1::shared_ptr"* %37, i32 0, i32 0
  store %class.Expression* null, %class.Expression** %38, align 8
  %39 = getelementptr inbounds %"class.std::__1::shared_ptr", %"class.std::__1::shared_ptr"* %37, i32 0, i32 1
  store %"class.std::__1::__shared_weak_count"* null, %"class.std::__1::__shared_weak_count"** %39, align 8
  %40 = getelementptr inbounds %class.Expression, %class.Expression* %32, i32 0, i32 2
  store i8 0, i8* %40, align 8
  %41 = getelementptr inbounds %class.Expression, %class.Expression* %32, i32 0, i32 3
  store %"class.std::__1::shared_ptr"* %41, %"class.std::__1::shared_ptr"** %26, align 8
  %42 = load %"class.std::__1::shared_ptr"*, %"class.std::__1::shared_ptr"** %26, align 8
  store %"class.std::__1::shared_ptr"* %42, %"class.std::__1::shared_ptr"** %25, align 8
  %43 = load %"class.std::__1::shared_ptr"*, %"class.std::__1::shared_ptr"** %25, align 8
  %44 = getelementptr inbounds %"class.std::__1::shared_ptr", %"class.std::__1::shared_ptr"* %43, i32 0, i32 0
  store %class.Expression* null, %class.Expression** %44, align 8
  %45 = getelementptr inbounds %"class.std::__1::shared_ptr", %"class.std::__1::shared_ptr"* %43, i32 0, i32 1
  store %"class.std::__1::__shared_weak_count"* null, %"class.std::__1::__shared_weak_count"** %45, align 8
  %46 = getelementptr inbounds %class.Expression, %class.Expression* %32, i32 0, i32 4
  store i8 0, i8* %46, align 8
  %47 = getelementptr inbounds %class.Expression, %class.Expression* %32, i32 0, i32 5
  store %"class.std::__1::unique_ptr.26"* %47, %"class.std::__1::unique_ptr.26"** %24, align 8
  %48 = load %"class.std::__1::unique_ptr.26"*, %"class.std::__1::unique_ptr.26"** %24, align 8
  store %"class.std::__1::unique_ptr.26"* %48, %"class.std::__1::unique_ptr.26"** %23, align 8
  %49 = load %"class.std::__1::unique_ptr.26"*, %"class.std::__1::unique_ptr.26"** %23, align 8
  %50 = getelementptr inbounds %"class.std::__1::unique_ptr.26", %"class.std::__1::unique_ptr.26"* %49, i32 0, i32 0
  store %"class.std::__1::__compressed_pair.27"* %50, %"class.std::__1::__compressed_pair.27"** %21, align 8
  store %struct.Variant* null, %struct.Variant** %22, align 8
  %51 = load %"class.std::__1::__compressed_pair.27"*, %"class.std::__1::__compressed_pair.27"** %21, align 8
  %52 = load %struct.Variant*, %struct.Variant** %22, align 8
  store %"class.std::__1::__compressed_pair.27"* %51, %"class.std::__1::__compressed_pair.27"** %19, align 8
  store %struct.Variant* %52, %struct.Variant** %20, align 8
  %53 = load %"class.std::__1::__compressed_pair.27"*, %"class.std::__1::__compressed_pair.27"** %19, align 8
  %54 = bitcast %"class.std::__1::__compressed_pair.27"* %53 to %"class.std::__1::__libcpp_compressed_pair_imp.28"*
  store %struct.Variant** %20, %struct.Variant*** %18, align 8
  %55 = load %struct.Variant**, %struct.Variant*** %18, align 8
  %56 = load %struct.Variant*, %struct.Variant** %55, align 8
  store %"class.std::__1::__libcpp_compressed_pair_imp.28"* %54, %"class.std::__1::__libcpp_compressed_pair_imp.28"** %16, align 8
  store %struct.Variant* %56, %struct.Variant** %17, align 8
  %57 = load %"class.std::__1::__libcpp_compressed_pair_imp.28"*, %"class.std::__1::__libcpp_compressed_pair_imp.28"** %16, align 8
  %58 = bitcast %"class.std::__1::__libcpp_compressed_pair_imp.28"* %57 to %"struct.std::__1::default_delete"*
  %59 = getelementptr inbounds %"class.std::__1::__libcpp_compressed_pair_imp.28", %"class.std::__1::__libcpp_compressed_pair_imp.28"* %57, i32 0, i32 0
  store %struct.Variant** %17, %struct.Variant*** %15, align 8
  %60 = load %struct.Variant**, %struct.Variant*** %15, align 8
  %61 = load %struct.Variant*, %struct.Variant** %60, align 8
  store %struct.Variant* %61, %struct.Variant** %59, align 8
  %62 = getelementptr inbounds %class.Expression, %class.Expression* %32, i32 0, i32 6
  store i8 0, i8* %62, align 8
  %63 = getelementptr inbounds %class.Expression, %class.Expression* %32, i32 0, i32 7
  invoke void @_ZN13TypeSpecifierC1Ev(%struct.TypeSpecifier* %63)
          to label %64 unwind label %65

; <label>:64:                                     ; preds = %1
  ret void

; <label>:65:                                     ; preds = %1
  %66 = landingpad { i8*, i32 }
          cleanup
  %67 = extractvalue { i8*, i32 } %66, 0
  store i8* %67, i8** %30, align 8
  %68 = extractvalue { i8*, i32 } %66, 1
  store i32 %68, i32* %31, align 4
  store %"class.std::__1::unique_ptr.26"* %47, %"class.std::__1::unique_ptr.26"** %14, align 8
  %69 = load %"class.std::__1::unique_ptr.26"*, %"class.std::__1::unique_ptr.26"** %14, align 8
  store %"class.std::__1::unique_ptr.26"* %69, %"class.std::__1::unique_ptr.26"** %13, align 8
  %70 = load %"class.std::__1::unique_ptr.26"*, %"class.std::__1::unique_ptr.26"** %13, align 8
  store %"class.std::__1::unique_ptr.26"* %70, %"class.std::__1::unique_ptr.26"** %10, align 8
  store %struct.Variant* null, %struct.Variant** %11, align 8
  %71 = load %"class.std::__1::unique_ptr.26"*, %"class.std::__1::unique_ptr.26"** %10, align 8
  %72 = getelementptr inbounds %"class.std::__1::unique_ptr.26", %"class.std::__1::unique_ptr.26"* %71, i32 0, i32 0
  store %"class.std::__1::__compressed_pair.27"* %72, %"class.std::__1::__compressed_pair.27"** %9, align 8
  %73 = load %"class.std::__1::__compressed_pair.27"*, %"class.std::__1::__compressed_pair.27"** %9, align 8
  %74 = bitcast %"class.std::__1::__compressed_pair.27"* %73 to %"class.std::__1::__libcpp_compressed_pair_imp.28"*
  store %"class.std::__1::__libcpp_compressed_pair_imp.28"* %74, %"class.std::__1::__libcpp_compressed_pair_imp.28"** %8, align 8
  %75 = load %"class.std::__1::__libcpp_compressed_pair_imp.28"*, %"class.std::__1::__libcpp_compressed_pair_imp.28"** %8, align 8
  %76 = getelementptr inbounds %"class.std::__1::__libcpp_compressed_pair_imp.28", %"class.std::__1::__libcpp_compressed_pair_imp.28"* %75, i32 0, i32 0
  %77 = load %struct.Variant*, %struct.Variant** %76, align 8
  store %struct.Variant* %77, %struct.Variant** %12, align 8
  %78 = load %struct.Variant*, %struct.Variant** %11, align 8
  %79 = getelementptr inbounds %"class.std::__1::unique_ptr.26", %"class.std::__1::unique_ptr.26"* %71, i32 0, i32 0
  store %"class.std::__1::__compressed_pair.27"* %79, %"class.std::__1::__compressed_pair.27"** %5, align 8
  %80 = load %"class.std::__1::__compressed_pair.27"*, %"class.std::__1::__compressed_pair.27"** %5, align 8
  %81 = bitcast %"class.std::__1::__compressed_pair.27"* %80 to %"class.std::__1::__libcpp_compressed_pair_imp.28"*
  store %"class.std::__1::__libcpp_compressed_pair_imp.28"* %81, %"class.std::__1::__libcpp_compressed_pair_imp.28"** %4, align 8
  %82 = load %"class.std::__1::__libcpp_compressed_pair_imp.28"*, %"class.std::__1::__libcpp_compressed_pair_imp.28"** %4, align 8
  %83 = getelementptr inbounds %"class.std::__1::__libcpp_compressed_pair_imp.28", %"class.std::__1::__libcpp_compressed_pair_imp.28"* %82, i32 0, i32 0
  store %struct.Variant* %78, %struct.Variant** %83, align 8
  %84 = load %struct.Variant*, %struct.Variant** %12, align 8
  %85 = icmp ne %struct.Variant* %84, null
  br i1 %85, label %86, label %99

; <label>:86:                                     ; preds = %65
  %87 = getelementptr inbounds %"class.std::__1::unique_ptr.26", %"class.std::__1::unique_ptr.26"* %71, i32 0, i32 0
  store %"class.std::__1::__compressed_pair.27"* %87, %"class.std::__1::__compressed_pair.27"** %3, align 8
  %88 = load %"class.std::__1::__compressed_pair.27"*, %"class.std::__1::__compressed_pair.27"** %3, align 8
  %89 = bitcast %"class.std::__1::__compressed_pair.27"* %88 to %"class.std::__1::__libcpp_compressed_pair_imp.28"*
  store %"class.std::__1::__libcpp_compressed_pair_imp.28"* %89, %"class.std::__1::__libcpp_compressed_pair_imp.28"** %2, align 8
  %90 = load %"class.std::__1::__libcpp_compressed_pair_imp.28"*, %"class.std::__1::__libcpp_compressed_pair_imp.28"** %2, align 8
  %91 = bitcast %"class.std::__1::__libcpp_compressed_pair_imp.28"* %90 to %"struct.std::__1::default_delete"*
  %92 = load %struct.Variant*, %struct.Variant** %12, align 8
  store %"struct.std::__1::default_delete"* %91, %"struct.std::__1::default_delete"** %6, align 8
  store %struct.Variant* %92, %struct.Variant** %7, align 8
  %93 = load %"struct.std::__1::default_delete"*, %"struct.std::__1::default_delete"** %6, align 8
  %94 = load %struct.Variant*, %struct.Variant** %7, align 8
  %95 = icmp eq %struct.Variant* %94, null
  br i1 %95, label %98, label %96

; <label>:96:                                     ; preds = %86
  call void @_ZN7VariantD1Ev(%struct.Variant* %94) #13
  %97 = bitcast %struct.Variant* %94 to i8*
  call void @_ZdlPv(i8* %97) #14
  br label %98

; <label>:98:                                     ; preds = %96, %86
  br label %99

; <label>:99:                                     ; preds = %65, %98
  call void @_ZNSt3__110shared_ptrI10ExpressionED1Ev(%"class.std::__1::shared_ptr"* %41) #13
  call void @_ZNSt3__110shared_ptrI10ExpressionED1Ev(%"class.std::__1::shared_ptr"* %35) #13
  %100 = bitcast %class.Expression* %32 to %class.Statement*
  call void @_ZN9StatementD2Ev(%class.Statement* %100) #13
  br label %101

; <label>:101:                                    ; preds = %99
  %102 = load i8*, i8** %30, align 8
  %103 = load i32, i32* %31, align 4
  %104 = insertvalue { i8*, i32 } undef, i8* %102, 0
  %105 = insertvalue { i8*, i32 } %104, i32 %103, 1
  resume { i8*, i32 } %105
}

; Function Attrs: ssp uwtable
define void @_ZN10ExpressionC1Ev(%class.Expression*) unnamed_addr #0 align 2 {
  %2 = alloca %class.Expression*, align 8
  store %class.Expression* %0, %class.Expression** %2, align 8
  %3 = load %class.Expression*, %class.Expression** %2, align 8
  call void @_ZN10ExpressionC2Ev(%class.Expression* %3)
  ret void
}

; Function Attrs: nounwind ssp uwtable
define void @_ZN10Expression9set_childENSt3__110shared_ptrIS_EE(%class.Expression*, %"class.std::__1::shared_ptr"*) unnamed_addr #2 align 2 {
  %3 = alloca %"class.std::__1::__shared_weak_count"**, align 8
  %4 = alloca %"class.std::__1::__shared_weak_count"**, align 8
  %5 = alloca %"class.std::__1::__shared_weak_count"**, align 8
  %6 = alloca %"class.std::__1::__shared_weak_count"**, align 8
  %7 = alloca %"class.std::__1::__shared_weak_count"**, align 8
  %8 = alloca %"class.std::__1::__shared_weak_count"*, align 8
  %9 = alloca %class.Expression**, align 8
  %10 = alloca %class.Expression**, align 8
  %11 = alloca %class.Expression**, align 8
  %12 = alloca %class.Expression**, align 8
  %13 = alloca %class.Expression**, align 8
  %14 = alloca %class.Expression*, align 8
  %15 = alloca %"class.std::__1::shared_ptr"*, align 8
  %16 = alloca %"class.std::__1::shared_ptr"*, align 8
  %17 = alloca %"class.std::__1::shared_ptr"*, align 8
  %18 = alloca %"class.std::__1::shared_ptr"*, align 8
  %19 = alloca %"class.std::__1::shared_ptr"*, align 8
  %20 = alloca %"class.std::__1::shared_ptr"*, align 8
  %21 = alloca %"class.std::__1::shared_ptr"*, align 8
  %22 = alloca %"class.std::__1::shared_ptr"*, align 8
  %23 = alloca %"class.std::__1::shared_ptr", align 8
  %24 = alloca %class.Expression*, align 8
  store %class.Expression* %0, %class.Expression** %24, align 8
  %25 = load %class.Expression*, %class.Expression** %24, align 8
  %26 = getelementptr inbounds %class.Expression, %class.Expression* %25, i32 0, i32 1
  store %"class.std::__1::shared_ptr"* %26, %"class.std::__1::shared_ptr"** %21, align 8
  store %"class.std::__1::shared_ptr"* %1, %"class.std::__1::shared_ptr"** %22, align 8
  %27 = load %"class.std::__1::shared_ptr"*, %"class.std::__1::shared_ptr"** %21, align 8
  %28 = load %"class.std::__1::shared_ptr"*, %"class.std::__1::shared_ptr"** %22, align 8
  store %"class.std::__1::shared_ptr"* %23, %"class.std::__1::shared_ptr"** %19, align 8
  store %"class.std::__1::shared_ptr"* %28, %"class.std::__1::shared_ptr"** %20, align 8
  %29 = load %"class.std::__1::shared_ptr"*, %"class.std::__1::shared_ptr"** %19, align 8
  %30 = load %"class.std::__1::shared_ptr"*, %"class.std::__1::shared_ptr"** %20, align 8
  store %"class.std::__1::shared_ptr"* %29, %"class.std::__1::shared_ptr"** %17, align 8
  store %"class.std::__1::shared_ptr"* %30, %"class.std::__1::shared_ptr"** %18, align 8
  %31 = load %"class.std::__1::shared_ptr"*, %"class.std::__1::shared_ptr"** %17, align 8
  %32 = getelementptr inbounds %"class.std::__1::shared_ptr", %"class.std::__1::shared_ptr"* %31, i32 0, i32 0
  %33 = load %"class.std::__1::shared_ptr"*, %"class.std::__1::shared_ptr"** %18, align 8
  %34 = getelementptr inbounds %"class.std::__1::shared_ptr", %"class.std::__1::shared_ptr"* %33, i32 0, i32 0
  %35 = load %class.Expression*, %class.Expression** %34, align 8
  store %class.Expression* %35, %class.Expression** %32, align 8
  %36 = getelementptr inbounds %"class.std::__1::shared_ptr", %"class.std::__1::shared_ptr"* %31, i32 0, i32 1
  %37 = load %"class.std::__1::shared_ptr"*, %"class.std::__1::shared_ptr"** %18, align 8
  %38 = getelementptr inbounds %"class.std::__1::shared_ptr", %"class.std::__1::shared_ptr"* %37, i32 0, i32 1
  %39 = load %"class.std::__1::__shared_weak_count"*, %"class.std::__1::__shared_weak_count"** %38, align 8
  store %"class.std::__1::__shared_weak_count"* %39, %"class.std::__1::__shared_weak_count"** %36, align 8
  %40 = getelementptr inbounds %"class.std::__1::shared_ptr", %"class.std::__1::shared_ptr"* %31, i32 0, i32 1
  %41 = load %"class.std::__1::__shared_weak_count"*, %"class.std::__1::__shared_weak_count"** %40, align 8
  %42 = icmp ne %"class.std::__1::__shared_weak_count"* %41, null
  br i1 %42, label %43, label %46

; <label>:43:                                     ; preds = %2
  %44 = getelementptr inbounds %"class.std::__1::shared_ptr", %"class.std::__1::shared_ptr"* %31, i32 0, i32 1
  %45 = load %"class.std::__1::__shared_weak_count"*, %"class.std::__1::__shared_weak_count"** %44, align 8
  call void @_ZNSt3__119__shared_weak_count12__add_sharedEv(%"class.std::__1::__shared_weak_count"* %45) #13
  br label %46

; <label>:46:                                     ; preds = %2, %43
  store %"class.std::__1::shared_ptr"* %23, %"class.std::__1::shared_ptr"** %15, align 8
  store %"class.std::__1::shared_ptr"* %27, %"class.std::__1::shared_ptr"** %16, align 8
  %47 = load %"class.std::__1::shared_ptr"*, %"class.std::__1::shared_ptr"** %15, align 8
  %48 = getelementptr inbounds %"class.std::__1::shared_ptr", %"class.std::__1::shared_ptr"* %47, i32 0, i32 0
  %49 = load %"class.std::__1::shared_ptr"*, %"class.std::__1::shared_ptr"** %16, align 8
  %50 = getelementptr inbounds %"class.std::__1::shared_ptr", %"class.std::__1::shared_ptr"* %49, i32 0, i32 0
  store %class.Expression** %48, %class.Expression*** %12, align 8
  store %class.Expression** %50, %class.Expression*** %13, align 8
  %51 = load %class.Expression**, %class.Expression*** %12, align 8
  store %class.Expression** %51, %class.Expression*** %11, align 8
  %52 = load %class.Expression**, %class.Expression*** %11, align 8
  %53 = load %class.Expression*, %class.Expression** %52, align 8
  store %class.Expression* %53, %class.Expression** %14, align 8
  %54 = load %class.Expression**, %class.Expression*** %13, align 8
  store %class.Expression** %54, %class.Expression*** %9, align 8
  %55 = load %class.Expression**, %class.Expression*** %9, align 8
  %56 = load %class.Expression*, %class.Expression** %55, align 8
  %57 = load %class.Expression**, %class.Expression*** %12, align 8
  store %class.Expression* %56, %class.Expression** %57, align 8
  store %class.Expression** %14, %class.Expression*** %10, align 8
  %58 = load %class.Expression**, %class.Expression*** %10, align 8
  %59 = load %class.Expression*, %class.Expression** %58, align 8
  %60 = load %class.Expression**, %class.Expression*** %13, align 8
  store %class.Expression* %59, %class.Expression** %60, align 8
  %61 = getelementptr inbounds %"class.std::__1::shared_ptr", %"class.std::__1::shared_ptr"* %47, i32 0, i32 1
  %62 = load %"class.std::__1::shared_ptr"*, %"class.std::__1::shared_ptr"** %16, align 8
  %63 = getelementptr inbounds %"class.std::__1::shared_ptr", %"class.std::__1::shared_ptr"* %62, i32 0, i32 1
  store %"class.std::__1::__shared_weak_count"** %61, %"class.std::__1::__shared_weak_count"*** %6, align 8
  store %"class.std::__1::__shared_weak_count"** %63, %"class.std::__1::__shared_weak_count"*** %7, align 8
  %64 = load %"class.std::__1::__shared_weak_count"**, %"class.std::__1::__shared_weak_count"*** %6, align 8
  store %"class.std::__1::__shared_weak_count"** %64, %"class.std::__1::__shared_weak_count"*** %5, align 8
  %65 = load %"class.std::__1::__shared_weak_count"**, %"class.std::__1::__shared_weak_count"*** %5, align 8
  %66 = load %"class.std::__1::__shared_weak_count"*, %"class.std::__1::__shared_weak_count"** %65, align 8
  store %"class.std::__1::__shared_weak_count"* %66, %"class.std::__1::__shared_weak_count"** %8, align 8
  %67 = load %"class.std::__1::__shared_weak_count"**, %"class.std::__1::__shared_weak_count"*** %7, align 8
  store %"class.std::__1::__shared_weak_count"** %67, %"class.std::__1::__shared_weak_count"*** %3, align 8
  %68 = load %"class.std::__1::__shared_weak_count"**, %"class.std::__1::__shared_weak_count"*** %3, align 8
  %69 = load %"class.std::__1::__shared_weak_count"*, %"class.std::__1::__shared_weak_count"** %68, align 8
  %70 = load %"class.std::__1::__shared_weak_count"**, %"class.std::__1::__shared_weak_count"*** %6, align 8
  store %"class.std::__1::__shared_weak_count"* %69, %"class.std::__1::__shared_weak_count"** %70, align 8
  store %"class.std::__1::__shared_weak_count"** %8, %"class.std::__1::__shared_weak_count"*** %4, align 8
  %71 = load %"class.std::__1::__shared_weak_count"**, %"class.std::__1::__shared_weak_count"*** %4, align 8
  %72 = load %"class.std::__1::__shared_weak_count"*, %"class.std::__1::__shared_weak_count"** %71, align 8
  %73 = load %"class.std::__1::__shared_weak_count"**, %"class.std::__1::__shared_weak_count"*** %7, align 8
  store %"class.std::__1::__shared_weak_count"* %72, %"class.std::__1::__shared_weak_count"** %73, align 8
  call void @_ZNSt3__110shared_ptrI10ExpressionED1Ev(%"class.std::__1::shared_ptr"* %23) #13
  ret void
}

; Function Attrs: ssp uwtable
define void @_ZN10Expression12get_childrenEv(%"class.std::__1::vector.30"* noalias sret, %class.Expression*) unnamed_addr #0 align 2 personality i8* bitcast (i32 (...)* @__gxx_personality_v0 to i8*) {
  %3 = alloca %"class.std::initializer_list"*, align 8
  %4 = alloca %"class.std::initializer_list"*, align 8
  %5 = alloca %"class.std::initializer_list"*, align 8
  %6 = alloca %"class.std::initializer_list"*, align 8
  %7 = alloca %"class.std::initializer_list"*, align 8
  %8 = alloca %"class.std::__1::shared_ptr.32"**, align 8
  %9 = alloca %"class.std::__1::allocator.35"*, align 8
  %10 = alloca %"class.std::__1::__libcpp_compressed_pair_imp.34"*, align 8
  %11 = alloca %"class.std::__1::shared_ptr.32"*, align 8
  %12 = alloca %"class.std::__1::shared_ptr.32"**, align 8
  %13 = alloca %"class.std::__1::__compressed_pair.33"*, align 8
  %14 = alloca %"class.std::__1::shared_ptr.32"*, align 8
  %15 = alloca %"class.std::__1::__compressed_pair.33"*, align 8
  %16 = alloca %"class.std::__1::shared_ptr.32"*, align 8
  %17 = alloca %"class.std::__1::__vector_base_common"*, align 8
  %18 = alloca %"class.std::__1::__vector_base.31"*, align 8
  %19 = alloca %"class.std::initializer_list", align 8
  %20 = alloca %"class.std::__1::vector.30"*, align 8
  %21 = alloca i8*
  %22 = alloca i32
  %23 = alloca %"class.std::initializer_list", align 8
  %24 = alloca %"class.std::__1::vector.30"*, align 8
  %25 = alloca %"struct.std::__1::shared_ptr<AstNode>::__nat", align 4
  %26 = alloca %"class.std::__1::shared_ptr.32"*, align 8
  %27 = alloca %"class.std::__1::shared_ptr"*, align 8
  %28 = alloca %"struct.std::__1::shared_ptr<AstNode>::__nat", align 4
  %29 = alloca %"class.std::__1::shared_ptr.32"*, align 8
  %30 = alloca %"class.std::__1::shared_ptr"*, align 8
  %31 = alloca %"class.std::__1::shared_ptr.32"**, align 8
  %32 = alloca %"class.std::__1::allocator.35"*, align 8
  %33 = alloca %"class.std::__1::__libcpp_compressed_pair_imp.34"*, align 8
  %34 = alloca %"class.std::__1::shared_ptr.32"*, align 8
  %35 = alloca %"class.std::__1::shared_ptr.32"**, align 8
  %36 = alloca %"class.std::__1::__compressed_pair.33"*, align 8
  %37 = alloca %"class.std::__1::shared_ptr.32"*, align 8
  %38 = alloca %"class.std::__1::__compressed_pair.33"*, align 8
  %39 = alloca %"class.std::__1::shared_ptr.32"*, align 8
  %40 = alloca %"class.std::__1::__vector_base_common"*, align 8
  %41 = alloca %"class.std::__1::__vector_base.31"*, align 8
  %42 = alloca %"class.std::__1::vector.30"*, align 8
  %43 = alloca %"class.std::__1::vector.30"*, align 8
  %44 = alloca %"class.std::__1::shared_ptr"*, align 8
  %45 = alloca %"class.std::__1::shared_ptr"*, align 8
  %46 = alloca %"class.std::__1::shared_ptr"*, align 8
  %47 = alloca i8*, align 8
  %48 = alloca %class.Expression*, align 8
  %49 = alloca %"class.std::initializer_list", align 8
  %50 = alloca [1 x %"class.std::__1::shared_ptr.32"], align 8
  %51 = alloca %"class.std::__1::shared_ptr.32"*, align 8
  %52 = alloca %"struct.std::__1::shared_ptr<AstNode>::__nat", align 4
  %53 = alloca i8*
  %54 = alloca i32
  store %class.Expression* %1, %class.Expression** %48, align 8
  %55 = load %class.Expression*, %class.Expression** %48, align 8
  %56 = getelementptr inbounds %class.Expression, %class.Expression* %55, i32 0, i32 1
  store %"class.std::__1::shared_ptr"* %56, %"class.std::__1::shared_ptr"** %46, align 8
  store i8* null, i8** %47, align 8
  %57 = load %"class.std::__1::shared_ptr"*, %"class.std::__1::shared_ptr"** %46, align 8
  store %"class.std::__1::shared_ptr"* %57, %"class.std::__1::shared_ptr"** %45, align 8
  %58 = load %"class.std::__1::shared_ptr"*, %"class.std::__1::shared_ptr"** %45, align 8
  store %"class.std::__1::shared_ptr"* %58, %"class.std::__1::shared_ptr"** %44, align 8
  %59 = load %"class.std::__1::shared_ptr"*, %"class.std::__1::shared_ptr"** %44, align 8
  %60 = getelementptr inbounds %"class.std::__1::shared_ptr", %"class.std::__1::shared_ptr"* %59, i32 0, i32 0
  %61 = load %class.Expression*, %class.Expression** %60, align 8
  %62 = icmp ne %class.Expression* %61, null
  %63 = xor i1 %62, true
  br i1 %63, label %64, label %86

; <label>:64:                                     ; preds = %2
  store %"class.std::__1::vector.30"* %0, %"class.std::__1::vector.30"** %43, align 8
  %65 = load %"class.std::__1::vector.30"*, %"class.std::__1::vector.30"** %43, align 8
  store %"class.std::__1::vector.30"* %65, %"class.std::__1::vector.30"** %42, align 8
  %66 = load %"class.std::__1::vector.30"*, %"class.std::__1::vector.30"** %42, align 8
  %67 = bitcast %"class.std::__1::vector.30"* %66 to %"class.std::__1::__vector_base.31"*
  store %"class.std::__1::__vector_base.31"* %67, %"class.std::__1::__vector_base.31"** %41, align 8
  %68 = load %"class.std::__1::__vector_base.31"*, %"class.std::__1::__vector_base.31"** %41, align 8
  %69 = bitcast %"class.std::__1::__vector_base.31"* %68 to %"class.std::__1::__vector_base_common"*
  store %"class.std::__1::__vector_base_common"* %69, %"class.std::__1::__vector_base_common"** %40, align 8
  %70 = load %"class.std::__1::__vector_base_common"*, %"class.std::__1::__vector_base_common"** %40, align 8
  %71 = getelementptr inbounds %"class.std::__1::__vector_base.31", %"class.std::__1::__vector_base.31"* %68, i32 0, i32 0
  store %"class.std::__1::shared_ptr.32"* null, %"class.std::__1::shared_ptr.32"** %71, align 8
  %72 = getelementptr inbounds %"class.std::__1::__vector_base.31", %"class.std::__1::__vector_base.31"* %68, i32 0, i32 1
  store %"class.std::__1::shared_ptr.32"* null, %"class.std::__1::shared_ptr.32"** %72, align 8
  %73 = getelementptr inbounds %"class.std::__1::__vector_base.31", %"class.std::__1::__vector_base.31"* %68, i32 0, i32 2
  store %"class.std::__1::__compressed_pair.33"* %73, %"class.std::__1::__compressed_pair.33"** %38, align 8
  store %"class.std::__1::shared_ptr.32"* null, %"class.std::__1::shared_ptr.32"** %39, align 8
  %74 = load %"class.std::__1::__compressed_pair.33"*, %"class.std::__1::__compressed_pair.33"** %38, align 8
  %75 = load %"class.std::__1::shared_ptr.32"*, %"class.std::__1::shared_ptr.32"** %39, align 8
  store %"class.std::__1::__compressed_pair.33"* %74, %"class.std::__1::__compressed_pair.33"** %36, align 8
  store %"class.std::__1::shared_ptr.32"* %75, %"class.std::__1::shared_ptr.32"** %37, align 8
  %76 = load %"class.std::__1::__compressed_pair.33"*, %"class.std::__1::__compressed_pair.33"** %36, align 8
  %77 = bitcast %"class.std::__1::__compressed_pair.33"* %76 to %"class.std::__1::__libcpp_compressed_pair_imp.34"*
  store %"class.std::__1::shared_ptr.32"** %37, %"class.std::__1::shared_ptr.32"*** %35, align 8
  %78 = load %"class.std::__1::shared_ptr.32"**, %"class.std::__1::shared_ptr.32"*** %35, align 8
  %79 = load %"class.std::__1::shared_ptr.32"*, %"class.std::__1::shared_ptr.32"** %78, align 8
  store %"class.std::__1::__libcpp_compressed_pair_imp.34"* %77, %"class.std::__1::__libcpp_compressed_pair_imp.34"** %33, align 8
  store %"class.std::__1::shared_ptr.32"* %79, %"class.std::__1::shared_ptr.32"** %34, align 8
  %80 = load %"class.std::__1::__libcpp_compressed_pair_imp.34"*, %"class.std::__1::__libcpp_compressed_pair_imp.34"** %33, align 8
  %81 = bitcast %"class.std::__1::__libcpp_compressed_pair_imp.34"* %80 to %"class.std::__1::allocator.35"*
  store %"class.std::__1::allocator.35"* %81, %"class.std::__1::allocator.35"** %32, align 8
  %82 = load %"class.std::__1::allocator.35"*, %"class.std::__1::allocator.35"** %32, align 8
  %83 = getelementptr inbounds %"class.std::__1::__libcpp_compressed_pair_imp.34", %"class.std::__1::__libcpp_compressed_pair_imp.34"* %80, i32 0, i32 0
  store %"class.std::__1::shared_ptr.32"** %34, %"class.std::__1::shared_ptr.32"*** %31, align 8
  %84 = load %"class.std::__1::shared_ptr.32"**, %"class.std::__1::shared_ptr.32"*** %31, align 8
  %85 = load %"class.std::__1::shared_ptr.32"*, %"class.std::__1::shared_ptr.32"** %84, align 8
  store %"class.std::__1::shared_ptr.32"* %85, %"class.std::__1::shared_ptr.32"** %83, align 8
  br label %208

; <label>:86:                                     ; preds = %2
  %87 = getelementptr inbounds [1 x %"class.std::__1::shared_ptr.32"], [1 x %"class.std::__1::shared_ptr.32"]* %50, i64 0, i64 0
  store %"class.std::__1::shared_ptr.32"* %87, %"class.std::__1::shared_ptr.32"** %51, align 8
  %88 = getelementptr inbounds %class.Expression, %class.Expression* %55, i32 0, i32 1
  %89 = bitcast %"struct.std::__1::shared_ptr<AstNode>::__nat"* %52 to i8*
  call void @llvm.memset.p0i8.i64(i8* %89, i8 0, i64 4, i32 4, i1 false)
  %90 = getelementptr inbounds %"struct.std::__1::shared_ptr<AstNode>::__nat", %"struct.std::__1::shared_ptr<AstNode>::__nat"* %52, i32 0, i32 0
  %91 = load i32, i32* %90, align 4
  %92 = getelementptr inbounds %"struct.std::__1::shared_ptr<AstNode>::__nat", %"struct.std::__1::shared_ptr<AstNode>::__nat"* %28, i32 0, i32 0
  store i32 %91, i32* %92, align 4
  store %"class.std::__1::shared_ptr.32"* %87, %"class.std::__1::shared_ptr.32"** %29, align 8
  store %"class.std::__1::shared_ptr"* %88, %"class.std::__1::shared_ptr"** %30, align 8
  %93 = load %"class.std::__1::shared_ptr.32"*, %"class.std::__1::shared_ptr.32"** %29, align 8
  %94 = load %"class.std::__1::shared_ptr"*, %"class.std::__1::shared_ptr"** %30, align 8
  %95 = getelementptr inbounds %"struct.std::__1::shared_ptr<AstNode>::__nat", %"struct.std::__1::shared_ptr<AstNode>::__nat"* %28, i32 0, i32 0
  %96 = load i32, i32* %95, align 4
  %97 = getelementptr inbounds %"struct.std::__1::shared_ptr<AstNode>::__nat", %"struct.std::__1::shared_ptr<AstNode>::__nat"* %25, i32 0, i32 0
  store i32 %96, i32* %97, align 4
  store %"class.std::__1::shared_ptr.32"* %93, %"class.std::__1::shared_ptr.32"** %26, align 8
  store %"class.std::__1::shared_ptr"* %94, %"class.std::__1::shared_ptr"** %27, align 8
  %98 = load %"class.std::__1::shared_ptr.32"*, %"class.std::__1::shared_ptr.32"** %26, align 8
  %99 = getelementptr inbounds %"class.std::__1::shared_ptr.32", %"class.std::__1::shared_ptr.32"* %98, i32 0, i32 0
  %100 = load %"class.std::__1::shared_ptr"*, %"class.std::__1::shared_ptr"** %27, align 8
  %101 = getelementptr inbounds %"class.std::__1::shared_ptr", %"class.std::__1::shared_ptr"* %100, i32 0, i32 0
  %102 = load %class.Expression*, %class.Expression** %101, align 8
  %103 = bitcast %class.Expression* %102 to %class.AstNode*
  store %class.AstNode* %103, %class.AstNode** %99, align 8
  %104 = getelementptr inbounds %"class.std::__1::shared_ptr.32", %"class.std::__1::shared_ptr.32"* %98, i32 0, i32 1
  %105 = load %"class.std::__1::shared_ptr"*, %"class.std::__1::shared_ptr"** %27, align 8
  %106 = getelementptr inbounds %"class.std::__1::shared_ptr", %"class.std::__1::shared_ptr"* %105, i32 0, i32 1
  %107 = load %"class.std::__1::__shared_weak_count"*, %"class.std::__1::__shared_weak_count"** %106, align 8
  store %"class.std::__1::__shared_weak_count"* %107, %"class.std::__1::__shared_weak_count"** %104, align 8
  %108 = getelementptr inbounds %"class.std::__1::shared_ptr.32", %"class.std::__1::shared_ptr.32"* %98, i32 0, i32 1
  %109 = load %"class.std::__1::__shared_weak_count"*, %"class.std::__1::__shared_weak_count"** %108, align 8
  %110 = icmp ne %"class.std::__1::__shared_weak_count"* %109, null
  br i1 %110, label %111, label %114

; <label>:111:                                    ; preds = %86
  %112 = getelementptr inbounds %"class.std::__1::shared_ptr.32", %"class.std::__1::shared_ptr.32"* %98, i32 0, i32 1
  %113 = load %"class.std::__1::__shared_weak_count"*, %"class.std::__1::__shared_weak_count"** %112, align 8
  call void @_ZNSt3__119__shared_weak_count12__add_sharedEv(%"class.std::__1::__shared_weak_count"* %113) #13
  br label %114

; <label>:114:                                    ; preds = %86, %111
  %115 = getelementptr inbounds %"class.std::initializer_list", %"class.std::initializer_list"* %49, i32 0, i32 0
  %116 = getelementptr inbounds [1 x %"class.std::__1::shared_ptr.32"], [1 x %"class.std::__1::shared_ptr.32"]* %50, i64 0, i64 0
  store %"class.std::__1::shared_ptr.32"* %116, %"class.std::__1::shared_ptr.32"** %115, align 8
  %117 = getelementptr inbounds %"class.std::initializer_list", %"class.std::initializer_list"* %49, i32 0, i32 1
  store i64 1, i64* %117, align 8
  %118 = bitcast %"class.std::initializer_list"* %49 to { %"class.std::__1::shared_ptr.32"*, i64 }*
  %119 = getelementptr inbounds { %"class.std::__1::shared_ptr.32"*, i64 }, { %"class.std::__1::shared_ptr.32"*, i64 }* %118, i32 0, i32 0
  %120 = load %"class.std::__1::shared_ptr.32"*, %"class.std::__1::shared_ptr.32"** %119, align 8
  %121 = getelementptr inbounds { %"class.std::__1::shared_ptr.32"*, i64 }, { %"class.std::__1::shared_ptr.32"*, i64 }* %118, i32 0, i32 1
  %122 = load i64, i64* %121, align 8
  %123 = bitcast %"class.std::initializer_list"* %23 to { %"class.std::__1::shared_ptr.32"*, i64 }*
  %124 = getelementptr inbounds { %"class.std::__1::shared_ptr.32"*, i64 }, { %"class.std::__1::shared_ptr.32"*, i64 }* %123, i32 0, i32 0
  store %"class.std::__1::shared_ptr.32"* %120, %"class.std::__1::shared_ptr.32"** %124, align 8
  %125 = getelementptr inbounds { %"class.std::__1::shared_ptr.32"*, i64 }, { %"class.std::__1::shared_ptr.32"*, i64 }* %123, i32 0, i32 1
  store i64 %122, i64* %125, align 8
  store %"class.std::__1::vector.30"* %0, %"class.std::__1::vector.30"** %24, align 8
  %126 = load %"class.std::__1::vector.30"*, %"class.std::__1::vector.30"** %24, align 8
  %127 = bitcast %"class.std::initializer_list"* %23 to { %"class.std::__1::shared_ptr.32"*, i64 }*
  %128 = getelementptr inbounds { %"class.std::__1::shared_ptr.32"*, i64 }, { %"class.std::__1::shared_ptr.32"*, i64 }* %127, i32 0, i32 0
  %129 = load %"class.std::__1::shared_ptr.32"*, %"class.std::__1::shared_ptr.32"** %128, align 8
  %130 = getelementptr inbounds { %"class.std::__1::shared_ptr.32"*, i64 }, { %"class.std::__1::shared_ptr.32"*, i64 }* %127, i32 0, i32 1
  %131 = load i64, i64* %130, align 8
  %132 = bitcast %"class.std::initializer_list"* %19 to { %"class.std::__1::shared_ptr.32"*, i64 }*
  %133 = getelementptr inbounds { %"class.std::__1::shared_ptr.32"*, i64 }, { %"class.std::__1::shared_ptr.32"*, i64 }* %132, i32 0, i32 0
  store %"class.std::__1::shared_ptr.32"* %129, %"class.std::__1::shared_ptr.32"** %133, align 8
  %134 = getelementptr inbounds { %"class.std::__1::shared_ptr.32"*, i64 }, { %"class.std::__1::shared_ptr.32"*, i64 }* %132, i32 0, i32 1
  store i64 %131, i64* %134, align 8
  store %"class.std::__1::vector.30"* %126, %"class.std::__1::vector.30"** %20, align 8
  %135 = load %"class.std::__1::vector.30"*, %"class.std::__1::vector.30"** %20, align 8
  %136 = bitcast %"class.std::__1::vector.30"* %135 to %"class.std::__1::__vector_base.31"*
  store %"class.std::__1::__vector_base.31"* %136, %"class.std::__1::__vector_base.31"** %18, align 8
  %137 = load %"class.std::__1::__vector_base.31"*, %"class.std::__1::__vector_base.31"** %18, align 8
  %138 = bitcast %"class.std::__1::__vector_base.31"* %137 to %"class.std::__1::__vector_base_common"*
  store %"class.std::__1::__vector_base_common"* %138, %"class.std::__1::__vector_base_common"** %17, align 8
  %139 = load %"class.std::__1::__vector_base_common"*, %"class.std::__1::__vector_base_common"** %17, align 8
  %140 = getelementptr inbounds %"class.std::__1::__vector_base.31", %"class.std::__1::__vector_base.31"* %137, i32 0, i32 0
  store %"class.std::__1::shared_ptr.32"* null, %"class.std::__1::shared_ptr.32"** %140, align 8
  %141 = getelementptr inbounds %"class.std::__1::__vector_base.31", %"class.std::__1::__vector_base.31"* %137, i32 0, i32 1
  store %"class.std::__1::shared_ptr.32"* null, %"class.std::__1::shared_ptr.32"** %141, align 8
  %142 = getelementptr inbounds %"class.std::__1::__vector_base.31", %"class.std::__1::__vector_base.31"* %137, i32 0, i32 2
  store %"class.std::__1::__compressed_pair.33"* %142, %"class.std::__1::__compressed_pair.33"** %15, align 8
  store %"class.std::__1::shared_ptr.32"* null, %"class.std::__1::shared_ptr.32"** %16, align 8
  %143 = load %"class.std::__1::__compressed_pair.33"*, %"class.std::__1::__compressed_pair.33"** %15, align 8
  %144 = load %"class.std::__1::shared_ptr.32"*, %"class.std::__1::shared_ptr.32"** %16, align 8
  store %"class.std::__1::__compressed_pair.33"* %143, %"class.std::__1::__compressed_pair.33"** %13, align 8
  store %"class.std::__1::shared_ptr.32"* %144, %"class.std::__1::shared_ptr.32"** %14, align 8
  %145 = load %"class.std::__1::__compressed_pair.33"*, %"class.std::__1::__compressed_pair.33"** %13, align 8
  %146 = bitcast %"class.std::__1::__compressed_pair.33"* %145 to %"class.std::__1::__libcpp_compressed_pair_imp.34"*
  store %"class.std::__1::shared_ptr.32"** %14, %"class.std::__1::shared_ptr.32"*** %12, align 8
  %147 = load %"class.std::__1::shared_ptr.32"**, %"class.std::__1::shared_ptr.32"*** %12, align 8
  %148 = load %"class.std::__1::shared_ptr.32"*, %"class.std::__1::shared_ptr.32"** %147, align 8
  store %"class.std::__1::__libcpp_compressed_pair_imp.34"* %146, %"class.std::__1::__libcpp_compressed_pair_imp.34"** %10, align 8
  store %"class.std::__1::shared_ptr.32"* %148, %"class.std::__1::shared_ptr.32"** %11, align 8
  %149 = load %"class.std::__1::__libcpp_compressed_pair_imp.34"*, %"class.std::__1::__libcpp_compressed_pair_imp.34"** %10, align 8
  %150 = bitcast %"class.std::__1::__libcpp_compressed_pair_imp.34"* %149 to %"class.std::__1::allocator.35"*
  store %"class.std::__1::allocator.35"* %150, %"class.std::__1::allocator.35"** %9, align 8
  %151 = load %"class.std::__1::allocator.35"*, %"class.std::__1::allocator.35"** %9, align 8
  %152 = getelementptr inbounds %"class.std::__1::__libcpp_compressed_pair_imp.34", %"class.std::__1::__libcpp_compressed_pair_imp.34"* %149, i32 0, i32 0
  store %"class.std::__1::shared_ptr.32"** %11, %"class.std::__1::shared_ptr.32"*** %8, align 8
  %153 = load %"class.std::__1::shared_ptr.32"**, %"class.std::__1::shared_ptr.32"*** %8, align 8
  %154 = load %"class.std::__1::shared_ptr.32"*, %"class.std::__1::shared_ptr.32"** %153, align 8
  store %"class.std::__1::shared_ptr.32"* %154, %"class.std::__1::shared_ptr.32"** %152, align 8
  store %"class.std::initializer_list"* %19, %"class.std::initializer_list"** %7, align 8
  %155 = load %"class.std::initializer_list"*, %"class.std::initializer_list"** %7, align 8
  %156 = getelementptr inbounds %"class.std::initializer_list", %"class.std::initializer_list"* %155, i32 0, i32 1
  %157 = load i64, i64* %156, align 8
  %158 = icmp ugt i64 %157, 0
  br i1 %158, label %159, label %186

; <label>:159:                                    ; preds = %114
  store %"class.std::initializer_list"* %19, %"class.std::initializer_list"** %6, align 8
  %160 = load %"class.std::initializer_list"*, %"class.std::initializer_list"** %6, align 8
  %161 = getelementptr inbounds %"class.std::initializer_list", %"class.std::initializer_list"* %160, i32 0, i32 1
  %162 = load i64, i64* %161, align 8
  invoke void @_ZNSt3__16vectorINS_10shared_ptrI7AstNodeEENS_9allocatorIS3_EEE8allocateEm(%"class.std::__1::vector.30"* %135, i64 %162)
          to label %163 unwind label %177

; <label>:163:                                    ; preds = %159
  store %"class.std::initializer_list"* %19, %"class.std::initializer_list"** %3, align 8
  %164 = load %"class.std::initializer_list"*, %"class.std::initializer_list"** %3, align 8
  %165 = getelementptr inbounds %"class.std::initializer_list", %"class.std::initializer_list"* %164, i32 0, i32 0
  %166 = load %"class.std::__1::shared_ptr.32"*, %"class.std::__1::shared_ptr.32"** %165, align 8
  store %"class.std::initializer_list"* %19, %"class.std::initializer_list"** %4, align 8
  %167 = load %"class.std::initializer_list"*, %"class.std::initializer_list"** %4, align 8
  %168 = getelementptr inbounds %"class.std::initializer_list", %"class.std::initializer_list"* %167, i32 0, i32 0
  %169 = load %"class.std::__1::shared_ptr.32"*, %"class.std::__1::shared_ptr.32"** %168, align 8
  %170 = getelementptr inbounds %"class.std::initializer_list", %"class.std::initializer_list"* %167, i32 0, i32 1
  %171 = load i64, i64* %170, align 8
  %172 = getelementptr inbounds %"class.std::__1::shared_ptr.32", %"class.std::__1::shared_ptr.32"* %169, i64 %171
  store %"class.std::initializer_list"* %19, %"class.std::initializer_list"** %5, align 8
  %173 = load %"class.std::initializer_list"*, %"class.std::initializer_list"** %5, align 8
  %174 = getelementptr inbounds %"class.std::initializer_list", %"class.std::initializer_list"* %173, i32 0, i32 1
  %175 = load i64, i64* %174, align 8
  invoke void @_ZNSt3__16vectorINS_10shared_ptrI7AstNodeEENS_9allocatorIS3_EEE18__construct_at_endIPKS3_EENS_9enable_ifIXsr21__is_forward_iteratorIT_EE5valueEvE4typeESB_SB_m(%"class.std::__1::vector.30"* %135, %"class.std::__1::shared_ptr.32"* %166, %"class.std::__1::shared_ptr.32"* %172, i64 %175)
          to label %176 unwind label %177

; <label>:176:                                    ; preds = %163
  br label %186

; <label>:177:                                    ; preds = %163, %159
  %178 = landingpad { i8*, i32 }
          cleanup
  %179 = extractvalue { i8*, i32 } %178, 0
  store i8* %179, i8** %21, align 8
  %180 = extractvalue { i8*, i32 } %178, 1
  store i32 %180, i32* %22, align 4
  %181 = bitcast %"class.std::__1::vector.30"* %135 to %"class.std::__1::__vector_base.31"*
  call void @_ZNSt3__113__vector_baseINS_10shared_ptrI7AstNodeEENS_9allocatorIS3_EEED2Ev(%"class.std::__1::__vector_base.31"* %181) #13
  %182 = load i8*, i8** %21, align 8
  %183 = load i32, i32* %22, align 4
  %184 = insertvalue { i8*, i32 } undef, i8* %182, 0
  %185 = insertvalue { i8*, i32 } %184, i32 %183, 1
  br label %197

; <label>:186:                                    ; preds = %114, %176
  br label %187

; <label>:187:                                    ; preds = %186
  %188 = getelementptr inbounds [1 x %"class.std::__1::shared_ptr.32"], [1 x %"class.std::__1::shared_ptr.32"]* %50, i32 0, i32 0
  %189 = getelementptr inbounds %"class.std::__1::shared_ptr.32", %"class.std::__1::shared_ptr.32"* %188, i64 1
  br label %190

; <label>:190:                                    ; preds = %190, %187
  %191 = phi %"class.std::__1::shared_ptr.32"* [ %189, %187 ], [ %192, %190 ]
  %192 = getelementptr inbounds %"class.std::__1::shared_ptr.32", %"class.std::__1::shared_ptr.32"* %191, i64 -1
  call void @_ZNSt3__110shared_ptrI7AstNodeED1Ev(%"class.std::__1::shared_ptr.32"* %192) #13
  %193 = icmp eq %"class.std::__1::shared_ptr.32"* %192, %188
  br i1 %193, label %194, label %190

; <label>:194:                                    ; preds = %190
  br label %208
                                                  ; No predecessors!
  %196 = landingpad { i8*, i32 }
          cleanup
  br label %197

; <label>:197:                                    ; preds = %177, %195
  %198 = phi { i8*, i32 } [ %196, %195 ], [ %185, %177 ]
  %199 = extractvalue { i8*, i32 } %198, 0
  store i8* %199, i8** %53, align 8
  %200 = extractvalue { i8*, i32 } %198, 1
  store i32 %200, i32* %54, align 4
  %201 = getelementptr inbounds [1 x %"class.std::__1::shared_ptr.32"], [1 x %"class.std::__1::shared_ptr.32"]* %50, i32 0, i32 0
  %202 = getelementptr inbounds %"class.std::__1::shared_ptr.32", %"class.std::__1::shared_ptr.32"* %201, i64 1
  br label %203

; <label>:203:                                    ; preds = %203, %197
  %204 = phi %"class.std::__1::shared_ptr.32"* [ %202, %197 ], [ %205, %203 ]
  %205 = getelementptr inbounds %"class.std::__1::shared_ptr.32", %"class.std::__1::shared_ptr.32"* %204, i64 -1
  call void @_ZNSt3__110shared_ptrI7AstNodeED1Ev(%"class.std::__1::shared_ptr.32"* %205) #13
  %206 = icmp eq %"class.std::__1::shared_ptr.32"* %205, %201
  br i1 %206, label %207, label %203

; <label>:207:                                    ; preds = %203
  br label %209

; <label>:208:                                    ; preds = %194, %64
  ret void

; <label>:209:                                    ; preds = %207
  %210 = load i8*, i8** %53, align 8
  %211 = load i32, i32* %54, align 4
  %212 = insertvalue { i8*, i32 } undef, i8* %210, 0
  %213 = insertvalue { i8*, i32 } %212, i32 %211, 1
  resume { i8*, i32 } %213
}

; Function Attrs: argmemonly nounwind
declare void @llvm.memset.p0i8.i64(i8* nocapture writeonly, i8, i64, i32, i1) #4

; Function Attrs: nounwind ssp uwtable
define linkonce_odr void @_ZNSt3__110shared_ptrI7AstNodeED1Ev(%"class.std::__1::shared_ptr.32"*) unnamed_addr #2 align 2 {
  %2 = alloca %"class.std::__1::shared_ptr.32"*, align 8
  store %"class.std::__1::shared_ptr.32"* %0, %"class.std::__1::shared_ptr.32"** %2, align 8
  %3 = load %"class.std::__1::shared_ptr.32"*, %"class.std::__1::shared_ptr.32"** %2, align 8
  call void @_ZNSt3__110shared_ptrI7AstNodeED2Ev(%"class.std::__1::shared_ptr.32"* %3) #13
  ret void
}

; Function Attrs: ssp uwtable
define void @_ZN10Expression6__dumpEi(%class.Expression*, i32) unnamed_addr #0 align 2 personality i8* bitcast (i32 (...)* @__gxx_personality_v0 to i8*) {
  %3 = alloca %"class.std::__1::shared_ptr.32"*, align 8
  %4 = alloca %"class.std::__1::shared_ptr.32"*, align 8
  %5 = alloca %"class.std::__1::shared_ptr.32"*, align 8
  %6 = alloca %"class.std::__1::shared_ptr.32"*, align 8
  %7 = alloca %"class.std::__1::shared_ptr.32"*, align 8
  %8 = alloca %"class.std::__1::__wrap_iter"*, align 8
  %9 = alloca %"class.std::__1::__wrap_iter"*, align 8
  %10 = alloca %"class.std::__1::__wrap_iter"*, align 8
  %11 = alloca %"class.std::__1::__wrap_iter"*, align 8
  %12 = alloca %"class.std::__1::__wrap_iter"*, align 8
  %13 = alloca %"class.std::__1::__wrap_iter"*, align 8
  %14 = alloca %"class.std::__1::__wrap_iter"*, align 8
  %15 = alloca %"class.std::__1::__wrap_iter"*, align 8
  %16 = alloca %"class.std::__1::__wrap_iter"*, align 8
  %17 = alloca %"class.std::__1::shared_ptr.32"*, align 8
  %18 = alloca %"class.std::__1::__wrap_iter"*, align 8
  %19 = alloca %"class.std::__1::shared_ptr.32"*, align 8
  %20 = alloca %"class.std::__1::__wrap_iter", align 8
  %21 = alloca %"class.std::__1::vector.30"*, align 8
  %22 = alloca %"class.std::__1::shared_ptr.32"*, align 8
  %23 = alloca %"class.std::__1::__wrap_iter", align 8
  %24 = alloca %"class.std::__1::vector.30"*, align 8
  %25 = alloca %"class.std::__1::__wrap_iter"*, align 8
  %26 = alloca %"class.std::__1::shared_ptr.32"*, align 8
  %27 = alloca %"class.std::__1::__wrap_iter"*, align 8
  %28 = alloca %"class.std::__1::shared_ptr.32"*, align 8
  %29 = alloca %"class.std::__1::__wrap_iter", align 8
  %30 = alloca %"class.std::__1::vector.30"*, align 8
  %31 = alloca %"class.std::__1::shared_ptr.32"*, align 8
  %32 = alloca %"class.std::__1::__wrap_iter", align 8
  %33 = alloca %"class.std::__1::vector.30"*, align 8
  %34 = alloca %class.Expression*, align 8
  %35 = alloca i32, align 4
  %36 = alloca %"class.std::__1::vector.30"*, align 8
  %37 = alloca %"class.std::__1::vector.30", align 8
  %38 = alloca %"class.std::__1::__wrap_iter", align 8
  %39 = alloca %"class.std::__1::__wrap_iter", align 8
  %40 = alloca %"class.std::__1::shared_ptr.32", align 8
  %41 = alloca i8*
  %42 = alloca i32
  store %class.Expression* %0, %class.Expression** %34, align 8
  store i32 %1, i32* %35, align 4
  %43 = load %class.Expression*, %class.Expression** %34, align 8
  %44 = bitcast %class.Expression* %43 to void (%"class.std::__1::vector.30"*, %class.Expression*)***
  %45 = load void (%"class.std::__1::vector.30"*, %class.Expression*)**, void (%"class.std::__1::vector.30"*, %class.Expression*)*** %44, align 8
  %46 = getelementptr inbounds void (%"class.std::__1::vector.30"*, %class.Expression*)*, void (%"class.std::__1::vector.30"*, %class.Expression*)** %45, i64 2
  %47 = load void (%"class.std::__1::vector.30"*, %class.Expression*)*, void (%"class.std::__1::vector.30"*, %class.Expression*)** %46, align 8
  call void %47(%"class.std::__1::vector.30"* sret %37, %class.Expression* %43)
  store %"class.std::__1::vector.30"* %37, %"class.std::__1::vector.30"** %36, align 8
  %48 = load %"class.std::__1::vector.30"*, %"class.std::__1::vector.30"** %36, align 8
  store %"class.std::__1::vector.30"* %48, %"class.std::__1::vector.30"** %33, align 8
  %49 = load %"class.std::__1::vector.30"*, %"class.std::__1::vector.30"** %33, align 8
  %50 = bitcast %"class.std::__1::vector.30"* %49 to %"class.std::__1::__vector_base.31"*
  %51 = getelementptr inbounds %"class.std::__1::__vector_base.31", %"class.std::__1::__vector_base.31"* %50, i32 0, i32 0
  %52 = load %"class.std::__1::shared_ptr.32"*, %"class.std::__1::shared_ptr.32"** %51, align 8
  store %"class.std::__1::vector.30"* %49, %"class.std::__1::vector.30"** %30, align 8
  store %"class.std::__1::shared_ptr.32"* %52, %"class.std::__1::shared_ptr.32"** %31, align 8
  %53 = load %"class.std::__1::vector.30"*, %"class.std::__1::vector.30"** %30, align 8
  %54 = load %"class.std::__1::shared_ptr.32"*, %"class.std::__1::shared_ptr.32"** %31, align 8
  store %"class.std::__1::__wrap_iter"* %29, %"class.std::__1::__wrap_iter"** %27, align 8
  store %"class.std::__1::shared_ptr.32"* %54, %"class.std::__1::shared_ptr.32"** %28, align 8
  %55 = load %"class.std::__1::__wrap_iter"*, %"class.std::__1::__wrap_iter"** %27, align 8
  %56 = load %"class.std::__1::shared_ptr.32"*, %"class.std::__1::shared_ptr.32"** %28, align 8
  store %"class.std::__1::__wrap_iter"* %55, %"class.std::__1::__wrap_iter"** %25, align 8
  store %"class.std::__1::shared_ptr.32"* %56, %"class.std::__1::shared_ptr.32"** %26, align 8
  %57 = load %"class.std::__1::__wrap_iter"*, %"class.std::__1::__wrap_iter"** %25, align 8
  %58 = getelementptr inbounds %"class.std::__1::__wrap_iter", %"class.std::__1::__wrap_iter"* %57, i32 0, i32 0
  %59 = load %"class.std::__1::shared_ptr.32"*, %"class.std::__1::shared_ptr.32"** %26, align 8
  store %"class.std::__1::shared_ptr.32"* %59, %"class.std::__1::shared_ptr.32"** %58, align 8
  %60 = getelementptr inbounds %"class.std::__1::__wrap_iter", %"class.std::__1::__wrap_iter"* %29, i32 0, i32 0
  %61 = load %"class.std::__1::shared_ptr.32"*, %"class.std::__1::shared_ptr.32"** %60, align 8
  %62 = getelementptr inbounds %"class.std::__1::__wrap_iter", %"class.std::__1::__wrap_iter"* %32, i32 0, i32 0
  store %"class.std::__1::shared_ptr.32"* %61, %"class.std::__1::shared_ptr.32"** %62, align 8
  %63 = getelementptr inbounds %"class.std::__1::__wrap_iter", %"class.std::__1::__wrap_iter"* %32, i32 0, i32 0
  %64 = load %"class.std::__1::shared_ptr.32"*, %"class.std::__1::shared_ptr.32"** %63, align 8
  %65 = getelementptr inbounds %"class.std::__1::__wrap_iter", %"class.std::__1::__wrap_iter"* %38, i32 0, i32 0
  store %"class.std::__1::shared_ptr.32"* %64, %"class.std::__1::shared_ptr.32"** %65, align 8
  %66 = load %"class.std::__1::vector.30"*, %"class.std::__1::vector.30"** %36, align 8
  store %"class.std::__1::vector.30"* %66, %"class.std::__1::vector.30"** %24, align 8
  %67 = load %"class.std::__1::vector.30"*, %"class.std::__1::vector.30"** %24, align 8
  %68 = bitcast %"class.std::__1::vector.30"* %67 to %"class.std::__1::__vector_base.31"*
  %69 = getelementptr inbounds %"class.std::__1::__vector_base.31", %"class.std::__1::__vector_base.31"* %68, i32 0, i32 1
  %70 = load %"class.std::__1::shared_ptr.32"*, %"class.std::__1::shared_ptr.32"** %69, align 8
  store %"class.std::__1::vector.30"* %67, %"class.std::__1::vector.30"** %21, align 8
  store %"class.std::__1::shared_ptr.32"* %70, %"class.std::__1::shared_ptr.32"** %22, align 8
  %71 = load %"class.std::__1::vector.30"*, %"class.std::__1::vector.30"** %21, align 8
  %72 = load %"class.std::__1::shared_ptr.32"*, %"class.std::__1::shared_ptr.32"** %22, align 8
  store %"class.std::__1::__wrap_iter"* %20, %"class.std::__1::__wrap_iter"** %18, align 8
  store %"class.std::__1::shared_ptr.32"* %72, %"class.std::__1::shared_ptr.32"** %19, align 8
  %73 = load %"class.std::__1::__wrap_iter"*, %"class.std::__1::__wrap_iter"** %18, align 8
  %74 = load %"class.std::__1::shared_ptr.32"*, %"class.std::__1::shared_ptr.32"** %19, align 8
  store %"class.std::__1::__wrap_iter"* %73, %"class.std::__1::__wrap_iter"** %16, align 8
  store %"class.std::__1::shared_ptr.32"* %74, %"class.std::__1::shared_ptr.32"** %17, align 8
  %75 = load %"class.std::__1::__wrap_iter"*, %"class.std::__1::__wrap_iter"** %16, align 8
  %76 = getelementptr inbounds %"class.std::__1::__wrap_iter", %"class.std::__1::__wrap_iter"* %75, i32 0, i32 0
  %77 = load %"class.std::__1::shared_ptr.32"*, %"class.std::__1::shared_ptr.32"** %17, align 8
  store %"class.std::__1::shared_ptr.32"* %77, %"class.std::__1::shared_ptr.32"** %76, align 8
  %78 = getelementptr inbounds %"class.std::__1::__wrap_iter", %"class.std::__1::__wrap_iter"* %20, i32 0, i32 0
  %79 = load %"class.std::__1::shared_ptr.32"*, %"class.std::__1::shared_ptr.32"** %78, align 8
  %80 = getelementptr inbounds %"class.std::__1::__wrap_iter", %"class.std::__1::__wrap_iter"* %23, i32 0, i32 0
  store %"class.std::__1::shared_ptr.32"* %79, %"class.std::__1::shared_ptr.32"** %80, align 8
  %81 = getelementptr inbounds %"class.std::__1::__wrap_iter", %"class.std::__1::__wrap_iter"* %23, i32 0, i32 0
  %82 = load %"class.std::__1::shared_ptr.32"*, %"class.std::__1::shared_ptr.32"** %81, align 8
  %83 = getelementptr inbounds %"class.std::__1::__wrap_iter", %"class.std::__1::__wrap_iter"* %39, i32 0, i32 0
  store %"class.std::__1::shared_ptr.32"* %82, %"class.std::__1::shared_ptr.32"** %83, align 8
  br label %84

; <label>:84:                                     ; preds = %129, %2
  store %"class.std::__1::__wrap_iter"* %38, %"class.std::__1::__wrap_iter"** %14, align 8
  store %"class.std::__1::__wrap_iter"* %39, %"class.std::__1::__wrap_iter"** %15, align 8
  %85 = load %"class.std::__1::__wrap_iter"*, %"class.std::__1::__wrap_iter"** %14, align 8
  %86 = load %"class.std::__1::__wrap_iter"*, %"class.std::__1::__wrap_iter"** %15, align 8
  store %"class.std::__1::__wrap_iter"* %85, %"class.std::__1::__wrap_iter"** %12, align 8
  store %"class.std::__1::__wrap_iter"* %86, %"class.std::__1::__wrap_iter"** %13, align 8
  %87 = load %"class.std::__1::__wrap_iter"*, %"class.std::__1::__wrap_iter"** %12, align 8
  store %"class.std::__1::__wrap_iter"* %87, %"class.std::__1::__wrap_iter"** %11, align 8
  %88 = load %"class.std::__1::__wrap_iter"*, %"class.std::__1::__wrap_iter"** %11, align 8
  %89 = getelementptr inbounds %"class.std::__1::__wrap_iter", %"class.std::__1::__wrap_iter"* %88, i32 0, i32 0
  %90 = load %"class.std::__1::shared_ptr.32"*, %"class.std::__1::shared_ptr.32"** %89, align 8
  %91 = load %"class.std::__1::__wrap_iter"*, %"class.std::__1::__wrap_iter"** %13, align 8
  store %"class.std::__1::__wrap_iter"* %91, %"class.std::__1::__wrap_iter"** %10, align 8
  %92 = load %"class.std::__1::__wrap_iter"*, %"class.std::__1::__wrap_iter"** %10, align 8
  %93 = getelementptr inbounds %"class.std::__1::__wrap_iter", %"class.std::__1::__wrap_iter"* %92, i32 0, i32 0
  %94 = load %"class.std::__1::shared_ptr.32"*, %"class.std::__1::shared_ptr.32"** %93, align 8
  %95 = icmp eq %"class.std::__1::shared_ptr.32"* %90, %94
  %96 = xor i1 %95, true
  br i1 %96, label %98, label %97

; <label>:97:                                     ; preds = %84
  call void @_ZNSt3__16vectorINS_10shared_ptrI7AstNodeEENS_9allocatorIS3_EEED1Ev(%"class.std::__1::vector.30"* %37) #13
  br label %138

; <label>:98:                                     ; preds = %84
  store %"class.std::__1::__wrap_iter"* %38, %"class.std::__1::__wrap_iter"** %8, align 8
  %99 = load %"class.std::__1::__wrap_iter"*, %"class.std::__1::__wrap_iter"** %8, align 8
  %100 = getelementptr inbounds %"class.std::__1::__wrap_iter", %"class.std::__1::__wrap_iter"* %99, i32 0, i32 0
  %101 = load %"class.std::__1::shared_ptr.32"*, %"class.std::__1::shared_ptr.32"** %100, align 8
  store %"class.std::__1::shared_ptr.32"* %40, %"class.std::__1::shared_ptr.32"** %6, align 8
  store %"class.std::__1::shared_ptr.32"* %101, %"class.std::__1::shared_ptr.32"** %7, align 8
  %102 = load %"class.std::__1::shared_ptr.32"*, %"class.std::__1::shared_ptr.32"** %6, align 8
  %103 = load %"class.std::__1::shared_ptr.32"*, %"class.std::__1::shared_ptr.32"** %7, align 8
  store %"class.std::__1::shared_ptr.32"* %102, %"class.std::__1::shared_ptr.32"** %4, align 8
  store %"class.std::__1::shared_ptr.32"* %103, %"class.std::__1::shared_ptr.32"** %5, align 8
  %104 = load %"class.std::__1::shared_ptr.32"*, %"class.std::__1::shared_ptr.32"** %4, align 8
  %105 = getelementptr inbounds %"class.std::__1::shared_ptr.32", %"class.std::__1::shared_ptr.32"* %104, i32 0, i32 0
  %106 = load %"class.std::__1::shared_ptr.32"*, %"class.std::__1::shared_ptr.32"** %5, align 8
  %107 = getelementptr inbounds %"class.std::__1::shared_ptr.32", %"class.std::__1::shared_ptr.32"* %106, i32 0, i32 0
  %108 = load %class.AstNode*, %class.AstNode** %107, align 8
  store %class.AstNode* %108, %class.AstNode** %105, align 8
  %109 = getelementptr inbounds %"class.std::__1::shared_ptr.32", %"class.std::__1::shared_ptr.32"* %104, i32 0, i32 1
  %110 = load %"class.std::__1::shared_ptr.32"*, %"class.std::__1::shared_ptr.32"** %5, align 8
  %111 = getelementptr inbounds %"class.std::__1::shared_ptr.32", %"class.std::__1::shared_ptr.32"* %110, i32 0, i32 1
  %112 = load %"class.std::__1::__shared_weak_count"*, %"class.std::__1::__shared_weak_count"** %111, align 8
  store %"class.std::__1::__shared_weak_count"* %112, %"class.std::__1::__shared_weak_count"** %109, align 8
  %113 = getelementptr inbounds %"class.std::__1::shared_ptr.32", %"class.std::__1::shared_ptr.32"* %104, i32 0, i32 1
  %114 = load %"class.std::__1::__shared_weak_count"*, %"class.std::__1::__shared_weak_count"** %113, align 8
  %115 = icmp ne %"class.std::__1::__shared_weak_count"* %114, null
  br i1 %115, label %116, label %119

; <label>:116:                                    ; preds = %98
  %117 = getelementptr inbounds %"class.std::__1::shared_ptr.32", %"class.std::__1::shared_ptr.32"* %104, i32 0, i32 1
  %118 = load %"class.std::__1::__shared_weak_count"*, %"class.std::__1::__shared_weak_count"** %117, align 8
  call void @_ZNSt3__119__shared_weak_count12__add_sharedEv(%"class.std::__1::__shared_weak_count"* %118) #13
  br label %119

; <label>:119:                                    ; preds = %98, %116
  store %"class.std::__1::shared_ptr.32"* %40, %"class.std::__1::shared_ptr.32"** %3, align 8
  %120 = load %"class.std::__1::shared_ptr.32"*, %"class.std::__1::shared_ptr.32"** %3, align 8
  %121 = getelementptr inbounds %"class.std::__1::shared_ptr.32", %"class.std::__1::shared_ptr.32"* %120, i32 0, i32 0
  %122 = load %class.AstNode*, %class.AstNode** %121, align 8
  %123 = bitcast %class.AstNode* %122 to void (%class.AstNode*, i32)***
  %124 = load void (%class.AstNode*, i32)**, void (%class.AstNode*, i32)*** %123, align 8
  %125 = getelementptr inbounds void (%class.AstNode*, i32)*, void (%class.AstNode*, i32)** %124, i64 19
  %126 = load void (%class.AstNode*, i32)*, void (%class.AstNode*, i32)** %125, align 8
  %127 = load i32, i32* %35, align 4
  invoke void %126(%class.AstNode* %122, i32 %127)
          to label %128 unwind label %134

; <label>:128:                                    ; preds = %119
  call void @_ZNSt3__110shared_ptrI7AstNodeED1Ev(%"class.std::__1::shared_ptr.32"* %40) #13
  br label %129

; <label>:129:                                    ; preds = %128
  store %"class.std::__1::__wrap_iter"* %38, %"class.std::__1::__wrap_iter"** %9, align 8
  %130 = load %"class.std::__1::__wrap_iter"*, %"class.std::__1::__wrap_iter"** %9, align 8
  %131 = getelementptr inbounds %"class.std::__1::__wrap_iter", %"class.std::__1::__wrap_iter"* %130, i32 0, i32 0
  %132 = load %"class.std::__1::shared_ptr.32"*, %"class.std::__1::shared_ptr.32"** %131, align 8
  %133 = getelementptr inbounds %"class.std::__1::shared_ptr.32", %"class.std::__1::shared_ptr.32"* %132, i32 1
  store %"class.std::__1::shared_ptr.32"* %133, %"class.std::__1::shared_ptr.32"** %131, align 8
  br label %84

; <label>:134:                                    ; preds = %119
  %135 = landingpad { i8*, i32 }
          cleanup
  %136 = extractvalue { i8*, i32 } %135, 0
  store i8* %136, i8** %41, align 8
  %137 = extractvalue { i8*, i32 } %135, 1
  store i32 %137, i32* %42, align 4
  call void @_ZNSt3__110shared_ptrI7AstNodeED1Ev(%"class.std::__1::shared_ptr.32"* %40) #13
  call void @_ZNSt3__16vectorINS_10shared_ptrI7AstNodeEENS_9allocatorIS3_EEED1Ev(%"class.std::__1::vector.30"* %37) #13
  br label %139

; <label>:138:                                    ; preds = %97
  ret void

; <label>:139:                                    ; preds = %134
  %140 = load i8*, i8** %41, align 8
  %141 = load i32, i32* %42, align 4
  %142 = insertvalue { i8*, i32 } undef, i8* %140, 0
  %143 = insertvalue { i8*, i32 } %142, i32 %141, 1
  resume { i8*, i32 } %143
}

; Function Attrs: inlinehint nounwind ssp uwtable
define linkonce_odr void @_ZNSt3__16vectorINS_10shared_ptrI7AstNodeEENS_9allocatorIS3_EEED1Ev(%"class.std::__1::vector.30"*) unnamed_addr #3 align 2 {
  %2 = alloca %"class.std::__1::vector.30"*, align 8
  store %"class.std::__1::vector.30"* %0, %"class.std::__1::vector.30"** %2, align 8
  %3 = load %"class.std::__1::vector.30"*, %"class.std::__1::vector.30"** %2, align 8
  call void @_ZNSt3__16vectorINS_10shared_ptrI7AstNodeEENS_9allocatorIS3_EEED2Ev(%"class.std::__1::vector.30"* %3) #13
  ret void
}

; Function Attrs: inlinehint nounwind ssp uwtable
define linkonce_odr void @_ZN10ExpressionD1Ev(%class.Expression*) unnamed_addr #3 align 2 {
  %2 = alloca %class.Expression*, align 8
  store %class.Expression* %0, %class.Expression** %2, align 8
  %3 = load %class.Expression*, %class.Expression** %2, align 8
  call void @_ZN10ExpressionD2Ev(%class.Expression* %3) #13
  ret void
}

; Function Attrs: inlinehint nounwind ssp uwtable
define linkonce_odr void @_ZN10ExpressionD0Ev(%class.Expression*) unnamed_addr #3 align 2 {
  %2 = alloca %class.Expression*, align 8
  store %class.Expression* %0, %class.Expression** %2, align 8
  %3 = load %class.Expression*, %class.Expression** %2, align 8
  call void @_ZN10ExpressionD1Ev(%class.Expression* %3) #13
  %4 = bitcast %class.Expression* %3 to i8*
  call void @_ZdlPv(i8* %4) #14
  ret void
}

declare void @_ZN7AstNode10set_parentEPS_(%class.AstNode*, %class.AstNode*) unnamed_addr #5

; Function Attrs: inlinehint nounwind ssp uwtable
define linkonce_odr %class.AstNode* @_ZN7AstNode10get_parentEv(%class.AstNode*) unnamed_addr #3 align 2 {
  %2 = alloca %class.AstNode*, align 8
  store %class.AstNode* %0, %class.AstNode** %2, align 8
  %3 = load %class.AstNode*, %class.AstNode** %2, align 8
  %4 = getelementptr inbounds %class.AstNode, %class.AstNode* %3, i32 0, i32 4
  %5 = load %class.AstNode*, %class.AstNode** %4, align 8
  ret %class.AstNode* %5
}

; Function Attrs: inlinehint nounwind ssp uwtable
define linkonce_odr void @_ZN7AstNode9set_indexEiim(%class.AstNode*, i32, i32, i64) unnamed_addr #3 align 2 {
  %5 = alloca %class.AstNode*, align 8
  %6 = alloca i32, align 4
  %7 = alloca i32, align 4
  %8 = alloca i64, align 8
  store %class.AstNode* %0, %class.AstNode** %5, align 8
  store i32 %1, i32* %6, align 4
  store i32 %2, i32* %7, align 4
  store i64 %3, i64* %8, align 8
  %9 = load %class.AstNode*, %class.AstNode** %5, align 8
  %10 = load i32, i32* %6, align 4
  %11 = getelementptr inbounds %class.AstNode, %class.AstNode* %9, i32 0, i32 1
  store i32 %10, i32* %11, align 8
  %12 = load i32, i32* %7, align 4
  %13 = getelementptr inbounds %class.AstNode, %class.AstNode* %9, i32 0, i32 2
  store i32 %12, i32* %13, align 4
  %14 = load i64, i64* %8, align 8
  %15 = getelementptr inbounds %class.AstNode, %class.AstNode* %9, i32 0, i32 3
  store i64 %14, i64* %15, align 8
  ret void
}

; Function Attrs: inlinehint nounwind ssp uwtable
define linkonce_odr i32 @_ZNK7AstNode9get_startEv(%class.AstNode*) unnamed_addr #3 align 2 {
  %2 = alloca %class.AstNode*, align 8
  store %class.AstNode* %0, %class.AstNode** %2, align 8
  %3 = load %class.AstNode*, %class.AstNode** %2, align 8
  %4 = getelementptr inbounds %class.AstNode, %class.AstNode* %3, i32 0, i32 1
  %5 = load i32, i32* %4, align 8
  ret i32 %5
}

; Function Attrs: inlinehint nounwind ssp uwtable
define linkonce_odr i32 @_ZNK7AstNode7get_endEv(%class.AstNode*) unnamed_addr #3 align 2 {
  %2 = alloca %class.AstNode*, align 8
  store %class.AstNode* %0, %class.AstNode** %2, align 8
  %3 = load %class.AstNode*, %class.AstNode** %2, align 8
  %4 = getelementptr inbounds %class.AstNode, %class.AstNode* %3, i32 0, i32 2
  %5 = load i32, i32* %4, align 4
  ret i32 %5
}

; Function Attrs: inlinehint ssp uwtable
define linkonce_odr void @_ZN7AstNode4bindENSt3__112basic_stringIcNS0_11char_traitsIcEENS0_9allocatorIcEEEE(%class.AstNode*, %"class.std::__1::basic_string"*) unnamed_addr #1 align 2 {
  %3 = alloca %class.AstNode*, align 8
  store %class.AstNode* %0, %class.AstNode** %3, align 8
  %4 = load %class.AstNode*, %class.AstNode** %3, align 8
  %5 = getelementptr inbounds %class.AstNode, %class.AstNode* %4, i32 0, i32 14
  %6 = call dereferenceable(24) %"class.std::__1::basic_string"* @_ZNSt3__112basic_stringIcNS_11char_traitsIcEENS_9allocatorIcEEEaSERKS5_(%"class.std::__1::basic_string"* %5, %"class.std::__1::basic_string"* dereferenceable(24) %1)
  ret void
}

; Function Attrs: inlinehint nounwind ssp uwtable
define linkonce_odr void @_ZN7AstNode8set_declEP8DeclStmti(%class.AstNode*, %class.DeclStmt*, i32) unnamed_addr #3 align 2 {
  %4 = alloca %class.AstNode*, align 8
  %5 = alloca %class.DeclStmt*, align 8
  %6 = alloca i32, align 4
  store %class.AstNode* %0, %class.AstNode** %4, align 8
  store %class.DeclStmt* %1, %class.DeclStmt** %5, align 8
  store i32 %2, i32* %6, align 4
  %7 = load %class.AstNode*, %class.AstNode** %4, align 8
  %8 = load %class.DeclStmt*, %class.DeclStmt** %5, align 8
  %9 = getelementptr inbounds %class.AstNode, %class.AstNode* %7, i32 0, i32 5
  store %class.DeclStmt* %8, %class.DeclStmt** %9, align 8
  %10 = load i32, i32* %6, align 4
  %11 = getelementptr inbounds %class.AstNode, %class.AstNode* %7, i32 0, i32 8
  store i32 %10, i32* %11, align 4
  ret void
}

; Function Attrs: inlinehint ssp uwtable
define linkonce_odr void @_ZN7AstNode14set_attributesENSt3__16vectorINS0_12basic_stringIcNS0_11char_traitsIcEENS0_9allocatorIcEEEENS5_IS7_EEEE(%class.AstNode*, %"class.std::__1::vector"*) unnamed_addr #1 align 2 {
  %3 = alloca %"class.std::__1::__vector_base"*, align 8
  %4 = alloca %"class.std::__1::__vector_base"*, align 8
  %5 = alloca %"class.std::__1::__vector_base"*, align 8
  %6 = alloca %"class.std::__1::__vector_base"*, align 8
  %7 = alloca %"struct.std::__1::integral_constant.257", align 1
  %8 = alloca %"class.std::__1::vector"*, align 8
  %9 = alloca %"class.std::__1::vector"*, align 8
  %10 = alloca %class.AstNode*, align 8
  store %class.AstNode* %0, %class.AstNode** %10, align 8
  %11 = load %class.AstNode*, %class.AstNode** %10, align 8
  %12 = getelementptr inbounds %class.AstNode, %class.AstNode* %11, i32 0, i32 9
  store %"class.std::__1::vector"* %12, %"class.std::__1::vector"** %8, align 8
  store %"class.std::__1::vector"* %1, %"class.std::__1::vector"** %9, align 8
  %13 = load %"class.std::__1::vector"*, %"class.std::__1::vector"** %8, align 8
  %14 = load %"class.std::__1::vector"*, %"class.std::__1::vector"** %9, align 8
  %15 = icmp ne %"class.std::__1::vector"* %13, %14
  br i1 %15, label %16, label %31

; <label>:16:                                     ; preds = %2
  %17 = bitcast %"class.std::__1::vector"* %13 to %"class.std::__1::__vector_base"*
  %18 = load %"class.std::__1::vector"*, %"class.std::__1::vector"** %9, align 8
  %19 = bitcast %"class.std::__1::vector"* %18 to %"class.std::__1::__vector_base"*
  store %"class.std::__1::__vector_base"* %17, %"class.std::__1::__vector_base"** %5, align 8
  store %"class.std::__1::__vector_base"* %19, %"class.std::__1::__vector_base"** %6, align 8
  %20 = load %"class.std::__1::__vector_base"*, %"class.std::__1::__vector_base"** %5, align 8
  %21 = load %"class.std::__1::__vector_base"*, %"class.std::__1::__vector_base"** %6, align 8
  store %"class.std::__1::__vector_base"* %20, %"class.std::__1::__vector_base"** %3, align 8
  store %"class.std::__1::__vector_base"* %21, %"class.std::__1::__vector_base"** %4, align 8
  %22 = load %"class.std::__1::__vector_base"*, %"class.std::__1::__vector_base"** %3, align 8
  %23 = load %"class.std::__1::vector"*, %"class.std::__1::vector"** %9, align 8
  %24 = bitcast %"class.std::__1::vector"* %23 to %"class.std::__1::__vector_base"*
  %25 = getelementptr inbounds %"class.std::__1::__vector_base", %"class.std::__1::__vector_base"* %24, i32 0, i32 0
  %26 = load %"class.std::__1::basic_string"*, %"class.std::__1::basic_string"** %25, align 8
  %27 = load %"class.std::__1::vector"*, %"class.std::__1::vector"** %9, align 8
  %28 = bitcast %"class.std::__1::vector"* %27 to %"class.std::__1::__vector_base"*
  %29 = getelementptr inbounds %"class.std::__1::__vector_base", %"class.std::__1::__vector_base"* %28, i32 0, i32 1
  %30 = load %"class.std::__1::basic_string"*, %"class.std::__1::basic_string"** %29, align 8
  call void @_ZNSt3__16vectorINS_12basic_stringIcNS_11char_traitsIcEENS_9allocatorIcEEEENS4_IS6_EEE6assignIPS6_EENS_9enable_ifIXaasr21__is_forward_iteratorIT_EE5valuesr16is_constructibleIS6_NS_15iterator_traitsISC_E9referenceEEE5valueEvE4typeESC_SC_(%"class.std::__1::vector"* %13, %"class.std::__1::basic_string"* %26, %"class.std::__1::basic_string"* %30)
  br label %31

; <label>:31:                                     ; preds = %2, %16
  ret void
}

; Function Attrs: inlinehint ssp uwtable
define linkonce_odr void @_ZN7AstNode17set_inferred_typeE13TypeSpecifier(%class.AstNode*, %struct.TypeSpecifier*) unnamed_addr #1 align 2 {
  %3 = alloca %class.AstNode*, align 8
  store %class.AstNode* %0, %class.AstNode** %3, align 8
  %4 = load %class.AstNode*, %class.AstNode** %3, align 8
  %5 = getelementptr inbounds %class.AstNode, %class.AstNode* %4, i32 0, i32 10
  %6 = call dereferenceable(216) %struct.TypeSpecifier* @_ZN13TypeSpecifieraSERKS_(%struct.TypeSpecifier* %5, %struct.TypeSpecifier* dereferenceable(216) %1)
  ret void
}

; Function Attrs: inlinehint ssp uwtable
define linkonce_odr void @_ZN7AstNode17get_inferred_typeEv(%struct.TypeSpecifier* noalias sret, %class.AstNode*) unnamed_addr #1 align 2 {
  %3 = alloca %class.AstNode*, align 8
  store %class.AstNode* %1, %class.AstNode** %3, align 8
  %4 = load %class.AstNode*, %class.AstNode** %3, align 8
  %5 = getelementptr inbounds %class.AstNode, %class.AstNode* %4, i32 0, i32 10
  call void @_ZN13TypeSpecifierC1ERKS_(%struct.TypeSpecifier* %0, %struct.TypeSpecifier* dereferenceable(216) %5)
  ret void
}

; Function Attrs: inlinehint ssp uwtable
define linkonce_odr void @_ZN7AstNode13alloc_on_heapEv(%class.AstNode*) unnamed_addr #1 align 2 personality i8* bitcast (i32 (...)* @__gxx_personality_v0 to i8*) {
  %2 = alloca %"class.std::__1::__wrap_iter"*, align 8
  %3 = alloca %"class.std::__1::shared_ptr.32"*, align 8
  %4 = alloca %"class.std::__1::__wrap_iter"*, align 8
  %5 = alloca %"class.std::__1::__wrap_iter"*, align 8
  %6 = alloca %"class.std::__1::__wrap_iter"*, align 8
  %7 = alloca %"class.std::__1::__wrap_iter"*, align 8
  %8 = alloca %"class.std::__1::__wrap_iter"*, align 8
  %9 = alloca %"class.std::__1::__wrap_iter"*, align 8
  %10 = alloca %"class.std::__1::__wrap_iter"*, align 8
  %11 = alloca %"class.std::__1::__wrap_iter"*, align 8
  %12 = alloca %"class.std::__1::shared_ptr.32"*, align 8
  %13 = alloca %"class.std::__1::__wrap_iter"*, align 8
  %14 = alloca %"class.std::__1::shared_ptr.32"*, align 8
  %15 = alloca %"class.std::__1::__wrap_iter", align 8
  %16 = alloca %"class.std::__1::vector.30"*, align 8
  %17 = alloca %"class.std::__1::shared_ptr.32"*, align 8
  %18 = alloca %"class.std::__1::__wrap_iter", align 8
  %19 = alloca %"class.std::__1::vector.30"*, align 8
  %20 = alloca %"class.std::__1::__wrap_iter"*, align 8
  %21 = alloca %"class.std::__1::shared_ptr.32"*, align 8
  %22 = alloca %"class.std::__1::__wrap_iter"*, align 8
  %23 = alloca %"class.std::__1::shared_ptr.32"*, align 8
  %24 = alloca %"class.std::__1::__wrap_iter", align 8
  %25 = alloca %"class.std::__1::vector.30"*, align 8
  %26 = alloca %"class.std::__1::shared_ptr.32"*, align 8
  %27 = alloca %"class.std::__1::__wrap_iter", align 8
  %28 = alloca %"class.std::__1::vector.30"*, align 8
  %29 = alloca %class.AstNode*, align 8
  %30 = alloca %"class.std::__1::vector.30"*, align 8
  %31 = alloca %"class.std::__1::vector.30", align 8
  %32 = alloca %"class.std::__1::__wrap_iter", align 8
  %33 = alloca %"class.std::__1::__wrap_iter", align 8
  %34 = alloca %"class.std::__1::shared_ptr.32"*, align 8
  %35 = alloca i8*
  %36 = alloca i32
  store %class.AstNode* %0, %class.AstNode** %29, align 8
  %37 = load %class.AstNode*, %class.AstNode** %29, align 8
  %38 = getelementptr inbounds %class.AstNode, %class.AstNode* %37, i32 0, i32 15
  store i8 1, i8* %38, align 8
  %39 = bitcast %class.AstNode* %37 to void (%"class.std::__1::vector.30"*, %class.AstNode*)***
  %40 = load void (%"class.std::__1::vector.30"*, %class.AstNode*)**, void (%"class.std::__1::vector.30"*, %class.AstNode*)*** %39, align 8
  %41 = getelementptr inbounds void (%"class.std::__1::vector.30"*, %class.AstNode*)*, void (%"class.std::__1::vector.30"*, %class.AstNode*)** %40, i64 2
  %42 = load void (%"class.std::__1::vector.30"*, %class.AstNode*)*, void (%"class.std::__1::vector.30"*, %class.AstNode*)** %41, align 8
  call void %42(%"class.std::__1::vector.30"* sret %31, %class.AstNode* %37)
  store %"class.std::__1::vector.30"* %31, %"class.std::__1::vector.30"** %30, align 8
  %43 = load %"class.std::__1::vector.30"*, %"class.std::__1::vector.30"** %30, align 8
  store %"class.std::__1::vector.30"* %43, %"class.std::__1::vector.30"** %28, align 8
  %44 = load %"class.std::__1::vector.30"*, %"class.std::__1::vector.30"** %28, align 8
  %45 = bitcast %"class.std::__1::vector.30"* %44 to %"class.std::__1::__vector_base.31"*
  %46 = getelementptr inbounds %"class.std::__1::__vector_base.31", %"class.std::__1::__vector_base.31"* %45, i32 0, i32 0
  %47 = load %"class.std::__1::shared_ptr.32"*, %"class.std::__1::shared_ptr.32"** %46, align 8
  store %"class.std::__1::vector.30"* %44, %"class.std::__1::vector.30"** %25, align 8
  store %"class.std::__1::shared_ptr.32"* %47, %"class.std::__1::shared_ptr.32"** %26, align 8
  %48 = load %"class.std::__1::vector.30"*, %"class.std::__1::vector.30"** %25, align 8
  %49 = load %"class.std::__1::shared_ptr.32"*, %"class.std::__1::shared_ptr.32"** %26, align 8
  store %"class.std::__1::__wrap_iter"* %24, %"class.std::__1::__wrap_iter"** %22, align 8
  store %"class.std::__1::shared_ptr.32"* %49, %"class.std::__1::shared_ptr.32"** %23, align 8
  %50 = load %"class.std::__1::__wrap_iter"*, %"class.std::__1::__wrap_iter"** %22, align 8
  %51 = load %"class.std::__1::shared_ptr.32"*, %"class.std::__1::shared_ptr.32"** %23, align 8
  store %"class.std::__1::__wrap_iter"* %50, %"class.std::__1::__wrap_iter"** %20, align 8
  store %"class.std::__1::shared_ptr.32"* %51, %"class.std::__1::shared_ptr.32"** %21, align 8
  %52 = load %"class.std::__1::__wrap_iter"*, %"class.std::__1::__wrap_iter"** %20, align 8
  %53 = getelementptr inbounds %"class.std::__1::__wrap_iter", %"class.std::__1::__wrap_iter"* %52, i32 0, i32 0
  %54 = load %"class.std::__1::shared_ptr.32"*, %"class.std::__1::shared_ptr.32"** %21, align 8
  store %"class.std::__1::shared_ptr.32"* %54, %"class.std::__1::shared_ptr.32"** %53, align 8
  %55 = getelementptr inbounds %"class.std::__1::__wrap_iter", %"class.std::__1::__wrap_iter"* %24, i32 0, i32 0
  %56 = load %"class.std::__1::shared_ptr.32"*, %"class.std::__1::shared_ptr.32"** %55, align 8
  %57 = getelementptr inbounds %"class.std::__1::__wrap_iter", %"class.std::__1::__wrap_iter"* %27, i32 0, i32 0
  store %"class.std::__1::shared_ptr.32"* %56, %"class.std::__1::shared_ptr.32"** %57, align 8
  %58 = getelementptr inbounds %"class.std::__1::__wrap_iter", %"class.std::__1::__wrap_iter"* %27, i32 0, i32 0
  %59 = load %"class.std::__1::shared_ptr.32"*, %"class.std::__1::shared_ptr.32"** %58, align 8
  %60 = getelementptr inbounds %"class.std::__1::__wrap_iter", %"class.std::__1::__wrap_iter"* %32, i32 0, i32 0
  store %"class.std::__1::shared_ptr.32"* %59, %"class.std::__1::shared_ptr.32"** %60, align 8
  %61 = load %"class.std::__1::vector.30"*, %"class.std::__1::vector.30"** %30, align 8
  store %"class.std::__1::vector.30"* %61, %"class.std::__1::vector.30"** %19, align 8
  %62 = load %"class.std::__1::vector.30"*, %"class.std::__1::vector.30"** %19, align 8
  %63 = bitcast %"class.std::__1::vector.30"* %62 to %"class.std::__1::__vector_base.31"*
  %64 = getelementptr inbounds %"class.std::__1::__vector_base.31", %"class.std::__1::__vector_base.31"* %63, i32 0, i32 1
  %65 = load %"class.std::__1::shared_ptr.32"*, %"class.std::__1::shared_ptr.32"** %64, align 8
  store %"class.std::__1::vector.30"* %62, %"class.std::__1::vector.30"** %16, align 8
  store %"class.std::__1::shared_ptr.32"* %65, %"class.std::__1::shared_ptr.32"** %17, align 8
  %66 = load %"class.std::__1::vector.30"*, %"class.std::__1::vector.30"** %16, align 8
  %67 = load %"class.std::__1::shared_ptr.32"*, %"class.std::__1::shared_ptr.32"** %17, align 8
  store %"class.std::__1::__wrap_iter"* %15, %"class.std::__1::__wrap_iter"** %13, align 8
  store %"class.std::__1::shared_ptr.32"* %67, %"class.std::__1::shared_ptr.32"** %14, align 8
  %68 = load %"class.std::__1::__wrap_iter"*, %"class.std::__1::__wrap_iter"** %13, align 8
  %69 = load %"class.std::__1::shared_ptr.32"*, %"class.std::__1::shared_ptr.32"** %14, align 8
  store %"class.std::__1::__wrap_iter"* %68, %"class.std::__1::__wrap_iter"** %11, align 8
  store %"class.std::__1::shared_ptr.32"* %69, %"class.std::__1::shared_ptr.32"** %12, align 8
  %70 = load %"class.std::__1::__wrap_iter"*, %"class.std::__1::__wrap_iter"** %11, align 8
  %71 = getelementptr inbounds %"class.std::__1::__wrap_iter", %"class.std::__1::__wrap_iter"* %70, i32 0, i32 0
  %72 = load %"class.std::__1::shared_ptr.32"*, %"class.std::__1::shared_ptr.32"** %12, align 8
  store %"class.std::__1::shared_ptr.32"* %72, %"class.std::__1::shared_ptr.32"** %71, align 8
  %73 = getelementptr inbounds %"class.std::__1::__wrap_iter", %"class.std::__1::__wrap_iter"* %15, i32 0, i32 0
  %74 = load %"class.std::__1::shared_ptr.32"*, %"class.std::__1::shared_ptr.32"** %73, align 8
  %75 = getelementptr inbounds %"class.std::__1::__wrap_iter", %"class.std::__1::__wrap_iter"* %18, i32 0, i32 0
  store %"class.std::__1::shared_ptr.32"* %74, %"class.std::__1::shared_ptr.32"** %75, align 8
  %76 = getelementptr inbounds %"class.std::__1::__wrap_iter", %"class.std::__1::__wrap_iter"* %18, i32 0, i32 0
  %77 = load %"class.std::__1::shared_ptr.32"*, %"class.std::__1::shared_ptr.32"** %76, align 8
  %78 = getelementptr inbounds %"class.std::__1::__wrap_iter", %"class.std::__1::__wrap_iter"* %33, i32 0, i32 0
  store %"class.std::__1::shared_ptr.32"* %77, %"class.std::__1::shared_ptr.32"** %78, align 8
  br label %79

; <label>:79:                                     ; preds = %106, %1
  store %"class.std::__1::__wrap_iter"* %32, %"class.std::__1::__wrap_iter"** %8, align 8
  store %"class.std::__1::__wrap_iter"* %33, %"class.std::__1::__wrap_iter"** %9, align 8
  %80 = load %"class.std::__1::__wrap_iter"*, %"class.std::__1::__wrap_iter"** %8, align 8
  %81 = load %"class.std::__1::__wrap_iter"*, %"class.std::__1::__wrap_iter"** %9, align 8
  store %"class.std::__1::__wrap_iter"* %80, %"class.std::__1::__wrap_iter"** %6, align 8
  store %"class.std::__1::__wrap_iter"* %81, %"class.std::__1::__wrap_iter"** %7, align 8
  %82 = load %"class.std::__1::__wrap_iter"*, %"class.std::__1::__wrap_iter"** %6, align 8
  store %"class.std::__1::__wrap_iter"* %82, %"class.std::__1::__wrap_iter"** %5, align 8
  %83 = load %"class.std::__1::__wrap_iter"*, %"class.std::__1::__wrap_iter"** %5, align 8
  %84 = getelementptr inbounds %"class.std::__1::__wrap_iter", %"class.std::__1::__wrap_iter"* %83, i32 0, i32 0
  %85 = load %"class.std::__1::shared_ptr.32"*, %"class.std::__1::shared_ptr.32"** %84, align 8
  %86 = load %"class.std::__1::__wrap_iter"*, %"class.std::__1::__wrap_iter"** %7, align 8
  store %"class.std::__1::__wrap_iter"* %86, %"class.std::__1::__wrap_iter"** %4, align 8
  %87 = load %"class.std::__1::__wrap_iter"*, %"class.std::__1::__wrap_iter"** %4, align 8
  %88 = getelementptr inbounds %"class.std::__1::__wrap_iter", %"class.std::__1::__wrap_iter"* %87, i32 0, i32 0
  %89 = load %"class.std::__1::shared_ptr.32"*, %"class.std::__1::shared_ptr.32"** %88, align 8
  %90 = icmp eq %"class.std::__1::shared_ptr.32"* %85, %89
  %91 = xor i1 %90, true
  br i1 %91, label %93, label %92

; <label>:92:                                     ; preds = %79
  call void @_ZNSt3__16vectorINS_10shared_ptrI7AstNodeEENS_9allocatorIS3_EEED1Ev(%"class.std::__1::vector.30"* %31) #13
  br label %115

; <label>:93:                                     ; preds = %79
  store %"class.std::__1::__wrap_iter"* %32, %"class.std::__1::__wrap_iter"** %2, align 8
  %94 = load %"class.std::__1::__wrap_iter"*, %"class.std::__1::__wrap_iter"** %2, align 8
  %95 = getelementptr inbounds %"class.std::__1::__wrap_iter", %"class.std::__1::__wrap_iter"* %94, i32 0, i32 0
  %96 = load %"class.std::__1::shared_ptr.32"*, %"class.std::__1::shared_ptr.32"** %95, align 8
  store %"class.std::__1::shared_ptr.32"* %96, %"class.std::__1::shared_ptr.32"** %34, align 8
  %97 = load %"class.std::__1::shared_ptr.32"*, %"class.std::__1::shared_ptr.32"** %34, align 8
  store %"class.std::__1::shared_ptr.32"* %97, %"class.std::__1::shared_ptr.32"** %3, align 8
  %98 = load %"class.std::__1::shared_ptr.32"*, %"class.std::__1::shared_ptr.32"** %3, align 8
  %99 = getelementptr inbounds %"class.std::__1::shared_ptr.32", %"class.std::__1::shared_ptr.32"* %98, i32 0, i32 0
  %100 = load %class.AstNode*, %class.AstNode** %99, align 8
  %101 = bitcast %class.AstNode* %100 to void (%class.AstNode*)***
  %102 = load void (%class.AstNode*)**, void (%class.AstNode*)*** %101, align 8
  %103 = getelementptr inbounds void (%class.AstNode*)*, void (%class.AstNode*)** %102, i64 13
  %104 = load void (%class.AstNode*)*, void (%class.AstNode*)** %103, align 8
  invoke void %104(%class.AstNode* %100)
          to label %105 unwind label %111

; <label>:105:                                    ; preds = %93
  br label %106

; <label>:106:                                    ; preds = %105
  store %"class.std::__1::__wrap_iter"* %32, %"class.std::__1::__wrap_iter"** %10, align 8
  %107 = load %"class.std::__1::__wrap_iter"*, %"class.std::__1::__wrap_iter"** %10, align 8
  %108 = getelementptr inbounds %"class.std::__1::__wrap_iter", %"class.std::__1::__wrap_iter"* %107, i32 0, i32 0
  %109 = load %"class.std::__1::shared_ptr.32"*, %"class.std::__1::shared_ptr.32"** %108, align 8
  %110 = getelementptr inbounds %"class.std::__1::shared_ptr.32", %"class.std::__1::shared_ptr.32"* %109, i32 1
  store %"class.std::__1::shared_ptr.32"* %110, %"class.std::__1::shared_ptr.32"** %108, align 8
  br label %79

; <label>:111:                                    ; preds = %93
  %112 = landingpad { i8*, i32 }
          cleanup
  %113 = extractvalue { i8*, i32 } %112, 0
  store i8* %113, i8** %35, align 8
  %114 = extractvalue { i8*, i32 } %112, 1
  store i32 %114, i32* %36, align 4
  call void @_ZNSt3__16vectorINS_10shared_ptrI7AstNodeEENS_9allocatorIS3_EEED1Ev(%"class.std::__1::vector.30"* %31) #13
  br label %116

; <label>:115:                                    ; preds = %92
  ret void

; <label>:116:                                    ; preds = %111
  %117 = load i8*, i8** %35, align 8
  %118 = load i32, i32* %36, align 4
  %119 = insertvalue { i8*, i32 } undef, i8* %117, 0
  %120 = insertvalue { i8*, i32 } %119, i32 %118, 1
  resume { i8*, i32 } %120
}

declare void @_ZN7AstNode10get_sourceEv(%"class.std::__1::basic_string"* sret, %class.AstNode*) unnamed_addr #5

; Function Attrs: inlinehint nounwind ssp uwtable
define linkonce_odr i32 @_ZN10Expression8get_typeEv(%class.Expression*) unnamed_addr #3 align 2 {
  %2 = alloca %class.Expression*, align 8
  store %class.Expression* %0, %class.Expression** %2, align 8
  %3 = load %class.Expression*, %class.Expression** %2, align 8
  ret i32 4
}

; Function Attrs: inlinehint ssp uwtable
define linkonce_odr void @_ZN10Expression6acceptER7Visitor(%struct.Variant* noalias sret, %class.Expression*, %class.Visitor* dereferenceable(8)) unnamed_addr #1 align 2 {
  %4 = alloca %class.Expression*, align 8
  %5 = alloca %class.Visitor*, align 8
  store %class.Expression* %1, %class.Expression** %4, align 8
  store %class.Visitor* %2, %class.Visitor** %5, align 8
  %6 = load %class.Expression*, %class.Expression** %4, align 8
  %7 = load %class.Visitor*, %class.Visitor** %5, align 8
  %8 = bitcast %class.Visitor* %7 to void (%struct.Variant*, %class.Visitor*, %class.Expression*)***
  %9 = load void (%struct.Variant*, %class.Visitor*, %class.Expression*)**, void (%struct.Variant*, %class.Visitor*, %class.Expression*)*** %8, align 8
  %10 = getelementptr inbounds void (%struct.Variant*, %class.Visitor*, %class.Expression*)*, void (%struct.Variant*, %class.Visitor*, %class.Expression*)** %9, i64 30
  %11 = load void (%struct.Variant*, %class.Visitor*, %class.Expression*)*, void (%struct.Variant*, %class.Visitor*, %class.Expression*)** %10, align 8
  call void %11(%struct.Variant* sret %0, %class.Visitor* %7, %class.Expression* %6)
  ret void
}

; Function Attrs: inlinehint ssp uwtable
define linkonce_odr void @_ZN10Expression6acceptER14CodeGenVisitor(%struct.CGValue* noalias sret, %class.Expression*, %class.CodeGenVisitor* dereferenceable(448)) unnamed_addr #1 align 2 {
  %4 = alloca %class.Expression*, align 8
  %5 = alloca %class.CodeGenVisitor*, align 8
  store %class.Expression* %1, %class.Expression** %4, align 8
  store %class.CodeGenVisitor* %2, %class.CodeGenVisitor** %5, align 8
  %6 = load %class.Expression*, %class.Expression** %4, align 8
  %7 = load %class.CodeGenVisitor*, %class.CodeGenVisitor** %5, align 8
  %8 = bitcast %class.CodeGenVisitor* %7 to void (%struct.CGValue*, %class.CodeGenVisitor*, %class.Expression*)***
  %9 = load void (%struct.CGValue*, %class.CodeGenVisitor*, %class.Expression*)**, void (%struct.CGValue*, %class.CodeGenVisitor*, %class.Expression*)*** %8, align 8
  %10 = getelementptr inbounds void (%struct.CGValue*, %class.CodeGenVisitor*, %class.Expression*)*, void (%struct.CGValue*, %class.CodeGenVisitor*, %class.Expression*)** %9, i64 30
  %11 = load void (%struct.CGValue*, %class.CodeGenVisitor*, %class.Expression*)*, void (%struct.CGValue*, %class.CodeGenVisitor*, %class.Expression*)** %10, align 8
  call void %11(%struct.CGValue* sret %0, %class.CodeGenVisitor* %7, %class.Expression* %6)
  ret void
}

; Function Attrs: ssp uwtable
define linkonce_odr void @_ZN10Expression6acceptER16TypeCheckVisitor(%struct.TypeSpecifier* noalias sret, %class.Expression*, %class.TypeCheckVisitor* dereferenceable(840)) unnamed_addr #0 align 2 {
  %4 = alloca %class.Expression*, align 8
  %5 = alloca %class.TypeCheckVisitor*, align 8
  store %class.Expression* %1, %class.Expression** %4, align 8
  store %class.TypeCheckVisitor* %2, %class.TypeCheckVisitor** %5, align 8
  %6 = load %class.Expression*, %class.Expression** %4, align 8
  %7 = load %class.TypeCheckVisitor*, %class.TypeCheckVisitor** %5, align 8
  %8 = bitcast %class.TypeCheckVisitor* %7 to void (%struct.TypeSpecifier*, %class.TypeCheckVisitor*, %class.Expression*)***
  %9 = load void (%struct.TypeSpecifier*, %class.TypeCheckVisitor*, %class.Expression*)**, void (%struct.TypeSpecifier*, %class.TypeCheckVisitor*, %class.Expression*)*** %8, align 8
  %10 = getelementptr inbounds void (%struct.TypeSpecifier*, %class.TypeCheckVisitor*, %class.Expression*)*, void (%struct.TypeSpecifier*, %class.TypeCheckVisitor*, %class.Expression*)** %9, i64 30
  %11 = load void (%struct.TypeSpecifier*, %class.TypeCheckVisitor*, %class.Expression*)*, void (%struct.TypeSpecifier*, %class.TypeCheckVisitor*, %class.Expression*)** %10, align 8
  call void %11(%struct.TypeSpecifier* sret %0, %class.TypeCheckVisitor* %7, %class.Expression* %6)
  ret void
}

declare void @_ZN7AstNode5__tabEi(%class.AstNode*, i32) unnamed_addr #5

; Function Attrs: inlinehint ssp uwtable
define linkonce_odr void @_ZN10Expression13return_lvalueEb(%class.Expression*, i1 zeroext) unnamed_addr #1 align 2 personality i8* bitcast (i32 (...)* @__gxx_personality_v0 to i8*) {
  %3 = alloca %"class.std::__1::shared_ptr"*, align 8
  %4 = alloca %"class.std::__1::shared_ptr"*, align 8
  %5 = alloca %"class.std::__1::shared_ptr"*, align 8
  %6 = alloca %"class.std::__1::shared_ptr"*, align 8
  %7 = alloca %"class.std::__1::shared_ptr.32"*, align 8
  %8 = alloca %class.Expression*, align 8
  %9 = alloca %"class.std::__1::shared_ptr"*, align 8
  %10 = alloca %"class.std::__1::shared_ptr.32"*, align 8
  %11 = alloca %class.Expression*, align 8
  %12 = alloca %"class.std::__1::shared_ptr"*, align 8
  %13 = alloca %"class.std::__1::shared_ptr"*, align 8
  %14 = alloca %"class.std::__1::shared_ptr.32"*, align 8
  %15 = alloca %"class.std::__1::shared_ptr.32"*, align 8
  %16 = alloca %class.Expression*, align 8
  %17 = alloca %"class.std::__1::__wrap_iter"*, align 8
  %18 = alloca %"class.std::__1::__wrap_iter"*, align 8
  %19 = alloca %"class.std::__1::__wrap_iter"*, align 8
  %20 = alloca %"class.std::__1::__wrap_iter"*, align 8
  %21 = alloca %"class.std::__1::__wrap_iter"*, align 8
  %22 = alloca %"class.std::__1::__wrap_iter"*, align 8
  %23 = alloca %"class.std::__1::__wrap_iter"*, align 8
  %24 = alloca %"class.std::__1::__wrap_iter"*, align 8
  %25 = alloca %"class.std::__1::shared_ptr.32"*, align 8
  %26 = alloca %"class.std::__1::__wrap_iter"*, align 8
  %27 = alloca %"class.std::__1::shared_ptr.32"*, align 8
  %28 = alloca %"class.std::__1::__wrap_iter", align 8
  %29 = alloca %"class.std::__1::vector.30"*, align 8
  %30 = alloca %"class.std::__1::shared_ptr.32"*, align 8
  %31 = alloca %"class.std::__1::__wrap_iter", align 8
  %32 = alloca %"class.std::__1::vector.30"*, align 8
  %33 = alloca %"class.std::__1::__wrap_iter"*, align 8
  %34 = alloca %"class.std::__1::__wrap_iter"*, align 8
  %35 = alloca %"class.std::__1::shared_ptr.32"*, align 8
  %36 = alloca %"class.std::__1::__wrap_iter"*, align 8
  %37 = alloca %"class.std::__1::shared_ptr.32"*, align 8
  %38 = alloca %"class.std::__1::__wrap_iter", align 8
  %39 = alloca %"class.std::__1::vector.30"*, align 8
  %40 = alloca %"class.std::__1::shared_ptr.32"*, align 8
  %41 = alloca %"class.std::__1::__wrap_iter", align 8
  %42 = alloca %"class.std::__1::vector.30"*, align 8
  %43 = alloca %class.Expression*, align 8
  %44 = alloca i8, align 1
  %45 = alloca %"class.std::__1::vector.30"*, align 8
  %46 = alloca %"class.std::__1::vector.30", align 8
  %47 = alloca %"class.std::__1::__wrap_iter", align 8
  %48 = alloca %"class.std::__1::__wrap_iter", align 8
  %49 = alloca %"class.std::__1::shared_ptr.32"*, align 8
  %50 = alloca %"class.std::__1::shared_ptr", align 8
  %51 = alloca i8*
  %52 = alloca i32
  store %class.Expression* %0, %class.Expression** %43, align 8
  %53 = zext i1 %1 to i8
  store i8 %53, i8* %44, align 1
  %54 = load %class.Expression*, %class.Expression** %43, align 8
  %55 = load i8, i8* %44, align 1
  %56 = trunc i8 %55 to i1
  %57 = getelementptr inbounds %class.Expression, %class.Expression* %54, i32 0, i32 4
  %58 = zext i1 %56 to i8
  store i8 %58, i8* %57, align 8
  %59 = bitcast %class.Expression* %54 to void (%"class.std::__1::vector.30"*, %class.Expression*)***
  %60 = load void (%"class.std::__1::vector.30"*, %class.Expression*)**, void (%"class.std::__1::vector.30"*, %class.Expression*)*** %59, align 8
  %61 = getelementptr inbounds void (%"class.std::__1::vector.30"*, %class.Expression*)*, void (%"class.std::__1::vector.30"*, %class.Expression*)** %60, i64 2
  %62 = load void (%"class.std::__1::vector.30"*, %class.Expression*)*, void (%"class.std::__1::vector.30"*, %class.Expression*)** %61, align 8
  call void %62(%"class.std::__1::vector.30"* sret %46, %class.Expression* %54)
  store %"class.std::__1::vector.30"* %46, %"class.std::__1::vector.30"** %45, align 8
  %63 = load %"class.std::__1::vector.30"*, %"class.std::__1::vector.30"** %45, align 8
  store %"class.std::__1::vector.30"* %63, %"class.std::__1::vector.30"** %42, align 8
  %64 = load %"class.std::__1::vector.30"*, %"class.std::__1::vector.30"** %42, align 8
  %65 = bitcast %"class.std::__1::vector.30"* %64 to %"class.std::__1::__vector_base.31"*
  %66 = getelementptr inbounds %"class.std::__1::__vector_base.31", %"class.std::__1::__vector_base.31"* %65, i32 0, i32 0
  %67 = load %"class.std::__1::shared_ptr.32"*, %"class.std::__1::shared_ptr.32"** %66, align 8
  store %"class.std::__1::vector.30"* %64, %"class.std::__1::vector.30"** %39, align 8
  store %"class.std::__1::shared_ptr.32"* %67, %"class.std::__1::shared_ptr.32"** %40, align 8
  %68 = load %"class.std::__1::vector.30"*, %"class.std::__1::vector.30"** %39, align 8
  %69 = load %"class.std::__1::shared_ptr.32"*, %"class.std::__1::shared_ptr.32"** %40, align 8
  store %"class.std::__1::__wrap_iter"* %38, %"class.std::__1::__wrap_iter"** %36, align 8
  store %"class.std::__1::shared_ptr.32"* %69, %"class.std::__1::shared_ptr.32"** %37, align 8
  %70 = load %"class.std::__1::__wrap_iter"*, %"class.std::__1::__wrap_iter"** %36, align 8
  %71 = load %"class.std::__1::shared_ptr.32"*, %"class.std::__1::shared_ptr.32"** %37, align 8
  store %"class.std::__1::__wrap_iter"* %70, %"class.std::__1::__wrap_iter"** %34, align 8
  store %"class.std::__1::shared_ptr.32"* %71, %"class.std::__1::shared_ptr.32"** %35, align 8
  %72 = load %"class.std::__1::__wrap_iter"*, %"class.std::__1::__wrap_iter"** %34, align 8
  %73 = getelementptr inbounds %"class.std::__1::__wrap_iter", %"class.std::__1::__wrap_iter"* %72, i32 0, i32 0
  %74 = load %"class.std::__1::shared_ptr.32"*, %"class.std::__1::shared_ptr.32"** %35, align 8
  store %"class.std::__1::shared_ptr.32"* %74, %"class.std::__1::shared_ptr.32"** %73, align 8
  %75 = getelementptr inbounds %"class.std::__1::__wrap_iter", %"class.std::__1::__wrap_iter"* %38, i32 0, i32 0
  %76 = load %"class.std::__1::shared_ptr.32"*, %"class.std::__1::shared_ptr.32"** %75, align 8
  %77 = getelementptr inbounds %"class.std::__1::__wrap_iter", %"class.std::__1::__wrap_iter"* %41, i32 0, i32 0
  store %"class.std::__1::shared_ptr.32"* %76, %"class.std::__1::shared_ptr.32"** %77, align 8
  %78 = getelementptr inbounds %"class.std::__1::__wrap_iter", %"class.std::__1::__wrap_iter"* %41, i32 0, i32 0
  %79 = load %"class.std::__1::shared_ptr.32"*, %"class.std::__1::shared_ptr.32"** %78, align 8
  %80 = getelementptr inbounds %"class.std::__1::__wrap_iter", %"class.std::__1::__wrap_iter"* %47, i32 0, i32 0
  store %"class.std::__1::shared_ptr.32"* %79, %"class.std::__1::shared_ptr.32"** %80, align 8
  %81 = load %"class.std::__1::vector.30"*, %"class.std::__1::vector.30"** %45, align 8
  store %"class.std::__1::vector.30"* %81, %"class.std::__1::vector.30"** %32, align 8
  %82 = load %"class.std::__1::vector.30"*, %"class.std::__1::vector.30"** %32, align 8
  %83 = bitcast %"class.std::__1::vector.30"* %82 to %"class.std::__1::__vector_base.31"*
  %84 = getelementptr inbounds %"class.std::__1::__vector_base.31", %"class.std::__1::__vector_base.31"* %83, i32 0, i32 1
  %85 = load %"class.std::__1::shared_ptr.32"*, %"class.std::__1::shared_ptr.32"** %84, align 8
  store %"class.std::__1::vector.30"* %82, %"class.std::__1::vector.30"** %29, align 8
  store %"class.std::__1::shared_ptr.32"* %85, %"class.std::__1::shared_ptr.32"** %30, align 8
  %86 = load %"class.std::__1::vector.30"*, %"class.std::__1::vector.30"** %29, align 8
  %87 = load %"class.std::__1::shared_ptr.32"*, %"class.std::__1::shared_ptr.32"** %30, align 8
  store %"class.std::__1::__wrap_iter"* %28, %"class.std::__1::__wrap_iter"** %26, align 8
  store %"class.std::__1::shared_ptr.32"* %87, %"class.std::__1::shared_ptr.32"** %27, align 8
  %88 = load %"class.std::__1::__wrap_iter"*, %"class.std::__1::__wrap_iter"** %26, align 8
  %89 = load %"class.std::__1::shared_ptr.32"*, %"class.std::__1::shared_ptr.32"** %27, align 8
  store %"class.std::__1::__wrap_iter"* %88, %"class.std::__1::__wrap_iter"** %24, align 8
  store %"class.std::__1::shared_ptr.32"* %89, %"class.std::__1::shared_ptr.32"** %25, align 8
  %90 = load %"class.std::__1::__wrap_iter"*, %"class.std::__1::__wrap_iter"** %24, align 8
  %91 = getelementptr inbounds %"class.std::__1::__wrap_iter", %"class.std::__1::__wrap_iter"* %90, i32 0, i32 0
  %92 = load %"class.std::__1::shared_ptr.32"*, %"class.std::__1::shared_ptr.32"** %25, align 8
  store %"class.std::__1::shared_ptr.32"* %92, %"class.std::__1::shared_ptr.32"** %91, align 8
  %93 = getelementptr inbounds %"class.std::__1::__wrap_iter", %"class.std::__1::__wrap_iter"* %28, i32 0, i32 0
  %94 = load %"class.std::__1::shared_ptr.32"*, %"class.std::__1::shared_ptr.32"** %93, align 8
  %95 = getelementptr inbounds %"class.std::__1::__wrap_iter", %"class.std::__1::__wrap_iter"* %31, i32 0, i32 0
  store %"class.std::__1::shared_ptr.32"* %94, %"class.std::__1::shared_ptr.32"** %95, align 8
  %96 = getelementptr inbounds %"class.std::__1::__wrap_iter", %"class.std::__1::__wrap_iter"* %31, i32 0, i32 0
  %97 = load %"class.std::__1::shared_ptr.32"*, %"class.std::__1::shared_ptr.32"** %96, align 8
  %98 = getelementptr inbounds %"class.std::__1::__wrap_iter", %"class.std::__1::__wrap_iter"* %48, i32 0, i32 0
  store %"class.std::__1::shared_ptr.32"* %97, %"class.std::__1::shared_ptr.32"** %98, align 8
  br label %99

; <label>:99:                                     ; preds = %179, %2
  store %"class.std::__1::__wrap_iter"* %47, %"class.std::__1::__wrap_iter"** %22, align 8
  store %"class.std::__1::__wrap_iter"* %48, %"class.std::__1::__wrap_iter"** %23, align 8
  %100 = load %"class.std::__1::__wrap_iter"*, %"class.std::__1::__wrap_iter"** %22, align 8
  %101 = load %"class.std::__1::__wrap_iter"*, %"class.std::__1::__wrap_iter"** %23, align 8
  store %"class.std::__1::__wrap_iter"* %100, %"class.std::__1::__wrap_iter"** %20, align 8
  store %"class.std::__1::__wrap_iter"* %101, %"class.std::__1::__wrap_iter"** %21, align 8
  %102 = load %"class.std::__1::__wrap_iter"*, %"class.std::__1::__wrap_iter"** %20, align 8
  store %"class.std::__1::__wrap_iter"* %102, %"class.std::__1::__wrap_iter"** %19, align 8
  %103 = load %"class.std::__1::__wrap_iter"*, %"class.std::__1::__wrap_iter"** %19, align 8
  %104 = getelementptr inbounds %"class.std::__1::__wrap_iter", %"class.std::__1::__wrap_iter"* %103, i32 0, i32 0
  %105 = load %"class.std::__1::shared_ptr.32"*, %"class.std::__1::shared_ptr.32"** %104, align 8
  %106 = load %"class.std::__1::__wrap_iter"*, %"class.std::__1::__wrap_iter"** %21, align 8
  store %"class.std::__1::__wrap_iter"* %106, %"class.std::__1::__wrap_iter"** %18, align 8
  %107 = load %"class.std::__1::__wrap_iter"*, %"class.std::__1::__wrap_iter"** %18, align 8
  %108 = getelementptr inbounds %"class.std::__1::__wrap_iter", %"class.std::__1::__wrap_iter"* %107, i32 0, i32 0
  %109 = load %"class.std::__1::shared_ptr.32"*, %"class.std::__1::shared_ptr.32"** %108, align 8
  %110 = icmp eq %"class.std::__1::shared_ptr.32"* %105, %109
  %111 = xor i1 %110, true
  br i1 %111, label %113, label %112

; <label>:112:                                    ; preds = %99
  call void @_ZNSt3__16vectorINS_10shared_ptrI7AstNodeEENS_9allocatorIS3_EEED1Ev(%"class.std::__1::vector.30"* %46) #13
  br label %184

; <label>:113:                                    ; preds = %99
  store %"class.std::__1::__wrap_iter"* %47, %"class.std::__1::__wrap_iter"** %17, align 8
  %114 = load %"class.std::__1::__wrap_iter"*, %"class.std::__1::__wrap_iter"** %17, align 8
  %115 = getelementptr inbounds %"class.std::__1::__wrap_iter", %"class.std::__1::__wrap_iter"* %114, i32 0, i32 0
  %116 = load %"class.std::__1::shared_ptr.32"*, %"class.std::__1::shared_ptr.32"** %115, align 8
  store %"class.std::__1::shared_ptr.32"* %116, %"class.std::__1::shared_ptr.32"** %49, align 8
  %117 = load %"class.std::__1::shared_ptr.32"*, %"class.std::__1::shared_ptr.32"** %49, align 8
  store %"class.std::__1::shared_ptr.32"* %117, %"class.std::__1::shared_ptr.32"** %15, align 8, !noalias !2
  %118 = load %"class.std::__1::shared_ptr.32"*, %"class.std::__1::shared_ptr.32"** %15, align 8, !noalias !2
  store %"class.std::__1::shared_ptr.32"* %118, %"class.std::__1::shared_ptr.32"** %14, align 8, !noalias !2
  %119 = load %"class.std::__1::shared_ptr.32"*, %"class.std::__1::shared_ptr.32"** %14, align 8, !noalias !2
  %120 = getelementptr inbounds %"class.std::__1::shared_ptr.32", %"class.std::__1::shared_ptr.32"* %119, i32 0, i32 0
  %121 = load %class.AstNode*, %class.AstNode** %120, align 8, !noalias !2
  %122 = icmp eq %class.AstNode* %121, null
  br i1 %122, label %127, label %123

; <label>:123:                                    ; preds = %113
  %124 = bitcast %class.AstNode* %121 to i8*
  %125 = call i8* @__dynamic_cast(i8* %124, i8* bitcast (i8** @_ZTI7AstNode to i8*), i8* bitcast ({ i8*, i8*, i8* }* @_ZTI10Expression to i8*), i64 0) #13
  %126 = bitcast i8* %125 to %class.Expression*
  br label %128

; <label>:127:                                    ; preds = %113
  br label %128

; <label>:128:                                    ; preds = %127, %123
  %129 = phi %class.Expression* [ %126, %123 ], [ null, %127 ]
  store %class.Expression* %129, %class.Expression** %16, align 8, !noalias !2
  %130 = load %class.Expression*, %class.Expression** %16, align 8, !noalias !2
  %131 = icmp ne %class.Expression* %130, null
  br i1 %131, label %132, label %152

; <label>:132:                                    ; preds = %128
  %133 = load %"class.std::__1::shared_ptr.32"*, %"class.std::__1::shared_ptr.32"** %15, align 8, !noalias !2
  %134 = load %class.Expression*, %class.Expression** %16, align 8, !noalias !2
  store %"class.std::__1::shared_ptr"* %50, %"class.std::__1::shared_ptr"** %9, align 8, !noalias !2
  store %"class.std::__1::shared_ptr.32"* %133, %"class.std::__1::shared_ptr.32"** %10, align 8, !noalias !2
  store %class.Expression* %134, %class.Expression** %11, align 8, !noalias !2
  %135 = load %"class.std::__1::shared_ptr"*, %"class.std::__1::shared_ptr"** %9, align 8, !noalias !2
  %136 = load %"class.std::__1::shared_ptr.32"*, %"class.std::__1::shared_ptr.32"** %10, align 8, !noalias !2
  %137 = load %class.Expression*, %class.Expression** %11, align 8, !noalias !2
  store %"class.std::__1::shared_ptr"* %135, %"class.std::__1::shared_ptr"** %6, align 8, !noalias !2
  store %"class.std::__1::shared_ptr.32"* %136, %"class.std::__1::shared_ptr.32"** %7, align 8, !noalias !2
  store %class.Expression* %137, %class.Expression** %8, align 8, !noalias !2
  %138 = load %"class.std::__1::shared_ptr"*, %"class.std::__1::shared_ptr"** %6, align 8, !noalias !2
  %139 = getelementptr inbounds %"class.std::__1::shared_ptr", %"class.std::__1::shared_ptr"* %138, i32 0, i32 0
  %140 = load %class.Expression*, %class.Expression** %8, align 8, !noalias !2
  store %class.Expression* %140, %class.Expression** %139, align 8
  %141 = getelementptr inbounds %"class.std::__1::shared_ptr", %"class.std::__1::shared_ptr"* %138, i32 0, i32 1
  %142 = load %"class.std::__1::shared_ptr.32"*, %"class.std::__1::shared_ptr.32"** %7, align 8, !noalias !2
  %143 = getelementptr inbounds %"class.std::__1::shared_ptr.32", %"class.std::__1::shared_ptr.32"* %142, i32 0, i32 1
  %144 = load %"class.std::__1::__shared_weak_count"*, %"class.std::__1::__shared_weak_count"** %143, align 8
  store %"class.std::__1::__shared_weak_count"* %144, %"class.std::__1::__shared_weak_count"** %141, align 8
  %145 = getelementptr inbounds %"class.std::__1::shared_ptr", %"class.std::__1::shared_ptr"* %138, i32 0, i32 1
  %146 = load %"class.std::__1::__shared_weak_count"*, %"class.std::__1::__shared_weak_count"** %145, align 8
  %147 = icmp ne %"class.std::__1::__shared_weak_count"* %146, null
  br i1 %147, label %148, label %151

; <label>:148:                                    ; preds = %132
  %149 = getelementptr inbounds %"class.std::__1::shared_ptr", %"class.std::__1::shared_ptr"* %138, i32 0, i32 1
  %150 = load %"class.std::__1::__shared_weak_count"*, %"class.std::__1::__shared_weak_count"** %149, align 8
  call void @_ZNSt3__119__shared_weak_count12__add_sharedEv(%"class.std::__1::__shared_weak_count"* %150) #13
  br label %151

; <label>:151:                                    ; preds = %148, %132
  br label %157

; <label>:152:                                    ; preds = %128
  store %"class.std::__1::shared_ptr"* %50, %"class.std::__1::shared_ptr"** %13, align 8, !noalias !2
  %153 = load %"class.std::__1::shared_ptr"*, %"class.std::__1::shared_ptr"** %13, align 8, !noalias !2
  store %"class.std::__1::shared_ptr"* %153, %"class.std::__1::shared_ptr"** %12, align 8, !noalias !2
  %154 = load %"class.std::__1::shared_ptr"*, %"class.std::__1::shared_ptr"** %12, align 8, !noalias !2
  %155 = getelementptr inbounds %"class.std::__1::shared_ptr", %"class.std::__1::shared_ptr"* %154, i32 0, i32 0
  store %class.Expression* null, %class.Expression** %155, align 8
  %156 = getelementptr inbounds %"class.std::__1::shared_ptr", %"class.std::__1::shared_ptr"* %154, i32 0, i32 1
  store %"class.std::__1::__shared_weak_count"* null, %"class.std::__1::__shared_weak_count"** %156, align 8
  br label %157

; <label>:157:                                    ; preds = %151, %152
  store %"class.std::__1::shared_ptr"* %50, %"class.std::__1::shared_ptr"** %5, align 8
  %158 = load %"class.std::__1::shared_ptr"*, %"class.std::__1::shared_ptr"** %5, align 8
  store %"class.std::__1::shared_ptr"* %158, %"class.std::__1::shared_ptr"** %4, align 8
  %159 = load %"class.std::__1::shared_ptr"*, %"class.std::__1::shared_ptr"** %4, align 8
  %160 = getelementptr inbounds %"class.std::__1::shared_ptr", %"class.std::__1::shared_ptr"* %159, i32 0, i32 0
  %161 = load %class.Expression*, %class.Expression** %160, align 8
  %162 = icmp ne %class.Expression* %161, null
  br i1 %162, label %163, label %178

; <label>:163:                                    ; preds = %157
  store %"class.std::__1::shared_ptr"* %50, %"class.std::__1::shared_ptr"** %3, align 8
  %164 = load %"class.std::__1::shared_ptr"*, %"class.std::__1::shared_ptr"** %3, align 8
  %165 = getelementptr inbounds %"class.std::__1::shared_ptr", %"class.std::__1::shared_ptr"* %164, i32 0, i32 0
  %166 = load %class.Expression*, %class.Expression** %165, align 8
  %167 = bitcast %class.Expression* %166 to void (%class.Expression*, i1)***
  %168 = load void (%class.Expression*, i1)**, void (%class.Expression*, i1)*** %167, align 8
  %169 = getelementptr inbounds void (%class.Expression*, i1)*, void (%class.Expression*, i1)** %168, i64 22
  %170 = load void (%class.Expression*, i1)*, void (%class.Expression*, i1)** %169, align 8
  %171 = load i8, i8* %44, align 1
  %172 = trunc i8 %171 to i1
  invoke void %170(%class.Expression* %166, i1 zeroext %172)
          to label %173 unwind label %174

; <label>:173:                                    ; preds = %163
  br label %178

; <label>:174:                                    ; preds = %163
  %175 = landingpad { i8*, i32 }
          cleanup
  %176 = extractvalue { i8*, i32 } %175, 0
  store i8* %176, i8** %51, align 8
  %177 = extractvalue { i8*, i32 } %175, 1
  store i32 %177, i32* %52, align 4
  call void @_ZNSt3__110shared_ptrI10ExpressionED1Ev(%"class.std::__1::shared_ptr"* %50) #13
  call void @_ZNSt3__16vectorINS_10shared_ptrI7AstNodeEENS_9allocatorIS3_EEED1Ev(%"class.std::__1::vector.30"* %46) #13
  br label %185

; <label>:178:                                    ; preds = %173, %157
  call void @_ZNSt3__110shared_ptrI10ExpressionED1Ev(%"class.std::__1::shared_ptr"* %50) #13
  br label %179

; <label>:179:                                    ; preds = %178
  store %"class.std::__1::__wrap_iter"* %47, %"class.std::__1::__wrap_iter"** %33, align 8
  %180 = load %"class.std::__1::__wrap_iter"*, %"class.std::__1::__wrap_iter"** %33, align 8
  %181 = getelementptr inbounds %"class.std::__1::__wrap_iter", %"class.std::__1::__wrap_iter"* %180, i32 0, i32 0
  %182 = load %"class.std::__1::shared_ptr.32"*, %"class.std::__1::shared_ptr.32"** %181, align 8
  %183 = getelementptr inbounds %"class.std::__1::shared_ptr.32", %"class.std::__1::shared_ptr.32"* %182, i32 1
  store %"class.std::__1::shared_ptr.32"* %183, %"class.std::__1::shared_ptr.32"** %181, align 8
  br label %99

; <label>:184:                                    ; preds = %112
  ret void

; <label>:185:                                    ; preds = %174
  %186 = load i8*, i8** %51, align 8
  %187 = load i32, i32* %52, align 4
  %188 = insertvalue { i8*, i32 } undef, i8* %186, 0
  %189 = insertvalue { i8*, i32 } %188, i32 %187, 1
  resume { i8*, i32 } %189
}

; Function Attrs: inlinehint nounwind ssp uwtable
define linkonce_odr void @_ZN10Expression12implicit_refEb(%class.Expression*, i1 zeroext) unnamed_addr #3 align 2 {
  %3 = alloca %class.Expression*, align 8
  %4 = alloca i8, align 1
  store %class.Expression* %0, %class.Expression** %3, align 8
  %5 = zext i1 %1 to i8
  store i8 %5, i8* %4, align 1
  %6 = load %class.Expression*, %class.Expression** %3, align 8
  %7 = load i8, i8* %4, align 1
  %8 = trunc i8 %7 to i1
  %9 = getelementptr inbounds %class.Expression, %class.Expression* %6, i32 0, i32 2
  %10 = zext i1 %8 to i8
  store i8 %10, i8* %9, align 8
  ret void
}

; Function Attrs: inlinehint nounwind ssp uwtable
define linkonce_odr void @_ZN10Expression15set_member_exprENSt3__110shared_ptrIS_EE(%class.Expression*, %"class.std::__1::shared_ptr"*) unnamed_addr #3 align 2 {
  %3 = alloca %"class.std::__1::__shared_weak_count"**, align 8
  %4 = alloca %"class.std::__1::__shared_weak_count"**, align 8
  %5 = alloca %"class.std::__1::__shared_weak_count"**, align 8
  %6 = alloca %"class.std::__1::__shared_weak_count"**, align 8
  %7 = alloca %"class.std::__1::__shared_weak_count"**, align 8
  %8 = alloca %"class.std::__1::__shared_weak_count"*, align 8
  %9 = alloca %class.Expression**, align 8
  %10 = alloca %class.Expression**, align 8
  %11 = alloca %class.Expression**, align 8
  %12 = alloca %class.Expression**, align 8
  %13 = alloca %class.Expression**, align 8
  %14 = alloca %class.Expression*, align 8
  %15 = alloca %"class.std::__1::shared_ptr"*, align 8
  %16 = alloca %"class.std::__1::shared_ptr"*, align 8
  %17 = alloca %"class.std::__1::shared_ptr"*, align 8
  %18 = alloca %"class.std::__1::shared_ptr"*, align 8
  %19 = alloca %"class.std::__1::shared_ptr"*, align 8
  %20 = alloca %"class.std::__1::shared_ptr"*, align 8
  %21 = alloca %"class.std::__1::shared_ptr"*, align 8
  %22 = alloca %"class.std::__1::shared_ptr"*, align 8
  %23 = alloca %"class.std::__1::shared_ptr", align 8
  %24 = alloca %class.Expression*, align 8
  store %class.Expression* %0, %class.Expression** %24, align 8
  %25 = load %class.Expression*, %class.Expression** %24, align 8
  %26 = getelementptr inbounds %class.Expression, %class.Expression* %25, i32 0, i32 3
  store %"class.std::__1::shared_ptr"* %26, %"class.std::__1::shared_ptr"** %21, align 8
  store %"class.std::__1::shared_ptr"* %1, %"class.std::__1::shared_ptr"** %22, align 8
  %27 = load %"class.std::__1::shared_ptr"*, %"class.std::__1::shared_ptr"** %21, align 8
  %28 = load %"class.std::__1::shared_ptr"*, %"class.std::__1::shared_ptr"** %22, align 8
  store %"class.std::__1::shared_ptr"* %23, %"class.std::__1::shared_ptr"** %19, align 8
  store %"class.std::__1::shared_ptr"* %28, %"class.std::__1::shared_ptr"** %20, align 8
  %29 = load %"class.std::__1::shared_ptr"*, %"class.std::__1::shared_ptr"** %19, align 8
  %30 = load %"class.std::__1::shared_ptr"*, %"class.std::__1::shared_ptr"** %20, align 8
  store %"class.std::__1::shared_ptr"* %29, %"class.std::__1::shared_ptr"** %17, align 8
  store %"class.std::__1::shared_ptr"* %30, %"class.std::__1::shared_ptr"** %18, align 8
  %31 = load %"class.std::__1::shared_ptr"*, %"class.std::__1::shared_ptr"** %17, align 8
  %32 = getelementptr inbounds %"class.std::__1::shared_ptr", %"class.std::__1::shared_ptr"* %31, i32 0, i32 0
  %33 = load %"class.std::__1::shared_ptr"*, %"class.std::__1::shared_ptr"** %18, align 8
  %34 = getelementptr inbounds %"class.std::__1::shared_ptr", %"class.std::__1::shared_ptr"* %33, i32 0, i32 0
  %35 = load %class.Expression*, %class.Expression** %34, align 8
  store %class.Expression* %35, %class.Expression** %32, align 8
  %36 = getelementptr inbounds %"class.std::__1::shared_ptr", %"class.std::__1::shared_ptr"* %31, i32 0, i32 1
  %37 = load %"class.std::__1::shared_ptr"*, %"class.std::__1::shared_ptr"** %18, align 8
  %38 = getelementptr inbounds %"class.std::__1::shared_ptr", %"class.std::__1::shared_ptr"* %37, i32 0, i32 1
  %39 = load %"class.std::__1::__shared_weak_count"*, %"class.std::__1::__shared_weak_count"** %38, align 8
  store %"class.std::__1::__shared_weak_count"* %39, %"class.std::__1::__shared_weak_count"** %36, align 8
  %40 = getelementptr inbounds %"class.std::__1::shared_ptr", %"class.std::__1::shared_ptr"* %31, i32 0, i32 1
  %41 = load %"class.std::__1::__shared_weak_count"*, %"class.std::__1::__shared_weak_count"** %40, align 8
  %42 = icmp ne %"class.std::__1::__shared_weak_count"* %41, null
  br i1 %42, label %43, label %46

; <label>:43:                                     ; preds = %2
  %44 = getelementptr inbounds %"class.std::__1::shared_ptr", %"class.std::__1::shared_ptr"* %31, i32 0, i32 1
  %45 = load %"class.std::__1::__shared_weak_count"*, %"class.std::__1::__shared_weak_count"** %44, align 8
  call void @_ZNSt3__119__shared_weak_count12__add_sharedEv(%"class.std::__1::__shared_weak_count"* %45) #13
  br label %46

; <label>:46:                                     ; preds = %2, %43
  store %"class.std::__1::shared_ptr"* %23, %"class.std::__1::shared_ptr"** %15, align 8
  store %"class.std::__1::shared_ptr"* %27, %"class.std::__1::shared_ptr"** %16, align 8
  %47 = load %"class.std::__1::shared_ptr"*, %"class.std::__1::shared_ptr"** %15, align 8
  %48 = getelementptr inbounds %"class.std::__1::shared_ptr", %"class.std::__1::shared_ptr"* %47, i32 0, i32 0
  %49 = load %"class.std::__1::shared_ptr"*, %"class.std::__1::shared_ptr"** %16, align 8
  %50 = getelementptr inbounds %"class.std::__1::shared_ptr", %"class.std::__1::shared_ptr"* %49, i32 0, i32 0
  store %class.Expression** %48, %class.Expression*** %12, align 8
  store %class.Expression** %50, %class.Expression*** %13, align 8
  %51 = load %class.Expression**, %class.Expression*** %12, align 8
  store %class.Expression** %51, %class.Expression*** %11, align 8
  %52 = load %class.Expression**, %class.Expression*** %11, align 8
  %53 = load %class.Expression*, %class.Expression** %52, align 8
  store %class.Expression* %53, %class.Expression** %14, align 8
  %54 = load %class.Expression**, %class.Expression*** %13, align 8
  store %class.Expression** %54, %class.Expression*** %9, align 8
  %55 = load %class.Expression**, %class.Expression*** %9, align 8
  %56 = load %class.Expression*, %class.Expression** %55, align 8
  %57 = load %class.Expression**, %class.Expression*** %12, align 8
  store %class.Expression* %56, %class.Expression** %57, align 8
  store %class.Expression** %14, %class.Expression*** %10, align 8
  %58 = load %class.Expression**, %class.Expression*** %10, align 8
  %59 = load %class.Expression*, %class.Expression** %58, align 8
  %60 = load %class.Expression**, %class.Expression*** %13, align 8
  store %class.Expression* %59, %class.Expression** %60, align 8
  %61 = getelementptr inbounds %"class.std::__1::shared_ptr", %"class.std::__1::shared_ptr"* %47, i32 0, i32 1
  %62 = load %"class.std::__1::shared_ptr"*, %"class.std::__1::shared_ptr"** %16, align 8
  %63 = getelementptr inbounds %"class.std::__1::shared_ptr", %"class.std::__1::shared_ptr"* %62, i32 0, i32 1
  store %"class.std::__1::__shared_weak_count"** %61, %"class.std::__1::__shared_weak_count"*** %6, align 8
  store %"class.std::__1::__shared_weak_count"** %63, %"class.std::__1::__shared_weak_count"*** %7, align 8
  %64 = load %"class.std::__1::__shared_weak_count"**, %"class.std::__1::__shared_weak_count"*** %6, align 8
  store %"class.std::__1::__shared_weak_count"** %64, %"class.std::__1::__shared_weak_count"*** %5, align 8
  %65 = load %"class.std::__1::__shared_weak_count"**, %"class.std::__1::__shared_weak_count"*** %5, align 8
  %66 = load %"class.std::__1::__shared_weak_count"*, %"class.std::__1::__shared_weak_count"** %65, align 8
  store %"class.std::__1::__shared_weak_count"* %66, %"class.std::__1::__shared_weak_count"** %8, align 8
  %67 = load %"class.std::__1::__shared_weak_count"**, %"class.std::__1::__shared_weak_count"*** %7, align 8
  store %"class.std::__1::__shared_weak_count"** %67, %"class.std::__1::__shared_weak_count"*** %3, align 8
  %68 = load %"class.std::__1::__shared_weak_count"**, %"class.std::__1::__shared_weak_count"*** %3, align 8
  %69 = load %"class.std::__1::__shared_weak_count"*, %"class.std::__1::__shared_weak_count"** %68, align 8
  %70 = load %"class.std::__1::__shared_weak_count"**, %"class.std::__1::__shared_weak_count"*** %6, align 8
  store %"class.std::__1::__shared_weak_count"* %69, %"class.std::__1::__shared_weak_count"** %70, align 8
  store %"class.std::__1::__shared_weak_count"** %8, %"class.std::__1::__shared_weak_count"*** %4, align 8
  %71 = load %"class.std::__1::__shared_weak_count"**, %"class.std::__1::__shared_weak_count"*** %4, align 8
  %72 = load %"class.std::__1::__shared_weak_count"*, %"class.std::__1::__shared_weak_count"** %71, align 8
  %73 = load %"class.std::__1::__shared_weak_count"**, %"class.std::__1::__shared_weak_count"*** %7, align 8
  store %"class.std::__1::__shared_weak_count"* %72, %"class.std::__1::__shared_weak_count"** %73, align 8
  call void @_ZNSt3__110shared_ptrI10ExpressionED1Ev(%"class.std::__1::shared_ptr"* %23) #13
  ret void
}

declare void @_ZN7AstNodeC2Ev(%class.AstNode*) unnamed_addr #5

; Function Attrs: inlinehint nounwind ssp uwtable
define linkonce_odr void @_ZN9StatementD1Ev(%class.Statement*) unnamed_addr #3 align 2 {
  %2 = alloca %class.Statement*, align 8
  store %class.Statement* %0, %class.Statement** %2, align 8
  %3 = load %class.Statement*, %class.Statement** %2, align 8
  call void @_ZN9StatementD2Ev(%class.Statement* %3) #13
  ret void
}

; Function Attrs: inlinehint nounwind ssp uwtable
define linkonce_odr void @_ZN9StatementD0Ev(%class.Statement*) unnamed_addr #3 align 2 {
  %2 = alloca %class.Statement*, align 8
  store %class.Statement* %0, %class.Statement** %2, align 8
  %3 = load %class.Statement*, %class.Statement** %2, align 8
  call void @_ZN9StatementD1Ev(%class.Statement* %3) #13
  %4 = bitcast %class.Statement* %3 to i8*
  call void @_ZdlPv(i8* %4) #14
  ret void
}

declare void @_ZN7AstNode12get_childrenEv(%"class.std::__1::vector.30"* sret, %class.AstNode*) unnamed_addr #5

declare void @__cxa_pure_virtual() unnamed_addr

; Function Attrs: nobuiltin nounwind
declare void @_ZdlPv(i8*) #6

; Function Attrs: noinline noreturn nounwind
define linkonce_odr hidden void @__clang_call_terminate(i8*) #7 {
  %2 = call i8* @__cxa_begin_catch(i8* %0) #13
  call void @_ZSt9terminatev() #15
  unreachable
}

declare i8* @__cxa_begin_catch(i8*)

declare void @_ZSt9terminatev()

; Function Attrs: nounwind ssp uwtable
define linkonce_odr void @_ZN13TypeSpecifierC2Ev(%struct.TypeSpecifier*) unnamed_addr #2 align 2 personality i32 (...)* @__gxx_personality_v0 {
  %2 = alloca %"class.std::__1::shared_ptr"*, align 8
  %3 = alloca i8*, align 8
  %4 = alloca %"class.std::__1::shared_ptr"*, align 8
  %5 = alloca i8*, align 8
  %6 = alloca %"class.std::__1::__libcpp_compressed_pair_imp"*, align 8
  %7 = alloca %"class.std::__1::__compressed_pair"*, align 8
  %8 = alloca %"class.std::__1::basic_string"*, align 8
  %9 = alloca [3 x i64]*, align 8
  %10 = alloca i32, align 4
  %11 = alloca %"class.std::__1::allocator"*, align 8
  %12 = alloca %"class.std::__1::__libcpp_compressed_pair_imp"*, align 8
  %13 = alloca %"class.std::__1::__compressed_pair"*, align 8
  %14 = alloca %"class.std::__1::__compressed_pair"*, align 8
  %15 = alloca %"class.std::__1::basic_string"*, align 8
  %16 = alloca %"class.std::__1::basic_string"*, align 8
  %17 = alloca float*, align 8
  %18 = alloca %"class.std::__1::__unordered_map_equal"*, align 8
  %19 = alloca %"class.std::__1::__libcpp_compressed_pair_imp.18"*, align 8
  %20 = alloca float, align 4
  %21 = alloca float*, align 8
  %22 = alloca %"class.std::__1::__compressed_pair.17"*, align 8
  %23 = alloca float, align 4
  %24 = alloca %"class.std::__1::__compressed_pair.17"*, align 8
  %25 = alloca float, align 4
  %26 = alloca i64*, align 8
  %27 = alloca %"class.std::__1::__unordered_map_hasher"*, align 8
  %28 = alloca %"class.std::__1::__libcpp_compressed_pair_imp.16"*, align 8
  %29 = alloca i64, align 8
  %30 = alloca i64*, align 8
  %31 = alloca %"class.std::__1::__compressed_pair.15"*, align 8
  %32 = alloca i64, align 8
  %33 = alloca %"class.std::__1::__compressed_pair.15"*, align 8
  %34 = alloca i64, align 8
  %35 = alloca %"class.std::__1::__libcpp_compressed_pair_imp.6"*, align 8
  %36 = alloca %"class.std::__1::__compressed_pair.5"*, align 8
  %37 = alloca %"class.std::__1::__libcpp_compressed_pair_imp.6"*, align 8
  %38 = alloca %"class.std::__1::__compressed_pair.5"*, align 8
  %39 = alloca %"class.std::__1::__libcpp_compressed_pair_imp.8"*, align 8
  %40 = alloca %"class.std::__1::__compressed_pair.7"*, align 8
  %41 = alloca %"class.std::__1::__bucket_list_deallocator"*, align 8
  %42 = alloca i8*, align 8
  %43 = alloca %"class.std::__1::allocator.9"*, align 8
  %44 = alloca %"struct.std::__1::__hash_node_base"**, align 8
  %45 = alloca i64, align 8
  %46 = alloca %"class.std::__1::allocator.9"*, align 8
  %47 = alloca %"struct.std::__1::__hash_node_base"**, align 8
  %48 = alloca i64, align 8
  %49 = alloca %"class.std::__1::__libcpp_compressed_pair_imp.8"*, align 8
  %50 = alloca %"class.std::__1::__compressed_pair.7"*, align 8
  %51 = alloca %"class.std::__1::__bucket_list_deallocator"*, align 8
  %52 = alloca %"class.std::__1::__bucket_list_deallocator"*, align 8
  %53 = alloca %"struct.std::__1::__hash_node_base"**, align 8
  %54 = alloca %"class.std::__1::__libcpp_compressed_pair_imp.6"*, align 8
  %55 = alloca %"class.std::__1::__compressed_pair.5"*, align 8
  %56 = alloca %"class.std::__1::unique_ptr"*, align 8
  %57 = alloca %"struct.std::__1::__hash_node_base"**, align 8
  %58 = alloca %"class.std::__1::unique_ptr"*, align 8
  %59 = alloca %"class.std::__1::unique_ptr"*, align 8
  %60 = alloca %"struct.std::__1::__hash_node_base"*, align 8
  %61 = alloca %"struct.std::__1::__hash_node_base"*, align 8
  %62 = alloca %"class.std::__1::allocator.13"*, align 8
  %63 = alloca %"class.std::__1::__libcpp_compressed_pair_imp.12"*, align 8
  %64 = alloca %"class.std::__1::__compressed_pair.11"*, align 8
  %65 = alloca %"class.std::__1::__compressed_pair.11"*, align 8
  %66 = alloca i64*, align 8
  %67 = alloca %"class.std::__1::allocator.9"*, align 8
  %68 = alloca %"class.std::__1::__libcpp_compressed_pair_imp.8"*, align 8
  %69 = alloca i64, align 8
  %70 = alloca i64*, align 8
  %71 = alloca %"class.std::__1::__compressed_pair.7"*, align 8
  %72 = alloca i64, align 8
  %73 = alloca %"class.std::__1::__compressed_pair.7"*, align 8
  %74 = alloca i64, align 8
  %75 = alloca %"class.std::__1::__bucket_list_deallocator"*, align 8
  %76 = alloca %"class.std::__1::__bucket_list_deallocator"*, align 8
  %77 = alloca %"struct.std::__1::__hash_node_base"***, align 8
  %78 = alloca %"class.std::__1::__libcpp_compressed_pair_imp.6"*, align 8
  %79 = alloca %"struct.std::__1::__hash_node_base"**, align 8
  %80 = alloca %"struct.std::__1::__hash_node_base"***, align 8
  %81 = alloca %"class.std::__1::__compressed_pair.5"*, align 8
  %82 = alloca %"struct.std::__1::__hash_node_base"**, align 8
  %83 = alloca %"class.std::__1::__compressed_pair.5"*, align 8
  %84 = alloca %"struct.std::__1::__hash_node_base"**, align 8
  %85 = alloca %"class.std::__1::unique_ptr"*, align 8
  %86 = alloca %"class.std::__1::unique_ptr"*, align 8
  %87 = alloca %"class.std::__1::__hash_table"*, align 8
  %88 = alloca i8*
  %89 = alloca i32
  %90 = alloca %"class.std::__1::__hash_table"*, align 8
  %91 = alloca %"class.std::__1::unordered_map"*, align 8
  %92 = alloca %"class.std::__1::unordered_map"*, align 8
  %93 = alloca %"class.std::__1::basic_string"**, align 8
  %94 = alloca %"class.std::__1::allocator.3"*, align 8
  %95 = alloca %"class.std::__1::__libcpp_compressed_pair_imp.2"*, align 8
  %96 = alloca %"class.std::__1::basic_string"*, align 8
  %97 = alloca %"class.std::__1::basic_string"**, align 8
  %98 = alloca %"class.std::__1::__compressed_pair.1"*, align 8
  %99 = alloca %"class.std::__1::basic_string"*, align 8
  %100 = alloca %"class.std::__1::__compressed_pair.1"*, align 8
  %101 = alloca %"class.std::__1::basic_string"*, align 8
  %102 = alloca %"class.std::__1::__vector_base_common"*, align 8
  %103 = alloca %"class.std::__1::__vector_base"*, align 8
  %104 = alloca %"class.std::__1::vector"*, align 8
  %105 = alloca %"class.std::__1::vector"*, align 8
  %106 = alloca %struct.TypeSpecifier**, align 8
  %107 = alloca %"class.std::__1::allocator.23"*, align 8
  %108 = alloca %"class.std::__1::__libcpp_compressed_pair_imp.22"*, align 8
  %109 = alloca %struct.TypeSpecifier*, align 8
  %110 = alloca %struct.TypeSpecifier**, align 8
  %111 = alloca %"class.std::__1::__compressed_pair.21"*, align 8
  %112 = alloca %struct.TypeSpecifier*, align 8
  %113 = alloca %"class.std::__1::__compressed_pair.21"*, align 8
  %114 = alloca %struct.TypeSpecifier*, align 8
  %115 = alloca %"class.std::__1::__vector_base_common"*, align 8
  %116 = alloca %"class.std::__1::__vector_base.20"*, align 8
  %117 = alloca %"class.std::__1::vector.19"*, align 8
  %118 = alloca %"class.std::__1::vector.19"*, align 8
  %119 = alloca %"class.std::__1::__libcpp_compressed_pair_imp"*, align 8
  %120 = alloca %"class.std::__1::__compressed_pair"*, align 8
  %121 = alloca %"class.std::__1::basic_string"*, align 8
  %122 = alloca [3 x i64]*, align 8
  %123 = alloca i32, align 4
  %124 = alloca %"class.std::__1::allocator"*, align 8
  %125 = alloca %"class.std::__1::__libcpp_compressed_pair_imp"*, align 8
  %126 = alloca %"class.std::__1::__compressed_pair"*, align 8
  %127 = alloca %"class.std::__1::__compressed_pair"*, align 8
  %128 = alloca %"class.std::__1::basic_string"*, align 8
  %129 = alloca %"class.std::__1::basic_string"*, align 8
  %130 = alloca %struct.TypeSpecifier*, align 8
  store %struct.TypeSpecifier* %0, %struct.TypeSpecifier** %130, align 8
  %131 = load %struct.TypeSpecifier*, %struct.TypeSpecifier** %130, align 8
  %132 = getelementptr inbounds %struct.TypeSpecifier, %struct.TypeSpecifier* %131, i32 0, i32 0
  store i32 9, i32* %132, align 8
  %133 = getelementptr inbounds %struct.TypeSpecifier, %struct.TypeSpecifier* %131, i32 0, i32 1
  store %"class.std::__1::basic_string"* %133, %"class.std::__1::basic_string"** %129, align 8
  %134 = load %"class.std::__1::basic_string"*, %"class.std::__1::basic_string"** %129, align 8
  store %"class.std::__1::basic_string"* %134, %"class.std::__1::basic_string"** %128, align 8
  %135 = load %"class.std::__1::basic_string"*, %"class.std::__1::basic_string"** %128, align 8
  %136 = bitcast %"class.std::__1::basic_string"* %135 to %"class.std::__1::__basic_string_common"*
  %137 = getelementptr inbounds %"class.std::__1::basic_string", %"class.std::__1::basic_string"* %135, i32 0, i32 0
  store %"class.std::__1::__compressed_pair"* %137, %"class.std::__1::__compressed_pair"** %127, align 8
  %138 = load %"class.std::__1::__compressed_pair"*, %"class.std::__1::__compressed_pair"** %127, align 8
  store %"class.std::__1::__compressed_pair"* %138, %"class.std::__1::__compressed_pair"** %126, align 8
  %139 = load %"class.std::__1::__compressed_pair"*, %"class.std::__1::__compressed_pair"** %126, align 8
  %140 = bitcast %"class.std::__1::__compressed_pair"* %139 to %"class.std::__1::__libcpp_compressed_pair_imp"*
  store %"class.std::__1::__libcpp_compressed_pair_imp"* %140, %"class.std::__1::__libcpp_compressed_pair_imp"** %125, align 8
  %141 = load %"class.std::__1::__libcpp_compressed_pair_imp"*, %"class.std::__1::__libcpp_compressed_pair_imp"** %125, align 8
  %142 = bitcast %"class.std::__1::__libcpp_compressed_pair_imp"* %141 to %"class.std::__1::allocator"*
  store %"class.std::__1::allocator"* %142, %"class.std::__1::allocator"** %124, align 8
  %143 = load %"class.std::__1::allocator"*, %"class.std::__1::allocator"** %124, align 8
  %144 = getelementptr inbounds %"class.std::__1::__libcpp_compressed_pair_imp", %"class.std::__1::__libcpp_compressed_pair_imp"* %141, i32 0, i32 0
  %145 = bitcast %"struct.std::__1::basic_string<char, std::__1::char_traits<char>, std::__1::allocator<char> >::__rep"* %144 to i8*
  call void @llvm.memset.p0i8.i64(i8* %145, i8 0, i64 24, i32 8, i1 false) #13
  store %"class.std::__1::basic_string"* %135, %"class.std::__1::basic_string"** %121, align 8
  %146 = load %"class.std::__1::basic_string"*, %"class.std::__1::basic_string"** %121, align 8
  %147 = getelementptr inbounds %"class.std::__1::basic_string", %"class.std::__1::basic_string"* %146, i32 0, i32 0
  store %"class.std::__1::__compressed_pair"* %147, %"class.std::__1::__compressed_pair"** %120, align 8
  %148 = load %"class.std::__1::__compressed_pair"*, %"class.std::__1::__compressed_pair"** %120, align 8
  %149 = bitcast %"class.std::__1::__compressed_pair"* %148 to %"class.std::__1::__libcpp_compressed_pair_imp"*
  store %"class.std::__1::__libcpp_compressed_pair_imp"* %149, %"class.std::__1::__libcpp_compressed_pair_imp"** %119, align 8
  %150 = load %"class.std::__1::__libcpp_compressed_pair_imp"*, %"class.std::__1::__libcpp_compressed_pair_imp"** %119, align 8
  %151 = getelementptr inbounds %"class.std::__1::__libcpp_compressed_pair_imp", %"class.std::__1::__libcpp_compressed_pair_imp"* %150, i32 0, i32 0
  %152 = getelementptr inbounds %"struct.std::__1::basic_string<char, std::__1::char_traits<char>, std::__1::allocator<char> >::__rep", %"struct.std::__1::basic_string<char, std::__1::char_traits<char>, std::__1::allocator<char> >::__rep"* %151, i32 0, i32 0
  %153 = bitcast %union.anon* %152 to %"struct.std::__1::basic_string<char, std::__1::char_traits<char>, std::__1::allocator<char> >::__raw"*
  %154 = getelementptr inbounds %"struct.std::__1::basic_string<char, std::__1::char_traits<char>, std::__1::allocator<char> >::__raw", %"struct.std::__1::basic_string<char, std::__1::char_traits<char>, std::__1::allocator<char> >::__raw"* %153, i32 0, i32 0
  store [3 x i64]* %154, [3 x i64]** %122, align 8
  store i32 0, i32* %123, align 4
  br label %155

; <label>:155:                                    ; preds = %158, %1
  %156 = load i32, i32* %123, align 4
  %157 = icmp ult i32 %156, 3
  br i1 %157, label %158, label %165

; <label>:158:                                    ; preds = %155
  %159 = load i32, i32* %123, align 4
  %160 = zext i32 %159 to i64
  %161 = load [3 x i64]*, [3 x i64]** %122, align 8
  %162 = getelementptr inbounds [3 x i64], [3 x i64]* %161, i64 0, i64 %160
  store i64 0, i64* %162, align 8
  %163 = load i32, i32* %123, align 4
  %164 = add i32 %163, 1
  store i32 %164, i32* %123, align 4
  br label %155

; <label>:165:                                    ; preds = %155
  %166 = getelementptr inbounds %struct.TypeSpecifier, %struct.TypeSpecifier* %131, i32 0, i32 2
  store %"class.std::__1::shared_ptr"* %166, %"class.std::__1::shared_ptr"** %4, align 8
  store i8* null, i8** %5, align 8
  %167 = load %"class.std::__1::shared_ptr"*, %"class.std::__1::shared_ptr"** %4, align 8
  %168 = load i8*, i8** %5, align 8
  store %"class.std::__1::shared_ptr"* %167, %"class.std::__1::shared_ptr"** %2, align 8
  store i8* %168, i8** %3, align 8
  %169 = load %"class.std::__1::shared_ptr"*, %"class.std::__1::shared_ptr"** %2, align 8
  %170 = getelementptr inbounds %"class.std::__1::shared_ptr", %"class.std::__1::shared_ptr"* %169, i32 0, i32 0
  store %class.Expression* null, %class.Expression** %170, align 8
  %171 = getelementptr inbounds %"class.std::__1::shared_ptr", %"class.std::__1::shared_ptr"* %169, i32 0, i32 1
  store %"class.std::__1::__shared_weak_count"* null, %"class.std::__1::__shared_weak_count"** %171, align 8
  %172 = getelementptr inbounds %struct.TypeSpecifier, %struct.TypeSpecifier* %131, i32 0, i32 3
  store i8 0, i8* %172, align 8
  %173 = getelementptr inbounds %struct.TypeSpecifier, %struct.TypeSpecifier* %131, i32 0, i32 4
  store i8 0, i8* %173, align 1
  %174 = getelementptr inbounds %struct.TypeSpecifier, %struct.TypeSpecifier* %131, i32 0, i32 5
  store i8 0, i8* %174, align 2
  %175 = getelementptr inbounds %struct.TypeSpecifier, %struct.TypeSpecifier* %131, i32 0, i32 6
  store i8 1, i8* %175, align 1
  %176 = getelementptr inbounds %struct.TypeSpecifier, %struct.TypeSpecifier* %131, i32 0, i32 7
  store i64 0, i64* %176, align 8
  %177 = getelementptr inbounds %struct.TypeSpecifier, %struct.TypeSpecifier* %131, i32 0, i32 8
  store i32 32, i32* %177, align 8
  %178 = getelementptr inbounds %struct.TypeSpecifier, %struct.TypeSpecifier* %131, i32 0, i32 9
  store i8 0, i8* %178, align 4
  %179 = getelementptr inbounds %struct.TypeSpecifier, %struct.TypeSpecifier* %131, i32 0, i32 10
  store i8 0, i8* %179, align 1
  %180 = getelementptr inbounds %struct.TypeSpecifier, %struct.TypeSpecifier* %131, i32 0, i32 11
  store %"class.std::__1::basic_string"* %180, %"class.std::__1::basic_string"** %16, align 8
  %181 = load %"class.std::__1::basic_string"*, %"class.std::__1::basic_string"** %16, align 8
  store %"class.std::__1::basic_string"* %181, %"class.std::__1::basic_string"** %15, align 8
  %182 = load %"class.std::__1::basic_string"*, %"class.std::__1::basic_string"** %15, align 8
  %183 = bitcast %"class.std::__1::basic_string"* %182 to %"class.std::__1::__basic_string_common"*
  %184 = getelementptr inbounds %"class.std::__1::basic_string", %"class.std::__1::basic_string"* %182, i32 0, i32 0
  store %"class.std::__1::__compressed_pair"* %184, %"class.std::__1::__compressed_pair"** %14, align 8
  %185 = load %"class.std::__1::__compressed_pair"*, %"class.std::__1::__compressed_pair"** %14, align 8
  store %"class.std::__1::__compressed_pair"* %185, %"class.std::__1::__compressed_pair"** %13, align 8
  %186 = load %"class.std::__1::__compressed_pair"*, %"class.std::__1::__compressed_pair"** %13, align 8
  %187 = bitcast %"class.std::__1::__compressed_pair"* %186 to %"class.std::__1::__libcpp_compressed_pair_imp"*
  store %"class.std::__1::__libcpp_compressed_pair_imp"* %187, %"class.std::__1::__libcpp_compressed_pair_imp"** %12, align 8
  %188 = load %"class.std::__1::__libcpp_compressed_pair_imp"*, %"class.std::__1::__libcpp_compressed_pair_imp"** %12, align 8
  %189 = bitcast %"class.std::__1::__libcpp_compressed_pair_imp"* %188 to %"class.std::__1::allocator"*
  store %"class.std::__1::allocator"* %189, %"class.std::__1::allocator"** %11, align 8
  %190 = load %"class.std::__1::allocator"*, %"class.std::__1::allocator"** %11, align 8
  %191 = getelementptr inbounds %"class.std::__1::__libcpp_compressed_pair_imp", %"class.std::__1::__libcpp_compressed_pair_imp"* %188, i32 0, i32 0
  %192 = bitcast %"struct.std::__1::basic_string<char, std::__1::char_traits<char>, std::__1::allocator<char> >::__rep"* %191 to i8*
  call void @llvm.memset.p0i8.i64(i8* %192, i8 0, i64 24, i32 8, i1 false) #13
  store %"class.std::__1::basic_string"* %182, %"class.std::__1::basic_string"** %8, align 8
  %193 = load %"class.std::__1::basic_string"*, %"class.std::__1::basic_string"** %8, align 8
  %194 = getelementptr inbounds %"class.std::__1::basic_string", %"class.std::__1::basic_string"* %193, i32 0, i32 0
  store %"class.std::__1::__compressed_pair"* %194, %"class.std::__1::__compressed_pair"** %7, align 8
  %195 = load %"class.std::__1::__compressed_pair"*, %"class.std::__1::__compressed_pair"** %7, align 8
  %196 = bitcast %"class.std::__1::__compressed_pair"* %195 to %"class.std::__1::__libcpp_compressed_pair_imp"*
  store %"class.std::__1::__libcpp_compressed_pair_imp"* %196, %"class.std::__1::__libcpp_compressed_pair_imp"** %6, align 8
  %197 = load %"class.std::__1::__libcpp_compressed_pair_imp"*, %"class.std::__1::__libcpp_compressed_pair_imp"** %6, align 8
  %198 = getelementptr inbounds %"class.std::__1::__libcpp_compressed_pair_imp", %"class.std::__1::__libcpp_compressed_pair_imp"* %197, i32 0, i32 0
  %199 = getelementptr inbounds %"struct.std::__1::basic_string<char, std::__1::char_traits<char>, std::__1::allocator<char> >::__rep", %"struct.std::__1::basic_string<char, std::__1::char_traits<char>, std::__1::allocator<char> >::__rep"* %198, i32 0, i32 0
  %200 = bitcast %union.anon* %199 to %"struct.std::__1::basic_string<char, std::__1::char_traits<char>, std::__1::allocator<char> >::__raw"*
  %201 = getelementptr inbounds %"struct.std::__1::basic_string<char, std::__1::char_traits<char>, std::__1::allocator<char> >::__raw", %"struct.std::__1::basic_string<char, std::__1::char_traits<char>, std::__1::allocator<char> >::__raw"* %200, i32 0, i32 0
  store [3 x i64]* %201, [3 x i64]** %9, align 8
  store i32 0, i32* %10, align 4
  br label %202

; <label>:202:                                    ; preds = %205, %165
  %203 = load i32, i32* %10, align 4
  %204 = icmp ult i32 %203, 3
  br i1 %204, label %205, label %212

; <label>:205:                                    ; preds = %202
  %206 = load i32, i32* %10, align 4
  %207 = zext i32 %206 to i64
  %208 = load [3 x i64]*, [3 x i64]** %9, align 8
  %209 = getelementptr inbounds [3 x i64], [3 x i64]* %208, i64 0, i64 %207
  store i64 0, i64* %209, align 8
  %210 = load i32, i32* %10, align 4
  %211 = add i32 %210, 1
  store i32 %211, i32* %10, align 4
  br label %202

; <label>:212:                                    ; preds = %202
  %213 = getelementptr inbounds %struct.TypeSpecifier, %struct.TypeSpecifier* %131, i32 0, i32 12
  store i8 0, i8* %213, align 8
  %214 = getelementptr inbounds %struct.TypeSpecifier, %struct.TypeSpecifier* %131, i32 0, i32 14
  store %"class.std::__1::unordered_map"* %214, %"class.std::__1::unordered_map"** %92, align 8
  %215 = load %"class.std::__1::unordered_map"*, %"class.std::__1::unordered_map"** %92, align 8
  store %"class.std::__1::unordered_map"* %215, %"class.std::__1::unordered_map"** %91, align 8
  %216 = load %"class.std::__1::unordered_map"*, %"class.std::__1::unordered_map"** %91, align 8
  %217 = getelementptr inbounds %"class.std::__1::unordered_map", %"class.std::__1::unordered_map"* %216, i32 0, i32 0
  store %"class.std::__1::__hash_table"* %217, %"class.std::__1::__hash_table"** %90, align 8
  %218 = load %"class.std::__1::__hash_table"*, %"class.std::__1::__hash_table"** %90, align 8
  store %"class.std::__1::__hash_table"* %218, %"class.std::__1::__hash_table"** %87, align 8
  %219 = load %"class.std::__1::__hash_table"*, %"class.std::__1::__hash_table"** %87, align 8
  %220 = getelementptr inbounds %"class.std::__1::__hash_table", %"class.std::__1::__hash_table"* %219, i32 0, i32 0
  store %"class.std::__1::unique_ptr"* %220, %"class.std::__1::unique_ptr"** %86, align 8
  %221 = load %"class.std::__1::unique_ptr"*, %"class.std::__1::unique_ptr"** %86, align 8
  store %"class.std::__1::unique_ptr"* %221, %"class.std::__1::unique_ptr"** %85, align 8
  %222 = load %"class.std::__1::unique_ptr"*, %"class.std::__1::unique_ptr"** %85, align 8
  %223 = getelementptr inbounds %"class.std::__1::unique_ptr", %"class.std::__1::unique_ptr"* %222, i32 0, i32 0
  store %"class.std::__1::__compressed_pair.5"* %223, %"class.std::__1::__compressed_pair.5"** %83, align 8
  store %"struct.std::__1::__hash_node_base"** null, %"struct.std::__1::__hash_node_base"*** %84, align 8
  %224 = load %"class.std::__1::__compressed_pair.5"*, %"class.std::__1::__compressed_pair.5"** %83, align 8
  %225 = load %"struct.std::__1::__hash_node_base"**, %"struct.std::__1::__hash_node_base"*** %84, align 8
  store %"class.std::__1::__compressed_pair.5"* %224, %"class.std::__1::__compressed_pair.5"** %81, align 8
  store %"struct.std::__1::__hash_node_base"** %225, %"struct.std::__1::__hash_node_base"*** %82, align 8
  %226 = load %"class.std::__1::__compressed_pair.5"*, %"class.std::__1::__compressed_pair.5"** %81, align 8
  %227 = bitcast %"class.std::__1::__compressed_pair.5"* %226 to %"class.std::__1::__libcpp_compressed_pair_imp.6"*
  store %"struct.std::__1::__hash_node_base"*** %82, %"struct.std::__1::__hash_node_base"**** %80, align 8
  %228 = load %"struct.std::__1::__hash_node_base"***, %"struct.std::__1::__hash_node_base"**** %80, align 8
  %229 = load %"struct.std::__1::__hash_node_base"**, %"struct.std::__1::__hash_node_base"*** %228, align 8
  store %"class.std::__1::__libcpp_compressed_pair_imp.6"* %227, %"class.std::__1::__libcpp_compressed_pair_imp.6"** %78, align 8
  store %"struct.std::__1::__hash_node_base"** %229, %"struct.std::__1::__hash_node_base"*** %79, align 8
  %230 = load %"class.std::__1::__libcpp_compressed_pair_imp.6"*, %"class.std::__1::__libcpp_compressed_pair_imp.6"** %78, align 8
  %231 = getelementptr inbounds %"class.std::__1::__libcpp_compressed_pair_imp.6", %"class.std::__1::__libcpp_compressed_pair_imp.6"* %230, i32 0, i32 0
  store %"struct.std::__1::__hash_node_base"*** %79, %"struct.std::__1::__hash_node_base"**** %77, align 8
  %232 = load %"struct.std::__1::__hash_node_base"***, %"struct.std::__1::__hash_node_base"**** %77, align 8
  %233 = load %"struct.std::__1::__hash_node_base"**, %"struct.std::__1::__hash_node_base"*** %232, align 8
  store %"struct.std::__1::__hash_node_base"** %233, %"struct.std::__1::__hash_node_base"*** %231, align 8
  %234 = getelementptr inbounds %"class.std::__1::__libcpp_compressed_pair_imp.6", %"class.std::__1::__libcpp_compressed_pair_imp.6"* %230, i32 0, i32 1
  store %"class.std::__1::__bucket_list_deallocator"* %234, %"class.std::__1::__bucket_list_deallocator"** %76, align 8
  %235 = load %"class.std::__1::__bucket_list_deallocator"*, %"class.std::__1::__bucket_list_deallocator"** %76, align 8
  store %"class.std::__1::__bucket_list_deallocator"* %235, %"class.std::__1::__bucket_list_deallocator"** %75, align 8
  %236 = load %"class.std::__1::__bucket_list_deallocator"*, %"class.std::__1::__bucket_list_deallocator"** %75, align 8
  %237 = getelementptr inbounds %"class.std::__1::__bucket_list_deallocator", %"class.std::__1::__bucket_list_deallocator"* %236, i32 0, i32 0
  store %"class.std::__1::__compressed_pair.7"* %237, %"class.std::__1::__compressed_pair.7"** %73, align 8
  store i64 0, i64* %74, align 8
  %238 = load %"class.std::__1::__compressed_pair.7"*, %"class.std::__1::__compressed_pair.7"** %73, align 8
  %239 = load i64, i64* %74, align 8
  store %"class.std::__1::__compressed_pair.7"* %238, %"class.std::__1::__compressed_pair.7"** %71, align 8
  store i64 %239, i64* %72, align 8
  %240 = load %"class.std::__1::__compressed_pair.7"*, %"class.std::__1::__compressed_pair.7"** %71, align 8
  %241 = bitcast %"class.std::__1::__compressed_pair.7"* %240 to %"class.std::__1::__libcpp_compressed_pair_imp.8"*
  store i64* %72, i64** %70, align 8
  %242 = load i64*, i64** %70, align 8
  %243 = load i64, i64* %242, align 8
  store %"class.std::__1::__libcpp_compressed_pair_imp.8"* %241, %"class.std::__1::__libcpp_compressed_pair_imp.8"** %68, align 8
  store i64 %243, i64* %69, align 8
  %244 = load %"class.std::__1::__libcpp_compressed_pair_imp.8"*, %"class.std::__1::__libcpp_compressed_pair_imp.8"** %68, align 8
  %245 = bitcast %"class.std::__1::__libcpp_compressed_pair_imp.8"* %244 to %"class.std::__1::allocator.9"*
  store %"class.std::__1::allocator.9"* %245, %"class.std::__1::allocator.9"** %67, align 8
  %246 = load %"class.std::__1::allocator.9"*, %"class.std::__1::allocator.9"** %67, align 8
  %247 = getelementptr inbounds %"class.std::__1::__libcpp_compressed_pair_imp.8", %"class.std::__1::__libcpp_compressed_pair_imp.8"* %244, i32 0, i32 0
  store i64* %69, i64** %66, align 8
  %248 = load i64*, i64** %66, align 8
  %249 = load i64, i64* %248, align 8
  store i64 %249, i64* %247, align 8
  %250 = getelementptr inbounds %"class.std::__1::__hash_table", %"class.std::__1::__hash_table"* %219, i32 0, i32 1
  store %"class.std::__1::__compressed_pair.11"* %250, %"class.std::__1::__compressed_pair.11"** %65, align 8
  %251 = load %"class.std::__1::__compressed_pair.11"*, %"class.std::__1::__compressed_pair.11"** %65, align 8
  store %"class.std::__1::__compressed_pair.11"* %251, %"class.std::__1::__compressed_pair.11"** %64, align 8
  %252 = load %"class.std::__1::__compressed_pair.11"*, %"class.std::__1::__compressed_pair.11"** %64, align 8
  %253 = bitcast %"class.std::__1::__compressed_pair.11"* %252 to %"class.std::__1::__libcpp_compressed_pair_imp.12"*
  store %"class.std::__1::__libcpp_compressed_pair_imp.12"* %253, %"class.std::__1::__libcpp_compressed_pair_imp.12"** %63, align 8
  %254 = load %"class.std::__1::__libcpp_compressed_pair_imp.12"*, %"class.std::__1::__libcpp_compressed_pair_imp.12"** %63, align 8
  %255 = bitcast %"class.std::__1::__libcpp_compressed_pair_imp.12"* %254 to %"class.std::__1::allocator.13"*
  store %"class.std::__1::allocator.13"* %255, %"class.std::__1::allocator.13"** %62, align 8
  %256 = load %"class.std::__1::allocator.13"*, %"class.std::__1::allocator.13"** %62, align 8
  %257 = getelementptr inbounds %"class.std::__1::__libcpp_compressed_pair_imp.12", %"class.std::__1::__libcpp_compressed_pair_imp.12"* %254, i32 0, i32 0
  store %"struct.std::__1::__hash_node_base"* %257, %"struct.std::__1::__hash_node_base"** %61, align 8
  %258 = load %"struct.std::__1::__hash_node_base"*, %"struct.std::__1::__hash_node_base"** %61, align 8
  store %"struct.std::__1::__hash_node_base"* %258, %"struct.std::__1::__hash_node_base"** %60, align 8
  %259 = load %"struct.std::__1::__hash_node_base"*, %"struct.std::__1::__hash_node_base"** %60, align 8
  %260 = getelementptr inbounds %"struct.std::__1::__hash_node_base", %"struct.std::__1::__hash_node_base"* %259, i32 0, i32 0
  store %"struct.std::__1::__hash_node_base"* null, %"struct.std::__1::__hash_node_base"** %260, align 8
  %261 = getelementptr inbounds %"class.std::__1::__hash_table", %"class.std::__1::__hash_table"* %219, i32 0, i32 2
  store %"class.std::__1::__compressed_pair.15"* %261, %"class.std::__1::__compressed_pair.15"** %33, align 8
  store i64 0, i64* %34, align 8
  %262 = load %"class.std::__1::__compressed_pair.15"*, %"class.std::__1::__compressed_pair.15"** %33, align 8
  %263 = load i64, i64* %34, align 8
  store %"class.std::__1::__compressed_pair.15"* %262, %"class.std::__1::__compressed_pair.15"** %31, align 8
  store i64 %263, i64* %32, align 8
  %264 = load %"class.std::__1::__compressed_pair.15"*, %"class.std::__1::__compressed_pair.15"** %31, align 8
  %265 = bitcast %"class.std::__1::__compressed_pair.15"* %264 to %"class.std::__1::__libcpp_compressed_pair_imp.16"*
  store i64* %32, i64** %30, align 8
  %266 = load i64*, i64** %30, align 8
  %267 = load i64, i64* %266, align 8
  store %"class.std::__1::__libcpp_compressed_pair_imp.16"* %265, %"class.std::__1::__libcpp_compressed_pair_imp.16"** %28, align 8
  store i64 %267, i64* %29, align 8
  %268 = load %"class.std::__1::__libcpp_compressed_pair_imp.16"*, %"class.std::__1::__libcpp_compressed_pair_imp.16"** %28, align 8
  %269 = bitcast %"class.std::__1::__libcpp_compressed_pair_imp.16"* %268 to %"class.std::__1::__unordered_map_hasher"*
  store %"class.std::__1::__unordered_map_hasher"* %269, %"class.std::__1::__unordered_map_hasher"** %27, align 8
  %270 = load %"class.std::__1::__unordered_map_hasher"*, %"class.std::__1::__unordered_map_hasher"** %27, align 8
  %271 = bitcast %"class.std::__1::__unordered_map_hasher"* %270 to %"struct.std::__1::hash"*
  %272 = getelementptr inbounds %"class.std::__1::__libcpp_compressed_pair_imp.16", %"class.std::__1::__libcpp_compressed_pair_imp.16"* %268, i32 0, i32 0
  store i64* %29, i64** %26, align 8
  %273 = load i64*, i64** %26, align 8
  %274 = load i64, i64* %273, align 8
  store i64 %274, i64* %272, align 8
  %275 = getelementptr inbounds %"class.std::__1::__hash_table", %"class.std::__1::__hash_table"* %219, i32 0, i32 3
  store %"class.std::__1::__compressed_pair.17"* %275, %"class.std::__1::__compressed_pair.17"** %24, align 8
  store float 1.000000e+00, float* %25, align 4
  %276 = load %"class.std::__1::__compressed_pair.17"*, %"class.std::__1::__compressed_pair.17"** %24, align 8
  %277 = load float, float* %25, align 4
  store %"class.std::__1::__compressed_pair.17"* %276, %"class.std::__1::__compressed_pair.17"** %22, align 8
  store float %277, float* %23, align 4
  %278 = load %"class.std::__1::__compressed_pair.17"*, %"class.std::__1::__compressed_pair.17"** %22, align 8
  %279 = bitcast %"class.std::__1::__compressed_pair.17"* %278 to %"class.std::__1::__libcpp_compressed_pair_imp.18"*
  store float* %23, float** %21, align 8
  %280 = load float*, float** %21, align 8
  %281 = load float, float* %280, align 4
  store %"class.std::__1::__libcpp_compressed_pair_imp.18"* %279, %"class.std::__1::__libcpp_compressed_pair_imp.18"** %19, align 8
  store float %281, float* %20, align 4
  %282 = load %"class.std::__1::__libcpp_compressed_pair_imp.18"*, %"class.std::__1::__libcpp_compressed_pair_imp.18"** %19, align 8
  %283 = bitcast %"class.std::__1::__libcpp_compressed_pair_imp.18"* %282 to %"class.std::__1::__unordered_map_equal"*
  store %"class.std::__1::__unordered_map_equal"* %283, %"class.std::__1::__unordered_map_equal"** %18, align 8
  %284 = load %"class.std::__1::__unordered_map_equal"*, %"class.std::__1::__unordered_map_equal"** %18, align 8
  %285 = bitcast %"class.std::__1::__unordered_map_equal"* %284 to %"struct.std::__1::equal_to"*
  %286 = getelementptr inbounds %"class.std::__1::__libcpp_compressed_pair_imp.18", %"class.std::__1::__libcpp_compressed_pair_imp.18"* %282, i32 0, i32 0
  store float* %20, float** %17, align 8
  %287 = load float*, float** %17, align 8
  %288 = load float, float* %287, align 4
  store float %288, float* %286, align 4
  %289 = getelementptr inbounds %struct.TypeSpecifier, %struct.TypeSpecifier* %131, i32 0, i32 15
  store i8 0, i8* %289, align 8
  %290 = getelementptr inbounds %struct.TypeSpecifier, %struct.TypeSpecifier* %131, i32 0, i32 16
  store i8 0, i8* %290, align 1
  %291 = getelementptr inbounds %struct.TypeSpecifier, %struct.TypeSpecifier* %131, i32 0, i32 17
  store i8 0, i8* %291, align 2
  %292 = getelementptr inbounds %struct.TypeSpecifier, %struct.TypeSpecifier* %131, i32 0, i32 18
  store i8 0, i8* %292, align 1
  %293 = getelementptr inbounds %struct.TypeSpecifier, %struct.TypeSpecifier* %131, i32 0, i32 19
  store i8 0, i8* %293, align 4
  %294 = getelementptr inbounds %struct.TypeSpecifier, %struct.TypeSpecifier* %131, i32 0, i32 20
  store i8 0, i8* %294, align 1
  %295 = getelementptr inbounds %struct.TypeSpecifier, %struct.TypeSpecifier* %131, i32 0, i32 21
  store i8 0, i8* %295, align 2
  %296 = getelementptr inbounds %struct.TypeSpecifier, %struct.TypeSpecifier* %131, i32 0, i32 23
  store %"class.std::__1::vector"* %296, %"class.std::__1::vector"** %105, align 8
  %297 = load %"class.std::__1::vector"*, %"class.std::__1::vector"** %105, align 8
  store %"class.std::__1::vector"* %297, %"class.std::__1::vector"** %104, align 8
  %298 = load %"class.std::__1::vector"*, %"class.std::__1::vector"** %104, align 8
  %299 = bitcast %"class.std::__1::vector"* %298 to %"class.std::__1::__vector_base"*
  store %"class.std::__1::__vector_base"* %299, %"class.std::__1::__vector_base"** %103, align 8
  %300 = load %"class.std::__1::__vector_base"*, %"class.std::__1::__vector_base"** %103, align 8
  %301 = bitcast %"class.std::__1::__vector_base"* %300 to %"class.std::__1::__vector_base_common"*
  store %"class.std::__1::__vector_base_common"* %301, %"class.std::__1::__vector_base_common"** %102, align 8
  %302 = load %"class.std::__1::__vector_base_common"*, %"class.std::__1::__vector_base_common"** %102, align 8
  %303 = getelementptr inbounds %"class.std::__1::__vector_base", %"class.std::__1::__vector_base"* %300, i32 0, i32 0
  store %"class.std::__1::basic_string"* null, %"class.std::__1::basic_string"** %303, align 8
  %304 = getelementptr inbounds %"class.std::__1::__vector_base", %"class.std::__1::__vector_base"* %300, i32 0, i32 1
  store %"class.std::__1::basic_string"* null, %"class.std::__1::basic_string"** %304, align 8
  %305 = getelementptr inbounds %"class.std::__1::__vector_base", %"class.std::__1::__vector_base"* %300, i32 0, i32 2
  store %"class.std::__1::__compressed_pair.1"* %305, %"class.std::__1::__compressed_pair.1"** %100, align 8
  store %"class.std::__1::basic_string"* null, %"class.std::__1::basic_string"** %101, align 8
  %306 = load %"class.std::__1::__compressed_pair.1"*, %"class.std::__1::__compressed_pair.1"** %100, align 8
  %307 = load %"class.std::__1::basic_string"*, %"class.std::__1::basic_string"** %101, align 8
  store %"class.std::__1::__compressed_pair.1"* %306, %"class.std::__1::__compressed_pair.1"** %98, align 8
  store %"class.std::__1::basic_string"* %307, %"class.std::__1::basic_string"** %99, align 8
  %308 = load %"class.std::__1::__compressed_pair.1"*, %"class.std::__1::__compressed_pair.1"** %98, align 8
  %309 = bitcast %"class.std::__1::__compressed_pair.1"* %308 to %"class.std::__1::__libcpp_compressed_pair_imp.2"*
  store %"class.std::__1::basic_string"** %99, %"class.std::__1::basic_string"*** %97, align 8
  %310 = load %"class.std::__1::basic_string"**, %"class.std::__1::basic_string"*** %97, align 8
  %311 = load %"class.std::__1::basic_string"*, %"class.std::__1::basic_string"** %310, align 8
  store %"class.std::__1::__libcpp_compressed_pair_imp.2"* %309, %"class.std::__1::__libcpp_compressed_pair_imp.2"** %95, align 8
  store %"class.std::__1::basic_string"* %311, %"class.std::__1::basic_string"** %96, align 8
  %312 = load %"class.std::__1::__libcpp_compressed_pair_imp.2"*, %"class.std::__1::__libcpp_compressed_pair_imp.2"** %95, align 8
  %313 = bitcast %"class.std::__1::__libcpp_compressed_pair_imp.2"* %312 to %"class.std::__1::allocator.3"*
  store %"class.std::__1::allocator.3"* %313, %"class.std::__1::allocator.3"** %94, align 8
  %314 = load %"class.std::__1::allocator.3"*, %"class.std::__1::allocator.3"** %94, align 8
  %315 = getelementptr inbounds %"class.std::__1::__libcpp_compressed_pair_imp.2", %"class.std::__1::__libcpp_compressed_pair_imp.2"* %312, i32 0, i32 0
  store %"class.std::__1::basic_string"** %96, %"class.std::__1::basic_string"*** %93, align 8
  %316 = load %"class.std::__1::basic_string"**, %"class.std::__1::basic_string"*** %93, align 8
  %317 = load %"class.std::__1::basic_string"*, %"class.std::__1::basic_string"** %316, align 8
  store %"class.std::__1::basic_string"* %317, %"class.std::__1::basic_string"** %315, align 8
  %318 = getelementptr inbounds %struct.TypeSpecifier, %struct.TypeSpecifier* %131, i32 0, i32 24
  store %"class.std::__1::vector.19"* %318, %"class.std::__1::vector.19"** %118, align 8
  %319 = load %"class.std::__1::vector.19"*, %"class.std::__1::vector.19"** %118, align 8
  store %"class.std::__1::vector.19"* %319, %"class.std::__1::vector.19"** %117, align 8
  %320 = load %"class.std::__1::vector.19"*, %"class.std::__1::vector.19"** %117, align 8
  %321 = bitcast %"class.std::__1::vector.19"* %320 to %"class.std::__1::__vector_base.20"*
  store %"class.std::__1::__vector_base.20"* %321, %"class.std::__1::__vector_base.20"** %116, align 8
  %322 = load %"class.std::__1::__vector_base.20"*, %"class.std::__1::__vector_base.20"** %116, align 8
  %323 = bitcast %"class.std::__1::__vector_base.20"* %322 to %"class.std::__1::__vector_base_common"*
  store %"class.std::__1::__vector_base_common"* %323, %"class.std::__1::__vector_base_common"** %115, align 8
  %324 = load %"class.std::__1::__vector_base_common"*, %"class.std::__1::__vector_base_common"** %115, align 8
  %325 = getelementptr inbounds %"class.std::__1::__vector_base.20", %"class.std::__1::__vector_base.20"* %322, i32 0, i32 0
  store %struct.TypeSpecifier* null, %struct.TypeSpecifier** %325, align 8
  %326 = getelementptr inbounds %"class.std::__1::__vector_base.20", %"class.std::__1::__vector_base.20"* %322, i32 0, i32 1
  store %struct.TypeSpecifier* null, %struct.TypeSpecifier** %326, align 8
  %327 = getelementptr inbounds %"class.std::__1::__vector_base.20", %"class.std::__1::__vector_base.20"* %322, i32 0, i32 2
  store %"class.std::__1::__compressed_pair.21"* %327, %"class.std::__1::__compressed_pair.21"** %113, align 8
  store %struct.TypeSpecifier* null, %struct.TypeSpecifier** %114, align 8
  %328 = load %"class.std::__1::__compressed_pair.21"*, %"class.std::__1::__compressed_pair.21"** %113, align 8
  %329 = load %struct.TypeSpecifier*, %struct.TypeSpecifier** %114, align 8
  store %"class.std::__1::__compressed_pair.21"* %328, %"class.std::__1::__compressed_pair.21"** %111, align 8
  store %struct.TypeSpecifier* %329, %struct.TypeSpecifier** %112, align 8
  %330 = load %"class.std::__1::__compressed_pair.21"*, %"class.std::__1::__compressed_pair.21"** %111, align 8
  %331 = bitcast %"class.std::__1::__compressed_pair.21"* %330 to %"class.std::__1::__libcpp_compressed_pair_imp.22"*
  store %struct.TypeSpecifier** %112, %struct.TypeSpecifier*** %110, align 8
  %332 = load %struct.TypeSpecifier**, %struct.TypeSpecifier*** %110, align 8
  %333 = load %struct.TypeSpecifier*, %struct.TypeSpecifier** %332, align 8
  store %"class.std::__1::__libcpp_compressed_pair_imp.22"* %331, %"class.std::__1::__libcpp_compressed_pair_imp.22"** %108, align 8
  store %struct.TypeSpecifier* %333, %struct.TypeSpecifier** %109, align 8
  %334 = load %"class.std::__1::__libcpp_compressed_pair_imp.22"*, %"class.std::__1::__libcpp_compressed_pair_imp.22"** %108, align 8
  %335 = bitcast %"class.std::__1::__libcpp_compressed_pair_imp.22"* %334 to %"class.std::__1::allocator.23"*
  store %"class.std::__1::allocator.23"* %335, %"class.std::__1::allocator.23"** %107, align 8
  %336 = load %"class.std::__1::allocator.23"*, %"class.std::__1::allocator.23"** %107, align 8
  %337 = getelementptr inbounds %"class.std::__1::__libcpp_compressed_pair_imp.22", %"class.std::__1::__libcpp_compressed_pair_imp.22"* %334, i32 0, i32 0
  store %struct.TypeSpecifier** %109, %struct.TypeSpecifier*** %106, align 8
  %338 = load %struct.TypeSpecifier**, %struct.TypeSpecifier*** %106, align 8
  %339 = load %struct.TypeSpecifier*, %struct.TypeSpecifier** %338, align 8
  store %struct.TypeSpecifier* %339, %struct.TypeSpecifier** %337, align 8
  %340 = getelementptr inbounds %struct.TypeSpecifier, %struct.TypeSpecifier* %131, i32 0, i32 25
  %341 = bitcast %union.anon.25* %340 to %struct.TypeSpecifier**
  store %struct.TypeSpecifier* null, %struct.TypeSpecifier** %341, align 8
  %342 = getelementptr inbounds %struct.TypeSpecifier, %struct.TypeSpecifier* %131, i32 0, i32 0
  store i32 9, i32* %342, align 8
  ret void
}

; Function Attrs: nounwind ssp uwtable
define linkonce_odr void @_ZN7AstNodeD2Ev(%class.AstNode*) unnamed_addr #2 align 2 {
  %2 = alloca %class.AstNode*, align 8
  store %class.AstNode* %0, %class.AstNode** %2, align 8
  %3 = load %class.AstNode*, %class.AstNode** %2, align 8
  %4 = bitcast %class.AstNode* %3 to i32 (...)***
  store i32 (...)** bitcast (i8** getelementptr inbounds ([23 x i8*], [23 x i8*]* @_ZTV7AstNode, i32 0, i32 2) to i32 (...)**), i32 (...)*** %4, align 8
  %5 = getelementptr inbounds %class.AstNode, %class.AstNode* %3, i32 0, i32 14
  call void @_ZNSt3__112basic_stringIcNS_11char_traitsIcEENS_9allocatorIcEEED1Ev(%"class.std::__1::basic_string"* %5) #13
  %6 = getelementptr inbounds %class.AstNode, %class.AstNode* %3, i32 0, i32 11
  call void @_ZN13TypeSpecifierD1Ev(%struct.TypeSpecifier* %6) #13
  %7 = getelementptr inbounds %class.AstNode, %class.AstNode* %3, i32 0, i32 10
  call void @_ZN13TypeSpecifierD1Ev(%struct.TypeSpecifier* %7) #13
  %8 = getelementptr inbounds %class.AstNode, %class.AstNode* %3, i32 0, i32 9
  call void @_ZNSt3__16vectorINS_12basic_stringIcNS_11char_traitsIcEENS_9allocatorIcEEEENS4_IS6_EEED1Ev(%"class.std::__1::vector"* %8) #13
  ret void
}

; Function Attrs: nounwind
declare void @_ZNSt3__112basic_stringIcNS_11char_traitsIcEENS_9allocatorIcEEED1Ev(%"class.std::__1::basic_string"*) unnamed_addr #8

; Function Attrs: inlinehint nounwind ssp uwtable
define linkonce_odr void @_ZN13TypeSpecifierD1Ev(%struct.TypeSpecifier*) unnamed_addr #3 align 2 {
  %2 = alloca %struct.TypeSpecifier*, align 8
  store %struct.TypeSpecifier* %0, %struct.TypeSpecifier** %2, align 8
  %3 = load %struct.TypeSpecifier*, %struct.TypeSpecifier** %2, align 8
  call void @_ZN13TypeSpecifierD2Ev(%struct.TypeSpecifier* %3) #13
  ret void
}

; Function Attrs: inlinehint nounwind ssp uwtable
define linkonce_odr void @_ZNSt3__16vectorINS_12basic_stringIcNS_11char_traitsIcEENS_9allocatorIcEEEENS4_IS6_EEED1Ev(%"class.std::__1::vector"*) unnamed_addr #3 align 2 {
  %2 = alloca %"class.std::__1::vector"*, align 8
  store %"class.std::__1::vector"* %0, %"class.std::__1::vector"** %2, align 8
  %3 = load %"class.std::__1::vector"*, %"class.std::__1::vector"** %2, align 8
  call void @_ZNSt3__16vectorINS_12basic_stringIcNS_11char_traitsIcEENS_9allocatorIcEEEENS4_IS6_EEED2Ev(%"class.std::__1::vector"* %3) #13
  ret void
}

; Function Attrs: inlinehint nounwind ssp uwtable
define linkonce_odr void @_ZN13TypeSpecifierD2Ev(%struct.TypeSpecifier*) unnamed_addr #3 align 2 {
  %2 = alloca %struct.TypeSpecifier*, align 8
  store %struct.TypeSpecifier* %0, %struct.TypeSpecifier** %2, align 8
  %3 = load %struct.TypeSpecifier*, %struct.TypeSpecifier** %2, align 8
  %4 = getelementptr inbounds %struct.TypeSpecifier, %struct.TypeSpecifier* %3, i32 0, i32 24
  call void @_ZNSt3__16vectorI13TypeSpecifierNS_9allocatorIS1_EEED1Ev(%"class.std::__1::vector.19"* %4) #13
  %5 = getelementptr inbounds %struct.TypeSpecifier, %struct.TypeSpecifier* %3, i32 0, i32 23
  call void @_ZNSt3__16vectorINS_12basic_stringIcNS_11char_traitsIcEENS_9allocatorIcEEEENS4_IS6_EEED1Ev(%"class.std::__1::vector"* %5) #13
  %6 = getelementptr inbounds %struct.TypeSpecifier, %struct.TypeSpecifier* %3, i32 0, i32 14
  call void @_ZNSt3__113unordered_mapINS_12basic_stringIcNS_11char_traitsIcEENS_9allocatorIcEEEE13TypeSpecifierNS_4hashIS6_EENS_8equal_toIS6_EENS4_INS_4pairIKS6_S7_EEEEED1Ev(%"class.std::__1::unordered_map"* %6) #13
  %7 = getelementptr inbounds %struct.TypeSpecifier, %struct.TypeSpecifier* %3, i32 0, i32 11
  call void @_ZNSt3__112basic_stringIcNS_11char_traitsIcEENS_9allocatorIcEEED1Ev(%"class.std::__1::basic_string"* %7) #13
  %8 = getelementptr inbounds %struct.TypeSpecifier, %struct.TypeSpecifier* %3, i32 0, i32 2
  call void @_ZNSt3__110shared_ptrI10ExpressionED1Ev(%"class.std::__1::shared_ptr"* %8) #13
  %9 = getelementptr inbounds %struct.TypeSpecifier, %struct.TypeSpecifier* %3, i32 0, i32 1
  call void @_ZNSt3__112basic_stringIcNS_11char_traitsIcEENS_9allocatorIcEEED1Ev(%"class.std::__1::basic_string"* %9) #13
  ret void
}

; Function Attrs: inlinehint nounwind ssp uwtable
define linkonce_odr void @_ZNSt3__16vectorI13TypeSpecifierNS_9allocatorIS1_EEED1Ev(%"class.std::__1::vector.19"*) unnamed_addr #3 align 2 {
  %2 = alloca %"class.std::__1::vector.19"*, align 8
  store %"class.std::__1::vector.19"* %0, %"class.std::__1::vector.19"** %2, align 8
  %3 = load %"class.std::__1::vector.19"*, %"class.std::__1::vector.19"** %2, align 8
  call void @_ZNSt3__16vectorI13TypeSpecifierNS_9allocatorIS1_EEED2Ev(%"class.std::__1::vector.19"* %3) #13
  ret void
}

; Function Attrs: inlinehint nounwind ssp uwtable
define linkonce_odr void @_ZNSt3__113unordered_mapINS_12basic_stringIcNS_11char_traitsIcEENS_9allocatorIcEEEE13TypeSpecifierNS_4hashIS6_EENS_8equal_toIS6_EENS4_INS_4pairIKS6_S7_EEEEED1Ev(%"class.std::__1::unordered_map"*) unnamed_addr #3 align 2 {
  %2 = alloca %"class.std::__1::unordered_map"*, align 8
  store %"class.std::__1::unordered_map"* %0, %"class.std::__1::unordered_map"** %2, align 8
  %3 = load %"class.std::__1::unordered_map"*, %"class.std::__1::unordered_map"** %2, align 8
  call void @_ZNSt3__113unordered_mapINS_12basic_stringIcNS_11char_traitsIcEENS_9allocatorIcEEEE13TypeSpecifierNS_4hashIS6_EENS_8equal_toIS6_EENS4_INS_4pairIKS6_S7_EEEEED2Ev(%"class.std::__1::unordered_map"* %3) #13
  ret void
}

; Function Attrs: inlinehint nounwind ssp uwtable
define linkonce_odr void @_ZNSt3__16vectorI13TypeSpecifierNS_9allocatorIS1_EEED2Ev(%"class.std::__1::vector.19"*) unnamed_addr #3 align 2 {
  %2 = alloca %"class.std::__1::vector.19"*, align 8
  store %"class.std::__1::vector.19"* %0, %"class.std::__1::vector.19"** %2, align 8
  %3 = load %"class.std::__1::vector.19"*, %"class.std::__1::vector.19"** %2, align 8
  %4 = bitcast %"class.std::__1::vector.19"* %3 to %"class.std::__1::__vector_base.20"*
  call void @_ZNSt3__113__vector_baseI13TypeSpecifierNS_9allocatorIS1_EEED2Ev(%"class.std::__1::__vector_base.20"* %4) #13
  ret void
}

; Function Attrs: nounwind ssp uwtable
define linkonce_odr void @_ZNSt3__113__vector_baseI13TypeSpecifierNS_9allocatorIS1_EEED2Ev(%"class.std::__1::__vector_base.20"*) unnamed_addr #2 align 2 personality i32 (...)* @__gxx_personality_v0 {
  %2 = alloca %"class.std::__1::allocator.23"*, align 8
  %3 = alloca %struct.TypeSpecifier*, align 8
  %4 = alloca %"struct.std::__1::integral_constant", align 1
  %5 = alloca %"class.std::__1::allocator.23"*, align 8
  %6 = alloca %struct.TypeSpecifier*, align 8
  %7 = alloca %"class.std::__1::allocator.23"*, align 8
  %8 = alloca %struct.TypeSpecifier*, align 8
  %9 = alloca %"struct.std::__1::integral_constant", align 1
  %10 = alloca %"struct.std::__1::__has_destroy", align 1
  %11 = alloca %"class.std::__1::__libcpp_compressed_pair_imp.22"*, align 8
  %12 = alloca %"class.std::__1::__compressed_pair.21"*, align 8
  %13 = alloca %"class.std::__1::__vector_base.20"*, align 8
  %14 = alloca %struct.TypeSpecifier*, align 8
  %15 = alloca %"class.std::__1::__vector_base.20"*, align 8
  %16 = alloca %struct.TypeSpecifier*, align 8
  %17 = alloca %"class.std::__1::__vector_base.20"*, align 8
  %18 = alloca %"class.std::__1::__libcpp_compressed_pair_imp.22"*, align 8
  %19 = alloca %"class.std::__1::__compressed_pair.21"*, align 8
  %20 = alloca %"class.std::__1::__vector_base.20"*, align 8
  %21 = alloca %"class.std::__1::__libcpp_compressed_pair_imp.22"*, align 8
  %22 = alloca %"class.std::__1::__compressed_pair.21"*, align 8
  %23 = alloca %"class.std::__1::__vector_base.20"*, align 8
  %24 = alloca %"class.std::__1::__vector_base.20"*, align 8
  %25 = alloca i8*, align 8
  %26 = alloca %"class.std::__1::allocator.23"*, align 8
  %27 = alloca %struct.TypeSpecifier*, align 8
  %28 = alloca i64, align 8
  %29 = alloca %"class.std::__1::allocator.23"*, align 8
  %30 = alloca %struct.TypeSpecifier*, align 8
  %31 = alloca i64, align 8
  %32 = alloca %"class.std::__1::__vector_base.20"*, align 8
  store %"class.std::__1::__vector_base.20"* %0, %"class.std::__1::__vector_base.20"** %32, align 8
  %33 = load %"class.std::__1::__vector_base.20"*, %"class.std::__1::__vector_base.20"** %32, align 8
  %34 = getelementptr inbounds %"class.std::__1::__vector_base.20", %"class.std::__1::__vector_base.20"* %33, i32 0, i32 0
  %35 = load %struct.TypeSpecifier*, %struct.TypeSpecifier** %34, align 8
  %36 = icmp ne %struct.TypeSpecifier* %35, null
  br i1 %36, label %37, label %95

; <label>:37:                                     ; preds = %1
  store %"class.std::__1::__vector_base.20"* %33, %"class.std::__1::__vector_base.20"** %17, align 8
  %38 = load %"class.std::__1::__vector_base.20"*, %"class.std::__1::__vector_base.20"** %17, align 8
  %39 = getelementptr inbounds %"class.std::__1::__vector_base.20", %"class.std::__1::__vector_base.20"* %38, i32 0, i32 0
  %40 = load %struct.TypeSpecifier*, %struct.TypeSpecifier** %39, align 8
  store %"class.std::__1::__vector_base.20"* %38, %"class.std::__1::__vector_base.20"** %15, align 8
  store %struct.TypeSpecifier* %40, %struct.TypeSpecifier** %16, align 8
  %41 = load %"class.std::__1::__vector_base.20"*, %"class.std::__1::__vector_base.20"** %15, align 8
  br label %42

; <label>:42:                                     ; preds = %47, %37
  %43 = load %struct.TypeSpecifier*, %struct.TypeSpecifier** %16, align 8
  %44 = getelementptr inbounds %"class.std::__1::__vector_base.20", %"class.std::__1::__vector_base.20"* %41, i32 0, i32 1
  %45 = load %struct.TypeSpecifier*, %struct.TypeSpecifier** %44, align 8
  %46 = icmp ne %struct.TypeSpecifier* %43, %45
  br i1 %46, label %47, label %65

; <label>:47:                                     ; preds = %42
  store %"class.std::__1::__vector_base.20"* %41, %"class.std::__1::__vector_base.20"** %13, align 8
  %48 = load %"class.std::__1::__vector_base.20"*, %"class.std::__1::__vector_base.20"** %13, align 8
  %49 = getelementptr inbounds %"class.std::__1::__vector_base.20", %"class.std::__1::__vector_base.20"* %48, i32 0, i32 2
  store %"class.std::__1::__compressed_pair.21"* %49, %"class.std::__1::__compressed_pair.21"** %12, align 8
  %50 = load %"class.std::__1::__compressed_pair.21"*, %"class.std::__1::__compressed_pair.21"** %12, align 8
  %51 = bitcast %"class.std::__1::__compressed_pair.21"* %50 to %"class.std::__1::__libcpp_compressed_pair_imp.22"*
  store %"class.std::__1::__libcpp_compressed_pair_imp.22"* %51, %"class.std::__1::__libcpp_compressed_pair_imp.22"** %11, align 8
  %52 = load %"class.std::__1::__libcpp_compressed_pair_imp.22"*, %"class.std::__1::__libcpp_compressed_pair_imp.22"** %11, align 8
  %53 = bitcast %"class.std::__1::__libcpp_compressed_pair_imp.22"* %52 to %"class.std::__1::allocator.23"*
  %54 = getelementptr inbounds %"class.std::__1::__vector_base.20", %"class.std::__1::__vector_base.20"* %41, i32 0, i32 1
  %55 = load %struct.TypeSpecifier*, %struct.TypeSpecifier** %54, align 8
  %56 = getelementptr inbounds %struct.TypeSpecifier, %struct.TypeSpecifier* %55, i32 -1
  store %struct.TypeSpecifier* %56, %struct.TypeSpecifier** %54, align 8
  store %struct.TypeSpecifier* %56, %struct.TypeSpecifier** %14, align 8
  %57 = load %struct.TypeSpecifier*, %struct.TypeSpecifier** %14, align 8
  store %"class.std::__1::allocator.23"* %53, %"class.std::__1::allocator.23"** %7, align 8
  store %struct.TypeSpecifier* %57, %struct.TypeSpecifier** %8, align 8
  %58 = bitcast %"struct.std::__1::__has_destroy"* %10 to %"struct.std::__1::integral_constant"*
  %59 = load %"class.std::__1::allocator.23"*, %"class.std::__1::allocator.23"** %7, align 8
  %60 = load %struct.TypeSpecifier*, %struct.TypeSpecifier** %8, align 8
  store %"class.std::__1::allocator.23"* %59, %"class.std::__1::allocator.23"** %5, align 8
  store %struct.TypeSpecifier* %60, %struct.TypeSpecifier** %6, align 8
  %61 = load %"class.std::__1::allocator.23"*, %"class.std::__1::allocator.23"** %5, align 8
  %62 = load %struct.TypeSpecifier*, %struct.TypeSpecifier** %6, align 8
  store %"class.std::__1::allocator.23"* %61, %"class.std::__1::allocator.23"** %2, align 8
  store %struct.TypeSpecifier* %62, %struct.TypeSpecifier** %3, align 8
  %63 = load %"class.std::__1::allocator.23"*, %"class.std::__1::allocator.23"** %2, align 8
  %64 = load %struct.TypeSpecifier*, %struct.TypeSpecifier** %3, align 8
  call void @_ZN13TypeSpecifierD1Ev(%struct.TypeSpecifier* %64) #13
  br label %42

; <label>:65:                                     ; preds = %42
  store %"class.std::__1::__vector_base.20"* %33, %"class.std::__1::__vector_base.20"** %20, align 8
  %66 = load %"class.std::__1::__vector_base.20"*, %"class.std::__1::__vector_base.20"** %20, align 8
  %67 = getelementptr inbounds %"class.std::__1::__vector_base.20", %"class.std::__1::__vector_base.20"* %66, i32 0, i32 2
  store %"class.std::__1::__compressed_pair.21"* %67, %"class.std::__1::__compressed_pair.21"** %19, align 8
  %68 = load %"class.std::__1::__compressed_pair.21"*, %"class.std::__1::__compressed_pair.21"** %19, align 8
  %69 = bitcast %"class.std::__1::__compressed_pair.21"* %68 to %"class.std::__1::__libcpp_compressed_pair_imp.22"*
  store %"class.std::__1::__libcpp_compressed_pair_imp.22"* %69, %"class.std::__1::__libcpp_compressed_pair_imp.22"** %18, align 8
  %70 = load %"class.std::__1::__libcpp_compressed_pair_imp.22"*, %"class.std::__1::__libcpp_compressed_pair_imp.22"** %18, align 8
  %71 = bitcast %"class.std::__1::__libcpp_compressed_pair_imp.22"* %70 to %"class.std::__1::allocator.23"*
  %72 = getelementptr inbounds %"class.std::__1::__vector_base.20", %"class.std::__1::__vector_base.20"* %33, i32 0, i32 0
  %73 = load %struct.TypeSpecifier*, %struct.TypeSpecifier** %72, align 8
  store %"class.std::__1::__vector_base.20"* %33, %"class.std::__1::__vector_base.20"** %24, align 8
  %74 = load %"class.std::__1::__vector_base.20"*, %"class.std::__1::__vector_base.20"** %24, align 8
  store %"class.std::__1::__vector_base.20"* %74, %"class.std::__1::__vector_base.20"** %23, align 8
  %75 = load %"class.std::__1::__vector_base.20"*, %"class.std::__1::__vector_base.20"** %23, align 8
  %76 = getelementptr inbounds %"class.std::__1::__vector_base.20", %"class.std::__1::__vector_base.20"* %75, i32 0, i32 2
  store %"class.std::__1::__compressed_pair.21"* %76, %"class.std::__1::__compressed_pair.21"** %22, align 8
  %77 = load %"class.std::__1::__compressed_pair.21"*, %"class.std::__1::__compressed_pair.21"** %22, align 8
  %78 = bitcast %"class.std::__1::__compressed_pair.21"* %77 to %"class.std::__1::__libcpp_compressed_pair_imp.22"*
  store %"class.std::__1::__libcpp_compressed_pair_imp.22"* %78, %"class.std::__1::__libcpp_compressed_pair_imp.22"** %21, align 8
  %79 = load %"class.std::__1::__libcpp_compressed_pair_imp.22"*, %"class.std::__1::__libcpp_compressed_pair_imp.22"** %21, align 8
  %80 = getelementptr inbounds %"class.std::__1::__libcpp_compressed_pair_imp.22", %"class.std::__1::__libcpp_compressed_pair_imp.22"* %79, i32 0, i32 0
  %81 = load %struct.TypeSpecifier*, %struct.TypeSpecifier** %80, align 8
  %82 = getelementptr inbounds %"class.std::__1::__vector_base.20", %"class.std::__1::__vector_base.20"* %74, i32 0, i32 0
  %83 = load %struct.TypeSpecifier*, %struct.TypeSpecifier** %82, align 8
  %84 = ptrtoint %struct.TypeSpecifier* %81 to i64
  %85 = ptrtoint %struct.TypeSpecifier* %83 to i64
  %86 = sub i64 %84, %85
  %87 = sdiv exact i64 %86, 216
  store %"class.std::__1::allocator.23"* %71, %"class.std::__1::allocator.23"** %29, align 8
  store %struct.TypeSpecifier* %73, %struct.TypeSpecifier** %30, align 8
  store i64 %87, i64* %31, align 8
  %88 = load %"class.std::__1::allocator.23"*, %"class.std::__1::allocator.23"** %29, align 8
  %89 = load %struct.TypeSpecifier*, %struct.TypeSpecifier** %30, align 8
  %90 = load i64, i64* %31, align 8
  store %"class.std::__1::allocator.23"* %88, %"class.std::__1::allocator.23"** %26, align 8
  store %struct.TypeSpecifier* %89, %struct.TypeSpecifier** %27, align 8
  store i64 %90, i64* %28, align 8
  %91 = load %"class.std::__1::allocator.23"*, %"class.std::__1::allocator.23"** %26, align 8
  %92 = load %struct.TypeSpecifier*, %struct.TypeSpecifier** %27, align 8
  %93 = bitcast %struct.TypeSpecifier* %92 to i8*
  store i8* %93, i8** %25, align 8
  %94 = load i8*, i8** %25, align 8
  call void @_ZdlPv(i8* %94) #14
  br label %95

; <label>:95:                                     ; preds = %65, %1
  ret void
}

; Function Attrs: inlinehint nounwind ssp uwtable
define linkonce_odr void @_ZNSt3__113unordered_mapINS_12basic_stringIcNS_11char_traitsIcEENS_9allocatorIcEEEE13TypeSpecifierNS_4hashIS6_EENS_8equal_toIS6_EENS4_INS_4pairIKS6_S7_EEEEED2Ev(%"class.std::__1::unordered_map"*) unnamed_addr #3 align 2 {
  %2 = alloca %"class.std::__1::unordered_map"*, align 8
  store %"class.std::__1::unordered_map"* %0, %"class.std::__1::unordered_map"** %2, align 8
  %3 = load %"class.std::__1::unordered_map"*, %"class.std::__1::unordered_map"** %2, align 8
  %4 = getelementptr inbounds %"class.std::__1::unordered_map", %"class.std::__1::unordered_map"* %3, i32 0, i32 0
  call void @_ZNSt3__112__hash_tableINS_17__hash_value_typeINS_12basic_stringIcNS_11char_traitsIcEENS_9allocatorIcEEEE13TypeSpecifierEENS_22__unordered_map_hasherIS7_S9_NS_4hashIS7_EELb1EEENS_21__unordered_map_equalIS7_S9_NS_8equal_toIS7_EELb1EEENS5_IS9_EEED1Ev(%"class.std::__1::__hash_table"* %4) #13
  ret void
}

; Function Attrs: nounwind ssp uwtable
define linkonce_odr void @_ZNSt3__112__hash_tableINS_17__hash_value_typeINS_12basic_stringIcNS_11char_traitsIcEENS_9allocatorIcEEEE13TypeSpecifierEENS_22__unordered_map_hasherIS7_S9_NS_4hashIS7_EELb1EEENS_21__unordered_map_equalIS7_S9_NS_8equal_toIS7_EELb1EEENS5_IS9_EEED1Ev(%"class.std::__1::__hash_table"*) unnamed_addr #2 align 2 {
  %2 = alloca %"class.std::__1::__hash_table"*, align 8
  store %"class.std::__1::__hash_table"* %0, %"class.std::__1::__hash_table"** %2, align 8
  %3 = load %"class.std::__1::__hash_table"*, %"class.std::__1::__hash_table"** %2, align 8
  call void @_ZNSt3__112__hash_tableINS_17__hash_value_typeINS_12basic_stringIcNS_11char_traitsIcEENS_9allocatorIcEEEE13TypeSpecifierEENS_22__unordered_map_hasherIS7_S9_NS_4hashIS7_EELb1EEENS_21__unordered_map_equalIS7_S9_NS_8equal_toIS7_EELb1EEENS5_IS9_EEED2Ev(%"class.std::__1::__hash_table"* %3) #13
  ret void
}

; Function Attrs: nounwind ssp uwtable
define linkonce_odr void @_ZNSt3__112__hash_tableINS_17__hash_value_typeINS_12basic_stringIcNS_11char_traitsIcEENS_9allocatorIcEEEE13TypeSpecifierEENS_22__unordered_map_hasherIS7_S9_NS_4hashIS7_EELb1EEENS_21__unordered_map_equalIS7_S9_NS_8equal_toIS7_EELb1EEENS5_IS9_EEED2Ev(%"class.std::__1::__hash_table"*) unnamed_addr #2 align 2 personality i32 (...)* @__gxx_personality_v0 {
  %2 = alloca %"class.std::__1::__libcpp_compressed_pair_imp.6"*, align 8
  %3 = alloca %"class.std::__1::__compressed_pair.5"*, align 8
  %4 = alloca %"class.std::__1::__libcpp_compressed_pair_imp.6"*, align 8
  %5 = alloca %"class.std::__1::__compressed_pair.5"*, align 8
  %6 = alloca %"class.std::__1::__libcpp_compressed_pair_imp.8"*, align 8
  %7 = alloca %"class.std::__1::__compressed_pair.7"*, align 8
  %8 = alloca %"class.std::__1::__bucket_list_deallocator"*, align 8
  %9 = alloca i8*, align 8
  %10 = alloca %"class.std::__1::allocator.9"*, align 8
  %11 = alloca %"struct.std::__1::__hash_node_base"**, align 8
  %12 = alloca i64, align 8
  %13 = alloca %"class.std::__1::allocator.9"*, align 8
  %14 = alloca %"struct.std::__1::__hash_node_base"**, align 8
  %15 = alloca i64, align 8
  %16 = alloca %"class.std::__1::__libcpp_compressed_pair_imp.8"*, align 8
  %17 = alloca %"class.std::__1::__compressed_pair.7"*, align 8
  %18 = alloca %"class.std::__1::__bucket_list_deallocator"*, align 8
  %19 = alloca %"class.std::__1::__bucket_list_deallocator"*, align 8
  %20 = alloca %"struct.std::__1::__hash_node_base"**, align 8
  %21 = alloca %"class.std::__1::__libcpp_compressed_pair_imp.6"*, align 8
  %22 = alloca %"class.std::__1::__compressed_pair.5"*, align 8
  %23 = alloca %"class.std::__1::unique_ptr"*, align 8
  %24 = alloca %"struct.std::__1::__hash_node_base"**, align 8
  %25 = alloca %"class.std::__1::unique_ptr"*, align 8
  %26 = alloca %"class.std::__1::unique_ptr"*, align 8
  %27 = alloca %"class.std::__1::__libcpp_compressed_pair_imp.12"*, align 8
  %28 = alloca %"class.std::__1::__compressed_pair.11"*, align 8
  %29 = alloca %"class.std::__1::__hash_table"*, align 8
  store %"class.std::__1::__hash_table"* %0, %"class.std::__1::__hash_table"** %29, align 8
  %30 = load %"class.std::__1::__hash_table"*, %"class.std::__1::__hash_table"** %29, align 8
  %31 = getelementptr inbounds %"class.std::__1::__hash_table", %"class.std::__1::__hash_table"* %30, i32 0, i32 1
  store %"class.std::__1::__compressed_pair.11"* %31, %"class.std::__1::__compressed_pair.11"** %28, align 8
  %32 = load %"class.std::__1::__compressed_pair.11"*, %"class.std::__1::__compressed_pair.11"** %28, align 8
  %33 = bitcast %"class.std::__1::__compressed_pair.11"* %32 to %"class.std::__1::__libcpp_compressed_pair_imp.12"*
  store %"class.std::__1::__libcpp_compressed_pair_imp.12"* %33, %"class.std::__1::__libcpp_compressed_pair_imp.12"** %27, align 8
  %34 = load %"class.std::__1::__libcpp_compressed_pair_imp.12"*, %"class.std::__1::__libcpp_compressed_pair_imp.12"** %27, align 8
  %35 = getelementptr inbounds %"class.std::__1::__libcpp_compressed_pair_imp.12", %"class.std::__1::__libcpp_compressed_pair_imp.12"* %34, i32 0, i32 0
  %36 = getelementptr inbounds %"struct.std::__1::__hash_node_base", %"struct.std::__1::__hash_node_base"* %35, i32 0, i32 0
  %37 = load %"struct.std::__1::__hash_node_base"*, %"struct.std::__1::__hash_node_base"** %36, align 8
  call void @_ZNSt3__112__hash_tableINS_17__hash_value_typeINS_12basic_stringIcNS_11char_traitsIcEENS_9allocatorIcEEEE13TypeSpecifierEENS_22__unordered_map_hasherIS7_S9_NS_4hashIS7_EELb1EEENS_21__unordered_map_equalIS7_S9_NS_8equal_toIS7_EELb1EEENS5_IS9_EEE12__deallocateEPNS_16__hash_node_baseIPNS_11__hash_nodeIS9_PvEEEE(%"class.std::__1::__hash_table"* %30, %"struct.std::__1::__hash_node_base"* %37) #13
  %38 = getelementptr inbounds %"class.std::__1::__hash_table", %"class.std::__1::__hash_table"* %30, i32 0, i32 0
  store %"class.std::__1::unique_ptr"* %38, %"class.std::__1::unique_ptr"** %26, align 8
  %39 = load %"class.std::__1::unique_ptr"*, %"class.std::__1::unique_ptr"** %26, align 8
  store %"class.std::__1::unique_ptr"* %39, %"class.std::__1::unique_ptr"** %25, align 8
  %40 = load %"class.std::__1::unique_ptr"*, %"class.std::__1::unique_ptr"** %25, align 8
  store %"class.std::__1::unique_ptr"* %40, %"class.std::__1::unique_ptr"** %23, align 8
  %41 = load %"class.std::__1::unique_ptr"*, %"class.std::__1::unique_ptr"** %23, align 8
  %42 = getelementptr inbounds %"class.std::__1::unique_ptr", %"class.std::__1::unique_ptr"* %41, i32 0, i32 0
  store %"class.std::__1::__compressed_pair.5"* %42, %"class.std::__1::__compressed_pair.5"** %22, align 8
  %43 = load %"class.std::__1::__compressed_pair.5"*, %"class.std::__1::__compressed_pair.5"** %22, align 8
  %44 = bitcast %"class.std::__1::__compressed_pair.5"* %43 to %"class.std::__1::__libcpp_compressed_pair_imp.6"*
  store %"class.std::__1::__libcpp_compressed_pair_imp.6"* %44, %"class.std::__1::__libcpp_compressed_pair_imp.6"** %21, align 8
  %45 = load %"class.std::__1::__libcpp_compressed_pair_imp.6"*, %"class.std::__1::__libcpp_compressed_pair_imp.6"** %21, align 8
  %46 = getelementptr inbounds %"class.std::__1::__libcpp_compressed_pair_imp.6", %"class.std::__1::__libcpp_compressed_pair_imp.6"* %45, i32 0, i32 0
  %47 = load %"struct.std::__1::__hash_node_base"**, %"struct.std::__1::__hash_node_base"*** %46, align 8
  store %"struct.std::__1::__hash_node_base"** %47, %"struct.std::__1::__hash_node_base"*** %24, align 8
  %48 = getelementptr inbounds %"class.std::__1::unique_ptr", %"class.std::__1::unique_ptr"* %41, i32 0, i32 0
  store %"class.std::__1::__compressed_pair.5"* %48, %"class.std::__1::__compressed_pair.5"** %5, align 8
  %49 = load %"class.std::__1::__compressed_pair.5"*, %"class.std::__1::__compressed_pair.5"** %5, align 8
  %50 = bitcast %"class.std::__1::__compressed_pair.5"* %49 to %"class.std::__1::__libcpp_compressed_pair_imp.6"*
  store %"class.std::__1::__libcpp_compressed_pair_imp.6"* %50, %"class.std::__1::__libcpp_compressed_pair_imp.6"** %4, align 8
  %51 = load %"class.std::__1::__libcpp_compressed_pair_imp.6"*, %"class.std::__1::__libcpp_compressed_pair_imp.6"** %4, align 8
  %52 = getelementptr inbounds %"class.std::__1::__libcpp_compressed_pair_imp.6", %"class.std::__1::__libcpp_compressed_pair_imp.6"* %51, i32 0, i32 0
  store %"struct.std::__1::__hash_node_base"** null, %"struct.std::__1::__hash_node_base"*** %52, align 8
  %53 = load %"struct.std::__1::__hash_node_base"**, %"struct.std::__1::__hash_node_base"*** %24, align 8
  %54 = icmp ne %"struct.std::__1::__hash_node_base"** %53, null
  br i1 %54, label %55, label %84

; <label>:55:                                     ; preds = %1
  %56 = getelementptr inbounds %"class.std::__1::unique_ptr", %"class.std::__1::unique_ptr"* %41, i32 0, i32 0
  store %"class.std::__1::__compressed_pair.5"* %56, %"class.std::__1::__compressed_pair.5"** %3, align 8
  %57 = load %"class.std::__1::__compressed_pair.5"*, %"class.std::__1::__compressed_pair.5"** %3, align 8
  %58 = bitcast %"class.std::__1::__compressed_pair.5"* %57 to %"class.std::__1::__libcpp_compressed_pair_imp.6"*
  store %"class.std::__1::__libcpp_compressed_pair_imp.6"* %58, %"class.std::__1::__libcpp_compressed_pair_imp.6"** %2, align 8
  %59 = load %"class.std::__1::__libcpp_compressed_pair_imp.6"*, %"class.std::__1::__libcpp_compressed_pair_imp.6"** %2, align 8
  %60 = getelementptr inbounds %"class.std::__1::__libcpp_compressed_pair_imp.6", %"class.std::__1::__libcpp_compressed_pair_imp.6"* %59, i32 0, i32 1
  %61 = load %"struct.std::__1::__hash_node_base"**, %"struct.std::__1::__hash_node_base"*** %24, align 8
  store %"class.std::__1::__bucket_list_deallocator"* %60, %"class.std::__1::__bucket_list_deallocator"** %19, align 8
  store %"struct.std::__1::__hash_node_base"** %61, %"struct.std::__1::__hash_node_base"*** %20, align 8
  %62 = load %"class.std::__1::__bucket_list_deallocator"*, %"class.std::__1::__bucket_list_deallocator"** %19, align 8
  store %"class.std::__1::__bucket_list_deallocator"* %62, %"class.std::__1::__bucket_list_deallocator"** %18, align 8
  %63 = load %"class.std::__1::__bucket_list_deallocator"*, %"class.std::__1::__bucket_list_deallocator"** %18, align 8
  %64 = getelementptr inbounds %"class.std::__1::__bucket_list_deallocator", %"class.std::__1::__bucket_list_deallocator"* %63, i32 0, i32 0
  store %"class.std::__1::__compressed_pair.7"* %64, %"class.std::__1::__compressed_pair.7"** %17, align 8
  %65 = load %"class.std::__1::__compressed_pair.7"*, %"class.std::__1::__compressed_pair.7"** %17, align 8
  %66 = bitcast %"class.std::__1::__compressed_pair.7"* %65 to %"class.std::__1::__libcpp_compressed_pair_imp.8"*
  store %"class.std::__1::__libcpp_compressed_pair_imp.8"* %66, %"class.std::__1::__libcpp_compressed_pair_imp.8"** %16, align 8
  %67 = load %"class.std::__1::__libcpp_compressed_pair_imp.8"*, %"class.std::__1::__libcpp_compressed_pair_imp.8"** %16, align 8
  %68 = bitcast %"class.std::__1::__libcpp_compressed_pair_imp.8"* %67 to %"class.std::__1::allocator.9"*
  %69 = load %"struct.std::__1::__hash_node_base"**, %"struct.std::__1::__hash_node_base"*** %20, align 8
  store %"class.std::__1::__bucket_list_deallocator"* %62, %"class.std::__1::__bucket_list_deallocator"** %8, align 8
  %70 = load %"class.std::__1::__bucket_list_deallocator"*, %"class.std::__1::__bucket_list_deallocator"** %8, align 8
  %71 = getelementptr inbounds %"class.std::__1::__bucket_list_deallocator", %"class.std::__1::__bucket_list_deallocator"* %70, i32 0, i32 0
  store %"class.std::__1::__compressed_pair.7"* %71, %"class.std::__1::__compressed_pair.7"** %7, align 8
  %72 = load %"class.std::__1::__compressed_pair.7"*, %"class.std::__1::__compressed_pair.7"** %7, align 8
  %73 = bitcast %"class.std::__1::__compressed_pair.7"* %72 to %"class.std::__1::__libcpp_compressed_pair_imp.8"*
  store %"class.std::__1::__libcpp_compressed_pair_imp.8"* %73, %"class.std::__1::__libcpp_compressed_pair_imp.8"** %6, align 8
  %74 = load %"class.std::__1::__libcpp_compressed_pair_imp.8"*, %"class.std::__1::__libcpp_compressed_pair_imp.8"** %6, align 8
  %75 = getelementptr inbounds %"class.std::__1::__libcpp_compressed_pair_imp.8", %"class.std::__1::__libcpp_compressed_pair_imp.8"* %74, i32 0, i32 0
  %76 = load i64, i64* %75, align 8
  store %"class.std::__1::allocator.9"* %68, %"class.std::__1::allocator.9"** %13, align 8
  store %"struct.std::__1::__hash_node_base"** %69, %"struct.std::__1::__hash_node_base"*** %14, align 8
  store i64 %76, i64* %15, align 8
  %77 = load %"class.std::__1::allocator.9"*, %"class.std::__1::allocator.9"** %13, align 8
  %78 = load %"struct.std::__1::__hash_node_base"**, %"struct.std::__1::__hash_node_base"*** %14, align 8
  %79 = load i64, i64* %15, align 8
  store %"class.std::__1::allocator.9"* %77, %"class.std::__1::allocator.9"** %10, align 8
  store %"struct.std::__1::__hash_node_base"** %78, %"struct.std::__1::__hash_node_base"*** %11, align 8
  store i64 %79, i64* %12, align 8
  %80 = load %"class.std::__1::allocator.9"*, %"class.std::__1::allocator.9"** %10, align 8
  %81 = load %"struct.std::__1::__hash_node_base"**, %"struct.std::__1::__hash_node_base"*** %11, align 8
  %82 = bitcast %"struct.std::__1::__hash_node_base"** %81 to i8*
  store i8* %82, i8** %9, align 8
  %83 = load i8*, i8** %9, align 8
  call void @_ZdlPv(i8* %83) #14
  br label %84

; <label>:84:                                     ; preds = %1, %55
  ret void
}

; Function Attrs: nounwind ssp uwtable
define linkonce_odr void @_ZNSt3__112__hash_tableINS_17__hash_value_typeINS_12basic_stringIcNS_11char_traitsIcEENS_9allocatorIcEEEE13TypeSpecifierEENS_22__unordered_map_hasherIS7_S9_NS_4hashIS7_EELb1EEENS_21__unordered_map_equalIS7_S9_NS_8equal_toIS7_EELb1EEENS5_IS9_EEE12__deallocateEPNS_16__hash_node_baseIPNS_11__hash_nodeIS9_PvEEEE(%"class.std::__1::__hash_table"*, %"struct.std::__1::__hash_node_base"*) #2 align 2 personality i8* bitcast (i32 (...)* @__gxx_personality_v0 to i8*) {
  %3 = alloca %"class.std::__1::allocator.13"*, align 8
  %4 = alloca %"struct.std::__1::pair.255"*, align 8
  %5 = alloca %"class.std::__1::allocator.13"*, align 8
  %6 = alloca %"struct.std::__1::pair.255"*, align 8
  %7 = alloca %"struct.std::__1::integral_constant.257", align 1
  %8 = alloca %"struct.std::__1::__has_destroy.258", align 1
  %9 = alloca i8*, align 8
  %10 = alloca %"class.std::__1::allocator.13"*, align 8
  %11 = alloca %"struct.std::__1::__hash_node"*, align 8
  %12 = alloca i64, align 8
  %13 = alloca %"class.std::__1::allocator.13"*, align 8
  %14 = alloca %"struct.std::__1::__hash_node"*, align 8
  %15 = alloca i64, align 8
  %16 = alloca %"struct.std::__1::pair.255"*, align 8
  %17 = alloca %"union.std::__1::__hash_value_type"*, align 8
  %18 = alloca %"struct.std::__1::__hash_node_base"*, align 8
  %19 = alloca %"struct.std::__1::__hash_node_base"*, align 8
  %20 = alloca %"struct.std::__1::__hash_node_base"*, align 8
  %21 = alloca %"class.std::__1::__libcpp_compressed_pair_imp.12"*, align 8
  %22 = alloca %"class.std::__1::__compressed_pair.11"*, align 8
  %23 = alloca %"class.std::__1::__hash_table"*, align 8
  %24 = alloca %"class.std::__1::__hash_table"*, align 8
  %25 = alloca %"struct.std::__1::__hash_node_base"*, align 8
  %26 = alloca %"class.std::__1::allocator.13"*, align 8
  %27 = alloca %"struct.std::__1::__hash_node_base"*, align 8
  %28 = alloca %"struct.std::__1::__hash_node"*, align 8
  store %"class.std::__1::__hash_table"* %0, %"class.std::__1::__hash_table"** %24, align 8
  store %"struct.std::__1::__hash_node_base"* %1, %"struct.std::__1::__hash_node_base"** %25, align 8
  %29 = load %"class.std::__1::__hash_table"*, %"class.std::__1::__hash_table"** %24, align 8
  store %"class.std::__1::__hash_table"* %29, %"class.std::__1::__hash_table"** %23, align 8
  %30 = load %"class.std::__1::__hash_table"*, %"class.std::__1::__hash_table"** %23, align 8
  %31 = getelementptr inbounds %"class.std::__1::__hash_table", %"class.std::__1::__hash_table"* %30, i32 0, i32 1
  store %"class.std::__1::__compressed_pair.11"* %31, %"class.std::__1::__compressed_pair.11"** %22, align 8
  %32 = load %"class.std::__1::__compressed_pair.11"*, %"class.std::__1::__compressed_pair.11"** %22, align 8
  %33 = bitcast %"class.std::__1::__compressed_pair.11"* %32 to %"class.std::__1::__libcpp_compressed_pair_imp.12"*
  store %"class.std::__1::__libcpp_compressed_pair_imp.12"* %33, %"class.std::__1::__libcpp_compressed_pair_imp.12"** %21, align 8
  %34 = load %"class.std::__1::__libcpp_compressed_pair_imp.12"*, %"class.std::__1::__libcpp_compressed_pair_imp.12"** %21, align 8
  %35 = bitcast %"class.std::__1::__libcpp_compressed_pair_imp.12"* %34 to %"class.std::__1::allocator.13"*
  store %"class.std::__1::allocator.13"* %35, %"class.std::__1::allocator.13"** %26, align 8
  br label %36

; <label>:36:                                     ; preds = %61, %2
  %37 = load %"struct.std::__1::__hash_node_base"*, %"struct.std::__1::__hash_node_base"** %25, align 8
  %38 = icmp ne %"struct.std::__1::__hash_node_base"* %37, null
  br i1 %38, label %39, label %72

; <label>:39:                                     ; preds = %36
  %40 = load %"struct.std::__1::__hash_node_base"*, %"struct.std::__1::__hash_node_base"** %25, align 8
  %41 = getelementptr inbounds %"struct.std::__1::__hash_node_base", %"struct.std::__1::__hash_node_base"* %40, i32 0, i32 0
  %42 = load %"struct.std::__1::__hash_node_base"*, %"struct.std::__1::__hash_node_base"** %41, align 8
  store %"struct.std::__1::__hash_node_base"* %42, %"struct.std::__1::__hash_node_base"** %27, align 8
  %43 = load %"struct.std::__1::__hash_node_base"*, %"struct.std::__1::__hash_node_base"** %25, align 8
  store %"struct.std::__1::__hash_node_base"* %43, %"struct.std::__1::__hash_node_base"** %20, align 8
  %44 = load %"struct.std::__1::__hash_node_base"*, %"struct.std::__1::__hash_node_base"** %20, align 8
  store %"struct.std::__1::__hash_node_base"* %44, %"struct.std::__1::__hash_node_base"** %19, align 8
  %45 = load %"struct.std::__1::__hash_node_base"*, %"struct.std::__1::__hash_node_base"** %19, align 8
  store %"struct.std::__1::__hash_node_base"* %45, %"struct.std::__1::__hash_node_base"** %18, align 8
  %46 = load %"struct.std::__1::__hash_node_base"*, %"struct.std::__1::__hash_node_base"** %18, align 8
  %47 = bitcast %"struct.std::__1::__hash_node_base"* %46 to i8*
  %48 = bitcast %"struct.std::__1::__hash_node_base"* %46 to %"struct.std::__1::__hash_node"*
  store %"struct.std::__1::__hash_node"* %48, %"struct.std::__1::__hash_node"** %28, align 8
  %49 = load %"class.std::__1::allocator.13"*, %"class.std::__1::allocator.13"** %26, align 8
  %50 = load %"struct.std::__1::__hash_node"*, %"struct.std::__1::__hash_node"** %28, align 8
  %51 = getelementptr inbounds %"struct.std::__1::__hash_node", %"struct.std::__1::__hash_node"* %50, i32 0, i32 2
  store %"union.std::__1::__hash_value_type"* %51, %"union.std::__1::__hash_value_type"** %17, align 8
  %52 = load %"union.std::__1::__hash_value_type"*, %"union.std::__1::__hash_value_type"** %17, align 8
  %53 = bitcast %"union.std::__1::__hash_value_type"* %52 to %"struct.std::__1::pair.255"*
  store %"struct.std::__1::pair.255"* %53, %"struct.std::__1::pair.255"** %16, align 8
  %54 = load %"struct.std::__1::pair.255"*, %"struct.std::__1::pair.255"** %16, align 8
  %55 = bitcast %"struct.std::__1::pair.255"* %54 to i8*
  br label %56

; <label>:56:                                     ; preds = %39
  store %"class.std::__1::allocator.13"* %49, %"class.std::__1::allocator.13"** %5, align 8
  store %"struct.std::__1::pair.255"* %54, %"struct.std::__1::pair.255"** %6, align 8
  %57 = bitcast %"struct.std::__1::__has_destroy.258"* %8 to %"struct.std::__1::integral_constant.257"*
  %58 = load %"class.std::__1::allocator.13"*, %"class.std::__1::allocator.13"** %5, align 8
  %59 = load %"struct.std::__1::pair.255"*, %"struct.std::__1::pair.255"** %6, align 8
  store %"class.std::__1::allocator.13"* %58, %"class.std::__1::allocator.13"** %3, align 8
  store %"struct.std::__1::pair.255"* %59, %"struct.std::__1::pair.255"** %4, align 8
  %60 = load %"struct.std::__1::pair.255"*, %"struct.std::__1::pair.255"** %4, align 8
  call void @_ZNSt3__14pairIKNS_12basic_stringIcNS_11char_traitsIcEENS_9allocatorIcEEEE13TypeSpecifierED1Ev(%"struct.std::__1::pair.255"* %60) #13
  br label %61

; <label>:61:                                     ; preds = %56
  %62 = load %"class.std::__1::allocator.13"*, %"class.std::__1::allocator.13"** %26, align 8
  %63 = load %"struct.std::__1::__hash_node"*, %"struct.std::__1::__hash_node"** %28, align 8
  store %"class.std::__1::allocator.13"* %62, %"class.std::__1::allocator.13"** %13, align 8
  store %"struct.std::__1::__hash_node"* %63, %"struct.std::__1::__hash_node"** %14, align 8
  store i64 1, i64* %15, align 8
  %64 = load %"class.std::__1::allocator.13"*, %"class.std::__1::allocator.13"** %13, align 8
  %65 = load %"struct.std::__1::__hash_node"*, %"struct.std::__1::__hash_node"** %14, align 8
  %66 = load i64, i64* %15, align 8
  store %"class.std::__1::allocator.13"* %64, %"class.std::__1::allocator.13"** %10, align 8
  store %"struct.std::__1::__hash_node"* %65, %"struct.std::__1::__hash_node"** %11, align 8
  store i64 %66, i64* %12, align 8
  %67 = load %"class.std::__1::allocator.13"*, %"class.std::__1::allocator.13"** %10, align 8
  %68 = load %"struct.std::__1::__hash_node"*, %"struct.std::__1::__hash_node"** %11, align 8
  %69 = bitcast %"struct.std::__1::__hash_node"* %68 to i8*
  store i8* %69, i8** %9, align 8
  %70 = load i8*, i8** %9, align 8
  call void @_ZdlPv(i8* %70) #14
  %71 = load %"struct.std::__1::__hash_node_base"*, %"struct.std::__1::__hash_node_base"** %27, align 8
  store %"struct.std::__1::__hash_node_base"* %71, %"struct.std::__1::__hash_node_base"** %25, align 8
  br label %36

; <label>:72:                                     ; preds = %36
  ret void
                                                  ; No predecessors!
  %74 = landingpad { i8*, i32 }
          catch i8* null
  %75 = extractvalue { i8*, i32 } %74, 0
  call void @__clang_call_terminate(i8* %75) #15
  unreachable
}

; Function Attrs: inlinehint nounwind ssp uwtable
