; ModuleID = '/Users/Jonas/CLionProjects/HackerRank/XtremeJonasScript/src/AST/Visitor/CodeGen/CGMemory.cpp'
source_filename = "/Users/Jonas/CLionProjects/HackerRank/XtremeJonasScript/src/AST/Visitor/CodeGen/CGMemory.cpp"
target datalayout = "e-m:o-i64:64-f80:128-n8:16:32:64-S128"
target triple = "x86_64-apple-macosx10.12.0"

%"class.llvm::BasicBlock" = type { %"class.llvm::Value", %"class.llvm::ilist_node_with_parent", %"class.llvm::SymbolTableList", %"class.llvm::Function"* }
%"class.llvm::Value" = type { i32 (...)**, %"class.llvm::Type"*, %"class.llvm::Use"*, i8, i8, i16, i32 }
%"class.llvm::Type" = type { %"class.llvm::LLVMContext"*, i32, i32, %"class.llvm::Type"** }
%"class.llvm::LLVMContext" = type { %"class.llvm::LLVMContextImpl"* }
%"class.llvm::LLVMContextImpl" = type opaque
%"class.llvm::Use" = type { %"class.llvm::Value"*, %"class.llvm::Use"*, %"class.llvm::PointerIntPair" }
%"class.llvm::PointerIntPair" = type { i64 }
%"class.llvm::ilist_node_with_parent" = type { %"class.llvm::ilist_node" }
%"class.llvm::ilist_node" = type { %"class.llvm::ilist_node_impl" }
%"class.llvm::ilist_node_impl" = type { %"class.llvm::ilist_node_base" }
%"class.llvm::ilist_node_base" = type { %"class.llvm::ilist_node_base"*, %"class.llvm::ilist_node_base"* }
%"class.llvm::SymbolTableList" = type { %"class.llvm::iplist_impl" }
%"class.llvm::iplist_impl" = type { %"class.llvm::simple_ilist" }
%"class.llvm::simple_ilist" = type { %"class.llvm::ilist_sentinel" }
%"class.llvm::ilist_sentinel" = type { %"class.llvm::ilist_node_impl.0" }
%"class.llvm::ilist_node_impl.0" = type { %"class.llvm::ilist_node_base" }
%"class.llvm::Function" = type { %"class.llvm::GlobalObject", %"class.llvm::ilist_node.1", %"class.llvm::SymbolTableList.3", %"class.llvm::SymbolTableList.10", %"class.std::__1::unique_ptr", %"class.llvm::AttributeSet" }
%"class.llvm::GlobalObject" = type { %"class.llvm::GlobalValue", %"class.llvm::Comdat"* }
%"class.llvm::GlobalValue" = type { %"class.llvm::Constant", %"class.llvm::Type"*, i32, i32, %"class.llvm::Module"* }
%"class.llvm::Constant" = type { %"class.llvm::User" }
%"class.llvm::User" = type { %"class.llvm::Value" }
%"class.llvm::Module" = type opaque
%"class.llvm::Comdat" = type opaque
%"class.llvm::ilist_node.1" = type { %"class.llvm::ilist_node_impl.2" }
%"class.llvm::ilist_node_impl.2" = type { %"class.llvm::ilist_node_base" }
%"class.llvm::SymbolTableList.3" = type { %"class.llvm::iplist_impl.4" }
%"class.llvm::iplist_impl.4" = type { %"class.llvm::simple_ilist.7" }
%"class.llvm::simple_ilist.7" = type { %"class.llvm::ilist_sentinel.9" }
%"class.llvm::ilist_sentinel.9" = type { %"class.llvm::ilist_node_impl" }
%"class.llvm::SymbolTableList.10" = type { %"class.llvm::iplist_impl.11" }
%"class.llvm::iplist_impl.11" = type { %"class.llvm::simple_ilist.14" }
%"class.llvm::simple_ilist.14" = type { %"class.llvm::ilist_sentinel.16" }
%"class.llvm::ilist_sentinel.16" = type { %"class.llvm::ilist_node_impl.17" }
%"class.llvm::ilist_node_impl.17" = type { %"class.llvm::ilist_node_base" }
%"class.std::__1::unique_ptr" = type { %"class.std::__1::__compressed_pair" }
%"class.std::__1::__compressed_pair" = type { %"class.std::__1::__libcpp_compressed_pair_imp" }
%"class.std::__1::__libcpp_compressed_pair_imp" = type { %"class.llvm::ValueSymbolTable"* }
%"class.llvm::ValueSymbolTable" = type opaque
%"class.llvm::AttributeSet" = type { %"class.llvm::AttributeSetImpl"* }
%"class.llvm::AttributeSetImpl" = type opaque
%"class.std::__1::unique_ptr.23" = type { %"class.std::__1::__compressed_pair.24" }
%"class.std::__1::__compressed_pair.24" = type { %"class.std::__1::__libcpp_compressed_pair_imp.25" }
%"class.std::__1::__libcpp_compressed_pair_imp.25" = type { %"class.llvm::Module"* }
%"class.llvm::IRBuilder" = type <{ %"class.llvm::IRBuilderBase", %"class.llvm::ConstantFolder", [7 x i8] }>
%"class.llvm::IRBuilderBase" = type { %"class.llvm::DebugLoc", %"class.llvm::BasicBlock"*, %"class.llvm::ilist_iterator", %"class.llvm::LLVMContext"*, %"class.llvm::MDNode"*, %"class.llvm::FastMathFlags", %"class.llvm::ArrayRef" }
%"class.llvm::DebugLoc" = type { %"class.llvm::TypedTrackingMDRef" }
%"class.llvm::TypedTrackingMDRef" = type { %"class.llvm::TrackingMDRef" }
%"class.llvm::TrackingMDRef" = type { %"class.llvm::Metadata"* }
%"class.llvm::Metadata" = type { i8, i8, i16, i32 }
%"class.llvm::ilist_iterator" = type { %"class.llvm::ilist_node_impl.0"* }
%"class.llvm::MDNode" = type { %"class.llvm::Metadata", i32, i32, %"class.llvm::ContextAndReplaceableUses" }
%"class.llvm::ContextAndReplaceableUses" = type { %"class.llvm::PointerUnion" }
%"class.llvm::PointerUnion" = type { %"class.llvm::PointerIntPair.28" }
%"class.llvm::PointerIntPair.28" = type { i64 }
%"class.llvm::FastMathFlags" = type { i32 }
%"class.llvm::ArrayRef" = type { %"class.llvm::OperandBundleDefT"*, i64 }
%"class.llvm::OperandBundleDefT" = type { %"class.std::__1::basic_string", %"class.std::__1::vector" }
%"class.std::__1::basic_string" = type { %"class.std::__1::__compressed_pair.18" }
%"class.std::__1::__compressed_pair.18" = type { %"class.std::__1::__libcpp_compressed_pair_imp.19" }
%"class.std::__1::__libcpp_compressed_pair_imp.19" = type { %"struct.std::__1::basic_string<char, std::__1::char_traits<char>, std::__1::allocator<char> >::__rep" }
%"struct.std::__1::basic_string<char, std::__1::char_traits<char>, std::__1::allocator<char> >::__rep" = type { %union.anon }
%union.anon = type { %"struct.std::__1::basic_string<char, std::__1::char_traits<char>, std::__1::allocator<char> >::__long" }
%"struct.std::__1::basic_string<char, std::__1::char_traits<char>, std::__1::allocator<char> >::__long" = type { i64, i64, i8* }
%"class.std::__1::vector" = type { %"class.std::__1::__vector_base" }
%"class.std::__1::__vector_base" = type { %"class.llvm::Value"**, %"class.llvm::Value"**, %"class.std::__1::__compressed_pair.29" }
%"class.std::__1::__compressed_pair.29" = type { %"class.std::__1::__libcpp_compressed_pair_imp.30" }
%"class.std::__1::__libcpp_compressed_pair_imp.30" = type { %"class.llvm::Value"** }
%"class.llvm::ConstantFolder" = type { i8 }
%"class.std::__1::unordered_map" = type { %"class.std::__1::__hash_table" }
%"class.std::__1::__hash_table" = type <{ %"class.std::__1::unique_ptr.37", %"class.std::__1::__compressed_pair.44", %"class.std::__1::__compressed_pair.48", %"class.std::__1::__compressed_pair.50", [4 x i8] }>
%"class.std::__1::unique_ptr.37" = type { %"class.std::__1::__compressed_pair.38" }
%"class.std::__1::__compressed_pair.38" = type { %"class.std::__1::__libcpp_compressed_pair_imp.39" }
%"class.std::__1::__libcpp_compressed_pair_imp.39" = type { %"struct.std::__1::__hash_node_base"**, %"class.std::__1::__bucket_list_deallocator" }
%"struct.std::__1::__hash_node_base" = type { %"struct.std::__1::__hash_node_base"* }
%"class.std::__1::__bucket_list_deallocator" = type { %"class.std::__1::__compressed_pair.40" }
%"class.std::__1::__compressed_pair.40" = type { %"class.std::__1::__libcpp_compressed_pair_imp.41" }
%"class.std::__1::__libcpp_compressed_pair_imp.41" = type { i64 }
%"class.std::__1::__compressed_pair.44" = type { %"class.std::__1::__libcpp_compressed_pair_imp.45" }
%"class.std::__1::__libcpp_compressed_pair_imp.45" = type { %"struct.std::__1::__hash_node_base" }
%"class.std::__1::__compressed_pair.48" = type { %"class.std::__1::__libcpp_compressed_pair_imp.49" }
%"class.std::__1::__libcpp_compressed_pair_imp.49" = type { i64 }
%"class.std::__1::__compressed_pair.50" = type { %"class.std::__1::__libcpp_compressed_pair_imp.51" }
%"class.std::__1::__libcpp_compressed_pair_imp.51" = type { float }
%"struct.std::__1::piecewise_construct_t" = type { i8 }
%"class.std::__1::allocator" = type { i8 }
%"class.llvm::GlobalVariable" = type <{ %"class.llvm::GlobalObject", %"class.llvm::ilist_node.21", i8, [7 x i8] }>
%"class.llvm::ilist_node.21" = type { %"class.llvm::ilist_node_impl.22" }
%"class.llvm::ilist_node_impl.22" = type { %"class.llvm::ilist_node_base" }
%"class.llvm::Twine" = type <{ %"union.llvm::Twine::Child", %"union.llvm::Twine::Child", i8, i8, [6 x i8] }>
%"union.llvm::Twine::Child" = type { %"class.llvm::Twine"* }
%"class.llvm::StructType" = type { %"class.llvm::CompositeType", i8* }
%"class.llvm::CompositeType" = type { %"class.llvm::Type" }
%"class.llvm::CallInst" = type { %"class.llvm::Instruction", %"class.llvm::AttributeSet", %"class.llvm::FunctionType"* }
%"class.llvm::Instruction" = type { %"class.llvm::User", %"class.llvm::ilist_node_with_parent.34", %"class.llvm::BasicBlock"*, %"class.llvm::DebugLoc" }
%"class.llvm::ilist_node_with_parent.34" = type { %"class.llvm::ilist_node.35" }
%"class.llvm::ilist_node.35" = type { %"class.llvm::ilist_node_impl.0" }
%"class.llvm::FunctionType" = type { %"class.llvm::Type" }
%"class.llvm::ArrayRef.36" = type { %"class.llvm::Value"**, i64 }
%"class.std::initializer_list" = type { %"class.llvm::Value"**, i64 }
%"class.llvm::AllocaInst" = type { %"class.llvm::UnaryInstruction", %"class.llvm::Type"* }
%"class.llvm::UnaryInstruction" = type { %"class.llvm::Instruction" }
%"class.llvm::ConstantAggregateZero" = type { %"class.llvm::ConstantData" }
%"class.llvm::ConstantData" = type { %"class.llvm::Constant" }
%"class.llvm::PointerType" = type { %"class.llvm::Type", %"class.llvm::Type"* }
%"class.llvm::ConstantPointerNull" = type { %"class.llvm::ConstantData" }
%"class.llvm::IntegerType" = type { %"class.llvm::Type" }
%"class.llvm::ConstantInt" = type { %"class.llvm::ConstantData", %"class.llvm::APInt" }
%"class.llvm::APInt" = type { i32, %union.anon.33 }
%union.anon.33 = type { i64 }
%"class.std::__1::__basic_string_common" = type { i8 }
%"class.std::__1::tuple.91" = type { i8 }
%"class.std::__1::__tuple_leaf" = type { %"class.std::__1::basic_string"* }
%"struct.std::__1::__tuple_indices" = type { i8 }
%"struct.std::__1::__tuple_types" = type { i8 }
%"struct.std::__1::__tuple_indices.98" = type { i8 }
%"struct.std::__1::__tuple_types.100" = type { i8 }
%"struct.std::__1::__tuple_impl" = type { %"class.std::__1::__tuple_leaf" }
%"class.std::__1::tuple" = type { %"struct.std::__1::__tuple_impl" }
%"struct.std::__1::equal_to" = type { i8 }
%"class.std::__1::__unordered_map_equal" = type { i8 }
%"union.std::__1::__hash_value_type" = type { %"struct.std::__1::pair.92" }
%"struct.std::__1::pair.92" = type { %"class.std::__1::basic_string", %"class.llvm::Constant"* }
%"struct.std::__1::__less" = type { i8 }
%"class.std::__1::__libcpp_compressed_pair_imp.96" = type { %"struct.std::__1::__hash_node"*, %"class.std::__1::__hash_node_destructor" }
%"struct.std::__1::__hash_node" = type { %"struct.std::__1::__hash_node_base", i64, %"union.std::__1::__hash_value_type" }
%"class.std::__1::__hash_node_destructor" = type <{ %"class.std::__1::allocator.46"*, i8, [7 x i8] }>
%"class.std::__1::allocator.46" = type { i8 }
%"class.std::__1::__compressed_pair.95" = type { %"class.std::__1::__libcpp_compressed_pair_imp.96" }
%"struct.std::__1::integral_constant.99" = type { i8 }
%"struct.std::__1::__has_destroy" = type { i8 }
%"class.std::__1::unique_ptr.94" = type { %"class.std::__1::__compressed_pair.95" }
%"class.std::__1::__unordered_map_hasher" = type { i8 }
%"class.std::__1::__hash_iterator" = type { %"struct.std::__1::__hash_node_base"* }
%"struct.std::__1::pair" = type <{ %"class.std::__1::__hash_iterator", i8, [7 x i8] }>
%"struct.std::__1::hash" = type { i8 }
%"struct.std::__1::basic_string<char, std::__1::char_traits<char>, std::__1::allocator<char> >::__short" = type { %union.anon.20, [23 x i8] }
%union.anon.20 = type { i8 }
%struct.TypeSpecifier = type { i32, %"class.std::__1::basic_string", %"class.std::__1::shared_ptr", i8, i8, i8, i8, i64, i32, i8, i8, %"class.std::__1::basic_string", i8, [7 x i8], %"class.std::__1::unordered_map.52", i8, i8, i8, i8, i8, i8, i8, i32, %"class.std::__1::vector.74", %"class.std::__1::vector.80", %union.anon.86 }
%"class.std::__1::shared_ptr" = type { %class.Expression*, %"class.std::__1::__shared_weak_count"* }
%class.Expression = type opaque
%"class.std::__1::__shared_weak_count" = type { %"class.std::__1::__shared_count", i64 }
%"class.std::__1::__shared_count" = type { i32 (...)**, i64 }
%"class.std::__1::unordered_map.52" = type { %"class.std::__1::__hash_table.53" }
%"class.std::__1::__hash_table.53" = type <{ %"class.std::__1::unique_ptr.54", %"class.std::__1::__compressed_pair.63", %"class.std::__1::__compressed_pair.67", %"class.std::__1::__compressed_pair.70", [4 x i8] }>
%"class.std::__1::unique_ptr.54" = type { %"class.std::__1::__compressed_pair.55" }
%"class.std::__1::__compressed_pair.55" = type { %"class.std::__1::__libcpp_compressed_pair_imp.56" }
%"class.std::__1::__libcpp_compressed_pair_imp.56" = type { %"struct.std::__1::__hash_node_base.57"**, %"class.std::__1::__bucket_list_deallocator.58" }
%"struct.std::__1::__hash_node_base.57" = type { %"struct.std::__1::__hash_node_base.57"* }
%"class.std::__1::__bucket_list_deallocator.58" = type { %"class.std::__1::__compressed_pair.59" }
%"class.std::__1::__compressed_pair.59" = type { %"class.std::__1::__libcpp_compressed_pair_imp.60" }
%"class.std::__1::__libcpp_compressed_pair_imp.60" = type { i64 }
%"class.std::__1::__compressed_pair.63" = type { %"class.std::__1::__libcpp_compressed_pair_imp.64" }
%"class.std::__1::__libcpp_compressed_pair_imp.64" = type { %"struct.std::__1::__hash_node_base.57" }
%"class.std::__1::__compressed_pair.67" = type { %"class.std::__1::__libcpp_compressed_pair_imp.68" }
%"class.std::__1::__libcpp_compressed_pair_imp.68" = type { i64 }
%"class.std::__1::__compressed_pair.70" = type { %"class.std::__1::__libcpp_compressed_pair_imp.71" }
%"class.std::__1::__libcpp_compressed_pair_imp.71" = type { float }
%"class.std::__1::vector.74" = type { %"class.std::__1::__vector_base.75" }
%"class.std::__1::__vector_base.75" = type { %"class.std::__1::basic_string"*, %"class.std::__1::basic_string"*, %"class.std::__1::__compressed_pair.76" }
%"class.std::__1::__compressed_pair.76" = type { %"class.std::__1::__libcpp_compressed_pair_imp.77" }
%"class.std::__1::__libcpp_compressed_pair_imp.77" = type { %"class.std::__1::basic_string"* }
%"class.std::__1::vector.80" = type { %"class.std::__1::__vector_base.81" }
%"class.std::__1::__vector_base.81" = type { %struct.TypeSpecifier*, %struct.TypeSpecifier*, %"class.std::__1::__compressed_pair.82" }
%"class.std::__1::__compressed_pair.82" = type { %"class.std::__1::__libcpp_compressed_pair_imp.83" }
%"class.std::__1::__libcpp_compressed_pair_imp.83" = type { %struct.TypeSpecifier* }
%union.anon.86 = type { %struct.TypeSpecifier* }
%"struct.llvm::ilist_detail::SpecificNodeAccess" = type { i8 }
%"class.llvm::CastInst" = type { %"class.llvm::UnaryInstruction" }
%"class.llvm::IRBuilderDefaultInserter" = type { i8 }
%"class.llvm::SymbolTableListTraits" = type { i8 }
%"class.llvm::PointerUnion.87" = type { %"class.llvm::PointerIntPair.88" }
%"class.llvm::PointerIntPair.88" = type { i64 }
%"class.llvm::GetElementPtrInst" = type { %"class.llvm::Instruction", %"class.llvm::Type"*, %"class.llvm::Type"* }
%"class.llvm::Optional" = type { %"struct.llvm::AlignedCharArrayUnion.89", i8, [3 x i8] }
%"struct.llvm::AlignedCharArrayUnion.89" = type { %"struct.llvm::AlignedCharArray.90" }
%"struct.llvm::AlignedCharArray.90" = type { [4 x i8] }
%"class.llvm::VectorType" = type { %"class.llvm::SequentialType" }
%"class.llvm::SequentialType" = type { %"class.llvm::CompositeType", %"class.llvm::Type"*, i64 }
%"struct.std::__1::integral_constant" = type { i8 }
%"struct.std::__1::__has_construct" = type { i8 }
%"struct.std::__1::basic_string<char, std::__1::char_traits<char>, std::__1::allocator<char> >::__raw" = type { [3 x i64] }
%"struct.std::__1::__murmur2_or_cityhash" = type { i8 }
%"struct.std::__1::pair.97" = type { i64, i64 }
%"class.std::__1::allocator.42" = type { i8 }
%"class.llvm::OperandBundleUser" = type { i8 }

@_ZN4llvm24DisableABIBreakingChecksE = external global i32, align 4
@_ZN4llvm30VerifyDisableABIBreakingChecksE = weak hidden global i32* @_ZN4llvm24DisableABIBreakingChecksE, align 8
@_ZN8CGMemory17CurrentEntryBlockE = global %"class.llvm::BasicBlock"* null, align 8
@_ZN14CodeGenVisitor6ModuleE = external global %"class.std::__1::unique_ptr.23", align 8
@.str = private unnamed_addr constant [1 x i8] zeroinitializer, align 1
@_ZN14CodeGenVisitor7BuilderE = external global %"class.llvm::IRBuilder", align 8
@_ZN14CodeGenVisitor9FunctionsE = external global %"class.std::__1::unordered_map", align 8
@.str.1 = private unnamed_addr constant [7 x i8] c"malloc\00", align 1
@.str.2 = private unnamed_addr constant [15 x i8] c"Invalid twine!\00", align 1
@__func__._ZN4llvm5TwineC2EPKc = private unnamed_addr constant [6 x i8] c"Twine\00", align 1
@.str.3 = private unnamed_addr constant [56 x i8] c"/usr/local/Cellar/llvm/4.0.0_1/include/llvm/ADT/Twine.h\00", align 1
@.str.4 = private unnamed_addr constant [30 x i8] c"isValid() && \22Invalid twine!\22\00", align 1
@.str.5 = private unnamed_addr constant [29 x i8] c"isa<> used on a null pointer\00", align 1
@__func__._ZN4llvm11isa_impl_clINS_8ConstantEPKNS_5ValueEE4doitES4_ = private unnamed_addr constant [5 x i8] c"doit\00", align 1
@.str.6 = private unnamed_addr constant [62 x i8] c"/usr/local/Cellar/llvm/4.0.0_1/include/llvm/Support/Casting.h\00", align 1
@.str.7 = private unnamed_addr constant [38 x i8] c"Val && \22isa<> used on a null pointer\22\00", align 1
@.str.8 = private unnamed_addr constant [42 x i8] c"cast<Ty>() argument of incompatible type!\00", align 1
@__func__._ZN4llvm4castINS_10StructTypeENS_4TypeEEENS_10cast_rettyIT_PT0_E8ret_typeES6_ = private unnamed_addr constant [5 x i8] c"cast\00", align 1
@.str.9 = private unnamed_addr constant [59 x i8] c"isa<X>(Val) && \22cast<Ty>() argument of incompatible type!\22\00", align 1
@.str.10 = private unnamed_addr constant [25 x i8] c"Expected values to match\00", align 1
@__func__._ZN4llvm13TrackingMDRef7retrackERS0_ = private unnamed_addr constant [8 x i8] c"retrack\00", align 1
@.str.11 = private unnamed_addr constant [63 x i8] c"/usr/local/Cellar/llvm/4.0.0_1/include/llvm/IR/TrackingMDRef.h\00", align 1
@.str.12 = private unnamed_addr constant [41 x i8] c"MD == X.MD && \22Expected values to match\22\00", align 1
@.str.13 = private unnamed_addr constant [28 x i8] c"Integer too large for field\00", align 1
@__func__._ZN4llvm18PointerIntPairInfoIPvLj1ENS_22PointerUnionUIntTraitsIPNS_15MetadataAsValueEPNS_8MetadataEEEE9updateIntEll = private unnamed_addr constant [10 x i8] c"updateInt\00", align 1
@.str.14 = private unnamed_addr constant [65 x i8] c"/usr/local/Cellar/llvm/4.0.0_1/include/llvm/ADT/PointerIntPair.h\00", align 1
@.str.15 = private unnamed_addr constant [59 x i8] c"(IntWord & ~IntMask) == 0 && \22Integer too large for field\22\00", align 1
@.str.16 = private unnamed_addr constant [36 x i8] c"Pointer is not sufficiently aligned\00", align 1
@__func__._ZN4llvm18PointerIntPairInfoIPvLj1ENS_22PointerUnionUIntTraitsIPNS_15MetadataAsValueEPNS_8MetadataEEEE13updatePointerElS1_ = private unnamed_addr constant [14 x i8] c"updatePointer\00", align 1
@.str.17 = private unnamed_addr constant [74 x i8] c"(PtrWord & ~PointerBitMask) == 0 && \22Pointer is not sufficiently aligned\22\00", align 1
@__func__._ZNKR4llvm8OptionalIjEdeEv = private unnamed_addr constant [10 x i8] c"operator*\00", align 1
@.str.18 = private unnamed_addr constant [59 x i8] c"/usr/local/Cellar/llvm/4.0.0_1/include/llvm/ADT/Optional.h\00", align 1
@.str.19 = private unnamed_addr constant [7 x i8] c"hasVal\00", align 1
@__func__._ZNK4llvm8OptionalIjE10getPointerEv = private unnamed_addr constant [11 x i8] c"getPointer\00", align 1
@__func__._ZN4llvm17GetElementPtrInst6CreateEPNS_4TypeEPNS_5ValueENS_8ArrayRefIS4_EERKNS_5TwineEPNS_11InstructionE = private unnamed_addr constant [7 x i8] c"Create\00", align 1
@.str.20 = private unnamed_addr constant [62 x i8] c"/usr/local/Cellar/llvm/4.0.0_1/include/llvm/IR/Instructions.h\00", align 1
@.str.21 = private unnamed_addr constant [84 x i8] c"PointeeType == cast<PointerType>(Ptr->getType()->getScalarType())->getElementType()\00", align 1
@_ZTVN4llvm17GetElementPtrInstE = external unnamed_addr constant [5 x i8*]
@__func__._ZN4llvm17GetElementPtrInstC2EPNS_4TypeEPNS_5ValueENS_8ArrayRefIS4_EEjRKNS_5TwineEPNS_11InstructionE = private unnamed_addr constant [18 x i8] c"GetElementPtrInst\00", align 1
@.str.22 = private unnamed_addr constant [85 x i8] c"ResultElementType == cast<PointerType>(getType()->getScalarType())->getElementType()\00", align 1
@.str.23 = private unnamed_addr constant [44 x i8] c"Invalid GetElementPtrInst indices for type!\00", align 1
@__func__._ZN4llvm12checkGEPTypeEPNS_4TypeE = private unnamed_addr constant [13 x i8] c"checkGEPType\00", align 1
@.str.24 = private unnamed_addr constant [52 x i8] c"Ty && \22Invalid GetElementPtrInst indices for type!\22\00", align 1
@.str.25 = private unnamed_addr constant [20 x i8] c"Constructor throws?\00", align 1
@.str.26 = private unnamed_addr constant [54 x i8] c"/usr/local/Cellar/llvm/4.0.0_1/include/llvm/IR/User.h\00", align 1
@_ZNSt3__1L19piecewise_constructE = internal constant %"struct.std::__1::piecewise_construct_t" undef, align 1
@_ZTVN4llvm8CallInstE = external unnamed_addr constant [5 x i8*]

; Function Attrs: ssp uwtable
define %"class.llvm::Value"* @_ZN8CGMemory12CreateAllocaEPN4llvm4TypeENSt3__112basic_stringIcNS3_11char_traitsIcEENS3_9allocatorIcEEEEPNS0_5ValueEtbPNS0_10BasicBlockE(%"class.llvm::Type"*, %"class.std::__1::basic_string"*, %"class.llvm::Value"*, i16 zeroext, i1 zeroext, %"class.llvm::BasicBlock"*) #0 align 2 personality i8* bitcast (i32 (...)* @__gxx_personality_v0 to i8*) {
  %7 = alloca %"class.std::__1::allocator"*, align 8
  %8 = alloca %"class.std::__1::__libcpp_compressed_pair_imp.19"*, align 8
  %9 = alloca %"class.std::__1::__compressed_pair.18"*, align 8
  %10 = alloca %"class.std::__1::__compressed_pair.18"*, align 8
  %11 = alloca %"class.std::__1::basic_string"*, align 8
  %12 = alloca i8*, align 8
  %13 = alloca %"class.std::__1::basic_string"*, align 8
  %14 = alloca i8*, align 8
  %15 = alloca %"class.std::__1::__libcpp_compressed_pair_imp.25"*, align 8
  %16 = alloca %"class.std::__1::__compressed_pair.24"*, align 8
  %17 = alloca %"class.std::__1::unique_ptr.23"*, align 8
  %18 = alloca %"class.llvm::Value"*, align 8
  %19 = alloca %"class.llvm::Type"*, align 8
  %20 = alloca %"class.llvm::Value"*, align 8
  %21 = alloca i16, align 2
  %22 = alloca i8, align 1
  %23 = alloca %"class.llvm::BasicBlock"*, align 8
  %24 = alloca %"class.llvm::GlobalVariable"*, align 8
  %25 = alloca i8*
  %26 = alloca i32
  %27 = alloca %"class.llvm::Twine", align 8
  %28 = alloca %"class.llvm::IRBuilder"*, align 8
  %29 = alloca %"class.llvm::StructType"*, align 8
  %30 = alloca %"class.llvm::Value"*, align 8
  %31 = alloca %"class.llvm::Twine", align 8
  %32 = alloca %"class.llvm::Twine", align 8
  %33 = alloca %"class.llvm::CallInst"*, align 8
  %34 = alloca %"class.std::__1::basic_string", align 8
  %35 = alloca %"class.llvm::ArrayRef.36", align 8
  %36 = alloca %"class.std::initializer_list", align 8
  %37 = alloca [1 x %"class.llvm::Value"*], align 8
  %38 = alloca %"class.llvm::Twine", align 8
  %39 = alloca %"class.llvm::Twine", align 8
  %40 = alloca %"class.llvm::BasicBlock"*, align 8
  %41 = alloca %"class.llvm::AllocaInst"*, align 8
  %42 = alloca %"class.llvm::Twine", align 8
  store %"class.llvm::Type"* %0, %"class.llvm::Type"** %19, align 8
  store %"class.llvm::Value"* %2, %"class.llvm::Value"** %20, align 8
  store i16 %3, i16* %21, align 2
  %43 = zext i1 %4 to i8
  store i8 %43, i8* %22, align 1
  store %"class.llvm::BasicBlock"* %5, %"class.llvm::BasicBlock"** %23, align 8
  %44 = load %"class.llvm::BasicBlock"*, %"class.llvm::BasicBlock"** %23, align 8
  %45 = icmp eq %"class.llvm::BasicBlock"* %44, null
  br i1 %45, label %46, label %75

; <label>:46:                                     ; preds = %6
  %47 = load %"class.llvm::BasicBlock"*, %"class.llvm::BasicBlock"** @_ZN8CGMemory17CurrentEntryBlockE, align 8
  %48 = icmp eq %"class.llvm::BasicBlock"* %47, null
  br i1 %48, label %49, label %73

; <label>:49:                                     ; preds = %46
  %50 = call i8* @_ZN4llvm14GlobalVariablenwEm(i64 88)
  %51 = bitcast i8* %50 to %"class.llvm::GlobalVariable"*
  store %"class.std::__1::unique_ptr.23"* @_ZN14CodeGenVisitor6ModuleE, %"class.std::__1::unique_ptr.23"** %17, align 8
  %52 = load %"class.std::__1::unique_ptr.23"*, %"class.std::__1::unique_ptr.23"** %17, align 8
  %53 = getelementptr inbounds %"class.std::__1::unique_ptr.23", %"class.std::__1::unique_ptr.23"* %52, i32 0, i32 0
  store %"class.std::__1::__compressed_pair.24"* %53, %"class.std::__1::__compressed_pair.24"** %16, align 8
  %54 = load %"class.std::__1::__compressed_pair.24"*, %"class.std::__1::__compressed_pair.24"** %16, align 8
  %55 = bitcast %"class.std::__1::__compressed_pair.24"* %54 to %"class.std::__1::__libcpp_compressed_pair_imp.25"*
  store %"class.std::__1::__libcpp_compressed_pair_imp.25"* %55, %"class.std::__1::__libcpp_compressed_pair_imp.25"** %15, align 8
  %56 = load %"class.std::__1::__libcpp_compressed_pair_imp.25"*, %"class.std::__1::__libcpp_compressed_pair_imp.25"** %15, align 8
  %57 = getelementptr inbounds %"class.std::__1::__libcpp_compressed_pair_imp.25", %"class.std::__1::__libcpp_compressed_pair_imp.25"* %56, i32 0, i32 0
  %58 = load %"class.llvm::Module"*, %"class.llvm::Module"** %57, align 8
  br label %59

; <label>:59:                                     ; preds = %49
  %60 = load %"class.llvm::Type"*, %"class.llvm::Type"** %19, align 8
  %61 = load %"class.llvm::Type"*, %"class.llvm::Type"** %19, align 8
  %62 = invoke %"class.llvm::ConstantAggregateZero"* @_ZN4llvm21ConstantAggregateZero3getEPNS_4TypeE(%"class.llvm::Type"* %61)
          to label %63 unwind label %69

; <label>:63:                                     ; preds = %59
  %64 = bitcast %"class.llvm::ConstantAggregateZero"* %62 to %"class.llvm::Constant"*
  invoke void @_ZN4llvm5TwineC1EPKc(%"class.llvm::Twine"* %27, i8* getelementptr inbounds ([1 x i8], [1 x i8]* @.str, i32 0, i32 0))
          to label %65 unwind label %69

; <label>:65:                                     ; preds = %63
  invoke void @_ZN4llvm14GlobalVariableC1ERNS_6ModuleEPNS_4TypeEbNS_11GlobalValue12LinkageTypesEPNS_8ConstantERKNS_5TwineEPS0_NS5_15ThreadLocalModeEjb(%"class.llvm::GlobalVariable"* %51, %"class.llvm::Module"* nonnull %58, %"class.llvm::Type"* %60, i1 zeroext false, i32 0, %"class.llvm::Constant"* %64, %"class.llvm::Twine"* dereferenceable(24) %27, %"class.llvm::GlobalVariable"* null, i32 0, i32 0, i1 zeroext false)
          to label %66 unwind label %69

; <label>:66:                                     ; preds = %65
  store %"class.llvm::GlobalVariable"* %51, %"class.llvm::GlobalVariable"** %24, align 8
  %67 = load %"class.llvm::GlobalVariable"*, %"class.llvm::GlobalVariable"** %24, align 8
  %68 = bitcast %"class.llvm::GlobalVariable"* %67 to %"class.llvm::Value"*
  store %"class.llvm::Value"* %68, %"class.llvm::Value"** %18, align 8
  br label %155

; <label>:69:                                     ; preds = %65, %63, %59
  %70 = landingpad { i8*, i32 }
          cleanup
  %71 = extractvalue { i8*, i32 } %70, 0
  store i8* %71, i8** %25, align 8
  %72 = extractvalue { i8*, i32 } %70, 1
  store i32 %72, i32* %26, align 4
  call void @_ZN4llvm4UserdlEPv(i8* %50) #14
  br label %157

; <label>:73:                                     ; preds = %46
  %74 = load %"class.llvm::BasicBlock"*, %"class.llvm::BasicBlock"** @_ZN8CGMemory17CurrentEntryBlockE, align 8
  store %"class.llvm::BasicBlock"* %74, %"class.llvm::BasicBlock"** %23, align 8
  br label %75

; <label>:75:                                     ; preds = %73, %6
  store %"class.llvm::IRBuilder"* @_ZN14CodeGenVisitor7BuilderE, %"class.llvm::IRBuilder"** %28, align 8
  %76 = load i8, i8* %22, align 1
  %77 = trunc i8 %76 to i1
  br i1 %77, label %78, label %140

; <label>:78:                                     ; preds = %75
  %79 = call zeroext i1 @_ZN4llvm3isaINS_10StructTypeEPNS_4TypeEEEbRKT0_(%"class.llvm::Type"** dereferenceable(8) %19)
  br i1 %79, label %80, label %140

; <label>:80:                                     ; preds = %78
  %81 = load %"class.llvm::Type"*, %"class.llvm::Type"** %19, align 8
  %82 = call %"class.llvm::StructType"* @_ZN4llvm4castINS_10StructTypeENS_4TypeEEENS_10cast_rettyIT_PT0_E8ret_typeES6_(%"class.llvm::Type"* %81)
  store %"class.llvm::StructType"* %82, %"class.llvm::StructType"** %29, align 8
  %83 = load %"class.llvm::StructType"*, %"class.llvm::StructType"** %29, align 8
  %84 = bitcast %"class.llvm::StructType"* %83 to %"class.llvm::Type"*
  %85 = call %"class.llvm::PointerType"* @_ZNK4llvm4Type12getPointerToEj(%"class.llvm::Type"* %84, i32 0)
  %86 = call %"class.llvm::ConstantPointerNull"* @_ZN4llvm19ConstantPointerNull3getEPNS_11PointerTypeE(%"class.llvm::PointerType"* %85)
  %87 = bitcast %"class.llvm::ConstantPointerNull"* %86 to %"class.llvm::Value"*
  %88 = call %"class.llvm::IntegerType"* @_ZN4llvm13IRBuilderBase10getInt64TyEv(%"class.llvm::IRBuilderBase"* getelementptr inbounds (%"class.llvm::IRBuilder", %"class.llvm::IRBuilder"* @_ZN14CodeGenVisitor7BuilderE, i32 0, i32 0))
  %89 = call %"class.llvm::ConstantInt"* @_ZN4llvm11ConstantInt3getEPNS_11IntegerTypeEyb(%"class.llvm::IntegerType"* %88, i64 1, i1 zeroext false)
  %90 = bitcast %"class.llvm::ConstantInt"* %89 to %"class.llvm::Value"*
  call void @_ZN4llvm5TwineC1EPKc(%"class.llvm::Twine"* %31, i8* getelementptr inbounds ([1 x i8], [1 x i8]* @.str, i32 0, i32 0))
  %91 = call %"class.llvm::Value"* @_ZN4llvm9IRBuilderINS_14ConstantFolderENS_24IRBuilderDefaultInserterEE9CreateGEPEPNS_5ValueES5_RKNS_5TwineE(%"class.llvm::IRBuilder"* @_ZN14CodeGenVisitor7BuilderE, %"class.llvm::Value"* %87, %"class.llvm::Value"* %90, %"class.llvm::Twine"* dereferenceable(24) %31)
  %92 = call %"class.llvm::IntegerType"* @_ZN4llvm13IRBuilderBase10getInt64TyEv(%"class.llvm::IRBuilderBase"* getelementptr inbounds (%"class.llvm::IRBuilder", %"class.llvm::IRBuilder"* @_ZN14CodeGenVisitor7BuilderE, i32 0, i32 0))
  %93 = bitcast %"class.llvm::IntegerType"* %92 to %"class.llvm::Type"*
  call void @_ZN4llvm5TwineC1EPKc(%"class.llvm::Twine"* %32, i8* getelementptr inbounds ([1 x i8], [1 x i8]* @.str, i32 0, i32 0))
  %94 = call %"class.llvm::Value"* @_ZN4llvm9IRBuilderINS_14ConstantFolderENS_24IRBuilderDefaultInserterEE14CreatePtrToIntEPNS_5ValueEPNS_4TypeERKNS_5TwineE(%"class.llvm::IRBuilder"* @_ZN14CodeGenVisitor7BuilderE, %"class.llvm::Value"* %91, %"class.llvm::Type"* %93, %"class.llvm::Twine"* dereferenceable(24) %32)
  store %"class.llvm::Value"* %94, %"class.llvm::Value"** %30, align 8
  store %"class.std::__1::basic_string"* %34, %"class.std::__1::basic_string"** %13, align 8
  store i8* getelementptr inbounds ([7 x i8], [7 x i8]* @.str.1, i32 0, i32 0), i8** %14, align 8
  %95 = load %"class.std::__1::basic_string"*, %"class.std::__1::basic_string"** %13, align 8
  %96 = load i8*, i8** %14, align 8
  store %"class.std::__1::basic_string"* %95, %"class.std::__1::basic_string"** %11, align 8
  store i8* %96, i8** %12, align 8
  %97 = load %"class.std::__1::basic_string"*, %"class.std::__1::basic_string"** %11, align 8
  %98 = bitcast %"class.std::__1::basic_string"* %97 to %"class.std::__1::__basic_string_common"*
  %99 = getelementptr inbounds %"class.std::__1::basic_string", %"class.std::__1::basic_string"* %97, i32 0, i32 0
  store %"class.std::__1::__compressed_pair.18"* %99, %"class.std::__1::__compressed_pair.18"** %10, align 8
  %100 = load %"class.std::__1::__compressed_pair.18"*, %"class.std::__1::__compressed_pair.18"** %10, align 8
  store %"class.std::__1::__compressed_pair.18"* %100, %"class.std::__1::__compressed_pair.18"** %9, align 8
  %101 = load %"class.std::__1::__compressed_pair.18"*, %"class.std::__1::__compressed_pair.18"** %9, align 8
  %102 = bitcast %"class.std::__1::__compressed_pair.18"* %101 to %"class.std::__1::__libcpp_compressed_pair_imp.19"*
  store %"class.std::__1::__libcpp_compressed_pair_imp.19"* %102, %"class.std::__1::__libcpp_compressed_pair_imp.19"** %8, align 8
  %103 = load %"class.std::__1::__libcpp_compressed_pair_imp.19"*, %"class.std::__1::__libcpp_compressed_pair_imp.19"** %8, align 8
  %104 = bitcast %"class.std::__1::__libcpp_compressed_pair_imp.19"* %103 to %"class.std::__1::allocator"*
  store %"class.std::__1::allocator"* %104, %"class.std::__1::allocator"** %7, align 8
  %105 = load %"class.std::__1::allocator"*, %"class.std::__1::allocator"** %7, align 8
  %106 = getelementptr inbounds %"class.std::__1::__libcpp_compressed_pair_imp.19", %"class.std::__1::__libcpp_compressed_pair_imp.19"* %103, i32 0, i32 0
  %107 = bitcast %"struct.std::__1::basic_string<char, std::__1::char_traits<char>, std::__1::allocator<char> >::__rep"* %106 to i8*
  call void @llvm.memset.p0i8.i64(i8* %107, i8 0, i64 24, i32 8, i1 false) #14
  %108 = load i8*, i8** %12, align 8
  %109 = load i8*, i8** %12, align 8
  %110 = call i64 @_ZNSt3__111char_traitsIcE6lengthEPKc(i8* %109)
  call void @_ZNSt3__112basic_stringIcNS_11char_traitsIcEENS_9allocatorIcEEE6__initEPKcm(%"class.std::__1::basic_string"* %97, i8* %108, i64 %110)
  %111 = invoke dereferenceable(8) %"class.llvm::Constant"** @_ZNSt3__113unordered_mapINS_12basic_stringIcNS_11char_traitsIcEENS_9allocatorIcEEEEPN4llvm8ConstantENS_4hashIS6_EENS_8equal_toIS6_EENS4_INS_4pairIKS6_S9_EEEEEixEOS6_(%"class.std::__1::unordered_map"* @_ZN14CodeGenVisitor9FunctionsE, %"class.std::__1::basic_string"* dereferenceable(24) %34)
          to label %112 unwind label %136

; <label>:112:                                    ; preds = %80
  %113 = load %"class.llvm::Constant"*, %"class.llvm::Constant"** %111, align 8
  %114 = bitcast %"class.llvm::Constant"* %113 to %"class.llvm::Value"*
  %115 = getelementptr inbounds [1 x %"class.llvm::Value"*], [1 x %"class.llvm::Value"*]* %37, i64 0, i64 0
  %116 = load %"class.llvm::Value"*, %"class.llvm::Value"** %30, align 8
  store %"class.llvm::Value"* %116, %"class.llvm::Value"** %115, align 8
  %117 = getelementptr inbounds %"class.std::initializer_list", %"class.std::initializer_list"* %36, i32 0, i32 0
  %118 = getelementptr inbounds [1 x %"class.llvm::Value"*], [1 x %"class.llvm::Value"*]* %37, i64 0, i64 0
  store %"class.llvm::Value"** %118, %"class.llvm::Value"*** %117, align 8
  %119 = getelementptr inbounds %"class.std::initializer_list", %"class.std::initializer_list"* %36, i32 0, i32 1
  store i64 1, i64* %119, align 8
  invoke void @_ZN4llvm8ArrayRefIPNS_5ValueEEC1ERKSt16initializer_listIS2_E(%"class.llvm::ArrayRef.36"* %35, %"class.std::initializer_list"* dereferenceable(16) %36)
          to label %120 unwind label %136

; <label>:120:                                    ; preds = %112
  invoke void @_ZN4llvm5TwineC1EPKc(%"class.llvm::Twine"* %38, i8* getelementptr inbounds ([1 x i8], [1 x i8]* @.str, i32 0, i32 0))
          to label %121 unwind label %136

; <label>:121:                                    ; preds = %120
  %122 = bitcast %"class.llvm::ArrayRef.36"* %35 to { %"class.llvm::Value"**, i64 }*
  %123 = getelementptr inbounds { %"class.llvm::Value"**, i64 }, { %"class.llvm::Value"**, i64 }* %122, i32 0, i32 0
  %124 = load %"class.llvm::Value"**, %"class.llvm::Value"*** %123, align 8
  %125 = getelementptr inbounds { %"class.llvm::Value"**, i64 }, { %"class.llvm::Value"**, i64 }* %122, i32 0, i32 1
  %126 = load i64, i64* %125, align 8
  %127 = invoke %"class.llvm::CallInst"* @_ZN4llvm9IRBuilderINS_14ConstantFolderENS_24IRBuilderDefaultInserterEE10CreateCallEPNS_5ValueENS_8ArrayRefIS5_EERKNS_5TwineEPNS_6MDNodeE(%"class.llvm::IRBuilder"* @_ZN14CodeGenVisitor7BuilderE, %"class.llvm::Value"* %114, %"class.llvm::Value"** %124, i64 %126, %"class.llvm::Twine"* dereferenceable(24) %38, %"class.llvm::MDNode"* null)
          to label %128 unwind label %136

; <label>:128:                                    ; preds = %121
  call void @_ZNSt3__112basic_stringIcNS_11char_traitsIcEENS_9allocatorIcEEED1Ev(%"class.std::__1::basic_string"* %34) #14
  store %"class.llvm::CallInst"* %127, %"class.llvm::CallInst"** %33, align 8
  %129 = load %"class.llvm::CallInst"*, %"class.llvm::CallInst"** %33, align 8
  %130 = bitcast %"class.llvm::CallInst"* %129 to %"class.llvm::Value"*
  %131 = load %"class.llvm::StructType"*, %"class.llvm::StructType"** %29, align 8
  %132 = bitcast %"class.llvm::StructType"* %131 to %"class.llvm::Type"*
  %133 = call %"class.llvm::PointerType"* @_ZNK4llvm4Type12getPointerToEj(%"class.llvm::Type"* %132, i32 0)
  %134 = bitcast %"class.llvm::PointerType"* %133 to %"class.llvm::Type"*
  call void @_ZN4llvm5TwineC1EPKc(%"class.llvm::Twine"* %39, i8* getelementptr inbounds ([1 x i8], [1 x i8]* @.str, i32 0, i32 0))
  %135 = call %"class.llvm::Value"* @_ZN4llvm9IRBuilderINS_14ConstantFolderENS_24IRBuilderDefaultInserterEE13CreateBitCastEPNS_5ValueEPNS_4TypeERKNS_5TwineE(%"class.llvm::IRBuilder"* @_ZN14CodeGenVisitor7BuilderE, %"class.llvm::Value"* %130, %"class.llvm::Type"* %134, %"class.llvm::Twine"* dereferenceable(24) %39)
  store %"class.llvm::Value"* %135, %"class.llvm::Value"** %18, align 8
  br label %155

; <label>:136:                                    ; preds = %121, %120, %112, %80
  %137 = landingpad { i8*, i32 }
          cleanup
  %138 = extractvalue { i8*, i32 } %137, 0
  store i8* %138, i8** %25, align 8
  %139 = extractvalue { i8*, i32 } %137, 1
  store i32 %139, i32* %26, align 4
  call void @_ZNSt3__112basic_stringIcNS_11char_traitsIcEENS_9allocatorIcEEED1Ev(%"class.std::__1::basic_string"* %34) #14
  br label %157

; <label>:140:                                    ; preds = %78, %75
  %141 = call %"class.llvm::BasicBlock"* @_ZNK4llvm13IRBuilderBase14GetInsertBlockEv(%"class.llvm::IRBuilderBase"* getelementptr inbounds (%"class.llvm::IRBuilder", %"class.llvm::IRBuilder"* @_ZN14CodeGenVisitor7BuilderE, i32 0, i32 0))
  store %"class.llvm::BasicBlock"* %141, %"class.llvm::BasicBlock"** %40, align 8
  %142 = load %"class.llvm::Value"*, %"class.llvm::Value"** %20, align 8
  %143 = icmp eq %"class.llvm::Value"* %142, null
  br i1 %143, label %146, label %144

; <label>:144:                                    ; preds = %140
  %145 = call zeroext i1 @_ZN4llvm3isaINS_8ConstantEPNS_5ValueEEEbRKT0_(%"class.llvm::Value"** dereferenceable(8) %20)
  br i1 %145, label %146, label %148

; <label>:146:                                    ; preds = %144, %140
  %147 = load %"class.llvm::BasicBlock"*, %"class.llvm::BasicBlock"** %23, align 8
  call void @_ZN4llvm13IRBuilderBase14SetInsertPointEPNS_10BasicBlockE(%"class.llvm::IRBuilderBase"* getelementptr inbounds (%"class.llvm::IRBuilder", %"class.llvm::IRBuilder"* @_ZN14CodeGenVisitor7BuilderE, i32 0, i32 0), %"class.llvm::BasicBlock"* %147)
  br label %148

; <label>:148:                                    ; preds = %146, %144
  %149 = load %"class.llvm::Type"*, %"class.llvm::Type"** %19, align 8
  %150 = load %"class.llvm::Value"*, %"class.llvm::Value"** %20, align 8
  call void @_ZN4llvm5TwineC1ERKNSt3__112basic_stringIcNS1_11char_traitsIcEENS1_9allocatorIcEEEE(%"class.llvm::Twine"* %42, %"class.std::__1::basic_string"* dereferenceable(24) %1)
  %151 = call %"class.llvm::AllocaInst"* @_ZN4llvm9IRBuilderINS_14ConstantFolderENS_24IRBuilderDefaultInserterEE12CreateAllocaEPNS_4TypeEPNS_5ValueERKNS_5TwineE(%"class.llvm::IRBuilder"* @_ZN14CodeGenVisitor7BuilderE, %"class.llvm::Type"* %149, %"class.llvm::Value"* %150, %"class.llvm::Twine"* dereferenceable(24) %42)
  store %"class.llvm::AllocaInst"* %151, %"class.llvm::AllocaInst"** %41, align 8
  %152 = load %"class.llvm::BasicBlock"*, %"class.llvm::BasicBlock"** %40, align 8
  call void @_ZN4llvm13IRBuilderBase14SetInsertPointEPNS_10BasicBlockE(%"class.llvm::IRBuilderBase"* getelementptr inbounds (%"class.llvm::IRBuilder", %"class.llvm::IRBuilder"* @_ZN14CodeGenVisitor7BuilderE, i32 0, i32 0), %"class.llvm::BasicBlock"* %152)
  %153 = load %"class.llvm::AllocaInst"*, %"class.llvm::AllocaInst"** %41, align 8
  %154 = bitcast %"class.llvm::AllocaInst"* %153 to %"class.llvm::Value"*
  store %"class.llvm::Value"* %154, %"class.llvm::Value"** %18, align 8
  br label %155

; <label>:155:                                    ; preds = %148, %128, %66
  %156 = load %"class.llvm::Value"*, %"class.llvm::Value"** %18, align 8
  ret %"class.llvm::Value"* %156

; <label>:157:                                    ; preds = %136, %69
  %158 = load i8*, i8** %25, align 8
  %159 = load i32, i32* %26, align 4
  %160 = insertvalue { i8*, i32 } undef, i8* %158, 0
  %161 = insertvalue { i8*, i32 } %160, i32 %159, 1
  resume { i8*, i32 } %161
}

; Function Attrs: ssp uwtable
define linkonce_odr i8* @_ZN4llvm14GlobalVariablenwEm(i64) #0 align 2 {
  %2 = alloca i64, align 8
  store i64 %0, i64* %2, align 8
  %3 = load i64, i64* %2, align 8
  %4 = call i8* @_ZN4llvm4UsernwEmj(i64 %3, i32 1)
  ret i8* %4
}

declare i32 @__gxx_personality_v0(...)

declare %"class.llvm::ConstantAggregateZero"* @_ZN4llvm21ConstantAggregateZero3getEPNS_4TypeE(%"class.llvm::Type"*) #1

; Function Attrs: ssp uwtable
define linkonce_odr void @_ZN4llvm5TwineC1EPKc(%"class.llvm::Twine"*, i8*) unnamed_addr #0 align 2 {
  %3 = alloca %"class.llvm::Twine"*, align 8
  %4 = alloca i8*, align 8
  store %"class.llvm::Twine"* %0, %"class.llvm::Twine"** %3, align 8
  store i8* %1, i8** %4, align 8
  %5 = load %"class.llvm::Twine"*, %"class.llvm::Twine"** %3, align 8
  %6 = load i8*, i8** %4, align 8
  call void @_ZN4llvm5TwineC2EPKc(%"class.llvm::Twine"* %5, i8* %6)
  ret void
}

declare void @_ZN4llvm14GlobalVariableC1ERNS_6ModuleEPNS_4TypeEbNS_11GlobalValue12LinkageTypesEPNS_8ConstantERKNS_5TwineEPS0_NS5_15ThreadLocalModeEjb(%"class.llvm::GlobalVariable"*, %"class.llvm::Module"* nonnull, %"class.llvm::Type"*, i1 zeroext, i32, %"class.llvm::Constant"*, %"class.llvm::Twine"* dereferenceable(24), %"class.llvm::GlobalVariable"*, i32, i32, i1 zeroext) unnamed_addr #1

; Function Attrs: nounwind
declare void @_ZN4llvm4UserdlEPv(i8*) #2

; Function Attrs: inlinehint ssp uwtable
define linkonce_odr zeroext i1 @_ZN4llvm3isaINS_10StructTypeEPNS_4TypeEEEbRKT0_(%"class.llvm::Type"** dereferenceable(8)) #3 {
  %2 = alloca %"class.llvm::Type"**, align 8
  store %"class.llvm::Type"** %0, %"class.llvm::Type"*** %2, align 8
  %3 = load %"class.llvm::Type"**, %"class.llvm::Type"*** %2, align 8
  %4 = call zeroext i1 @_ZN4llvm13isa_impl_wrapINS_10StructTypeEKPNS_4TypeEPKS2_E4doitERS4_(%"class.llvm::Type"** dereferenceable(8) %3)
  ret i1 %4
}

; Function Attrs: inlinehint ssp uwtable
define linkonce_odr %"class.llvm::StructType"* @_ZN4llvm4castINS_10StructTypeENS_4TypeEEENS_10cast_rettyIT_PT0_E8ret_typeES6_(%"class.llvm::Type"*) #3 {
  %2 = alloca %"class.llvm::Type"*, align 8
  store %"class.llvm::Type"* %0, %"class.llvm::Type"** %2, align 8
  %3 = call zeroext i1 @_ZN4llvm3isaINS_10StructTypeEPNS_4TypeEEEbRKT0_(%"class.llvm::Type"** dereferenceable(8) %2)
  br i1 %3, label %4, label %5

; <label>:4:                                      ; preds = %1
  br label %5

; <label>:5:                                      ; preds = %4, %1
  %6 = phi i1 [ false, %1 ], [ true, %4 ]
  %7 = xor i1 %6, true
  br i1 %7, label %8, label %10

; <label>:8:                                      ; preds = %5
  call void @__assert_rtn(i8* getelementptr inbounds ([5 x i8], [5 x i8]* @__func__._ZN4llvm4castINS_10StructTypeENS_4TypeEEENS_10cast_rettyIT_PT0_E8ret_typeES6_, i32 0, i32 0), i8* getelementptr inbounds ([62 x i8], [62 x i8]* @.str.6, i32 0, i32 0), i32 236, i8* getelementptr inbounds ([59 x i8], [59 x i8]* @.str.9, i32 0, i32 0)) #15
  unreachable
                                                  ; No predecessors!
  br label %11

; <label>:10:                                     ; preds = %5
  br label %11

; <label>:11:                                     ; preds = %10, %9
  %12 = call %"class.llvm::StructType"* @_ZN4llvm16cast_convert_valINS_10StructTypeEPNS_4TypeES3_E4doitERKS3_(%"class.llvm::Type"** dereferenceable(8) %2)
  ret %"class.llvm::StructType"* %12
}

; Function Attrs: ssp uwtable
define linkonce_odr %"class.llvm::Value"* @_ZN4llvm9IRBuilderINS_14ConstantFolderENS_24IRBuilderDefaultInserterEE14CreatePtrToIntEPNS_5ValueEPNS_4TypeERKNS_5TwineE(%"class.llvm::IRBuilder"*, %"class.llvm::Value"*, %"class.llvm::Type"*, %"class.llvm::Twine"* dereferenceable(24)) #0 align 2 {
  %5 = alloca %"class.llvm::IRBuilder"*, align 8
  %6 = alloca %"class.llvm::Value"*, align 8
  %7 = alloca %"class.llvm::Type"*, align 8
  %8 = alloca %"class.llvm::Twine"*, align 8
  store %"class.llvm::IRBuilder"* %0, %"class.llvm::IRBuilder"** %5, align 8
  store %"class.llvm::Value"* %1, %"class.llvm::Value"** %6, align 8
  store %"class.llvm::Type"* %2, %"class.llvm::Type"** %7, align 8
  store %"class.llvm::Twine"* %3, %"class.llvm::Twine"** %8, align 8
  %9 = load %"class.llvm::IRBuilder"*, %"class.llvm::IRBuilder"** %5, align 8
  %10 = load %"class.llvm::Value"*, %"class.llvm::Value"** %6, align 8
  %11 = load %"class.llvm::Type"*, %"class.llvm::Type"** %7, align 8
  %12 = load %"class.llvm::Twine"*, %"class.llvm::Twine"** %8, align 8
  %13 = call %"class.llvm::Value"* @_ZN4llvm9IRBuilderINS_14ConstantFolderENS_24IRBuilderDefaultInserterEE10CreateCastENS_11Instruction7CastOpsEPNS_5ValueEPNS_4TypeERKNS_5TwineE(%"class.llvm::IRBuilder"* %9, i32 45, %"class.llvm::Value"* %10, %"class.llvm::Type"* %11, %"class.llvm::Twine"* dereferenceable(24) %12)
  ret %"class.llvm::Value"* %13
}

; Function Attrs: ssp uwtable
define linkonce_odr %"class.llvm::Value"* @_ZN4llvm9IRBuilderINS_14ConstantFolderENS_24IRBuilderDefaultInserterEE9CreateGEPEPNS_5ValueES5_RKNS_5TwineE(%"class.llvm::IRBuilder"*, %"class.llvm::Value"*, %"class.llvm::Value"*, %"class.llvm::Twine"* dereferenceable(24)) #0 align 2 {
  %5 = alloca %"class.llvm::IRBuilder"*, align 8
  %6 = alloca %"class.llvm::Value"*, align 8
  %7 = alloca %"class.llvm::Value"*, align 8
  %8 = alloca %"class.llvm::Twine"*, align 8
  store %"class.llvm::IRBuilder"* %0, %"class.llvm::IRBuilder"** %5, align 8
  store %"class.llvm::Value"* %1, %"class.llvm::Value"** %6, align 8
  store %"class.llvm::Value"* %2, %"class.llvm::Value"** %7, align 8
  store %"class.llvm::Twine"* %3, %"class.llvm::Twine"** %8, align 8
  %9 = load %"class.llvm::IRBuilder"*, %"class.llvm::IRBuilder"** %5, align 8
  %10 = load %"class.llvm::Value"*, %"class.llvm::Value"** %6, align 8
  %11 = load %"class.llvm::Value"*, %"class.llvm::Value"** %7, align 8
  %12 = load %"class.llvm::Twine"*, %"class.llvm::Twine"** %8, align 8
  %13 = call %"class.llvm::Value"* @_ZN4llvm9IRBuilderINS_14ConstantFolderENS_24IRBuilderDefaultInserterEE9CreateGEPEPNS_4TypeEPNS_5ValueES7_RKNS_5TwineE(%"class.llvm::IRBuilder"* %9, %"class.llvm::Type"* null, %"class.llvm::Value"* %10, %"class.llvm::Value"* %11, %"class.llvm::Twine"* dereferenceable(24) %12)
  ret %"class.llvm::Value"* %13
}

declare %"class.llvm::ConstantPointerNull"* @_ZN4llvm19ConstantPointerNull3getEPNS_11PointerTypeE(%"class.llvm::PointerType"*) #1

declare %"class.llvm::PointerType"* @_ZNK4llvm4Type12getPointerToEj(%"class.llvm::Type"*, i32) #1

declare %"class.llvm::ConstantInt"* @_ZN4llvm11ConstantInt3getEPNS_11IntegerTypeEyb(%"class.llvm::IntegerType"*, i64, i1 zeroext) #1

; Function Attrs: ssp uwtable
define linkonce_odr %"class.llvm::IntegerType"* @_ZN4llvm13IRBuilderBase10getInt64TyEv(%"class.llvm::IRBuilderBase"*) #0 align 2 {
  %2 = alloca %"class.llvm::IRBuilderBase"*, align 8
  store %"class.llvm::IRBuilderBase"* %0, %"class.llvm::IRBuilderBase"** %2, align 8
  %3 = load %"class.llvm::IRBuilderBase"*, %"class.llvm::IRBuilderBase"** %2, align 8
  %4 = getelementptr inbounds %"class.llvm::IRBuilderBase", %"class.llvm::IRBuilderBase"* %3, i32 0, i32 3
  %5 = load %"class.llvm::LLVMContext"*, %"class.llvm::LLVMContext"** %4, align 8
  %6 = call %"class.llvm::IntegerType"* @_ZN4llvm4Type10getInt64TyERNS_11LLVMContextE(%"class.llvm::LLVMContext"* dereferenceable(8) %5)
  ret %"class.llvm::IntegerType"* %6
}

; Function Attrs: ssp uwtable
define linkonce_odr %"class.llvm::CallInst"* @_ZN4llvm9IRBuilderINS_14ConstantFolderENS_24IRBuilderDefaultInserterEE10CreateCallEPNS_5ValueENS_8ArrayRefIS5_EERKNS_5TwineEPNS_6MDNodeE(%"class.llvm::IRBuilder"*, %"class.llvm::Value"*, %"class.llvm::Value"**, i64, %"class.llvm::Twine"* dereferenceable(24), %"class.llvm::MDNode"*) #0 align 2 {
  %7 = alloca %"class.llvm::ArrayRef.36", align 8
  %8 = alloca %"class.llvm::IRBuilder"*, align 8
  %9 = alloca %"class.llvm::Value"*, align 8
  %10 = alloca %"class.llvm::Twine"*, align 8
  %11 = alloca %"class.llvm::MDNode"*, align 8
  %12 = alloca %"class.llvm::PointerType"*, align 8
  %13 = alloca %"class.llvm::FunctionType"*, align 8
  %14 = alloca %"class.llvm::ArrayRef.36", align 8
  %15 = bitcast %"class.llvm::ArrayRef.36"* %7 to { %"class.llvm::Value"**, i64 }*
  %16 = getelementptr inbounds { %"class.llvm::Value"**, i64 }, { %"class.llvm::Value"**, i64 }* %15, i32 0, i32 0
  store %"class.llvm::Value"** %2, %"class.llvm::Value"*** %16, align 8
  %17 = getelementptr inbounds { %"class.llvm::Value"**, i64 }, { %"class.llvm::Value"**, i64 }* %15, i32 0, i32 1
  store i64 %3, i64* %17, align 8
  store %"class.llvm::IRBuilder"* %0, %"class.llvm::IRBuilder"** %8, align 8
  store %"class.llvm::Value"* %1, %"class.llvm::Value"** %9, align 8
  store %"class.llvm::Twine"* %4, %"class.llvm::Twine"** %10, align 8
  store %"class.llvm::MDNode"* %5, %"class.llvm::MDNode"** %11, align 8
  %18 = load %"class.llvm::IRBuilder"*, %"class.llvm::IRBuilder"** %8, align 8
  %19 = load %"class.llvm::Value"*, %"class.llvm::Value"** %9, align 8
  %20 = call %"class.llvm::Type"* @_ZNK4llvm5Value7getTypeEv(%"class.llvm::Value"* %19)
  %21 = call %"class.llvm::PointerType"* @_ZN4llvm4castINS_11PointerTypeENS_4TypeEEENS_10cast_rettyIT_PT0_E8ret_typeES6_(%"class.llvm::Type"* %20)
  store %"class.llvm::PointerType"* %21, %"class.llvm::PointerType"** %12, align 8
  %22 = load %"class.llvm::PointerType"*, %"class.llvm::PointerType"** %12, align 8
  %23 = call %"class.llvm::Type"* @_ZNK4llvm11PointerType14getElementTypeEv(%"class.llvm::PointerType"* %22)
  %24 = call %"class.llvm::FunctionType"* @_ZN4llvm4castINS_12FunctionTypeENS_4TypeEEENS_10cast_rettyIT_PT0_E8ret_typeES6_(%"class.llvm::Type"* %23)
  store %"class.llvm::FunctionType"* %24, %"class.llvm::FunctionType"** %13, align 8
  %25 = load %"class.llvm::FunctionType"*, %"class.llvm::FunctionType"** %13, align 8
  %26 = load %"class.llvm::Value"*, %"class.llvm::Value"** %9, align 8
  %27 = bitcast %"class.llvm::ArrayRef.36"* %14 to i8*
  %28 = bitcast %"class.llvm::ArrayRef.36"* %7 to i8*
  call void @llvm.memcpy.p0i8.p0i8.i64(i8* %27, i8* %28, i64 16, i32 8, i1 false)
  %29 = load %"class.llvm::Twine"*, %"class.llvm::Twine"** %10, align 8
  %30 = load %"class.llvm::MDNode"*, %"class.llvm::MDNode"** %11, align 8
  %31 = bitcast %"class.llvm::ArrayRef.36"* %14 to { %"class.llvm::Value"**, i64 }*
  %32 = getelementptr inbounds { %"class.llvm::Value"**, i64 }, { %"class.llvm::Value"**, i64 }* %31, i32 0, i32 0
  %33 = load %"class.llvm::Value"**, %"class.llvm::Value"*** %32, align 8
  %34 = getelementptr inbounds { %"class.llvm::Value"**, i64 }, { %"class.llvm::Value"**, i64 }* %31, i32 0, i32 1
  %35 = load i64, i64* %34, align 8
  %36 = call %"class.llvm::CallInst"* @_ZN4llvm9IRBuilderINS_14ConstantFolderENS_24IRBuilderDefaultInserterEE10CreateCallEPNS_12FunctionTypeEPNS_5ValueENS_8ArrayRefIS7_EERKNS_5TwineEPNS_6MDNodeE(%"class.llvm::IRBuilder"* %18, %"class.llvm::FunctionType"* %25, %"class.llvm::Value"* %26, %"class.llvm::Value"** %33, i64 %35, %"class.llvm::Twine"* dereferenceable(24) %29, %"class.llvm::MDNode"* %30)
  ret %"class.llvm::CallInst"* %36
}

; Function Attrs: ssp uwtable
define linkonce_odr dereferenceable(8) %"class.llvm::Constant"** @_ZNSt3__113unordered_mapINS_12basic_stringIcNS_11char_traitsIcEENS_9allocatorIcEEEEPN4llvm8ConstantENS_4hashIS6_EENS_8equal_toIS6_EENS4_INS_4pairIKS6_S9_EEEEEixEOS6_(%"class.std::__1::unordered_map"*, %"class.std::__1::basic_string"* dereferenceable(24)) #0 align 2 personality i32 (...)* @__gxx_personality_v0 {
  %3 = alloca %"class.std::__1::tuple.91"*, align 8
  %4 = alloca %"class.std::__1::tuple.91"*, align 8
  %5 = alloca %"class.std::__1::tuple.91", align 1
  %6 = alloca %"class.std::__1::basic_string"*, align 8
  %7 = alloca %"class.std::__1::__tuple_leaf"*, align 8
  %8 = alloca %"class.std::__1::basic_string"*, align 8
  %9 = alloca %"class.std::__1::basic_string"*, align 8
  %10 = alloca %"struct.std::__1::__tuple_indices", align 1
  %11 = alloca %"struct.std::__1::__tuple_types", align 1
  %12 = alloca %"struct.std::__1::__tuple_indices.98", align 1
  %13 = alloca %"struct.std::__1::__tuple_types.100", align 1
  %14 = alloca %"struct.std::__1::__tuple_impl"*, align 8
  %15 = alloca %"class.std::__1::basic_string"*, align 8
  %16 = alloca %"struct.std::__1::__tuple_indices", align 1
  %17 = alloca %"struct.std::__1::__tuple_types", align 1
  %18 = alloca %"struct.std::__1::__tuple_indices.98", align 1
  %19 = alloca %"struct.std::__1::__tuple_types.100", align 1
  %20 = alloca %"struct.std::__1::__tuple_impl"*, align 8
  %21 = alloca %"class.std::__1::basic_string"*, align 8
  %22 = alloca %"class.std::__1::basic_string"*, align 8
  %23 = alloca %"class.std::__1::tuple"*, align 8
  %24 = alloca %"class.std::__1::basic_string"*, align 8
  %25 = alloca %"struct.std::__1::__tuple_indices", align 1
  %26 = alloca %"struct.std::__1::__tuple_types", align 1
  %27 = alloca %"struct.std::__1::__tuple_indices.98", align 1
  %28 = alloca %"struct.std::__1::__tuple_types.100", align 1
  %29 = alloca %"class.std::__1::tuple"*, align 8
  %30 = alloca %"class.std::__1::basic_string"*, align 8
  %31 = alloca %"class.std::__1::basic_string"*, align 8
  %32 = alloca %"class.std::__1::tuple", align 8
  %33 = alloca %"class.std::__1::basic_string"*, align 8
  %34 = alloca i8*, align 8
  %35 = alloca %"class.std::__1::__libcpp_compressed_pair_imp.19"*, align 8
  %36 = alloca %"class.std::__1::__compressed_pair.18"*, align 8
  %37 = alloca %"class.std::__1::basic_string"*, align 8
  %38 = alloca i8*, align 8
  %39 = alloca i8*, align 8
  %40 = alloca %"class.std::__1::__libcpp_compressed_pair_imp.19"*, align 8
  %41 = alloca %"class.std::__1::__compressed_pair.18"*, align 8
  %42 = alloca %"class.std::__1::basic_string"*, align 8
  %43 = alloca %"class.std::__1::__libcpp_compressed_pair_imp.19"*, align 8
  %44 = alloca %"class.std::__1::__compressed_pair.18"*, align 8
  %45 = alloca %"class.std::__1::basic_string"*, align 8
  %46 = alloca %"class.std::__1::basic_string"*, align 8
  %47 = alloca %"class.std::__1::basic_string"*, align 8
  %48 = alloca %"class.std::__1::__libcpp_compressed_pair_imp.19"*, align 8
  %49 = alloca %"class.std::__1::__compressed_pair.18"*, align 8
  %50 = alloca %"class.std::__1::basic_string"*, align 8
  %51 = alloca i8*, align 8
  %52 = alloca %"class.std::__1::__libcpp_compressed_pair_imp.19"*, align 8
  %53 = alloca %"class.std::__1::__compressed_pair.18"*, align 8
  %54 = alloca %"class.std::__1::basic_string"*, align 8
  %55 = alloca i8*, align 8
  %56 = alloca i8*, align 8
  %57 = alloca %"class.std::__1::__libcpp_compressed_pair_imp.19"*, align 8
  %58 = alloca %"class.std::__1::__compressed_pair.18"*, align 8
  %59 = alloca %"class.std::__1::basic_string"*, align 8
  %60 = alloca %"class.std::__1::__libcpp_compressed_pair_imp.19"*, align 8
  %61 = alloca %"class.std::__1::__compressed_pair.18"*, align 8
  %62 = alloca %"class.std::__1::basic_string"*, align 8
  %63 = alloca %"class.std::__1::basic_string"*, align 8
  %64 = alloca %"class.std::__1::basic_string"*, align 8
  %65 = alloca %"class.std::__1::__libcpp_compressed_pair_imp.19"*, align 8
  %66 = alloca %"class.std::__1::__compressed_pair.18"*, align 8
  %67 = alloca %"class.std::__1::basic_string"*, align 8
  %68 = alloca %"class.std::__1::__libcpp_compressed_pair_imp.19"*, align 8
  %69 = alloca %"class.std::__1::__compressed_pair.18"*, align 8
  %70 = alloca %"class.std::__1::basic_string"*, align 8
  %71 = alloca %"class.std::__1::__libcpp_compressed_pair_imp.19"*, align 8
  %72 = alloca %"class.std::__1::__compressed_pair.18"*, align 8
  %73 = alloca %"class.std::__1::basic_string"*, align 8
  %74 = alloca %"class.std::__1::basic_string"*, align 8
  %75 = alloca %"class.std::__1::__libcpp_compressed_pair_imp.19"*, align 8
  %76 = alloca %"class.std::__1::__compressed_pair.18"*, align 8
  %77 = alloca %"class.std::__1::basic_string"*, align 8
  %78 = alloca %"class.std::__1::__libcpp_compressed_pair_imp.19"*, align 8
  %79 = alloca %"class.std::__1::__compressed_pair.18"*, align 8
  %80 = alloca %"class.std::__1::basic_string"*, align 8
  %81 = alloca %"class.std::__1::__libcpp_compressed_pair_imp.19"*, align 8
  %82 = alloca %"class.std::__1::__compressed_pair.18"*, align 8
  %83 = alloca %"class.std::__1::basic_string"*, align 8
  %84 = alloca %"class.std::__1::basic_string"*, align 8
  %85 = alloca i1, align 1
  %86 = alloca %"class.std::__1::basic_string"*, align 8
  %87 = alloca %"class.std::__1::basic_string"*, align 8
  %88 = alloca i64, align 8
  %89 = alloca i8*, align 8
  %90 = alloca i8*, align 8
  %91 = alloca %"struct.std::__1::equal_to"*, align 8
  %92 = alloca %"class.std::__1::basic_string"*, align 8
  %93 = alloca %"class.std::__1::basic_string"*, align 8
  %94 = alloca %"class.std::__1::__unordered_map_equal"*, align 8
  %95 = alloca %"union.std::__1::__hash_value_type"*, align 8
  %96 = alloca %"class.std::__1::basic_string"*, align 8
  %97 = alloca %"struct.std::__1::piecewise_construct_t"*, align 8
  %98 = alloca %"class.std::__1::tuple"*, align 8
  %99 = alloca %"class.std::__1::tuple.91"*, align 8
  %100 = alloca %"struct.std::__1::__hash_node_base"*, align 8
  %101 = alloca %"struct.std::__1::__hash_node_base"*, align 8
  %102 = alloca %"struct.std::__1::__hash_node_base"*, align 8
  %103 = alloca %"class.std::__1::__libcpp_compressed_pair_imp.49"*, align 8
  %104 = alloca %"class.std::__1::__compressed_pair.48"*, align 8
  %105 = alloca %"class.std::__1::__hash_table"*, align 8
  %106 = alloca %"class.std::__1::__libcpp_compressed_pair_imp.51"*, align 8
  %107 = alloca %"class.std::__1::__compressed_pair.50"*, align 8
  %108 = alloca %"class.std::__1::__hash_table"*, align 8
  %109 = alloca i64, align 8
  %110 = alloca %"class.std::__1::__libcpp_compressed_pair_imp.49"*, align 8
  %111 = alloca %"class.std::__1::__compressed_pair.48"*, align 8
  %112 = alloca %"class.std::__1::__hash_table"*, align 8
  %113 = alloca %"class.std::__1::__libcpp_compressed_pair_imp.51"*, align 8
  %114 = alloca %"class.std::__1::__compressed_pair.50"*, align 8
  %115 = alloca %"class.std::__1::__hash_table"*, align 8
  %116 = alloca %"class.std::__1::__libcpp_compressed_pair_imp.51"*, align 8
  %117 = alloca %"class.std::__1::__compressed_pair.50"*, align 8
  %118 = alloca %"class.std::__1::__hash_table"*, align 8
  %119 = alloca float, align 4
  %120 = alloca %"struct.std::__1::__less"*, align 8
  %121 = alloca i64*, align 8
  %122 = alloca i64*, align 8
  %123 = alloca %"struct.std::__1::__less", align 1
  %124 = alloca i64*, align 8
  %125 = alloca i64*, align 8
  %126 = alloca i64*, align 8
  %127 = alloca i64*, align 8
  %128 = alloca %"struct.std::__1::__less", align 1
  %129 = alloca i64, align 8
  %130 = alloca i64, align 8
  %131 = alloca %"class.std::__1::__libcpp_compressed_pair_imp.41"*, align 8
  %132 = alloca %"class.std::__1::__compressed_pair.40"*, align 8
  %133 = alloca %"class.std::__1::__bucket_list_deallocator"*, align 8
  %134 = alloca %"class.std::__1::__libcpp_compressed_pair_imp.39"*, align 8
  %135 = alloca %"class.std::__1::__compressed_pair.38"*, align 8
  %136 = alloca %"class.std::__1::unique_ptr.37"*, align 8
  %137 = alloca %"class.std::__1::__hash_table"*, align 8
  %138 = alloca i64, align 8
  %139 = alloca i64, align 8
  %140 = alloca %"struct.std::__1::__hash_node_base"*, align 8
  %141 = alloca %"class.std::__1::__libcpp_compressed_pair_imp.39"*, align 8
  %142 = alloca %"class.std::__1::__compressed_pair.38"*, align 8
  %143 = alloca %"class.std::__1::unique_ptr.37"*, align 8
  %144 = alloca i64, align 8
  %145 = alloca %"class.std::__1::__libcpp_compressed_pair_imp.96"*, align 8
  %146 = alloca %"class.std::__1::__compressed_pair.95"*, align 8
  %147 = alloca %"class.std::__1::__libcpp_compressed_pair_imp.96"*, align 8
  %148 = alloca %"class.std::__1::__compressed_pair.95"*, align 8
  %149 = alloca i8*, align 8
  %150 = alloca %"class.std::__1::allocator.46"*, align 8
  %151 = alloca %"struct.std::__1::__hash_node"*, align 8
  %152 = alloca i64, align 8
  %153 = alloca %"class.std::__1::allocator.46"*, align 8
  %154 = alloca %"struct.std::__1::__hash_node"*, align 8
  %155 = alloca i64, align 8
  %156 = alloca %"class.std::__1::allocator.46"*, align 8
  %157 = alloca %"struct.std::__1::pair.92"*, align 8
  %158 = alloca %"class.std::__1::allocator.46"*, align 8
  %159 = alloca %"struct.std::__1::pair.92"*, align 8
  %160 = alloca %"struct.std::__1::integral_constant.99", align 1
  %161 = alloca %"struct.std::__1::__has_destroy", align 1
  %162 = alloca %"struct.std::__1::pair.92"*, align 8
  %163 = alloca %"union.std::__1::__hash_value_type"*, align 8
  %164 = alloca %"class.std::__1::__hash_node_destructor"*, align 8
  %165 = alloca %"struct.std::__1::__hash_node"*, align 8
  %166 = alloca %"class.std::__1::__libcpp_compressed_pair_imp.96"*, align 8
  %167 = alloca %"class.std::__1::__compressed_pair.95"*, align 8
  %168 = alloca %"class.std::__1::unique_ptr.94"*, align 8
  %169 = alloca %"struct.std::__1::__hash_node"*, align 8
  %170 = alloca %"struct.std::__1::__hash_node"*, align 8
  %171 = alloca %"class.std::__1::unique_ptr.94"*, align 8
  %172 = alloca %"class.std::__1::unique_ptr.94"*, align 8
  %173 = alloca %"class.std::__1::__libcpp_compressed_pair_imp.39"*, align 8
  %174 = alloca %"class.std::__1::__compressed_pair.38"*, align 8
  %175 = alloca %"class.std::__1::unique_ptr.37"*, align 8
  %176 = alloca i64, align 8
  %177 = alloca %"class.std::__1::__libcpp_compressed_pair_imp.45"*, align 8
  %178 = alloca %"class.std::__1::__compressed_pair.44"*, align 8
  %179 = alloca %"struct.std::__1::__hash_node_base"*, align 8
  %180 = alloca %"struct.std::__1::__hash_node_base"*, align 8
  %181 = alloca %"struct.std::__1::__hash_node_base"*, align 8
  %182 = alloca %"class.std::__1::__libcpp_compressed_pair_imp.96"*, align 8
  %183 = alloca %"class.std::__1::__compressed_pair.95"*, align 8
  %184 = alloca %"class.std::__1::unique_ptr.94"*, align 8
  %185 = alloca %"class.std::__1::__libcpp_compressed_pair_imp.96"*, align 8
  %186 = alloca %"class.std::__1::__compressed_pair.95"*, align 8
  %187 = alloca %"class.std::__1::unique_ptr.94"*, align 8
  %188 = alloca %"struct.std::__1::__hash_node_base"*, align 8
  %189 = alloca %"struct.std::__1::__hash_node_base"*, align 8
  %190 = alloca %"struct.std::__1::__hash_node_base"*, align 8
  %191 = alloca %"class.std::__1::__libcpp_compressed_pair_imp.39"*, align 8
  %192 = alloca %"class.std::__1::__compressed_pair.38"*, align 8
  %193 = alloca %"class.std::__1::unique_ptr.37"*, align 8
  %194 = alloca i64, align 8
  %195 = alloca %"class.std::__1::__libcpp_compressed_pair_imp.96"*, align 8
  %196 = alloca %"class.std::__1::__compressed_pair.95"*, align 8
  %197 = alloca %"class.std::__1::unique_ptr.94"*, align 8
  %198 = alloca %"class.std::__1::__libcpp_compressed_pair_imp.96"*, align 8
  %199 = alloca %"class.std::__1::__compressed_pair.95"*, align 8
  %200 = alloca %"class.std::__1::unique_ptr.94"*, align 8
  %201 = alloca %"struct.std::__1::__hash_node_base"*, align 8
  %202 = alloca %"struct.std::__1::__hash_node_base"*, align 8
  %203 = alloca %"struct.std::__1::__hash_node_base"*, align 8
  %204 = alloca %"class.std::__1::__libcpp_compressed_pair_imp.96"*, align 8
  %205 = alloca %"class.std::__1::__compressed_pair.95"*, align 8
  %206 = alloca %"class.std::__1::unique_ptr.94"*, align 8
  %207 = alloca %"struct.std::__1::__hash_node_base"*, align 8
  %208 = alloca i64, align 8
  %209 = alloca i64, align 8
  %210 = alloca %"class.std::__1::__libcpp_compressed_pair_imp.39"*, align 8
  %211 = alloca %"class.std::__1::__compressed_pair.38"*, align 8
  %212 = alloca %"class.std::__1::unique_ptr.37"*, align 8
  %213 = alloca i64, align 8
  %214 = alloca %"class.std::__1::__libcpp_compressed_pair_imp.96"*, align 8
  %215 = alloca %"class.std::__1::__compressed_pair.95"*, align 8
  %216 = alloca %"class.std::__1::unique_ptr.94"*, align 8
  %217 = alloca %"class.std::__1::__libcpp_compressed_pair_imp.96"*, align 8
  %218 = alloca %"class.std::__1::__compressed_pair.95"*, align 8
  %219 = alloca %"class.std::__1::unique_ptr.94"*, align 8
  %220 = alloca %"class.std::__1::__libcpp_compressed_pair_imp.96"*, align 8
  %221 = alloca %"class.std::__1::__compressed_pair.95"*, align 8
  %222 = alloca %"class.std::__1::__libcpp_compressed_pair_imp.96"*, align 8
  %223 = alloca %"class.std::__1::__compressed_pair.95"*, align 8
  %224 = alloca %"class.std::__1::unique_ptr.94"*, align 8
  %225 = alloca %"struct.std::__1::__hash_node"*, align 8
  %226 = alloca %"class.std::__1::__libcpp_compressed_pair_imp.49"*, align 8
  %227 = alloca %"class.std::__1::__compressed_pair.48"*, align 8
  %228 = alloca %"class.std::__1::__hash_table"*, align 8
  %229 = alloca i64, align 8
  %230 = alloca i64, align 8
  %231 = alloca %"class.std::__1::__libcpp_compressed_pair_imp.41"*, align 8
  %232 = alloca %"class.std::__1::__compressed_pair.40"*, align 8
  %233 = alloca %"class.std::__1::__bucket_list_deallocator"*, align 8
  %234 = alloca %"class.std::__1::__libcpp_compressed_pair_imp.39"*, align 8
  %235 = alloca %"class.std::__1::__compressed_pair.38"*, align 8
  %236 = alloca %"class.std::__1::unique_ptr.37"*, align 8
  %237 = alloca %"class.std::__1::__hash_table"*, align 8
  %238 = alloca %"class.std::__1::__unordered_map_hasher"*, align 8
  %239 = alloca %"class.std::__1::basic_string"*, align 8
  %240 = alloca %"class.std::__1::__libcpp_compressed_pair_imp.96"*, align 8
  %241 = alloca %"class.std::__1::__compressed_pair.95"*, align 8
  %242 = alloca %"class.std::__1::__libcpp_compressed_pair_imp.96"*, align 8
  %243 = alloca %"class.std::__1::__compressed_pair.95"*, align 8
  %244 = alloca i8*, align 8
  %245 = alloca %"class.std::__1::allocator.46"*, align 8
  %246 = alloca %"struct.std::__1::__hash_node"*, align 8
  %247 = alloca i64, align 8
  %248 = alloca %"class.std::__1::allocator.46"*, align 8
  %249 = alloca %"struct.std::__1::__hash_node"*, align 8
  %250 = alloca i64, align 8
  %251 = alloca %"class.std::__1::allocator.46"*, align 8
  %252 = alloca %"struct.std::__1::pair.92"*, align 8
  %253 = alloca %"class.std::__1::allocator.46"*, align 8
  %254 = alloca %"struct.std::__1::pair.92"*, align 8
  %255 = alloca %"struct.std::__1::integral_constant.99", align 1
  %256 = alloca %"struct.std::__1::__has_destroy", align 1
  %257 = alloca %"struct.std::__1::pair.92"*, align 8
  %258 = alloca %"union.std::__1::__hash_value_type"*, align 8
  %259 = alloca %"class.std::__1::__hash_node_destructor"*, align 8
  %260 = alloca %"struct.std::__1::__hash_node"*, align 8
  %261 = alloca %"class.std::__1::__libcpp_compressed_pair_imp.96"*, align 8
  %262 = alloca %"class.std::__1::__compressed_pair.95"*, align 8
  %263 = alloca %"class.std::__1::unique_ptr.94"*, align 8
  %264 = alloca %"struct.std::__1::__hash_node"*, align 8
  %265 = alloca %"struct.std::__1::__hash_node"*, align 8
  %266 = alloca %"class.std::__1::unique_ptr.94"*, align 8
  %267 = alloca %"class.std::__1::unique_ptr.94"*, align 8
  %268 = alloca %"class.std::__1::__hash_iterator"*, align 8
  %269 = alloca %"struct.std::__1::__hash_node_base"*, align 8
  %270 = alloca %"class.std::__1::__hash_iterator"*, align 8
  %271 = alloca %"struct.std::__1::__hash_node_base"*, align 8
  %272 = alloca i8*, align 8
  %273 = alloca %"class.std::__1::__hash_iterator"*, align 8
  %274 = alloca %"struct.std::__1::pair"*, align 8
  %275 = alloca %"class.std::__1::__hash_iterator"*, align 8
  %276 = alloca i8*, align 8
  %277 = alloca %"struct.std::__1::pair"*, align 8
  %278 = alloca %"class.std::__1::__hash_iterator"*, align 8
  %279 = alloca i8*, align 8
  %280 = alloca %"class.std::__1::__libcpp_compressed_pair_imp.49"*, align 8
  %281 = alloca %"class.std::__1::__compressed_pair.48"*, align 8
  %282 = alloca %"class.std::__1::__hash_table"*, align 8
  %283 = alloca %"struct.std::__1::pair", align 8
  %284 = alloca %"class.std::__1::__hash_table"*, align 8
  %285 = alloca %"class.std::__1::basic_string"*, align 8
  %286 = alloca %"struct.std::__1::piecewise_construct_t"*, align 8
  %287 = alloca %"class.std::__1::tuple"*, align 8
  %288 = alloca %"class.std::__1::tuple.91"*, align 8
  %289 = alloca i64, align 8
  %290 = alloca i64, align 8
  %291 = alloca i8, align 1
  %292 = alloca %"struct.std::__1::__hash_node_base"*, align 8
  %293 = alloca i64, align 8
  %294 = alloca %"class.std::__1::unique_ptr.94", align 8
  %295 = alloca i64, align 8
  %296 = alloca i8*
  %297 = alloca i32
  %298 = alloca i64, align 8
  %299 = alloca %"struct.std::__1::__hash_node_base"*, align 8
  %300 = alloca %"class.std::__1::__hash_iterator", align 8
  %301 = alloca %"union.std::__1::__hash_value_type"*, align 8
  %302 = alloca %"union.std::__1::__hash_value_type"*, align 8
  %303 = alloca %"struct.std::__1::__hash_node_base"*, align 8
  %304 = alloca %"struct.std::__1::__hash_node_base"*, align 8
  %305 = alloca %"struct.std::__1::__hash_node_base"*, align 8
  %306 = alloca %"class.std::__1::__hash_iterator"*, align 8
  %307 = alloca %"class.std::__1::basic_string"*, align 8
  %308 = alloca %"class.std::__1::unordered_map"*, align 8
  %309 = alloca %"class.std::__1::basic_string"*, align 8
  %310 = alloca %"class.std::__1::tuple", align 8
  %311 = alloca %"class.std::__1::tuple.91", align 1
  %312 = alloca %"class.std::__1::tuple.91", align 1
  %313 = alloca %"struct.std::__1::pair", align 8
  store %"class.std::__1::unordered_map"* %0, %"class.std::__1::unordered_map"** %308, align 8
  store %"class.std::__1::basic_string"* %1, %"class.std::__1::basic_string"** %309, align 8
  %314 = load %"class.std::__1::unordered_map"*, %"class.std::__1::unordered_map"** %308, align 8
  %315 = getelementptr inbounds %"class.std::__1::unordered_map", %"class.std::__1::unordered_map"* %314, i32 0, i32 0
  %316 = load %"class.std::__1::basic_string"*, %"class.std::__1::basic_string"** %309, align 8
  %317 = load %"class.std::__1::basic_string"*, %"class.std::__1::basic_string"** %309, align 8
  store %"class.std::__1::basic_string"* %317, %"class.std::__1::basic_string"** %307, align 8
  %318 = load %"class.std::__1::basic_string"*, %"class.std::__1::basic_string"** %307, align 8
  store %"class.std::__1::basic_string"* %318, %"class.std::__1::basic_string"** %33, align 8
  %319 = load %"class.std::__1::basic_string"*, %"class.std::__1::basic_string"** %33, align 8
  store %"class.std::__1::basic_string"* %319, %"class.std::__1::basic_string"** %31, align 8
  %320 = load %"class.std::__1::basic_string"*, %"class.std::__1::basic_string"** %31, align 8
  store %"class.std::__1::tuple"* %32, %"class.std::__1::tuple"** %29, align 8
  store %"class.std::__1::basic_string"* %320, %"class.std::__1::basic_string"** %30, align 8
  %321 = load %"class.std::__1::tuple"*, %"class.std::__1::tuple"** %29, align 8
  %322 = load %"class.std::__1::basic_string"*, %"class.std::__1::basic_string"** %30, align 8
  store %"class.std::__1::tuple"* %321, %"class.std::__1::tuple"** %23, align 8
  store %"class.std::__1::basic_string"* %322, %"class.std::__1::basic_string"** %24, align 8
  %323 = load %"class.std::__1::tuple"*, %"class.std::__1::tuple"** %23, align 8
  %324 = getelementptr inbounds %"class.std::__1::tuple", %"class.std::__1::tuple"* %323, i32 0, i32 0
  %325 = load %"class.std::__1::basic_string"*, %"class.std::__1::basic_string"** %24, align 8
  store %"class.std::__1::basic_string"* %325, %"class.std::__1::basic_string"** %22, align 8
  %326 = load %"class.std::__1::basic_string"*, %"class.std::__1::basic_string"** %22, align 8
  store %"struct.std::__1::__tuple_impl"* %324, %"struct.std::__1::__tuple_impl"** %20, align 8
  store %"class.std::__1::basic_string"* %326, %"class.std::__1::basic_string"** %21, align 8
  %327 = load %"struct.std::__1::__tuple_impl"*, %"struct.std::__1::__tuple_impl"** %20, align 8
  %328 = load %"class.std::__1::basic_string"*, %"class.std::__1::basic_string"** %21, align 8
  store %"struct.std::__1::__tuple_impl"* %327, %"struct.std::__1::__tuple_impl"** %14, align 8
  store %"class.std::__1::basic_string"* %328, %"class.std::__1::basic_string"** %15, align 8
  %329 = load %"struct.std::__1::__tuple_impl"*, %"struct.std::__1::__tuple_impl"** %14, align 8
  %330 = bitcast %"struct.std::__1::__tuple_impl"* %329 to %"class.std::__1::__tuple_leaf"*
  %331 = load %"class.std::__1::basic_string"*, %"class.std::__1::basic_string"** %15, align 8
  store %"class.std::__1::basic_string"* %331, %"class.std::__1::basic_string"** %9, align 8
  %332 = load %"class.std::__1::basic_string"*, %"class.std::__1::basic_string"** %9, align 8
  store %"class.std::__1::__tuple_leaf"* %330, %"class.std::__1::__tuple_leaf"** %7, align 8
  store %"class.std::__1::basic_string"* %332, %"class.std::__1::basic_string"** %8, align 8
  %333 = load %"class.std::__1::__tuple_leaf"*, %"class.std::__1::__tuple_leaf"** %7, align 8
  %334 = getelementptr inbounds %"class.std::__1::__tuple_leaf", %"class.std::__1::__tuple_leaf"* %333, i32 0, i32 0
  %335 = load %"class.std::__1::basic_string"*, %"class.std::__1::basic_string"** %8, align 8
  store %"class.std::__1::basic_string"* %335, %"class.std::__1::basic_string"** %6, align 8
  %336 = load %"class.std::__1::basic_string"*, %"class.std::__1::basic_string"** %6, align 8
  store %"class.std::__1::basic_string"* %336, %"class.std::__1::basic_string"** %334, align 8
  %337 = getelementptr inbounds %"class.std::__1::tuple", %"class.std::__1::tuple"* %32, i32 0, i32 0
  %338 = getelementptr inbounds %"struct.std::__1::__tuple_impl", %"struct.std::__1::__tuple_impl"* %337, i32 0, i32 0
  %339 = getelementptr inbounds %"class.std::__1::__tuple_leaf", %"class.std::__1::__tuple_leaf"* %338, i32 0, i32 0
  %340 = load %"class.std::__1::basic_string"*, %"class.std::__1::basic_string"** %339, align 8
  %341 = getelementptr inbounds %"class.std::__1::tuple", %"class.std::__1::tuple"* %310, i32 0, i32 0
  %342 = getelementptr inbounds %"struct.std::__1::__tuple_impl", %"struct.std::__1::__tuple_impl"* %341, i32 0, i32 0
  %343 = getelementptr inbounds %"class.std::__1::__tuple_leaf", %"class.std::__1::__tuple_leaf"* %342, i32 0, i32 0
  store %"class.std::__1::basic_string"* %340, %"class.std::__1::basic_string"** %343, align 8
  store %"class.std::__1::tuple.91"* %5, %"class.std::__1::tuple.91"** %4, align 8
  %344 = load %"class.std::__1::tuple.91"*, %"class.std::__1::tuple.91"** %4, align 8
  store %"class.std::__1::tuple.91"* %344, %"class.std::__1::tuple.91"** %3, align 8
  %345 = load %"class.std::__1::tuple.91"*, %"class.std::__1::tuple.91"** %3, align 8
  store %"class.std::__1::__hash_table"* %315, %"class.std::__1::__hash_table"** %284, align 8
  store %"class.std::__1::basic_string"* %316, %"class.std::__1::basic_string"** %285, align 8
  store %"struct.std::__1::piecewise_construct_t"* @_ZNSt3__1L19piecewise_constructE, %"struct.std::__1::piecewise_construct_t"** %286, align 8
  store %"class.std::__1::tuple"* %310, %"class.std::__1::tuple"** %287, align 8
  store %"class.std::__1::tuple.91"* %311, %"class.std::__1::tuple.91"** %288, align 8
  %346 = load %"class.std::__1::__hash_table"*, %"class.std::__1::__hash_table"** %284, align 8
  store %"class.std::__1::__hash_table"* %346, %"class.std::__1::__hash_table"** %282, align 8
  %347 = load %"class.std::__1::__hash_table"*, %"class.std::__1::__hash_table"** %282, align 8
  %348 = getelementptr inbounds %"class.std::__1::__hash_table", %"class.std::__1::__hash_table"* %347, i32 0, i32 2
  store %"class.std::__1::__compressed_pair.48"* %348, %"class.std::__1::__compressed_pair.48"** %281, align 8
  %349 = load %"class.std::__1::__compressed_pair.48"*, %"class.std::__1::__compressed_pair.48"** %281, align 8
  %350 = bitcast %"class.std::__1::__compressed_pair.48"* %349 to %"class.std::__1::__libcpp_compressed_pair_imp.49"*
  store %"class.std::__1::__libcpp_compressed_pair_imp.49"* %350, %"class.std::__1::__libcpp_compressed_pair_imp.49"** %280, align 8
  %351 = load %"class.std::__1::__libcpp_compressed_pair_imp.49"*, %"class.std::__1::__libcpp_compressed_pair_imp.49"** %280, align 8
  %352 = bitcast %"class.std::__1::__libcpp_compressed_pair_imp.49"* %351 to %"class.std::__1::__unordered_map_hasher"*
  %353 = load %"class.std::__1::basic_string"*, %"class.std::__1::basic_string"** %285, align 8
  store %"class.std::__1::__unordered_map_hasher"* %352, %"class.std::__1::__unordered_map_hasher"** %238, align 8
  store %"class.std::__1::basic_string"* %353, %"class.std::__1::basic_string"** %239, align 8
  %354 = load %"class.std::__1::__unordered_map_hasher"*, %"class.std::__1::__unordered_map_hasher"** %238, align 8
  %355 = bitcast %"class.std::__1::__unordered_map_hasher"* %354 to %"struct.std::__1::hash"*
  %356 = load %"class.std::__1::basic_string"*, %"class.std::__1::basic_string"** %239, align 8
  %357 = call i64 @_ZNKSt3__14hashINS_12basic_stringIcNS_11char_traitsIcEENS_9allocatorIcEEEEEclERKS6_(%"struct.std::__1::hash"* %355, %"class.std::__1::basic_string"* dereferenceable(24) %356) #14
  store i64 %357, i64* %289, align 8
  store %"class.std::__1::__hash_table"* %346, %"class.std::__1::__hash_table"** %237, align 8
  %358 = load %"class.std::__1::__hash_table"*, %"class.std::__1::__hash_table"** %237, align 8
  %359 = getelementptr inbounds %"class.std::__1::__hash_table", %"class.std::__1::__hash_table"* %358, i32 0, i32 0
  store %"class.std::__1::unique_ptr.37"* %359, %"class.std::__1::unique_ptr.37"** %236, align 8
  %360 = load %"class.std::__1::unique_ptr.37"*, %"class.std::__1::unique_ptr.37"** %236, align 8
  %361 = getelementptr inbounds %"class.std::__1::unique_ptr.37", %"class.std::__1::unique_ptr.37"* %360, i32 0, i32 0
  store %"class.std::__1::__compressed_pair.38"* %361, %"class.std::__1::__compressed_pair.38"** %235, align 8
  %362 = load %"class.std::__1::__compressed_pair.38"*, %"class.std::__1::__compressed_pair.38"** %235, align 8
  %363 = bitcast %"class.std::__1::__compressed_pair.38"* %362 to %"class.std::__1::__libcpp_compressed_pair_imp.39"*
  store %"class.std::__1::__libcpp_compressed_pair_imp.39"* %363, %"class.std::__1::__libcpp_compressed_pair_imp.39"** %234, align 8
  %364 = load %"class.std::__1::__libcpp_compressed_pair_imp.39"*, %"class.std::__1::__libcpp_compressed_pair_imp.39"** %234, align 8
  %365 = getelementptr inbounds %"class.std::__1::__libcpp_compressed_pair_imp.39", %"class.std::__1::__libcpp_compressed_pair_imp.39"* %364, i32 0, i32 1
  store %"class.std::__1::__bucket_list_deallocator"* %365, %"class.std::__1::__bucket_list_deallocator"** %233, align 8
  %366 = load %"class.std::__1::__bucket_list_deallocator"*, %"class.std::__1::__bucket_list_deallocator"** %233, align 8
  %367 = getelementptr inbounds %"class.std::__1::__bucket_list_deallocator", %"class.std::__1::__bucket_list_deallocator"* %366, i32 0, i32 0
  store %"class.std::__1::__compressed_pair.40"* %367, %"class.std::__1::__compressed_pair.40"** %232, align 8
  %368 = load %"class.std::__1::__compressed_pair.40"*, %"class.std::__1::__compressed_pair.40"** %232, align 8
  %369 = bitcast %"class.std::__1::__compressed_pair.40"* %368 to %"class.std::__1::__libcpp_compressed_pair_imp.41"*
  store %"class.std::__1::__libcpp_compressed_pair_imp.41"* %369, %"class.std::__1::__libcpp_compressed_pair_imp.41"** %231, align 8
  %370 = load %"class.std::__1::__libcpp_compressed_pair_imp.41"*, %"class.std::__1::__libcpp_compressed_pair_imp.41"** %231, align 8
  %371 = getelementptr inbounds %"class.std::__1::__libcpp_compressed_pair_imp.41", %"class.std::__1::__libcpp_compressed_pair_imp.41"* %370, i32 0, i32 0
  %372 = load i64, i64* %371, align 8
  store i64 %372, i64* %290, align 8
  store i8 0, i8* %291, align 1
  %373 = load i64, i64* %290, align 8
  %374 = icmp ne i64 %373, 0
  br i1 %374, label %375, label %717

; <label>:375:                                    ; preds = %2
  %376 = load i64, i64* %289, align 8
  %377 = load i64, i64* %290, align 8
  store i64 %376, i64* %229, align 8
  store i64 %377, i64* %230, align 8
  %378 = load i64, i64* %230, align 8
  %379 = load i64, i64* %230, align 8
  %380 = sub i64 %379, 1
  %381 = and i64 %378, %380
  %382 = icmp ne i64 %381, 0
  br i1 %382, label %388, label %383

; <label>:383:                                    ; preds = %375
  %384 = load i64, i64* %229, align 8
  %385 = load i64, i64* %230, align 8
  %386 = sub i64 %385, 1
  %387 = and i64 %384, %386
  br label %400

; <label>:388:                                    ; preds = %375
  %389 = load i64, i64* %229, align 8
  %390 = load i64, i64* %230, align 8
  %391 = icmp ult i64 %389, %390
  br i1 %391, label %392, label %394

; <label>:392:                                    ; preds = %388
  %393 = load i64, i64* %229, align 8
  br label %398

; <label>:394:                                    ; preds = %388
  %395 = load i64, i64* %229, align 8
  %396 = load i64, i64* %230, align 8
  %397 = urem i64 %395, %396
  br label %398

; <label>:398:                                    ; preds = %394, %392
  %399 = phi i64 [ %393, %392 ], [ %397, %394 ]
  br label %400

; <label>:400:                                    ; preds = %398, %383
  %401 = phi i64 [ %387, %383 ], [ %399, %398 ]
  store i64 %401, i64* %293, align 8
  %402 = getelementptr inbounds %"class.std::__1::__hash_table", %"class.std::__1::__hash_table"* %346, i32 0, i32 0
  %403 = load i64, i64* %293, align 8
  store %"class.std::__1::unique_ptr.37"* %402, %"class.std::__1::unique_ptr.37"** %143, align 8
  store i64 %403, i64* %144, align 8
  %404 = load %"class.std::__1::unique_ptr.37"*, %"class.std::__1::unique_ptr.37"** %143, align 8
  %405 = load i64, i64* %144, align 8
  %406 = getelementptr inbounds %"class.std::__1::unique_ptr.37", %"class.std::__1::unique_ptr.37"* %404, i32 0, i32 0
  store %"class.std::__1::__compressed_pair.38"* %406, %"class.std::__1::__compressed_pair.38"** %142, align 8
  %407 = load %"class.std::__1::__compressed_pair.38"*, %"class.std::__1::__compressed_pair.38"** %142, align 8
  %408 = bitcast %"class.std::__1::__compressed_pair.38"* %407 to %"class.std::__1::__libcpp_compressed_pair_imp.39"*
  store %"class.std::__1::__libcpp_compressed_pair_imp.39"* %408, %"class.std::__1::__libcpp_compressed_pair_imp.39"** %141, align 8
  %409 = load %"class.std::__1::__libcpp_compressed_pair_imp.39"*, %"class.std::__1::__libcpp_compressed_pair_imp.39"** %141, align 8
  %410 = getelementptr inbounds %"class.std::__1::__libcpp_compressed_pair_imp.39", %"class.std::__1::__libcpp_compressed_pair_imp.39"* %409, i32 0, i32 0
  %411 = load %"struct.std::__1::__hash_node_base"**, %"struct.std::__1::__hash_node_base"*** %410, align 8
  %412 = getelementptr inbounds %"struct.std::__1::__hash_node_base"*, %"struct.std::__1::__hash_node_base"** %411, i64 %405
  %413 = load %"struct.std::__1::__hash_node_base"*, %"struct.std::__1::__hash_node_base"** %412, align 8
  store %"struct.std::__1::__hash_node_base"* %413, %"struct.std::__1::__hash_node_base"** %292, align 8
  %414 = load %"struct.std::__1::__hash_node_base"*, %"struct.std::__1::__hash_node_base"** %292, align 8
  %415 = icmp ne %"struct.std::__1::__hash_node_base"* %414, null
  br i1 %415, label %416, label %716

; <label>:416:                                    ; preds = %400
  %417 = load %"struct.std::__1::__hash_node_base"*, %"struct.std::__1::__hash_node_base"** %292, align 8
  %418 = getelementptr inbounds %"struct.std::__1::__hash_node_base", %"struct.std::__1::__hash_node_base"* %417, i32 0, i32 0
  %419 = load %"struct.std::__1::__hash_node_base"*, %"struct.std::__1::__hash_node_base"** %418, align 8
  store %"struct.std::__1::__hash_node_base"* %419, %"struct.std::__1::__hash_node_base"** %292, align 8
  br label %420

; <label>:420:                                    ; preds = %711, %416
  %421 = load %"struct.std::__1::__hash_node_base"*, %"struct.std::__1::__hash_node_base"** %292, align 8
  %422 = icmp ne %"struct.std::__1::__hash_node_base"* %421, null
  br i1 %422, label %423, label %456

; <label>:423:                                    ; preds = %420
  %424 = load %"struct.std::__1::__hash_node_base"*, %"struct.std::__1::__hash_node_base"** %292, align 8
  store %"struct.std::__1::__hash_node_base"* %424, %"struct.std::__1::__hash_node_base"** %140, align 8
  %425 = load %"struct.std::__1::__hash_node_base"*, %"struct.std::__1::__hash_node_base"** %140, align 8
  %426 = bitcast %"struct.std::__1::__hash_node_base"* %425 to %"struct.std::__1::__hash_node"*
  %427 = getelementptr inbounds %"struct.std::__1::__hash_node", %"struct.std::__1::__hash_node"* %426, i32 0, i32 1
  %428 = load i64, i64* %427, align 8
  %429 = load i64, i64* %290, align 8
  store i64 %428, i64* %129, align 8
  store i64 %429, i64* %130, align 8
  %430 = load i64, i64* %130, align 8
  %431 = load i64, i64* %130, align 8
  %432 = sub i64 %431, 1
  %433 = and i64 %430, %432
  %434 = icmp ne i64 %433, 0
  br i1 %434, label %440, label %435

; <label>:435:                                    ; preds = %423
  %436 = load i64, i64* %129, align 8
  %437 = load i64, i64* %130, align 8
  %438 = sub i64 %437, 1
  %439 = and i64 %436, %438
  br label %452

; <label>:440:                                    ; preds = %423
  %441 = load i64, i64* %129, align 8
  %442 = load i64, i64* %130, align 8
  %443 = icmp ult i64 %441, %442
  br i1 %443, label %444, label %446

; <label>:444:                                    ; preds = %440
  %445 = load i64, i64* %129, align 8
  br label %450

; <label>:446:                                    ; preds = %440
  %447 = load i64, i64* %129, align 8
  %448 = load i64, i64* %130, align 8
  %449 = urem i64 %447, %448
  br label %450

; <label>:450:                                    ; preds = %446, %444
  %451 = phi i64 [ %445, %444 ], [ %449, %446 ]
  br label %452

; <label>:452:                                    ; preds = %450, %435
  %453 = phi i64 [ %439, %435 ], [ %451, %450 ]
  %454 = load i64, i64* %293, align 8
  %455 = icmp eq i64 %453, %454
  br label %456

; <label>:456:                                    ; preds = %452, %420
  %457 = phi i1 [ false, %420 ], [ %455, %452 ]
  br i1 %457, label %458, label %715

; <label>:458:                                    ; preds = %456
  store %"class.std::__1::__hash_table"* %346, %"class.std::__1::__hash_table"** %118, align 8
  %459 = load %"class.std::__1::__hash_table"*, %"class.std::__1::__hash_table"** %118, align 8
  %460 = getelementptr inbounds %"class.std::__1::__hash_table", %"class.std::__1::__hash_table"* %459, i32 0, i32 3
  store %"class.std::__1::__compressed_pair.50"* %460, %"class.std::__1::__compressed_pair.50"** %117, align 8
  %461 = load %"class.std::__1::__compressed_pair.50"*, %"class.std::__1::__compressed_pair.50"** %117, align 8
  %462 = bitcast %"class.std::__1::__compressed_pair.50"* %461 to %"class.std::__1::__libcpp_compressed_pair_imp.51"*
  store %"class.std::__1::__libcpp_compressed_pair_imp.51"* %462, %"class.std::__1::__libcpp_compressed_pair_imp.51"** %116, align 8
  %463 = load %"class.std::__1::__libcpp_compressed_pair_imp.51"*, %"class.std::__1::__libcpp_compressed_pair_imp.51"** %116, align 8
  %464 = bitcast %"class.std::__1::__libcpp_compressed_pair_imp.51"* %463 to %"class.std::__1::__unordered_map_equal"*
  %465 = load %"struct.std::__1::__hash_node_base"*, %"struct.std::__1::__hash_node_base"** %292, align 8
  store %"struct.std::__1::__hash_node_base"* %465, %"struct.std::__1::__hash_node_base"** %102, align 8
  %466 = load %"struct.std::__1::__hash_node_base"*, %"struct.std::__1::__hash_node_base"** %102, align 8
  store %"struct.std::__1::__hash_node_base"* %466, %"struct.std::__1::__hash_node_base"** %101, align 8
  %467 = load %"struct.std::__1::__hash_node_base"*, %"struct.std::__1::__hash_node_base"** %101, align 8
  store %"struct.std::__1::__hash_node_base"* %467, %"struct.std::__1::__hash_node_base"** %100, align 8
  %468 = load %"struct.std::__1::__hash_node_base"*, %"struct.std::__1::__hash_node_base"** %100, align 8
  %469 = bitcast %"struct.std::__1::__hash_node_base"* %468 to i8*
  %470 = bitcast %"struct.std::__1::__hash_node_base"* %468 to %"struct.std::__1::__hash_node"*
  %471 = getelementptr inbounds %"struct.std::__1::__hash_node", %"struct.std::__1::__hash_node"* %470, i32 0, i32 2
  %472 = load %"class.std::__1::basic_string"*, %"class.std::__1::basic_string"** %285, align 8
  store %"class.std::__1::__unordered_map_equal"* %464, %"class.std::__1::__unordered_map_equal"** %94, align 8
  store %"union.std::__1::__hash_value_type"* %471, %"union.std::__1::__hash_value_type"** %95, align 8
  store %"class.std::__1::basic_string"* %472, %"class.std::__1::basic_string"** %96, align 8
  %473 = load %"class.std::__1::__unordered_map_equal"*, %"class.std::__1::__unordered_map_equal"** %94, align 8
  %474 = bitcast %"class.std::__1::__unordered_map_equal"* %473 to %"struct.std::__1::equal_to"*
  %475 = load %"union.std::__1::__hash_value_type"*, %"union.std::__1::__hash_value_type"** %95, align 8
  %476 = bitcast %"union.std::__1::__hash_value_type"* %475 to %"struct.std::__1::pair.92"*
  %477 = getelementptr inbounds %"struct.std::__1::pair.92", %"struct.std::__1::pair.92"* %476, i32 0, i32 0
  %478 = load %"class.std::__1::basic_string"*, %"class.std::__1::basic_string"** %96, align 8
  store %"struct.std::__1::equal_to"* %474, %"struct.std::__1::equal_to"** %91, align 8
  store %"class.std::__1::basic_string"* %477, %"class.std::__1::basic_string"** %92, align 8
  store %"class.std::__1::basic_string"* %478, %"class.std::__1::basic_string"** %93, align 8
  %479 = load %"struct.std::__1::equal_to"*, %"struct.std::__1::equal_to"** %91, align 8
  %480 = load %"class.std::__1::basic_string"*, %"class.std::__1::basic_string"** %92, align 8
  %481 = load %"class.std::__1::basic_string"*, %"class.std::__1::basic_string"** %93, align 8
  store %"class.std::__1::basic_string"* %480, %"class.std::__1::basic_string"** %86, align 8
  store %"class.std::__1::basic_string"* %481, %"class.std::__1::basic_string"** %87, align 8
  %482 = load %"class.std::__1::basic_string"*, %"class.std::__1::basic_string"** %86, align 8
  store %"class.std::__1::basic_string"* %482, %"class.std::__1::basic_string"** %84, align 8
  %483 = load %"class.std::__1::basic_string"*, %"class.std::__1::basic_string"** %84, align 8
  store %"class.std::__1::basic_string"* %483, %"class.std::__1::basic_string"** %83, align 8
  %484 = load %"class.std::__1::basic_string"*, %"class.std::__1::basic_string"** %83, align 8
  %485 = getelementptr inbounds %"class.std::__1::basic_string", %"class.std::__1::basic_string"* %484, i32 0, i32 0
  store %"class.std::__1::__compressed_pair.18"* %485, %"class.std::__1::__compressed_pair.18"** %82, align 8
  %486 = load %"class.std::__1::__compressed_pair.18"*, %"class.std::__1::__compressed_pair.18"** %82, align 8
  %487 = bitcast %"class.std::__1::__compressed_pair.18"* %486 to %"class.std::__1::__libcpp_compressed_pair_imp.19"*
  store %"class.std::__1::__libcpp_compressed_pair_imp.19"* %487, %"class.std::__1::__libcpp_compressed_pair_imp.19"** %81, align 8
  %488 = load %"class.std::__1::__libcpp_compressed_pair_imp.19"*, %"class.std::__1::__libcpp_compressed_pair_imp.19"** %81, align 8
  %489 = getelementptr inbounds %"class.std::__1::__libcpp_compressed_pair_imp.19", %"class.std::__1::__libcpp_compressed_pair_imp.19"* %488, i32 0, i32 0
  %490 = getelementptr inbounds %"struct.std::__1::basic_string<char, std::__1::char_traits<char>, std::__1::allocator<char> >::__rep", %"struct.std::__1::basic_string<char, std::__1::char_traits<char>, std::__1::allocator<char> >::__rep"* %489, i32 0, i32 0
  %491 = bitcast %union.anon* %490 to %"struct.std::__1::basic_string<char, std::__1::char_traits<char>, std::__1::allocator<char> >::__short"*
  %492 = getelementptr inbounds %"struct.std::__1::basic_string<char, std::__1::char_traits<char>, std::__1::allocator<char> >::__short", %"struct.std::__1::basic_string<char, std::__1::char_traits<char>, std::__1::allocator<char> >::__short"* %491, i32 0, i32 0
  %493 = bitcast %union.anon.20* %492 to i8*
  %494 = load i8, i8* %493, align 8
  %495 = zext i8 %494 to i32
  %496 = and i32 %495, 1
  %497 = icmp ne i32 %496, 0
  br i1 %497, label %498, label %509

; <label>:498:                                    ; preds = %458
  store %"class.std::__1::basic_string"* %483, %"class.std::__1::basic_string"** %77, align 8
  %499 = load %"class.std::__1::basic_string"*, %"class.std::__1::basic_string"** %77, align 8
  %500 = getelementptr inbounds %"class.std::__1::basic_string", %"class.std::__1::basic_string"* %499, i32 0, i32 0
  store %"class.std::__1::__compressed_pair.18"* %500, %"class.std::__1::__compressed_pair.18"** %76, align 8
  %501 = load %"class.std::__1::__compressed_pair.18"*, %"class.std::__1::__compressed_pair.18"** %76, align 8
  %502 = bitcast %"class.std::__1::__compressed_pair.18"* %501 to %"class.std::__1::__libcpp_compressed_pair_imp.19"*
  store %"class.std::__1::__libcpp_compressed_pair_imp.19"* %502, %"class.std::__1::__libcpp_compressed_pair_imp.19"** %75, align 8
  %503 = load %"class.std::__1::__libcpp_compressed_pair_imp.19"*, %"class.std::__1::__libcpp_compressed_pair_imp.19"** %75, align 8
  %504 = getelementptr inbounds %"class.std::__1::__libcpp_compressed_pair_imp.19", %"class.std::__1::__libcpp_compressed_pair_imp.19"* %503, i32 0, i32 0
  %505 = getelementptr inbounds %"struct.std::__1::basic_string<char, std::__1::char_traits<char>, std::__1::allocator<char> >::__rep", %"struct.std::__1::basic_string<char, std::__1::char_traits<char>, std::__1::allocator<char> >::__rep"* %504, i32 0, i32 0
  %506 = bitcast %union.anon* %505 to %"struct.std::__1::basic_string<char, std::__1::char_traits<char>, std::__1::allocator<char> >::__long"*
  %507 = getelementptr inbounds %"struct.std::__1::basic_string<char, std::__1::char_traits<char>, std::__1::allocator<char> >::__long", %"struct.std::__1::basic_string<char, std::__1::char_traits<char>, std::__1::allocator<char> >::__long"* %506, i32 0, i32 1
  %508 = load i64, i64* %507, align 8
  br label %524

; <label>:509:                                    ; preds = %458
  store %"class.std::__1::basic_string"* %483, %"class.std::__1::basic_string"** %80, align 8
  %510 = load %"class.std::__1::basic_string"*, %"class.std::__1::basic_string"** %80, align 8
  %511 = getelementptr inbounds %"class.std::__1::basic_string", %"class.std::__1::basic_string"* %510, i32 0, i32 0
  store %"class.std::__1::__compressed_pair.18"* %511, %"class.std::__1::__compressed_pair.18"** %79, align 8
  %512 = load %"class.std::__1::__compressed_pair.18"*, %"class.std::__1::__compressed_pair.18"** %79, align 8
  %513 = bitcast %"class.std::__1::__compressed_pair.18"* %512 to %"class.std::__1::__libcpp_compressed_pair_imp.19"*
  store %"class.std::__1::__libcpp_compressed_pair_imp.19"* %513, %"class.std::__1::__libcpp_compressed_pair_imp.19"** %78, align 8
  %514 = load %"class.std::__1::__libcpp_compressed_pair_imp.19"*, %"class.std::__1::__libcpp_compressed_pair_imp.19"** %78, align 8
  %515 = getelementptr inbounds %"class.std::__1::__libcpp_compressed_pair_imp.19", %"class.std::__1::__libcpp_compressed_pair_imp.19"* %514, i32 0, i32 0
  %516 = getelementptr inbounds %"struct.std::__1::basic_string<char, std::__1::char_traits<char>, std::__1::allocator<char> >::__rep", %"struct.std::__1::basic_string<char, std::__1::char_traits<char>, std::__1::allocator<char> >::__rep"* %515, i32 0, i32 0
  %517 = bitcast %union.anon* %516 to %"struct.std::__1::basic_string<char, std::__1::char_traits<char>, std::__1::allocator<char> >::__short"*
  %518 = getelementptr inbounds %"struct.std::__1::basic_string<char, std::__1::char_traits<char>, std::__1::allocator<char> >::__short", %"struct.std::__1::basic_string<char, std::__1::char_traits<char>, std::__1::allocator<char> >::__short"* %517, i32 0, i32 0
  %519 = bitcast %union.anon.20* %518 to i8*
  %520 = load i8, i8* %519, align 8
  %521 = zext i8 %520 to i32
  %522 = ashr i32 %521, 1
  %523 = sext i32 %522 to i64
  br label %524

; <label>:524:                                    ; preds = %509, %498
  %525 = phi i64 [ %508, %498 ], [ %523, %509 ]
  store i64 %525, i64* %88, align 8
  %526 = load i64, i64* %88, align 8
  %527 = load %"class.std::__1::basic_string"*, %"class.std::__1::basic_string"** %87, align 8
  store %"class.std::__1::basic_string"* %527, %"class.std::__1::basic_string"** %74, align 8
  %528 = load %"class.std::__1::basic_string"*, %"class.std::__1::basic_string"** %74, align 8
  store %"class.std::__1::basic_string"* %528, %"class.std::__1::basic_string"** %73, align 8
  %529 = load %"class.std::__1::basic_string"*, %"class.std::__1::basic_string"** %73, align 8
  %530 = getelementptr inbounds %"class.std::__1::basic_string", %"class.std::__1::basic_string"* %529, i32 0, i32 0
  store %"class.std::__1::__compressed_pair.18"* %530, %"class.std::__1::__compressed_pair.18"** %72, align 8
  %531 = load %"class.std::__1::__compressed_pair.18"*, %"class.std::__1::__compressed_pair.18"** %72, align 8
  %532 = bitcast %"class.std::__1::__compressed_pair.18"* %531 to %"class.std::__1::__libcpp_compressed_pair_imp.19"*
  store %"class.std::__1::__libcpp_compressed_pair_imp.19"* %532, %"class.std::__1::__libcpp_compressed_pair_imp.19"** %71, align 8
  %533 = load %"class.std::__1::__libcpp_compressed_pair_imp.19"*, %"class.std::__1::__libcpp_compressed_pair_imp.19"** %71, align 8
  %534 = getelementptr inbounds %"class.std::__1::__libcpp_compressed_pair_imp.19", %"class.std::__1::__libcpp_compressed_pair_imp.19"* %533, i32 0, i32 0
  %535 = getelementptr inbounds %"struct.std::__1::basic_string<char, std::__1::char_traits<char>, std::__1::allocator<char> >::__rep", %"struct.std::__1::basic_string<char, std::__1::char_traits<char>, std::__1::allocator<char> >::__rep"* %534, i32 0, i32 0
  %536 = bitcast %union.anon* %535 to %"struct.std::__1::basic_string<char, std::__1::char_traits<char>, std::__1::allocator<char> >::__short"*
  %537 = getelementptr inbounds %"struct.std::__1::basic_string<char, std::__1::char_traits<char>, std::__1::allocator<char> >::__short", %"struct.std::__1::basic_string<char, std::__1::char_traits<char>, std::__1::allocator<char> >::__short"* %536, i32 0, i32 0
  %538 = bitcast %union.anon.20* %537 to i8*
  %539 = load i8, i8* %538, align 8
  %540 = zext i8 %539 to i32
  %541 = and i32 %540, 1
  %542 = icmp ne i32 %541, 0
  br i1 %542, label %543, label %554

; <label>:543:                                    ; preds = %524
  store %"class.std::__1::basic_string"* %528, %"class.std::__1::basic_string"** %67, align 8
  %544 = load %"class.std::__1::basic_string"*, %"class.std::__1::basic_string"** %67, align 8
  %545 = getelementptr inbounds %"class.std::__1::basic_string", %"class.std::__1::basic_string"* %544, i32 0, i32 0
  store %"class.std::__1::__compressed_pair.18"* %545, %"class.std::__1::__compressed_pair.18"** %66, align 8
  %546 = load %"class.std::__1::__compressed_pair.18"*, %"class.std::__1::__compressed_pair.18"** %66, align 8
  %547 = bitcast %"class.std::__1::__compressed_pair.18"* %546 to %"class.std::__1::__libcpp_compressed_pair_imp.19"*
  store %"class.std::__1::__libcpp_compressed_pair_imp.19"* %547, %"class.std::__1::__libcpp_compressed_pair_imp.19"** %65, align 8
  %548 = load %"class.std::__1::__libcpp_compressed_pair_imp.19"*, %"class.std::__1::__libcpp_compressed_pair_imp.19"** %65, align 8
  %549 = getelementptr inbounds %"class.std::__1::__libcpp_compressed_pair_imp.19", %"class.std::__1::__libcpp_compressed_pair_imp.19"* %548, i32 0, i32 0
  %550 = getelementptr inbounds %"struct.std::__1::basic_string<char, std::__1::char_traits<char>, std::__1::allocator<char> >::__rep", %"struct.std::__1::basic_string<char, std::__1::char_traits<char>, std::__1::allocator<char> >::__rep"* %549, i32 0, i32 0
  %551 = bitcast %union.anon* %550 to %"struct.std::__1::basic_string<char, std::__1::char_traits<char>, std::__1::allocator<char> >::__long"*
  %552 = getelementptr inbounds %"struct.std::__1::basic_string<char, std::__1::char_traits<char>, std::__1::allocator<char> >::__long", %"struct.std::__1::basic_string<char, std::__1::char_traits<char>, std::__1::allocator<char> >::__long"* %551, i32 0, i32 1
  %553 = load i64, i64* %552, align 8
  br label %569

; <label>:554:                                    ; preds = %524
  store %"class.std::__1::basic_string"* %528, %"class.std::__1::basic_string"** %70, align 8
  %555 = load %"class.std::__1::basic_string"*, %"class.std::__1::basic_string"** %70, align 8
  %556 = getelementptr inbounds %"class.std::__1::basic_string", %"class.std::__1::basic_string"* %555, i32 0, i32 0
  store %"class.std::__1::__compressed_pair.18"* %556, %"class.std::__1::__compressed_pair.18"** %69, align 8
  %557 = load %"class.std::__1::__compressed_pair.18"*, %"class.std::__1::__compressed_pair.18"** %69, align 8
  %558 = bitcast %"class.std::__1::__compressed_pair.18"* %557 to %"class.std::__1::__libcpp_compressed_pair_imp.19"*
  store %"class.std::__1::__libcpp_compressed_pair_imp.19"* %558, %"class.std::__1::__libcpp_compressed_pair_imp.19"** %68, align 8
  %559 = load %"class.std::__1::__libcpp_compressed_pair_imp.19"*, %"class.std::__1::__libcpp_compressed_pair_imp.19"** %68, align 8
  %560 = getelementptr inbounds %"class.std::__1::__libcpp_compressed_pair_imp.19", %"class.std::__1::__libcpp_compressed_pair_imp.19"* %559, i32 0, i32 0
  %561 = getelementptr inbounds %"struct.std::__1::basic_string<char, std::__1::char_traits<char>, std::__1::allocator<char> >::__rep", %"struct.std::__1::basic_string<char, std::__1::char_traits<char>, std::__1::allocator<char> >::__rep"* %560, i32 0, i32 0
  %562 = bitcast %union.anon* %561 to %"struct.std::__1::basic_string<char, std::__1::char_traits<char>, std::__1::allocator<char> >::__short"*
  %563 = getelementptr inbounds %"struct.std::__1::basic_string<char, std::__1::char_traits<char>, std::__1::allocator<char> >::__short", %"struct.std::__1::basic_string<char, std::__1::char_traits<char>, std::__1::allocator<char> >::__short"* %562, i32 0, i32 0
  %564 = bitcast %union.anon.20* %563 to i8*
  %565 = load i8, i8* %564, align 8
  %566 = zext i8 %565 to i32
  %567 = ashr i32 %566, 1
  %568 = sext i32 %567 to i64
  br label %569

; <label>:569:                                    ; preds = %554, %543
  %570 = phi i64 [ %553, %543 ], [ %568, %554 ]
  %571 = icmp ne i64 %526, %570
  br i1 %571, label %572, label %573

; <label>:572:                                    ; preds = %569
  store i1 false, i1* %85, align 1
  br label %708

; <label>:573:                                    ; preds = %569
  %574 = load %"class.std::__1::basic_string"*, %"class.std::__1::basic_string"** %86, align 8
  store %"class.std::__1::basic_string"* %574, %"class.std::__1::basic_string"** %64, align 8
  %575 = load %"class.std::__1::basic_string"*, %"class.std::__1::basic_string"** %64, align 8
  store %"class.std::__1::basic_string"* %575, %"class.std::__1::basic_string"** %63, align 8
  %576 = load %"class.std::__1::basic_string"*, %"class.std::__1::basic_string"** %63, align 8
  store %"class.std::__1::basic_string"* %576, %"class.std::__1::basic_string"** %62, align 8
  %577 = load %"class.std::__1::basic_string"*, %"class.std::__1::basic_string"** %62, align 8
  %578 = getelementptr inbounds %"class.std::__1::basic_string", %"class.std::__1::basic_string"* %577, i32 0, i32 0
  store %"class.std::__1::__compressed_pair.18"* %578, %"class.std::__1::__compressed_pair.18"** %61, align 8
  %579 = load %"class.std::__1::__compressed_pair.18"*, %"class.std::__1::__compressed_pair.18"** %61, align 8
  %580 = bitcast %"class.std::__1::__compressed_pair.18"* %579 to %"class.std::__1::__libcpp_compressed_pair_imp.19"*
  store %"class.std::__1::__libcpp_compressed_pair_imp.19"* %580, %"class.std::__1::__libcpp_compressed_pair_imp.19"** %60, align 8
  %581 = load %"class.std::__1::__libcpp_compressed_pair_imp.19"*, %"class.std::__1::__libcpp_compressed_pair_imp.19"** %60, align 8
  %582 = getelementptr inbounds %"class.std::__1::__libcpp_compressed_pair_imp.19", %"class.std::__1::__libcpp_compressed_pair_imp.19"* %581, i32 0, i32 0
  %583 = getelementptr inbounds %"struct.std::__1::basic_string<char, std::__1::char_traits<char>, std::__1::allocator<char> >::__rep", %"struct.std::__1::basic_string<char, std::__1::char_traits<char>, std::__1::allocator<char> >::__rep"* %582, i32 0, i32 0
  %584 = bitcast %union.anon* %583 to %"struct.std::__1::basic_string<char, std::__1::char_traits<char>, std::__1::allocator<char> >::__short"*
  %585 = getelementptr inbounds %"struct.std::__1::basic_string<char, std::__1::char_traits<char>, std::__1::allocator<char> >::__short", %"struct.std::__1::basic_string<char, std::__1::char_traits<char>, std::__1::allocator<char> >::__short"* %584, i32 0, i32 0
  %586 = bitcast %union.anon.20* %585 to i8*
  %587 = load i8, i8* %586, align 8
  %588 = zext i8 %587 to i32
  %589 = and i32 %588, 1
  %590 = icmp ne i32 %589, 0
  br i1 %590, label %591, label %602

; <label>:591:                                    ; preds = %573
  store %"class.std::__1::basic_string"* %576, %"class.std::__1::basic_string"** %54, align 8
  %592 = load %"class.std::__1::basic_string"*, %"class.std::__1::basic_string"** %54, align 8
  %593 = getelementptr inbounds %"class.std::__1::basic_string", %"class.std::__1::basic_string"* %592, i32 0, i32 0
  store %"class.std::__1::__compressed_pair.18"* %593, %"class.std::__1::__compressed_pair.18"** %53, align 8
  %594 = load %"class.std::__1::__compressed_pair.18"*, %"class.std::__1::__compressed_pair.18"** %53, align 8
  %595 = bitcast %"class.std::__1::__compressed_pair.18"* %594 to %"class.std::__1::__libcpp_compressed_pair_imp.19"*
  store %"class.std::__1::__libcpp_compressed_pair_imp.19"* %595, %"class.std::__1::__libcpp_compressed_pair_imp.19"** %52, align 8
  %596 = load %"class.std::__1::__libcpp_compressed_pair_imp.19"*, %"class.std::__1::__libcpp_compressed_pair_imp.19"** %52, align 8
  %597 = getelementptr inbounds %"class.std::__1::__libcpp_compressed_pair_imp.19", %"class.std::__1::__libcpp_compressed_pair_imp.19"* %596, i32 0, i32 0
  %598 = getelementptr inbounds %"struct.std::__1::basic_string<char, std::__1::char_traits<char>, std::__1::allocator<char> >::__rep", %"struct.std::__1::basic_string<char, std::__1::char_traits<char>, std::__1::allocator<char> >::__rep"* %597, i32 0, i32 0
  %599 = bitcast %union.anon* %598 to %"struct.std::__1::basic_string<char, std::__1::char_traits<char>, std::__1::allocator<char> >::__long"*
  %600 = getelementptr inbounds %"struct.std::__1::basic_string<char, std::__1::char_traits<char>, std::__1::allocator<char> >::__long", %"struct.std::__1::basic_string<char, std::__1::char_traits<char>, std::__1::allocator<char> >::__long"* %599, i32 0, i32 2
  %601 = load i8*, i8** %600, align 8
  br label %615

; <label>:602:                                    ; preds = %573
  store %"class.std::__1::basic_string"* %576, %"class.std::__1::basic_string"** %59, align 8
  %603 = load %"class.std::__1::basic_string"*, %"class.std::__1::basic_string"** %59, align 8
  %604 = getelementptr inbounds %"class.std::__1::basic_string", %"class.std::__1::basic_string"* %603, i32 0, i32 0
  store %"class.std::__1::__compressed_pair.18"* %604, %"class.std::__1::__compressed_pair.18"** %58, align 8
  %605 = load %"class.std::__1::__compressed_pair.18"*, %"class.std::__1::__compressed_pair.18"** %58, align 8
  %606 = bitcast %"class.std::__1::__compressed_pair.18"* %605 to %"class.std::__1::__libcpp_compressed_pair_imp.19"*
  store %"class.std::__1::__libcpp_compressed_pair_imp.19"* %606, %"class.std::__1::__libcpp_compressed_pair_imp.19"** %57, align 8
  %607 = load %"class.std::__1::__libcpp_compressed_pair_imp.19"*, %"class.std::__1::__libcpp_compressed_pair_imp.19"** %57, align 8
  %608 = getelementptr inbounds %"class.std::__1::__libcpp_compressed_pair_imp.19", %"class.std::__1::__libcpp_compressed_pair_imp.19"* %607, i32 0, i32 0
  %609 = getelementptr inbounds %"struct.std::__1::basic_string<char, std::__1::char_traits<char>, std::__1::allocator<char> >::__rep", %"struct.std::__1::basic_string<char, std::__1::char_traits<char>, std::__1::allocator<char> >::__rep"* %608, i32 0, i32 0
  %610 = bitcast %union.anon* %609 to %"struct.std::__1::basic_string<char, std::__1::char_traits<char>, std::__1::allocator<char> >::__short"*
  %611 = getelementptr inbounds %"struct.std::__1::basic_string<char, std::__1::char_traits<char>, std::__1::allocator<char> >::__short", %"struct.std::__1::basic_string<char, std::__1::char_traits<char>, std::__1::allocator<char> >::__short"* %610, i32 0, i32 1
  %612 = getelementptr inbounds [23 x i8], [23 x i8]* %611, i64 0, i64 0
  store i8* %612, i8** %56, align 8
  %613 = load i8*, i8** %56, align 8
  store i8* %613, i8** %55, align 8
  %614 = load i8*, i8** %55, align 8
  br label %615

; <label>:615:                                    ; preds = %602, %591
  %616 = phi i8* [ %601, %591 ], [ %614, %602 ]
  store i8* %616, i8** %51, align 8
  %617 = load i8*, i8** %51, align 8
  store i8* %617, i8** %89, align 8
  %618 = load %"class.std::__1::basic_string"*, %"class.std::__1::basic_string"** %87, align 8
  store %"class.std::__1::basic_string"* %618, %"class.std::__1::basic_string"** %47, align 8
  %619 = load %"class.std::__1::basic_string"*, %"class.std::__1::basic_string"** %47, align 8
  store %"class.std::__1::basic_string"* %619, %"class.std::__1::basic_string"** %46, align 8
  %620 = load %"class.std::__1::basic_string"*, %"class.std::__1::basic_string"** %46, align 8
  store %"class.std::__1::basic_string"* %620, %"class.std::__1::basic_string"** %45, align 8
  %621 = load %"class.std::__1::basic_string"*, %"class.std::__1::basic_string"** %45, align 8
  %622 = getelementptr inbounds %"class.std::__1::basic_string", %"class.std::__1::basic_string"* %621, i32 0, i32 0
  store %"class.std::__1::__compressed_pair.18"* %622, %"class.std::__1::__compressed_pair.18"** %44, align 8
  %623 = load %"class.std::__1::__compressed_pair.18"*, %"class.std::__1::__compressed_pair.18"** %44, align 8
  %624 = bitcast %"class.std::__1::__compressed_pair.18"* %623 to %"class.std::__1::__libcpp_compressed_pair_imp.19"*
  store %"class.std::__1::__libcpp_compressed_pair_imp.19"* %624, %"class.std::__1::__libcpp_compressed_pair_imp.19"** %43, align 8
  %625 = load %"class.std::__1::__libcpp_compressed_pair_imp.19"*, %"class.std::__1::__libcpp_compressed_pair_imp.19"** %43, align 8
  %626 = getelementptr inbounds %"class.std::__1::__libcpp_compressed_pair_imp.19", %"class.std::__1::__libcpp_compressed_pair_imp.19"* %625, i32 0, i32 0
  %627 = getelementptr inbounds %"struct.std::__1::basic_string<char, std::__1::char_traits<char>, std::__1::allocator<char> >::__rep", %"struct.std::__1::basic_string<char, std::__1::char_traits<char>, std::__1::allocator<char> >::__rep"* %626, i32 0, i32 0
  %628 = bitcast %union.anon* %627 to %"struct.std::__1::basic_string<char, std::__1::char_traits<char>, std::__1::allocator<char> >::__short"*
  %629 = getelementptr inbounds %"struct.std::__1::basic_string<char, std::__1::char_traits<char>, std::__1::allocator<char> >::__short", %"struct.std::__1::basic_string<char, std::__1::char_traits<char>, std::__1::allocator<char> >::__short"* %628, i32 0, i32 0
  %630 = bitcast %union.anon.20* %629 to i8*
  %631 = load i8, i8* %630, align 8
  %632 = zext i8 %631 to i32
  %633 = and i32 %632, 1
  %634 = icmp ne i32 %633, 0
  br i1 %634, label %635, label %646

; <label>:635:                                    ; preds = %615
  store %"class.std::__1::basic_string"* %620, %"class.std::__1::basic_string"** %37, align 8
  %636 = load %"class.std::__1::basic_string"*, %"class.std::__1::basic_string"** %37, align 8
  %637 = getelementptr inbounds %"class.std::__1::basic_string", %"class.std::__1::basic_string"* %636, i32 0, i32 0
  store %"class.std::__1::__compressed_pair.18"* %637, %"class.std::__1::__compressed_pair.18"** %36, align 8
  %638 = load %"class.std::__1::__compressed_pair.18"*, %"class.std::__1::__compressed_pair.18"** %36, align 8
  %639 = bitcast %"class.std::__1::__compressed_pair.18"* %638 to %"class.std::__1::__libcpp_compressed_pair_imp.19"*
  store %"class.std::__1::__libcpp_compressed_pair_imp.19"* %639, %"class.std::__1::__libcpp_compressed_pair_imp.19"** %35, align 8
  %640 = load %"class.std::__1::__libcpp_compressed_pair_imp.19"*, %"class.std::__1::__libcpp_compressed_pair_imp.19"** %35, align 8
  %641 = getelementptr inbounds %"class.std::__1::__libcpp_compressed_pair_imp.19", %"class.std::__1::__libcpp_compressed_pair_imp.19"* %640, i32 0, i32 0
  %642 = getelementptr inbounds %"struct.std::__1::basic_string<char, std::__1::char_traits<char>, std::__1::allocator<char> >::__rep", %"struct.std::__1::basic_string<char, std::__1::char_traits<char>, std::__1::allocator<char> >::__rep"* %641, i32 0, i32 0
  %643 = bitcast %union.anon* %642 to %"struct.std::__1::basic_string<char, std::__1::char_traits<char>, std::__1::allocator<char> >::__long"*
  %644 = getelementptr inbounds %"struct.std::__1::basic_string<char, std::__1::char_traits<char>, std::__1::allocator<char> >::__long", %"struct.std::__1::basic_string<char, std::__1::char_traits<char>, std::__1::allocator<char> >::__long"* %643, i32 0, i32 2
  %645 = load i8*, i8** %644, align 8
  br label %659

; <label>:646:                                    ; preds = %615
  store %"class.std::__1::basic_string"* %620, %"class.std::__1::basic_string"** %42, align 8
  %647 = load %"class.std::__1::basic_string"*, %"class.std::__1::basic_string"** %42, align 8
  %648 = getelementptr inbounds %"class.std::__1::basic_string", %"class.std::__1::basic_string"* %647, i32 0, i32 0
  store %"class.std::__1::__compressed_pair.18"* %648, %"class.std::__1::__compressed_pair.18"** %41, align 8
  %649 = load %"class.std::__1::__compressed_pair.18"*, %"class.std::__1::__compressed_pair.18"** %41, align 8
  %650 = bitcast %"class.std::__1::__compressed_pair.18"* %649 to %"class.std::__1::__libcpp_compressed_pair_imp.19"*
  store %"class.std::__1::__libcpp_compressed_pair_imp.19"* %650, %"class.std::__1::__libcpp_compressed_pair_imp.19"** %40, align 8
  %651 = load %"class.std::__1::__libcpp_compressed_pair_imp.19"*, %"class.std::__1::__libcpp_compressed_pair_imp.19"** %40, align 8
  %652 = getelementptr inbounds %"class.std::__1::__libcpp_compressed_pair_imp.19", %"class.std::__1::__libcpp_compressed_pair_imp.19"* %651, i32 0, i32 0
  %653 = getelementptr inbounds %"struct.std::__1::basic_string<char, std::__1::char_traits<char>, std::__1::allocator<char> >::__rep", %"struct.std::__1::basic_string<char, std::__1::char_traits<char>, std::__1::allocator<char> >::__rep"* %652, i32 0, i32 0
  %654 = bitcast %union.anon* %653 to %"struct.std::__1::basic_string<char, std::__1::char_traits<char>, std::__1::allocator<char> >::__short"*
  %655 = getelementptr inbounds %"struct.std::__1::basic_string<char, std::__1::char_traits<char>, std::__1::allocator<char> >::__short", %"struct.std::__1::basic_string<char, std::__1::char_traits<char>, std::__1::allocator<char> >::__short"* %654, i32 0, i32 1
  %656 = getelementptr inbounds [23 x i8], [23 x i8]* %655, i64 0, i64 0
  store i8* %656, i8** %39, align 8
  %657 = load i8*, i8** %39, align 8
  store i8* %657, i8** %38, align 8
  %658 = load i8*, i8** %38, align 8
  br label %659

; <label>:659:                                    ; preds = %646, %635
  %660 = phi i8* [ %645, %635 ], [ %658, %646 ]
  store i8* %660, i8** %34, align 8
  %661 = load i8*, i8** %34, align 8
  store i8* %661, i8** %90, align 8
  %662 = load %"class.std::__1::basic_string"*, %"class.std::__1::basic_string"** %86, align 8
  store %"class.std::__1::basic_string"* %662, %"class.std::__1::basic_string"** %50, align 8
  %663 = load %"class.std::__1::basic_string"*, %"class.std::__1::basic_string"** %50, align 8
  %664 = getelementptr inbounds %"class.std::__1::basic_string", %"class.std::__1::basic_string"* %663, i32 0, i32 0
  store %"class.std::__1::__compressed_pair.18"* %664, %"class.std::__1::__compressed_pair.18"** %49, align 8
  %665 = load %"class.std::__1::__compressed_pair.18"*, %"class.std::__1::__compressed_pair.18"** %49, align 8
  %666 = bitcast %"class.std::__1::__compressed_pair.18"* %665 to %"class.std::__1::__libcpp_compressed_pair_imp.19"*
  store %"class.std::__1::__libcpp_compressed_pair_imp.19"* %666, %"class.std::__1::__libcpp_compressed_pair_imp.19"** %48, align 8
  %667 = load %"class.std::__1::__libcpp_compressed_pair_imp.19"*, %"class.std::__1::__libcpp_compressed_pair_imp.19"** %48, align 8
  %668 = getelementptr inbounds %"class.std::__1::__libcpp_compressed_pair_imp.19", %"class.std::__1::__libcpp_compressed_pair_imp.19"* %667, i32 0, i32 0
  %669 = getelementptr inbounds %"struct.std::__1::basic_string<char, std::__1::char_traits<char>, std::__1::allocator<char> >::__rep", %"struct.std::__1::basic_string<char, std::__1::char_traits<char>, std::__1::allocator<char> >::__rep"* %668, i32 0, i32 0
  %670 = bitcast %union.anon* %669 to %"struct.std::__1::basic_string<char, std::__1::char_traits<char>, std::__1::allocator<char> >::__short"*
  %671 = getelementptr inbounds %"struct.std::__1::basic_string<char, std::__1::char_traits<char>, std::__1::allocator<char> >::__short", %"struct.std::__1::basic_string<char, std::__1::char_traits<char>, std::__1::allocator<char> >::__short"* %670, i32 0, i32 0
  %672 = bitcast %union.anon.20* %671 to i8*
  %673 = load i8, i8* %672, align 8
  %674 = zext i8 %673 to i32
  %675 = and i32 %674, 1
  %676 = icmp ne i32 %675, 0
  br i1 %676, label %677, label %684

; <label>:677:                                    ; preds = %659
  %678 = load i8*, i8** %89, align 8
  %679 = load i8*, i8** %90, align 8
  %680 = load i64, i64* %88, align 8
  %681 = invoke i32 @_ZNSt3__111char_traitsIcE7compareEPKcS3_m(i8* %678, i8* %679, i64 %680)
          to label %682 unwind label %705

; <label>:682:                                    ; preds = %677
  %683 = icmp eq i32 %681, 0
  store i1 %683, i1* %85, align 1
  br label %708

; <label>:684:                                    ; preds = %659
  br label %685

; <label>:685:                                    ; preds = %697, %684
  %686 = load i64, i64* %88, align 8
  %687 = icmp ne i64 %686, 0
  br i1 %687, label %688, label %704

; <label>:688:                                    ; preds = %685
  %689 = load i8*, i8** %89, align 8
  %690 = load i8, i8* %689, align 1
  %691 = sext i8 %690 to i32
  %692 = load i8*, i8** %90, align 8
  %693 = load i8, i8* %692, align 1
  %694 = sext i8 %693 to i32
  %695 = icmp ne i32 %691, %694
  br i1 %695, label %696, label %697

; <label>:696:                                    ; preds = %688
  store i1 false, i1* %85, align 1
  br label %708

; <label>:697:                                    ; preds = %688
  %698 = load i64, i64* %88, align 8
  %699 = add i64 %698, -1
  store i64 %699, i64* %88, align 8
  %700 = load i8*, i8** %89, align 8
  %701 = getelementptr inbounds i8, i8* %700, i32 1
  store i8* %701, i8** %89, align 8
  %702 = load i8*, i8** %90, align 8
  %703 = getelementptr inbounds i8, i8* %702, i32 1
  store i8* %703, i8** %90, align 8
  br label %685

; <label>:704:                                    ; preds = %685
  store i1 true, i1* %85, align 1
  br label %708

; <label>:705:                                    ; preds = %677
  %706 = landingpad { i8*, i32 }
          catch i8* null
  %707 = extractvalue { i8*, i32 } %706, 0
  call void @__clang_call_terminate(i8* %707) #16
  unreachable

; <label>:708:                                    ; preds = %704, %696, %682, %572
  %709 = load i1, i1* %85, align 1
  br i1 %709, label %710, label %711

; <label>:710:                                    ; preds = %708
  br label %1150

; <label>:711:                                    ; preds = %708
  %712 = load %"struct.std::__1::__hash_node_base"*, %"struct.std::__1::__hash_node_base"** %292, align 8
  %713 = getelementptr inbounds %"struct.std::__1::__hash_node_base", %"struct.std::__1::__hash_node_base"* %712, i32 0, i32 0
  %714 = load %"struct.std::__1::__hash_node_base"*, %"struct.std::__1::__hash_node_base"** %713, align 8
  store %"struct.std::__1::__hash_node_base"* %714, %"struct.std::__1::__hash_node_base"** %292, align 8
  br label %420

; <label>:715:                                    ; preds = %456
  br label %716

; <label>:716:                                    ; preds = %715, %400
  br label %717

; <label>:717:                                    ; preds = %716, %2
  %718 = load i64, i64* %289, align 8
  %719 = load %"struct.std::__1::piecewise_construct_t"*, %"struct.std::__1::piecewise_construct_t"** %286, align 8
  store %"struct.std::__1::piecewise_construct_t"* %719, %"struct.std::__1::piecewise_construct_t"** %97, align 8
  %720 = load %"struct.std::__1::piecewise_construct_t"*, %"struct.std::__1::piecewise_construct_t"** %97, align 8
  %721 = load %"class.std::__1::tuple"*, %"class.std::__1::tuple"** %287, align 8
  store %"class.std::__1::tuple"* %721, %"class.std::__1::tuple"** %98, align 8
  %722 = load %"class.std::__1::tuple"*, %"class.std::__1::tuple"** %98, align 8
  %723 = load %"class.std::__1::tuple.91"*, %"class.std::__1::tuple.91"** %288, align 8
  store %"class.std::__1::tuple.91"* %723, %"class.std::__1::tuple.91"** %99, align 8
  %724 = load %"class.std::__1::tuple.91"*, %"class.std::__1::tuple.91"** %99, align 8
  call void @_ZNSt3__112__hash_tableINS_17__hash_value_typeINS_12basic_stringIcNS_11char_traitsIcEENS_9allocatorIcEEEEPN4llvm8ConstantEEENS_22__unordered_map_hasherIS7_SB_NS_4hashIS7_EELb1EEENS_21__unordered_map_equalIS7_SB_NS_8equal_toIS7_EELb1EEENS5_ISB_EEE21__construct_node_hashIRKNS_21piecewise_construct_tEJNS_5tupleIJOS7_EEENSQ_IJEEEEEENS_10unique_ptrINS_11__hash_nodeISB_PvEENS_22__hash_node_destructorINS5_ISX_EEEEEEmOT_DpOT0_(%"class.std::__1::unique_ptr.94"* sret %294, %"class.std::__1::__hash_table"* %346, i64 %718, %"struct.std::__1::piecewise_construct_t"* dereferenceable(1) %720, %"class.std::__1::tuple"* dereferenceable(8) %722, %"class.std::__1::tuple.91"* dereferenceable(1) %724)
  store %"class.std::__1::__hash_table"* %346, %"class.std::__1::__hash_table"** %105, align 8
  %725 = load %"class.std::__1::__hash_table"*, %"class.std::__1::__hash_table"** %105, align 8
  %726 = getelementptr inbounds %"class.std::__1::__hash_table", %"class.std::__1::__hash_table"* %725, i32 0, i32 2
  store %"class.std::__1::__compressed_pair.48"* %726, %"class.std::__1::__compressed_pair.48"** %104, align 8
  %727 = load %"class.std::__1::__compressed_pair.48"*, %"class.std::__1::__compressed_pair.48"** %104, align 8
  %728 = bitcast %"class.std::__1::__compressed_pair.48"* %727 to %"class.std::__1::__libcpp_compressed_pair_imp.49"*
  store %"class.std::__1::__libcpp_compressed_pair_imp.49"* %728, %"class.std::__1::__libcpp_compressed_pair_imp.49"** %103, align 8
  %729 = load %"class.std::__1::__libcpp_compressed_pair_imp.49"*, %"class.std::__1::__libcpp_compressed_pair_imp.49"** %103, align 8
  %730 = getelementptr inbounds %"class.std::__1::__libcpp_compressed_pair_imp.49", %"class.std::__1::__libcpp_compressed_pair_imp.49"* %729, i32 0, i32 0
  %731 = load i64, i64* %730, align 8
  %732 = add i64 %731, 1
  %733 = uitofp i64 %732 to float
  %734 = load i64, i64* %290, align 8
  %735 = uitofp i64 %734 to float
  store %"class.std::__1::__hash_table"* %346, %"class.std::__1::__hash_table"** %108, align 8
  %736 = load %"class.std::__1::__hash_table"*, %"class.std::__1::__hash_table"** %108, align 8
  %737 = getelementptr inbounds %"class.std::__1::__hash_table", %"class.std::__1::__hash_table"* %736, i32 0, i32 3
  store %"class.std::__1::__compressed_pair.50"* %737, %"class.std::__1::__compressed_pair.50"** %107, align 8
  %738 = load %"class.std::__1::__compressed_pair.50"*, %"class.std::__1::__compressed_pair.50"** %107, align 8
  %739 = bitcast %"class.std::__1::__compressed_pair.50"* %738 to %"class.std::__1::__libcpp_compressed_pair_imp.51"*
  store %"class.std::__1::__libcpp_compressed_pair_imp.51"* %739, %"class.std::__1::__libcpp_compressed_pair_imp.51"** %106, align 8
  %740 = load %"class.std::__1::__libcpp_compressed_pair_imp.51"*, %"class.std::__1::__libcpp_compressed_pair_imp.51"** %106, align 8
  %741 = getelementptr inbounds %"class.std::__1::__libcpp_compressed_pair_imp.51", %"class.std::__1::__libcpp_compressed_pair_imp.51"* %740, i32 0, i32 0
  %742 = load float, float* %741, align 4
  %743 = fmul float %735, %742
  %744 = fcmp ogt float %733, %743
  br i1 %744, label %748, label %745

; <label>:745:                                    ; preds = %717
  %746 = load i64, i64* %290, align 8
  %747 = icmp eq i64 %746, 0
  br i1 %747, label %748, label %910

; <label>:748:                                    ; preds = %745, %717
  %749 = load i64, i64* %290, align 8
  %750 = mul i64 2, %749
  %751 = load i64, i64* %290, align 8
  store i64 %751, i64* %109, align 8
  %752 = load i64, i64* %109, align 8
  %753 = icmp ugt i64 %752, 2
  br i1 %753, label %754, label %761

; <label>:754:                                    ; preds = %748
  %755 = load i64, i64* %109, align 8
  %756 = load i64, i64* %109, align 8
  %757 = sub i64 %756, 1
  %758 = and i64 %755, %757
  %759 = icmp ne i64 %758, 0
  %760 = xor i1 %759, true
  br label %761

; <label>:761:                                    ; preds = %754, %748
  %762 = phi i1 [ false, %748 ], [ %760, %754 ]
  %763 = xor i1 %762, true
  %764 = zext i1 %763 to i64
  %765 = add i64 %750, %764
  store i64 %765, i64* %295, align 8
  store %"class.std::__1::__hash_table"* %346, %"class.std::__1::__hash_table"** %112, align 8
  %766 = load %"class.std::__1::__hash_table"*, %"class.std::__1::__hash_table"** %112, align 8
  %767 = getelementptr inbounds %"class.std::__1::__hash_table", %"class.std::__1::__hash_table"* %766, i32 0, i32 2
  store %"class.std::__1::__compressed_pair.48"* %767, %"class.std::__1::__compressed_pair.48"** %111, align 8
  %768 = load %"class.std::__1::__compressed_pair.48"*, %"class.std::__1::__compressed_pair.48"** %111, align 8
  %769 = bitcast %"class.std::__1::__compressed_pair.48"* %768 to %"class.std::__1::__libcpp_compressed_pair_imp.49"*
  store %"class.std::__1::__libcpp_compressed_pair_imp.49"* %769, %"class.std::__1::__libcpp_compressed_pair_imp.49"** %110, align 8
  %770 = load %"class.std::__1::__libcpp_compressed_pair_imp.49"*, %"class.std::__1::__libcpp_compressed_pair_imp.49"** %110, align 8
  %771 = getelementptr inbounds %"class.std::__1::__libcpp_compressed_pair_imp.49", %"class.std::__1::__libcpp_compressed_pair_imp.49"* %770, i32 0, i32 0
  %772 = load i64, i64* %771, align 8
  %773 = add i64 %772, 1
  %774 = uitofp i64 %773 to float
  store %"class.std::__1::__hash_table"* %346, %"class.std::__1::__hash_table"** %115, align 8
  %775 = load %"class.std::__1::__hash_table"*, %"class.std::__1::__hash_table"** %115, align 8
  %776 = getelementptr inbounds %"class.std::__1::__hash_table", %"class.std::__1::__hash_table"* %775, i32 0, i32 3
  store %"class.std::__1::__compressed_pair.50"* %776, %"class.std::__1::__compressed_pair.50"** %114, align 8
  %777 = load %"class.std::__1::__compressed_pair.50"*, %"class.std::__1::__compressed_pair.50"** %114, align 8
  %778 = bitcast %"class.std::__1::__compressed_pair.50"* %777 to %"class.std::__1::__libcpp_compressed_pair_imp.51"*
  store %"class.std::__1::__libcpp_compressed_pair_imp.51"* %778, %"class.std::__1::__libcpp_compressed_pair_imp.51"** %113, align 8
  %779 = load %"class.std::__1::__libcpp_compressed_pair_imp.51"*, %"class.std::__1::__libcpp_compressed_pair_imp.51"** %113, align 8
  %780 = getelementptr inbounds %"class.std::__1::__libcpp_compressed_pair_imp.51", %"class.std::__1::__libcpp_compressed_pair_imp.51"* %779, i32 0, i32 0
  %781 = load float, float* %780, align 4
  %782 = fdiv float %774, %781
  store float %782, float* %119, align 4
  %783 = load float, float* %119, align 4
  %784 = call float @ceilf(float %783) #12
  %785 = fptoui float %784 to i64
  store i64 %785, i64* %298, align 8
  store i64* %295, i64** %126, align 8
  store i64* %298, i64** %127, align 8
  %786 = load i64*, i64** %126, align 8
  %787 = load i64*, i64** %127, align 8
  store i64* %786, i64** %124, align 8
  store i64* %787, i64** %125, align 8
  %788 = load i64*, i64** %124, align 8
  %789 = load i64*, i64** %125, align 8
  store %"struct.std::__1::__less"* %123, %"struct.std::__1::__less"** %120, align 8
  store i64* %788, i64** %121, align 8
  store i64* %789, i64** %122, align 8
  %790 = load %"struct.std::__1::__less"*, %"struct.std::__1::__less"** %120, align 8
  %791 = load i64*, i64** %121, align 8
  %792 = load i64, i64* %791, align 8
  %793 = load i64*, i64** %122, align 8
  %794 = load i64, i64* %793, align 8
  %795 = icmp ult i64 %792, %794
  br i1 %795, label %796, label %798

; <label>:796:                                    ; preds = %761
  %797 = load i64*, i64** %125, align 8
  br label %800

; <label>:798:                                    ; preds = %761
  %799 = load i64*, i64** %124, align 8
  br label %800

; <label>:800:                                    ; preds = %798, %796
  %801 = phi i64* [ %797, %796 ], [ %799, %798 ]
  %802 = load i64, i64* %801, align 8
  invoke void @_ZNSt3__112__hash_tableINS_17__hash_value_typeINS_12basic_stringIcNS_11char_traitsIcEENS_9allocatorIcEEEEPN4llvm8ConstantEEENS_22__unordered_map_hasherIS7_SB_NS_4hashIS7_EELb1EEENS_21__unordered_map_equalIS7_SB_NS_8equal_toIS7_EELb1EEENS5_ISB_EEE6rehashEm(%"class.std::__1::__hash_table"* %346, i64 %802)
          to label %803 unwind label %845

; <label>:803:                                    ; preds = %800
  store %"class.std::__1::__hash_table"* %346, %"class.std::__1::__hash_table"** %137, align 8
  %804 = load %"class.std::__1::__hash_table"*, %"class.std::__1::__hash_table"** %137, align 8
  %805 = getelementptr inbounds %"class.std::__1::__hash_table", %"class.std::__1::__hash_table"* %804, i32 0, i32 0
  store %"class.std::__1::unique_ptr.37"* %805, %"class.std::__1::unique_ptr.37"** %136, align 8
  %806 = load %"class.std::__1::unique_ptr.37"*, %"class.std::__1::unique_ptr.37"** %136, align 8
  %807 = getelementptr inbounds %"class.std::__1::unique_ptr.37", %"class.std::__1::unique_ptr.37"* %806, i32 0, i32 0
  store %"class.std::__1::__compressed_pair.38"* %807, %"class.std::__1::__compressed_pair.38"** %135, align 8
  %808 = load %"class.std::__1::__compressed_pair.38"*, %"class.std::__1::__compressed_pair.38"** %135, align 8
  %809 = bitcast %"class.std::__1::__compressed_pair.38"* %808 to %"class.std::__1::__libcpp_compressed_pair_imp.39"*
  store %"class.std::__1::__libcpp_compressed_pair_imp.39"* %809, %"class.std::__1::__libcpp_compressed_pair_imp.39"** %134, align 8
  %810 = load %"class.std::__1::__libcpp_compressed_pair_imp.39"*, %"class.std::__1::__libcpp_compressed_pair_imp.39"** %134, align 8
  %811 = getelementptr inbounds %"class.std::__1::__libcpp_compressed_pair_imp.39", %"class.std::__1::__libcpp_compressed_pair_imp.39"* %810, i32 0, i32 1
  store %"class.std::__1::__bucket_list_deallocator"* %811, %"class.std::__1::__bucket_list_deallocator"** %133, align 8
  %812 = load %"class.std::__1::__bucket_list_deallocator"*, %"class.std::__1::__bucket_list_deallocator"** %133, align 8
  %813 = getelementptr inbounds %"class.std::__1::__bucket_list_deallocator", %"class.std::__1::__bucket_list_deallocator"* %812, i32 0, i32 0
  store %"class.std::__1::__compressed_pair.40"* %813, %"class.std::__1::__compressed_pair.40"** %132, align 8
  %814 = load %"class.std::__1::__compressed_pair.40"*, %"class.std::__1::__compressed_pair.40"** %132, align 8
  %815 = bitcast %"class.std::__1::__compressed_pair.40"* %814 to %"class.std::__1::__libcpp_compressed_pair_imp.41"*
  store %"class.std::__1::__libcpp_compressed_pair_imp.41"* %815, %"class.std::__1::__libcpp_compressed_pair_imp.41"** %131, align 8
  %816 = load %"class.std::__1::__libcpp_compressed_pair_imp.41"*, %"class.std::__1::__libcpp_compressed_pair_imp.41"** %131, align 8
  %817 = getelementptr inbounds %"class.std::__1::__libcpp_compressed_pair_imp.41", %"class.std::__1::__libcpp_compressed_pair_imp.41"* %816, i32 0, i32 0
  %818 = load i64, i64* %817, align 8
  store i64 %818, i64* %290, align 8
  %819 = load i64, i64* %289, align 8
  %820 = load i64, i64* %290, align 8
  store i64 %819, i64* %138, align 8
  store i64 %820, i64* %139, align 8
  %821 = load i64, i64* %139, align 8
  %822 = load i64, i64* %139, align 8
  %823 = sub i64 %822, 1
  %824 = and i64 %821, %823
  %825 = icmp ne i64 %824, 0
  br i1 %825, label %831, label %826

; <label>:826:                                    ; preds = %803
  %827 = load i64, i64* %138, align 8
  %828 = load i64, i64* %139, align 8
  %829 = sub i64 %828, 1
  %830 = and i64 %827, %829
  br label %843

; <label>:831:                                    ; preds = %803
  %832 = load i64, i64* %138, align 8
  %833 = load i64, i64* %139, align 8
  %834 = icmp ult i64 %832, %833
  br i1 %834, label %835, label %837

; <label>:835:                                    ; preds = %831
  %836 = load i64, i64* %138, align 8
  br label %841

; <label>:837:                                    ; preds = %831
  %838 = load i64, i64* %138, align 8
  %839 = load i64, i64* %139, align 8
  %840 = urem i64 %838, %839
  br label %841

; <label>:841:                                    ; preds = %837, %835
  %842 = phi i64 [ %836, %835 ], [ %840, %837 ]
  br label %843

; <label>:843:                                    ; preds = %841, %826
  %844 = phi i64 [ %830, %826 ], [ %842, %841 ]
  store i64 %844, i64* %293, align 8
  br label %910

; <label>:845:                                    ; preds = %800
  %846 = landingpad { i8*, i32 }
          cleanup
  %847 = extractvalue { i8*, i32 } %846, 0
  store i8* %847, i8** %296, align 8
  %848 = extractvalue { i8*, i32 } %846, 1
  store i32 %848, i32* %297, align 4
  store %"class.std::__1::unique_ptr.94"* %294, %"class.std::__1::unique_ptr.94"** %172, align 8
  %849 = load %"class.std::__1::unique_ptr.94"*, %"class.std::__1::unique_ptr.94"** %172, align 8
  store %"class.std::__1::unique_ptr.94"* %849, %"class.std::__1::unique_ptr.94"** %171, align 8
  %850 = load %"class.std::__1::unique_ptr.94"*, %"class.std::__1::unique_ptr.94"** %171, align 8
  store %"class.std::__1::unique_ptr.94"* %850, %"class.std::__1::unique_ptr.94"** %168, align 8
  store %"struct.std::__1::__hash_node"* null, %"struct.std::__1::__hash_node"** %169, align 8
  %851 = load %"class.std::__1::unique_ptr.94"*, %"class.std::__1::unique_ptr.94"** %168, align 8
  %852 = getelementptr inbounds %"class.std::__1::unique_ptr.94", %"class.std::__1::unique_ptr.94"* %851, i32 0, i32 0
  store %"class.std::__1::__compressed_pair.95"* %852, %"class.std::__1::__compressed_pair.95"** %167, align 8
  %853 = load %"class.std::__1::__compressed_pair.95"*, %"class.std::__1::__compressed_pair.95"** %167, align 8
  %854 = bitcast %"class.std::__1::__compressed_pair.95"* %853 to %"class.std::__1::__libcpp_compressed_pair_imp.96"*
  store %"class.std::__1::__libcpp_compressed_pair_imp.96"* %854, %"class.std::__1::__libcpp_compressed_pair_imp.96"** %166, align 8
  %855 = load %"class.std::__1::__libcpp_compressed_pair_imp.96"*, %"class.std::__1::__libcpp_compressed_pair_imp.96"** %166, align 8
  %856 = getelementptr inbounds %"class.std::__1::__libcpp_compressed_pair_imp.96", %"class.std::__1::__libcpp_compressed_pair_imp.96"* %855, i32 0, i32 0
  %857 = load %"struct.std::__1::__hash_node"*, %"struct.std::__1::__hash_node"** %856, align 8
  store %"struct.std::__1::__hash_node"* %857, %"struct.std::__1::__hash_node"** %170, align 8
  %858 = load %"struct.std::__1::__hash_node"*, %"struct.std::__1::__hash_node"** %169, align 8
  %859 = getelementptr inbounds %"class.std::__1::unique_ptr.94", %"class.std::__1::unique_ptr.94"* %851, i32 0, i32 0
  store %"class.std::__1::__compressed_pair.95"* %859, %"class.std::__1::__compressed_pair.95"** %148, align 8
  %860 = load %"class.std::__1::__compressed_pair.95"*, %"class.std::__1::__compressed_pair.95"** %148, align 8
  %861 = bitcast %"class.std::__1::__compressed_pair.95"* %860 to %"class.std::__1::__libcpp_compressed_pair_imp.96"*
  store %"class.std::__1::__libcpp_compressed_pair_imp.96"* %861, %"class.std::__1::__libcpp_compressed_pair_imp.96"** %147, align 8
  %862 = load %"class.std::__1::__libcpp_compressed_pair_imp.96"*, %"class.std::__1::__libcpp_compressed_pair_imp.96"** %147, align 8
  %863 = getelementptr inbounds %"class.std::__1::__libcpp_compressed_pair_imp.96", %"class.std::__1::__libcpp_compressed_pair_imp.96"* %862, i32 0, i32 0
  store %"struct.std::__1::__hash_node"* %858, %"struct.std::__1::__hash_node"** %863, align 8
  %864 = load %"struct.std::__1::__hash_node"*, %"struct.std::__1::__hash_node"** %170, align 8
  %865 = icmp ne %"struct.std::__1::__hash_node"* %864, null
  br i1 %865, label %866, label %905

; <label>:866:                                    ; preds = %845
  %867 = getelementptr inbounds %"class.std::__1::unique_ptr.94", %"class.std::__1::unique_ptr.94"* %851, i32 0, i32 0
  store %"class.std::__1::__compressed_pair.95"* %867, %"class.std::__1::__compressed_pair.95"** %146, align 8
  %868 = load %"class.std::__1::__compressed_pair.95"*, %"class.std::__1::__compressed_pair.95"** %146, align 8
  %869 = bitcast %"class.std::__1::__compressed_pair.95"* %868 to %"class.std::__1::__libcpp_compressed_pair_imp.96"*
  store %"class.std::__1::__libcpp_compressed_pair_imp.96"* %869, %"class.std::__1::__libcpp_compressed_pair_imp.96"** %145, align 8
  %870 = load %"class.std::__1::__libcpp_compressed_pair_imp.96"*, %"class.std::__1::__libcpp_compressed_pair_imp.96"** %145, align 8
  %871 = getelementptr inbounds %"class.std::__1::__libcpp_compressed_pair_imp.96", %"class.std::__1::__libcpp_compressed_pair_imp.96"* %870, i32 0, i32 1
  %872 = load %"struct.std::__1::__hash_node"*, %"struct.std::__1::__hash_node"** %170, align 8
  store %"class.std::__1::__hash_node_destructor"* %871, %"class.std::__1::__hash_node_destructor"** %164, align 8
  store %"struct.std::__1::__hash_node"* %872, %"struct.std::__1::__hash_node"** %165, align 8
  %873 = load %"class.std::__1::__hash_node_destructor"*, %"class.std::__1::__hash_node_destructor"** %164, align 8
  %874 = getelementptr inbounds %"class.std::__1::__hash_node_destructor", %"class.std::__1::__hash_node_destructor"* %873, i32 0, i32 1
  %875 = load i8, i8* %874, align 8
  %876 = trunc i8 %875 to i1
  br i1 %876, label %877, label %890

; <label>:877:                                    ; preds = %866
  %878 = getelementptr inbounds %"class.std::__1::__hash_node_destructor", %"class.std::__1::__hash_node_destructor"* %873, i32 0, i32 0
  %879 = load %"class.std::__1::allocator.46"*, %"class.std::__1::allocator.46"** %878, align 8
  %880 = load %"struct.std::__1::__hash_node"*, %"struct.std::__1::__hash_node"** %165, align 8
  %881 = getelementptr inbounds %"struct.std::__1::__hash_node", %"struct.std::__1::__hash_node"* %880, i32 0, i32 2
  store %"union.std::__1::__hash_value_type"* %881, %"union.std::__1::__hash_value_type"** %163, align 8
  %882 = load %"union.std::__1::__hash_value_type"*, %"union.std::__1::__hash_value_type"** %163, align 8
  %883 = bitcast %"union.std::__1::__hash_value_type"* %882 to %"struct.std::__1::pair.92"*
  store %"struct.std::__1::pair.92"* %883, %"struct.std::__1::pair.92"** %162, align 8
  %884 = load %"struct.std::__1::pair.92"*, %"struct.std::__1::pair.92"** %162, align 8
  %885 = bitcast %"struct.std::__1::pair.92"* %884 to i8*
  store %"class.std::__1::allocator.46"* %879, %"class.std::__1::allocator.46"** %158, align 8
  store %"struct.std::__1::pair.92"* %884, %"struct.std::__1::pair.92"** %159, align 8
  %886 = bitcast %"struct.std::__1::__has_destroy"* %161 to %"struct.std::__1::integral_constant.99"*
  %887 = load %"class.std::__1::allocator.46"*, %"class.std::__1::allocator.46"** %158, align 8
  %888 = load %"struct.std::__1::pair.92"*, %"struct.std::__1::pair.92"** %159, align 8
  store %"class.std::__1::allocator.46"* %887, %"class.std::__1::allocator.46"** %156, align 8
  store %"struct.std::__1::pair.92"* %888, %"struct.std::__1::pair.92"** %157, align 8
  %889 = load %"struct.std::__1::pair.92"*, %"struct.std::__1::pair.92"** %157, align 8
  call void @_ZNSt3__14pairIKNS_12basic_stringIcNS_11char_traitsIcEENS_9allocatorIcEEEEPN4llvm8ConstantEED1Ev(%"struct.std::__1::pair.92"* %889) #14
  br label %890

; <label>:890:                                    ; preds = %877, %866
  %891 = load %"struct.std::__1::__hash_node"*, %"struct.std::__1::__hash_node"** %165, align 8
  %892 = icmp ne %"struct.std::__1::__hash_node"* %891, null
  br i1 %892, label %893, label %904

; <label>:893:                                    ; preds = %890
  %894 = getelementptr inbounds %"class.std::__1::__hash_node_destructor", %"class.std::__1::__hash_node_destructor"* %873, i32 0, i32 0
  %895 = load %"class.std::__1::allocator.46"*, %"class.std::__1::allocator.46"** %894, align 8
  %896 = load %"struct.std::__1::__hash_node"*, %"struct.std::__1::__hash_node"** %165, align 8
  store %"class.std::__1::allocator.46"* %895, %"class.std::__1::allocator.46"** %153, align 8
  store %"struct.std::__1::__hash_node"* %896, %"struct.std::__1::__hash_node"** %154, align 8
  store i64 1, i64* %155, align 8
  %897 = load %"class.std::__1::allocator.46"*, %"class.std::__1::allocator.46"** %153, align 8
  %898 = load %"struct.std::__1::__hash_node"*, %"struct.std::__1::__hash_node"** %154, align 8
  %899 = load i64, i64* %155, align 8
  store %"class.std::__1::allocator.46"* %897, %"class.std::__1::allocator.46"** %150, align 8
  store %"struct.std::__1::__hash_node"* %898, %"struct.std::__1::__hash_node"** %151, align 8
  store i64 %899, i64* %152, align 8
  %900 = load %"class.std::__1::allocator.46"*, %"class.std::__1::allocator.46"** %150, align 8
  %901 = load %"struct.std::__1::__hash_node"*, %"struct.std::__1::__hash_node"** %151, align 8
  %902 = bitcast %"struct.std::__1::__hash_node"* %901 to i8*
  store i8* %902, i8** %149, align 8
  %903 = load i8*, i8** %149, align 8
  call void @_ZdlPv(i8* %903) #17
  br label %904

; <label>:904:                                    ; preds = %893, %890
  br label %905

; <label>:905:                                    ; preds = %904, %845
  %906 = load i8*, i8** %296, align 8
  %907 = load i32, i32* %297, align 4
  %908 = insertvalue { i8*, i32 } undef, i8* %906, 0
  %909 = insertvalue { i8*, i32 } %908, i32 %907, 1
  resume { i8*, i32 } %909

; <label>:910:                                    ; preds = %843, %745
  %911 = getelementptr inbounds %"class.std::__1::__hash_table", %"class.std::__1::__hash_table"* %346, i32 0, i32 0
  %912 = load i64, i64* %293, align 8
  store %"class.std::__1::unique_ptr.37"* %911, %"class.std::__1::unique_ptr.37"** %175, align 8
  store i64 %912, i64* %176, align 8
  %913 = load %"class.std::__1::unique_ptr.37"*, %"class.std::__1::unique_ptr.37"** %175, align 8
  %914 = load i64, i64* %176, align 8
  %915 = getelementptr inbounds %"class.std::__1::unique_ptr.37", %"class.std::__1::unique_ptr.37"* %913, i32 0, i32 0
  store %"class.std::__1::__compressed_pair.38"* %915, %"class.std::__1::__compressed_pair.38"** %174, align 8
  %916 = load %"class.std::__1::__compressed_pair.38"*, %"class.std::__1::__compressed_pair.38"** %174, align 8
  %917 = bitcast %"class.std::__1::__compressed_pair.38"* %916 to %"class.std::__1::__libcpp_compressed_pair_imp.39"*
  store %"class.std::__1::__libcpp_compressed_pair_imp.39"* %917, %"class.std::__1::__libcpp_compressed_pair_imp.39"** %173, align 8
  %918 = load %"class.std::__1::__libcpp_compressed_pair_imp.39"*, %"class.std::__1::__libcpp_compressed_pair_imp.39"** %173, align 8
  %919 = getelementptr inbounds %"class.std::__1::__libcpp_compressed_pair_imp.39", %"class.std::__1::__libcpp_compressed_pair_imp.39"* %918, i32 0, i32 0
  %920 = load %"struct.std::__1::__hash_node_base"**, %"struct.std::__1::__hash_node_base"*** %919, align 8
  %921 = getelementptr inbounds %"struct.std::__1::__hash_node_base"*, %"struct.std::__1::__hash_node_base"** %920, i64 %914
  %922 = load %"struct.std::__1::__hash_node_base"*, %"struct.std::__1::__hash_node_base"** %921, align 8
  store %"struct.std::__1::__hash_node_base"* %922, %"struct.std::__1::__hash_node_base"** %299, align 8
  %923 = load %"struct.std::__1::__hash_node_base"*, %"struct.std::__1::__hash_node_base"** %299, align 8
  %924 = icmp eq %"struct.std::__1::__hash_node_base"* %923, null
  br i1 %924, label %925, label %1047

; <label>:925:                                    ; preds = %910
  %926 = getelementptr inbounds %"class.std::__1::__hash_table", %"class.std::__1::__hash_table"* %346, i32 0, i32 1
  store %"class.std::__1::__compressed_pair.44"* %926, %"class.std::__1::__compressed_pair.44"** %178, align 8
  %927 = load %"class.std::__1::__compressed_pair.44"*, %"class.std::__1::__compressed_pair.44"** %178, align 8
  %928 = bitcast %"class.std::__1::__compressed_pair.44"* %927 to %"class.std::__1::__libcpp_compressed_pair_imp.45"*
  store %"class.std::__1::__libcpp_compressed_pair_imp.45"* %928, %"class.std::__1::__libcpp_compressed_pair_imp.45"** %177, align 8
  %929 = load %"class.std::__1::__libcpp_compressed_pair_imp.45"*, %"class.std::__1::__libcpp_compressed_pair_imp.45"** %177, align 8
  %930 = getelementptr inbounds %"class.std::__1::__libcpp_compressed_pair_imp.45", %"class.std::__1::__libcpp_compressed_pair_imp.45"* %929, i32 0, i32 0
  store %"struct.std::__1::__hash_node_base"* %930, %"struct.std::__1::__hash_node_base"** %181, align 8
  %931 = load %"struct.std::__1::__hash_node_base"*, %"struct.std::__1::__hash_node_base"** %181, align 8
  store %"struct.std::__1::__hash_node_base"* %931, %"struct.std::__1::__hash_node_base"** %180, align 8
  %932 = load %"struct.std::__1::__hash_node_base"*, %"struct.std::__1::__hash_node_base"** %180, align 8
  store %"struct.std::__1::__hash_node_base"* %932, %"struct.std::__1::__hash_node_base"** %179, align 8
  %933 = load %"struct.std::__1::__hash_node_base"*, %"struct.std::__1::__hash_node_base"** %179, align 8
  %934 = bitcast %"struct.std::__1::__hash_node_base"* %933 to i8*
  store %"struct.std::__1::__hash_node_base"* %933, %"struct.std::__1::__hash_node_base"** %299, align 8
  %935 = load %"struct.std::__1::__hash_node_base"*, %"struct.std::__1::__hash_node_base"** %299, align 8
  %936 = getelementptr inbounds %"struct.std::__1::__hash_node_base", %"struct.std::__1::__hash_node_base"* %935, i32 0, i32 0
  %937 = load %"struct.std::__1::__hash_node_base"*, %"struct.std::__1::__hash_node_base"** %936, align 8
  store %"class.std::__1::unique_ptr.94"* %294, %"class.std::__1::unique_ptr.94"** %184, align 8
  %938 = load %"class.std::__1::unique_ptr.94"*, %"class.std::__1::unique_ptr.94"** %184, align 8
  %939 = getelementptr inbounds %"class.std::__1::unique_ptr.94", %"class.std::__1::unique_ptr.94"* %938, i32 0, i32 0
  store %"class.std::__1::__compressed_pair.95"* %939, %"class.std::__1::__compressed_pair.95"** %183, align 8
  %940 = load %"class.std::__1::__compressed_pair.95"*, %"class.std::__1::__compressed_pair.95"** %183, align 8
  %941 = bitcast %"class.std::__1::__compressed_pair.95"* %940 to %"class.std::__1::__libcpp_compressed_pair_imp.96"*
  store %"class.std::__1::__libcpp_compressed_pair_imp.96"* %941, %"class.std::__1::__libcpp_compressed_pair_imp.96"** %182, align 8
  %942 = load %"class.std::__1::__libcpp_compressed_pair_imp.96"*, %"class.std::__1::__libcpp_compressed_pair_imp.96"** %182, align 8
  %943 = getelementptr inbounds %"class.std::__1::__libcpp_compressed_pair_imp.96", %"class.std::__1::__libcpp_compressed_pair_imp.96"* %942, i32 0, i32 0
  %944 = load %"struct.std::__1::__hash_node"*, %"struct.std::__1::__hash_node"** %943, align 8
  %945 = bitcast %"struct.std::__1::__hash_node"* %944 to %"struct.std::__1::__hash_node_base"*
  %946 = getelementptr inbounds %"struct.std::__1::__hash_node_base", %"struct.std::__1::__hash_node_base"* %945, i32 0, i32 0
  store %"struct.std::__1::__hash_node_base"* %937, %"struct.std::__1::__hash_node_base"** %946, align 8
  store %"class.std::__1::unique_ptr.94"* %294, %"class.std::__1::unique_ptr.94"** %187, align 8
  %947 = load %"class.std::__1::unique_ptr.94"*, %"class.std::__1::unique_ptr.94"** %187, align 8
  %948 = getelementptr inbounds %"class.std::__1::unique_ptr.94", %"class.std::__1::unique_ptr.94"* %947, i32 0, i32 0
  store %"class.std::__1::__compressed_pair.95"* %948, %"class.std::__1::__compressed_pair.95"** %186, align 8
  %949 = load %"class.std::__1::__compressed_pair.95"*, %"class.std::__1::__compressed_pair.95"** %186, align 8
  %950 = bitcast %"class.std::__1::__compressed_pair.95"* %949 to %"class.std::__1::__libcpp_compressed_pair_imp.96"*
  store %"class.std::__1::__libcpp_compressed_pair_imp.96"* %950, %"class.std::__1::__libcpp_compressed_pair_imp.96"** %185, align 8
  %951 = load %"class.std::__1::__libcpp_compressed_pair_imp.96"*, %"class.std::__1::__libcpp_compressed_pair_imp.96"** %185, align 8
  %952 = getelementptr inbounds %"class.std::__1::__libcpp_compressed_pair_imp.96", %"class.std::__1::__libcpp_compressed_pair_imp.96"* %951, i32 0, i32 0
  %953 = load %"struct.std::__1::__hash_node"*, %"struct.std::__1::__hash_node"** %952, align 8
  %954 = bitcast %"struct.std::__1::__hash_node"* %953 to %"struct.std::__1::__hash_node_base"*
  store %"struct.std::__1::__hash_node_base"* %954, %"struct.std::__1::__hash_node_base"** %190, align 8
  %955 = load %"struct.std::__1::__hash_node_base"*, %"struct.std::__1::__hash_node_base"** %190, align 8
  store %"struct.std::__1::__hash_node_base"* %955, %"struct.std::__1::__hash_node_base"** %189, align 8
  %956 = load %"struct.std::__1::__hash_node_base"*, %"struct.std::__1::__hash_node_base"** %189, align 8
  store %"struct.std::__1::__hash_node_base"* %956, %"struct.std::__1::__hash_node_base"** %188, align 8
  %957 = load %"struct.std::__1::__hash_node_base"*, %"struct.std::__1::__hash_node_base"** %188, align 8
  %958 = bitcast %"struct.std::__1::__hash_node_base"* %957 to i8*
  %959 = load %"struct.std::__1::__hash_node_base"*, %"struct.std::__1::__hash_node_base"** %299, align 8
  %960 = getelementptr inbounds %"struct.std::__1::__hash_node_base", %"struct.std::__1::__hash_node_base"* %959, i32 0, i32 0
  store %"struct.std::__1::__hash_node_base"* %957, %"struct.std::__1::__hash_node_base"** %960, align 8
  %961 = load %"struct.std::__1::__hash_node_base"*, %"struct.std::__1::__hash_node_base"** %299, align 8
  %962 = getelementptr inbounds %"class.std::__1::__hash_table", %"class.std::__1::__hash_table"* %346, i32 0, i32 0
  %963 = load i64, i64* %293, align 8
  store %"class.std::__1::unique_ptr.37"* %962, %"class.std::__1::unique_ptr.37"** %193, align 8
  store i64 %963, i64* %194, align 8
  %964 = load %"class.std::__1::unique_ptr.37"*, %"class.std::__1::unique_ptr.37"** %193, align 8
  %965 = load i64, i64* %194, align 8
  %966 = getelementptr inbounds %"class.std::__1::unique_ptr.37", %"class.std::__1::unique_ptr.37"* %964, i32 0, i32 0
  store %"class.std::__1::__compressed_pair.38"* %966, %"class.std::__1::__compressed_pair.38"** %192, align 8
  %967 = load %"class.std::__1::__compressed_pair.38"*, %"class.std::__1::__compressed_pair.38"** %192, align 8
  %968 = bitcast %"class.std::__1::__compressed_pair.38"* %967 to %"class.std::__1::__libcpp_compressed_pair_imp.39"*
  store %"class.std::__1::__libcpp_compressed_pair_imp.39"* %968, %"class.std::__1::__libcpp_compressed_pair_imp.39"** %191, align 8
  %969 = load %"class.std::__1::__libcpp_compressed_pair_imp.39"*, %"class.std::__1::__libcpp_compressed_pair_imp.39"** %191, align 8
  %970 = getelementptr inbounds %"class.std::__1::__libcpp_compressed_pair_imp.39", %"class.std::__1::__libcpp_compressed_pair_imp.39"* %969, i32 0, i32 0
  %971 = load %"struct.std::__1::__hash_node_base"**, %"struct.std::__1::__hash_node_base"*** %970, align 8
  %972 = getelementptr inbounds %"struct.std::__1::__hash_node_base"*, %"struct.std::__1::__hash_node_base"** %971, i64 %965
  store %"struct.std::__1::__hash_node_base"* %961, %"struct.std::__1::__hash_node_base"** %972, align 8
  store %"class.std::__1::unique_ptr.94"* %294, %"class.std::__1::unique_ptr.94"** %197, align 8
  %973 = load %"class.std::__1::unique_ptr.94"*, %"class.std::__1::unique_ptr.94"** %197, align 8
  %974 = getelementptr inbounds %"class.std::__1::unique_ptr.94", %"class.std::__1::unique_ptr.94"* %973, i32 0, i32 0
  store %"class.std::__1::__compressed_pair.95"* %974, %"class.std::__1::__compressed_pair.95"** %196, align 8
  %975 = load %"class.std::__1::__compressed_pair.95"*, %"class.std::__1::__compressed_pair.95"** %196, align 8
  %976 = bitcast %"class.std::__1::__compressed_pair.95"* %975 to %"class.std::__1::__libcpp_compressed_pair_imp.96"*
  store %"class.std::__1::__libcpp_compressed_pair_imp.96"* %976, %"class.std::__1::__libcpp_compressed_pair_imp.96"** %195, align 8
  %977 = load %"class.std::__1::__libcpp_compressed_pair_imp.96"*, %"class.std::__1::__libcpp_compressed_pair_imp.96"** %195, align 8
  %978 = getelementptr inbounds %"class.std::__1::__libcpp_compressed_pair_imp.96", %"class.std::__1::__libcpp_compressed_pair_imp.96"* %977, i32 0, i32 0
  %979 = load %"struct.std::__1::__hash_node"*, %"struct.std::__1::__hash_node"** %978, align 8
  %980 = bitcast %"struct.std::__1::__hash_node"* %979 to %"struct.std::__1::__hash_node_base"*
  %981 = getelementptr inbounds %"struct.std::__1::__hash_node_base", %"struct.std::__1::__hash_node_base"* %980, i32 0, i32 0
  %982 = load %"struct.std::__1::__hash_node_base"*, %"struct.std::__1::__hash_node_base"** %981, align 8
  %983 = icmp ne %"struct.std::__1::__hash_node_base"* %982, null
  br i1 %983, label %984, label %1046

; <label>:984:                                    ; preds = %925
  store %"class.std::__1::unique_ptr.94"* %294, %"class.std::__1::unique_ptr.94"** %200, align 8
  %985 = load %"class.std::__1::unique_ptr.94"*, %"class.std::__1::unique_ptr.94"** %200, align 8
  %986 = getelementptr inbounds %"class.std::__1::unique_ptr.94", %"class.std::__1::unique_ptr.94"* %985, i32 0, i32 0
  store %"class.std::__1::__compressed_pair.95"* %986, %"class.std::__1::__compressed_pair.95"** %199, align 8
  %987 = load %"class.std::__1::__compressed_pair.95"*, %"class.std::__1::__compressed_pair.95"** %199, align 8
  %988 = bitcast %"class.std::__1::__compressed_pair.95"* %987 to %"class.std::__1::__libcpp_compressed_pair_imp.96"*
  store %"class.std::__1::__libcpp_compressed_pair_imp.96"* %988, %"class.std::__1::__libcpp_compressed_pair_imp.96"** %198, align 8
  %989 = load %"class.std::__1::__libcpp_compressed_pair_imp.96"*, %"class.std::__1::__libcpp_compressed_pair_imp.96"** %198, align 8
  %990 = getelementptr inbounds %"class.std::__1::__libcpp_compressed_pair_imp.96", %"class.std::__1::__libcpp_compressed_pair_imp.96"* %989, i32 0, i32 0
  %991 = load %"struct.std::__1::__hash_node"*, %"struct.std::__1::__hash_node"** %990, align 8
  %992 = bitcast %"struct.std::__1::__hash_node"* %991 to %"struct.std::__1::__hash_node_base"*
  store %"struct.std::__1::__hash_node_base"* %992, %"struct.std::__1::__hash_node_base"** %203, align 8
  %993 = load %"struct.std::__1::__hash_node_base"*, %"struct.std::__1::__hash_node_base"** %203, align 8
  store %"struct.std::__1::__hash_node_base"* %993, %"struct.std::__1::__hash_node_base"** %202, align 8
  %994 = load %"struct.std::__1::__hash_node_base"*, %"struct.std::__1::__hash_node_base"** %202, align 8
  store %"struct.std::__1::__hash_node_base"* %994, %"struct.std::__1::__hash_node_base"** %201, align 8
  %995 = load %"struct.std::__1::__hash_node_base"*, %"struct.std::__1::__hash_node_base"** %201, align 8
  %996 = bitcast %"struct.std::__1::__hash_node_base"* %995 to i8*
  %997 = getelementptr inbounds %"class.std::__1::__hash_table", %"class.std::__1::__hash_table"* %346, i32 0, i32 0
  store %"class.std::__1::unique_ptr.94"* %294, %"class.std::__1::unique_ptr.94"** %206, align 8
  %998 = load %"class.std::__1::unique_ptr.94"*, %"class.std::__1::unique_ptr.94"** %206, align 8
  %999 = getelementptr inbounds %"class.std::__1::unique_ptr.94", %"class.std::__1::unique_ptr.94"* %998, i32 0, i32 0
  store %"class.std::__1::__compressed_pair.95"* %999, %"class.std::__1::__compressed_pair.95"** %205, align 8
  %1000 = load %"class.std::__1::__compressed_pair.95"*, %"class.std::__1::__compressed_pair.95"** %205, align 8
  %1001 = bitcast %"class.std::__1::__compressed_pair.95"* %1000 to %"class.std::__1::__libcpp_compressed_pair_imp.96"*
  store %"class.std::__1::__libcpp_compressed_pair_imp.96"* %1001, %"class.std::__1::__libcpp_compressed_pair_imp.96"** %204, align 8
  %1002 = load %"class.std::__1::__libcpp_compressed_pair_imp.96"*, %"class.std::__1::__libcpp_compressed_pair_imp.96"** %204, align 8
  %1003 = getelementptr inbounds %"class.std::__1::__libcpp_compressed_pair_imp.96", %"class.std::__1::__libcpp_compressed_pair_imp.96"* %1002, i32 0, i32 0
  %1004 = load %"struct.std::__1::__hash_node"*, %"struct.std::__1::__hash_node"** %1003, align 8
  %1005 = bitcast %"struct.std::__1::__hash_node"* %1004 to %"struct.std::__1::__hash_node_base"*
  %1006 = getelementptr inbounds %"struct.std::__1::__hash_node_base", %"struct.std::__1::__hash_node_base"* %1005, i32 0, i32 0
  %1007 = load %"struct.std::__1::__hash_node_base"*, %"struct.std::__1::__hash_node_base"** %1006, align 8
  store %"struct.std::__1::__hash_node_base"* %1007, %"struct.std::__1::__hash_node_base"** %207, align 8
  %1008 = load %"struct.std::__1::__hash_node_base"*, %"struct.std::__1::__hash_node_base"** %207, align 8
  %1009 = bitcast %"struct.std::__1::__hash_node_base"* %1008 to %"struct.std::__1::__hash_node"*
  %1010 = getelementptr inbounds %"struct.std::__1::__hash_node", %"struct.std::__1::__hash_node"* %1009, i32 0, i32 1
  %1011 = load i64, i64* %1010, align 8
  %1012 = load i64, i64* %290, align 8
  store i64 %1011, i64* %208, align 8
  store i64 %1012, i64* %209, align 8
  %1013 = load i64, i64* %209, align 8
  %1014 = load i64, i64* %209, align 8
  %1015 = sub i64 %1014, 1
  %1016 = and i64 %1013, %1015
  %1017 = icmp ne i64 %1016, 0
  br i1 %1017, label %1023, label %1018

; <label>:1018:                                   ; preds = %984
  %1019 = load i64, i64* %208, align 8
  %1020 = load i64, i64* %209, align 8
  %1021 = sub i64 %1020, 1
  %1022 = and i64 %1019, %1021
  br label %1035

; <label>:1023:                                   ; preds = %984
  %1024 = load i64, i64* %208, align 8
  %1025 = load i64, i64* %209, align 8
  %1026 = icmp ult i64 %1024, %1025
  br i1 %1026, label %1027, label %1029

; <label>:1027:                                   ; preds = %1023
  %1028 = load i64, i64* %208, align 8
  br label %1033

; <label>:1029:                                   ; preds = %1023
  %1030 = load i64, i64* %208, align 8
  %1031 = load i64, i64* %209, align 8
  %1032 = urem i64 %1030, %1031
  br label %1033

; <label>:1033:                                   ; preds = %1029, %1027
  %1034 = phi i64 [ %1028, %1027 ], [ %1032, %1029 ]
  br label %1035

; <label>:1035:                                   ; preds = %1033, %1018
  %1036 = phi i64 [ %1022, %1018 ], [ %1034, %1033 ]
  store %"class.std::__1::unique_ptr.37"* %997, %"class.std::__1::unique_ptr.37"** %212, align 8
  store i64 %1036, i64* %213, align 8
  %1037 = load %"class.std::__1::unique_ptr.37"*, %"class.std::__1::unique_ptr.37"** %212, align 8
  %1038 = load i64, i64* %213, align 8
  %1039 = getelementptr inbounds %"class.std::__1::unique_ptr.37", %"class.std::__1::unique_ptr.37"* %1037, i32 0, i32 0
  store %"class.std::__1::__compressed_pair.38"* %1039, %"class.std::__1::__compressed_pair.38"** %211, align 8
  %1040 = load %"class.std::__1::__compressed_pair.38"*, %"class.std::__1::__compressed_pair.38"** %211, align 8
  %1041 = bitcast %"class.std::__1::__compressed_pair.38"* %1040 to %"class.std::__1::__libcpp_compressed_pair_imp.39"*
  store %"class.std::__1::__libcpp_compressed_pair_imp.39"* %1041, %"class.std::__1::__libcpp_compressed_pair_imp.39"** %210, align 8
  %1042 = load %"class.std::__1::__libcpp_compressed_pair_imp.39"*, %"class.std::__1::__libcpp_compressed_pair_imp.39"** %210, align 8
  %1043 = getelementptr inbounds %"class.std::__1::__libcpp_compressed_pair_imp.39", %"class.std::__1::__libcpp_compressed_pair_imp.39"* %1042, i32 0, i32 0
  %1044 = load %"struct.std::__1::__hash_node_base"**, %"struct.std::__1::__hash_node_base"*** %1043, align 8
  %1045 = getelementptr inbounds %"struct.std::__1::__hash_node_base"*, %"struct.std::__1::__hash_node_base"** %1044, i64 %1038
  store %"struct.std::__1::__hash_node_base"* %995, %"struct.std::__1::__hash_node_base"** %1045, align 8
  br label %1046

; <label>:1046:                                   ; preds = %1035, %925
  br label %1070

; <label>:1047:                                   ; preds = %910
  %1048 = load %"struct.std::__1::__hash_node_base"*, %"struct.std::__1::__hash_node_base"** %299, align 8
  %1049 = getelementptr inbounds %"struct.std::__1::__hash_node_base", %"struct.std::__1::__hash_node_base"* %1048, i32 0, i32 0
  %1050 = load %"struct.std::__1::__hash_node_base"*, %"struct.std::__1::__hash_node_base"** %1049, align 8
  store %"class.std::__1::unique_ptr.94"* %294, %"class.std::__1::unique_ptr.94"** %216, align 8
  %1051 = load %"class.std::__1::unique_ptr.94"*, %"class.std::__1::unique_ptr.94"** %216, align 8
  %1052 = getelementptr inbounds %"class.std::__1::unique_ptr.94", %"class.std::__1::unique_ptr.94"* %1051, i32 0, i32 0
  store %"class.std::__1::__compressed_pair.95"* %1052, %"class.std::__1::__compressed_pair.95"** %215, align 8
  %1053 = load %"class.std::__1::__compressed_pair.95"*, %"class.std::__1::__compressed_pair.95"** %215, align 8
  %1054 = bitcast %"class.std::__1::__compressed_pair.95"* %1053 to %"class.std::__1::__libcpp_compressed_pair_imp.96"*
  store %"class.std::__1::__libcpp_compressed_pair_imp.96"* %1054, %"class.std::__1::__libcpp_compressed_pair_imp.96"** %214, align 8
  %1055 = load %"class.std::__1::__libcpp_compressed_pair_imp.96"*, %"class.std::__1::__libcpp_compressed_pair_imp.96"** %214, align 8
  %1056 = getelementptr inbounds %"class.std::__1::__libcpp_compressed_pair_imp.96", %"class.std::__1::__libcpp_compressed_pair_imp.96"* %1055, i32 0, i32 0
  %1057 = load %"struct.std::__1::__hash_node"*, %"struct.std::__1::__hash_node"** %1056, align 8
  %1058 = bitcast %"struct.std::__1::__hash_node"* %1057 to %"struct.std::__1::__hash_node_base"*
  %1059 = getelementptr inbounds %"struct.std::__1::__hash_node_base", %"struct.std::__1::__hash_node_base"* %1058, i32 0, i32 0
  store %"struct.std::__1::__hash_node_base"* %1050, %"struct.std::__1::__hash_node_base"** %1059, align 8
  store %"class.std::__1::unique_ptr.94"* %294, %"class.std::__1::unique_ptr.94"** %219, align 8
  %1060 = load %"class.std::__1::unique_ptr.94"*, %"class.std::__1::unique_ptr.94"** %219, align 8
  %1061 = getelementptr inbounds %"class.std::__1::unique_ptr.94", %"class.std::__1::unique_ptr.94"* %1060, i32 0, i32 0
  store %"class.std::__1::__compressed_pair.95"* %1061, %"class.std::__1::__compressed_pair.95"** %218, align 8
  %1062 = load %"class.std::__1::__compressed_pair.95"*, %"class.std::__1::__compressed_pair.95"** %218, align 8
  %1063 = bitcast %"class.std::__1::__compressed_pair.95"* %1062 to %"class.std::__1::__libcpp_compressed_pair_imp.96"*
  store %"class.std::__1::__libcpp_compressed_pair_imp.96"* %1063, %"class.std::__1::__libcpp_compressed_pair_imp.96"** %217, align 8
  %1064 = load %"class.std::__1::__libcpp_compressed_pair_imp.96"*, %"class.std::__1::__libcpp_compressed_pair_imp.96"** %217, align 8
  %1065 = getelementptr inbounds %"class.std::__1::__libcpp_compressed_pair_imp.96", %"class.std::__1::__libcpp_compressed_pair_imp.96"* %1064, i32 0, i32 0
  %1066 = load %"struct.std::__1::__hash_node"*, %"struct.std::__1::__hash_node"** %1065, align 8
  %1067 = bitcast %"struct.std::__1::__hash_node"* %1066 to %"struct.std::__1::__hash_node_base"*
  %1068 = load %"struct.std::__1::__hash_node_base"*, %"struct.std::__1::__hash_node_base"** %299, align 8
  %1069 = getelementptr inbounds %"struct.std::__1::__hash_node_base", %"struct.std::__1::__hash_node_base"* %1068, i32 0, i32 0
  store %"struct.std::__1::__hash_node_base"* %1067, %"struct.std::__1::__hash_node_base"** %1069, align 8
  br label %1070

; <label>:1070:                                   ; preds = %1047, %1046
  store %"class.std::__1::unique_ptr.94"* %294, %"class.std::__1::unique_ptr.94"** %224, align 8
  %1071 = load %"class.std::__1::unique_ptr.94"*, %"class.std::__1::unique_ptr.94"** %224, align 8
  %1072 = getelementptr inbounds %"class.std::__1::unique_ptr.94", %"class.std::__1::unique_ptr.94"* %1071, i32 0, i32 0
  store %"class.std::__1::__compressed_pair.95"* %1072, %"class.std::__1::__compressed_pair.95"** %223, align 8
  %1073 = load %"class.std::__1::__compressed_pair.95"*, %"class.std::__1::__compressed_pair.95"** %223, align 8
  %1074 = bitcast %"class.std::__1::__compressed_pair.95"* %1073 to %"class.std::__1::__libcpp_compressed_pair_imp.96"*
  store %"class.std::__1::__libcpp_compressed_pair_imp.96"* %1074, %"class.std::__1::__libcpp_compressed_pair_imp.96"** %222, align 8
  %1075 = load %"class.std::__1::__libcpp_compressed_pair_imp.96"*, %"class.std::__1::__libcpp_compressed_pair_imp.96"** %222, align 8
  %1076 = getelementptr inbounds %"class.std::__1::__libcpp_compressed_pair_imp.96", %"class.std::__1::__libcpp_compressed_pair_imp.96"* %1075, i32 0, i32 0
  %1077 = load %"struct.std::__1::__hash_node"*, %"struct.std::__1::__hash_node"** %1076, align 8
  store %"struct.std::__1::__hash_node"* %1077, %"struct.std::__1::__hash_node"** %225, align 8
  %1078 = getelementptr inbounds %"class.std::__1::unique_ptr.94", %"class.std::__1::unique_ptr.94"* %1071, i32 0, i32 0
  store %"class.std::__1::__compressed_pair.95"* %1078, %"class.std::__1::__compressed_pair.95"** %221, align 8
  %1079 = load %"class.std::__1::__compressed_pair.95"*, %"class.std::__1::__compressed_pair.95"** %221, align 8
  %1080 = bitcast %"class.std::__1::__compressed_pair.95"* %1079 to %"class.std::__1::__libcpp_compressed_pair_imp.96"*
  store %"class.std::__1::__libcpp_compressed_pair_imp.96"* %1080, %"class.std::__1::__libcpp_compressed_pair_imp.96"** %220, align 8
  %1081 = load %"class.std::__1::__libcpp_compressed_pair_imp.96"*, %"class.std::__1::__libcpp_compressed_pair_imp.96"** %220, align 8
  %1082 = getelementptr inbounds %"class.std::__1::__libcpp_compressed_pair_imp.96", %"class.std::__1::__libcpp_compressed_pair_imp.96"* %1081, i32 0, i32 0
  store %"struct.std::__1::__hash_node"* null, %"struct.std::__1::__hash_node"** %1082, align 8
  %1083 = load %"struct.std::__1::__hash_node"*, %"struct.std::__1::__hash_node"** %225, align 8
  %1084 = bitcast %"struct.std::__1::__hash_node"* %1083 to %"struct.std::__1::__hash_node_base"*
  store %"struct.std::__1::__hash_node_base"* %1084, %"struct.std::__1::__hash_node_base"** %292, align 8
  store %"class.std::__1::__hash_table"* %346, %"class.std::__1::__hash_table"** %228, align 8
  %1085 = load %"class.std::__1::__hash_table"*, %"class.std::__1::__hash_table"** %228, align 8
  %1086 = getelementptr inbounds %"class.std::__1::__hash_table", %"class.std::__1::__hash_table"* %1085, i32 0, i32 2
  store %"class.std::__1::__compressed_pair.48"* %1086, %"class.std::__1::__compressed_pair.48"** %227, align 8
  %1087 = load %"class.std::__1::__compressed_pair.48"*, %"class.std::__1::__compressed_pair.48"** %227, align 8
  %1088 = bitcast %"class.std::__1::__compressed_pair.48"* %1087 to %"class.std::__1::__libcpp_compressed_pair_imp.49"*
  store %"class.std::__1::__libcpp_compressed_pair_imp.49"* %1088, %"class.std::__1::__libcpp_compressed_pair_imp.49"** %226, align 8
  %1089 = load %"class.std::__1::__libcpp_compressed_pair_imp.49"*, %"class.std::__1::__libcpp_compressed_pair_imp.49"** %226, align 8
  %1090 = getelementptr inbounds %"class.std::__1::__libcpp_compressed_pair_imp.49", %"class.std::__1::__libcpp_compressed_pair_imp.49"* %1089, i32 0, i32 0
  %1091 = load i64, i64* %1090, align 8
  %1092 = add i64 %1091, 1
  store i64 %1092, i64* %1090, align 8
  store i8 1, i8* %291, align 1
  store %"class.std::__1::unique_ptr.94"* %294, %"class.std::__1::unique_ptr.94"** %267, align 8
  %1093 = load %"class.std::__1::unique_ptr.94"*, %"class.std::__1::unique_ptr.94"** %267, align 8
  store %"class.std::__1::unique_ptr.94"* %1093, %"class.std::__1::unique_ptr.94"** %266, align 8
  %1094 = load %"class.std::__1::unique_ptr.94"*, %"class.std::__1::unique_ptr.94"** %266, align 8
  store %"class.std::__1::unique_ptr.94"* %1094, %"class.std::__1::unique_ptr.94"** %263, align 8
  store %"struct.std::__1::__hash_node"* null, %"struct.std::__1::__hash_node"** %264, align 8
  %1095 = load %"class.std::__1::unique_ptr.94"*, %"class.std::__1::unique_ptr.94"** %263, align 8
  %1096 = getelementptr inbounds %"class.std::__1::unique_ptr.94", %"class.std::__1::unique_ptr.94"* %1095, i32 0, i32 0
  store %"class.std::__1::__compressed_pair.95"* %1096, %"class.std::__1::__compressed_pair.95"** %262, align 8
  %1097 = load %"class.std::__1::__compressed_pair.95"*, %"class.std::__1::__compressed_pair.95"** %262, align 8
  %1098 = bitcast %"class.std::__1::__compressed_pair.95"* %1097 to %"class.std::__1::__libcpp_compressed_pair_imp.96"*
  store %"class.std::__1::__libcpp_compressed_pair_imp.96"* %1098, %"class.std::__1::__libcpp_compressed_pair_imp.96"** %261, align 8
  %1099 = load %"class.std::__1::__libcpp_compressed_pair_imp.96"*, %"class.std::__1::__libcpp_compressed_pair_imp.96"** %261, align 8
  %1100 = getelementptr inbounds %"class.std::__1::__libcpp_compressed_pair_imp.96", %"class.std::__1::__libcpp_compressed_pair_imp.96"* %1099, i32 0, i32 0
  %1101 = load %"struct.std::__1::__hash_node"*, %"struct.std::__1::__hash_node"** %1100, align 8
  store %"struct.std::__1::__hash_node"* %1101, %"struct.std::__1::__hash_node"** %265, align 8
  %1102 = load %"struct.std::__1::__hash_node"*, %"struct.std::__1::__hash_node"** %264, align 8
  %1103 = getelementptr inbounds %"class.std::__1::unique_ptr.94", %"class.std::__1::unique_ptr.94"* %1095, i32 0, i32 0
  store %"class.std::__1::__compressed_pair.95"* %1103, %"class.std::__1::__compressed_pair.95"** %243, align 8
  %1104 = load %"class.std::__1::__compressed_pair.95"*, %"class.std::__1::__compressed_pair.95"** %243, align 8
  %1105 = bitcast %"class.std::__1::__compressed_pair.95"* %1104 to %"class.std::__1::__libcpp_compressed_pair_imp.96"*
  store %"class.std::__1::__libcpp_compressed_pair_imp.96"* %1105, %"class.std::__1::__libcpp_compressed_pair_imp.96"** %242, align 8
  %1106 = load %"class.std::__1::__libcpp_compressed_pair_imp.96"*, %"class.std::__1::__libcpp_compressed_pair_imp.96"** %242, align 8
  %1107 = getelementptr inbounds %"class.std::__1::__libcpp_compressed_pair_imp.96", %"class.std::__1::__libcpp_compressed_pair_imp.96"* %1106, i32 0, i32 0
  store %"struct.std::__1::__hash_node"* %1102, %"struct.std::__1::__hash_node"** %1107, align 8
  %1108 = load %"struct.std::__1::__hash_node"*, %"struct.std::__1::__hash_node"** %265, align 8
  %1109 = icmp ne %"struct.std::__1::__hash_node"* %1108, null
  br i1 %1109, label %1110, label %1149

; <label>:1110:                                   ; preds = %1070
  %1111 = getelementptr inbounds %"class.std::__1::unique_ptr.94", %"class.std::__1::unique_ptr.94"* %1095, i32 0, i32 0
  store %"class.std::__1::__compressed_pair.95"* %1111, %"class.std::__1::__compressed_pair.95"** %241, align 8
  %1112 = load %"class.std::__1::__compressed_pair.95"*, %"class.std::__1::__compressed_pair.95"** %241, align 8
  %1113 = bitcast %"class.std::__1::__compressed_pair.95"* %1112 to %"class.std::__1::__libcpp_compressed_pair_imp.96"*
  store %"class.std::__1::__libcpp_compressed_pair_imp.96"* %1113, %"class.std::__1::__libcpp_compressed_pair_imp.96"** %240, align 8
  %1114 = load %"class.std::__1::__libcpp_compressed_pair_imp.96"*, %"class.std::__1::__libcpp_compressed_pair_imp.96"** %240, align 8
  %1115 = getelementptr inbounds %"class.std::__1::__libcpp_compressed_pair_imp.96", %"class.std::__1::__libcpp_compressed_pair_imp.96"* %1114, i32 0, i32 1
  %1116 = load %"struct.std::__1::__hash_node"*, %"struct.std::__1::__hash_node"** %265, align 8
  store %"class.std::__1::__hash_node_destructor"* %1115, %"class.std::__1::__hash_node_destructor"** %259, align 8
  store %"struct.std::__1::__hash_node"* %1116, %"struct.std::__1::__hash_node"** %260, align 8
  %1117 = load %"class.std::__1::__hash_node_destructor"*, %"class.std::__1::__hash_node_destructor"** %259, align 8
  %1118 = getelementptr inbounds %"class.std::__1::__hash_node_destructor", %"class.std::__1::__hash_node_destructor"* %1117, i32 0, i32 1
  %1119 = load i8, i8* %1118, align 8
  %1120 = trunc i8 %1119 to i1
  br i1 %1120, label %1121, label %1134

; <label>:1121:                                   ; preds = %1110
  %1122 = getelementptr inbounds %"class.std::__1::__hash_node_destructor", %"class.std::__1::__hash_node_destructor"* %1117, i32 0, i32 0
  %1123 = load %"class.std::__1::allocator.46"*, %"class.std::__1::allocator.46"** %1122, align 8
  %1124 = load %"struct.std::__1::__hash_node"*, %"struct.std::__1::__hash_node"** %260, align 8
  %1125 = getelementptr inbounds %"struct.std::__1::__hash_node", %"struct.std::__1::__hash_node"* %1124, i32 0, i32 2
  store %"union.std::__1::__hash_value_type"* %1125, %"union.std::__1::__hash_value_type"** %258, align 8
  %1126 = load %"union.std::__1::__hash_value_type"*, %"union.std::__1::__hash_value_type"** %258, align 8
  %1127 = bitcast %"union.std::__1::__hash_value_type"* %1126 to %"struct.std::__1::pair.92"*
  store %"struct.std::__1::pair.92"* %1127, %"struct.std::__1::pair.92"** %257, align 8
  %1128 = load %"struct.std::__1::pair.92"*, %"struct.std::__1::pair.92"** %257, align 8
  %1129 = bitcast %"struct.std::__1::pair.92"* %1128 to i8*
  store %"class.std::__1::allocator.46"* %1123, %"class.std::__1::allocator.46"** %253, align 8
  store %"struct.std::__1::pair.92"* %1128, %"struct.std::__1::pair.92"** %254, align 8
  %1130 = bitcast %"struct.std::__1::__has_destroy"* %256 to %"struct.std::__1::integral_constant.99"*
  %1131 = load %"class.std::__1::allocator.46"*, %"class.std::__1::allocator.46"** %253, align 8
  %1132 = load %"struct.std::__1::pair.92"*, %"struct.std::__1::pair.92"** %254, align 8
  store %"class.std::__1::allocator.46"* %1131, %"class.std::__1::allocator.46"** %251, align 8
  store %"struct.std::__1::pair.92"* %1132, %"struct.std::__1::pair.92"** %252, align 8
  %1133 = load %"struct.std::__1::pair.92"*, %"struct.std::__1::pair.92"** %252, align 8
  call void @_ZNSt3__14pairIKNS_12basic_stringIcNS_11char_traitsIcEENS_9allocatorIcEEEEPN4llvm8ConstantEED1Ev(%"struct.std::__1::pair.92"* %1133) #14
  br label %1134

; <label>:1134:                                   ; preds = %1121, %1110
  %1135 = load %"struct.std::__1::__hash_node"*, %"struct.std::__1::__hash_node"** %260, align 8
  %1136 = icmp ne %"struct.std::__1::__hash_node"* %1135, null
  br i1 %1136, label %1137, label %1148

; <label>:1137:                                   ; preds = %1134
  %1138 = getelementptr inbounds %"class.std::__1::__hash_node_destructor", %"class.std::__1::__hash_node_destructor"* %1117, i32 0, i32 0
  %1139 = load %"class.std::__1::allocator.46"*, %"class.std::__1::allocator.46"** %1138, align 8
  %1140 = load %"struct.std::__1::__hash_node"*, %"struct.std::__1::__hash_node"** %260, align 8
  store %"class.std::__1::allocator.46"* %1139, %"class.std::__1::allocator.46"** %248, align 8
  store %"struct.std::__1::__hash_node"* %1140, %"struct.std::__1::__hash_node"** %249, align 8
  store i64 1, i64* %250, align 8
  %1141 = load %"class.std::__1::allocator.46"*, %"class.std::__1::allocator.46"** %248, align 8
  %1142 = load %"struct.std::__1::__hash_node"*, %"struct.std::__1::__hash_node"** %249, align 8
  %1143 = load i64, i64* %250, align 8
  store %"class.std::__1::allocator.46"* %1141, %"class.std::__1::allocator.46"** %245, align 8
  store %"struct.std::__1::__hash_node"* %1142, %"struct.std::__1::__hash_node"** %246, align 8
  store i64 %1143, i64* %247, align 8
  %1144 = load %"class.std::__1::allocator.46"*, %"class.std::__1::allocator.46"** %245, align 8
  %1145 = load %"struct.std::__1::__hash_node"*, %"struct.std::__1::__hash_node"** %246, align 8
  %1146 = bitcast %"struct.std::__1::__hash_node"* %1145 to i8*
  store i8* %1146, i8** %244, align 8
  %1147 = load i8*, i8** %244, align 8
  call void @_ZdlPv(i8* %1147) #17
  br label %1148

; <label>:1148:                                   ; preds = %1137, %1134
  br label %1149

; <label>:1149:                                   ; preds = %1148, %1070
  br label %1150

; <label>:1150:                                   ; preds = %710, %1149
  %1151 = load %"struct.std::__1::__hash_node_base"*, %"struct.std::__1::__hash_node_base"** %292, align 8
  store %"class.std::__1::__hash_iterator"* %300, %"class.std::__1::__hash_iterator"** %270, align 8
  store %"struct.std::__1::__hash_node_base"* %1151, %"struct.std::__1::__hash_node_base"** %271, align 8
  %1152 = load %"class.std::__1::__hash_iterator"*, %"class.std::__1::__hash_iterator"** %270, align 8
  %1153 = load %"struct.std::__1::__hash_node_base"*, %"struct.std::__1::__hash_node_base"** %271, align 8
  store %"class.std::__1::__hash_iterator"* %1152, %"class.std::__1::__hash_iterator"** %268, align 8
  store %"struct.std::__1::__hash_node_base"* %1153, %"struct.std::__1::__hash_node_base"** %269, align 8
  %1154 = load %"class.std::__1::__hash_iterator"*, %"class.std::__1::__hash_iterator"** %268, align 8
  %1155 = getelementptr inbounds %"class.std::__1::__hash_iterator", %"class.std::__1::__hash_iterator"* %1154, i32 0, i32 0
  %1156 = load %"struct.std::__1::__hash_node_base"*, %"struct.std::__1::__hash_node_base"** %269, align 8
  store %"struct.std::__1::__hash_node_base"* %1156, %"struct.std::__1::__hash_node_base"** %1155, align 8
  store %"struct.std::__1::pair"* %283, %"struct.std::__1::pair"** %277, align 8
  store %"class.std::__1::__hash_iterator"* %300, %"class.std::__1::__hash_iterator"** %278, align 8
  store i8* %291, i8** %279, align 8
  %1157 = load %"struct.std::__1::pair"*, %"struct.std::__1::pair"** %277, align 8
  %1158 = load %"class.std::__1::__hash_iterator"*, %"class.std::__1::__hash_iterator"** %278, align 8
  %1159 = load i8*, i8** %279, align 8
  store %"struct.std::__1::pair"* %1157, %"struct.std::__1::pair"** %274, align 8
  store %"class.std::__1::__hash_iterator"* %1158, %"class.std::__1::__hash_iterator"** %275, align 8
  store i8* %1159, i8** %276, align 8
  %1160 = load %"struct.std::__1::pair"*, %"struct.std::__1::pair"** %274, align 8
  %1161 = getelementptr inbounds %"struct.std::__1::pair", %"struct.std::__1::pair"* %1160, i32 0, i32 0
  %1162 = load %"class.std::__1::__hash_iterator"*, %"class.std::__1::__hash_iterator"** %275, align 8
  store %"class.std::__1::__hash_iterator"* %1162, %"class.std::__1::__hash_iterator"** %273, align 8
  %1163 = load %"class.std::__1::__hash_iterator"*, %"class.std::__1::__hash_iterator"** %273, align 8
  %1164 = bitcast %"class.std::__1::__hash_iterator"* %1161 to i8*
  %1165 = bitcast %"class.std::__1::__hash_iterator"* %1163 to i8*
  call void @llvm.memcpy.p0i8.p0i8.i64(i8* %1164, i8* %1165, i64 8, i32 8, i1 false) #14
  %1166 = getelementptr inbounds %"struct.std::__1::pair", %"struct.std::__1::pair"* %1160, i32 0, i32 1
  %1167 = load i8*, i8** %276, align 8
  store i8* %1167, i8** %272, align 8
  %1168 = load i8*, i8** %272, align 8
  %1169 = load i8, i8* %1168, align 1
  %1170 = trunc i8 %1169 to i1
  %1171 = zext i1 %1170 to i8
  store i8 %1171, i8* %1166, align 8
  %1172 = bitcast %"struct.std::__1::pair"* %283 to { %"struct.std::__1::__hash_node_base"*, i8 }*
  %1173 = load { %"struct.std::__1::__hash_node_base"*, i8 }, { %"struct.std::__1::__hash_node_base"*, i8 }* %1172, align 8
  %1174 = bitcast %"struct.std::__1::pair"* %313 to { %"struct.std::__1::__hash_node_base"*, i8 }*
  %1175 = getelementptr inbounds { %"struct.std::__1::__hash_node_base"*, i8 }, { %"struct.std::__1::__hash_node_base"*, i8 }* %1174, i32 0, i32 0
  %1176 = extractvalue { %"struct.std::__1::__hash_node_base"*, i8 } %1173, 0
  store %"struct.std::__1::__hash_node_base"* %1176, %"struct.std::__1::__hash_node_base"** %1175, align 8
  %1177 = getelementptr inbounds { %"struct.std::__1::__hash_node_base"*, i8 }, { %"struct.std::__1::__hash_node_base"*, i8 }* %1174, i32 0, i32 1
  %1178 = extractvalue { %"struct.std::__1::__hash_node_base"*, i8 } %1173, 1
  store i8 %1178, i8* %1177, align 8
  %1179 = getelementptr inbounds %"struct.std::__1::pair", %"struct.std::__1::pair"* %313, i32 0, i32 0
  store %"class.std::__1::__hash_iterator"* %1179, %"class.std::__1::__hash_iterator"** %306, align 8
  %1180 = load %"class.std::__1::__hash_iterator"*, %"class.std::__1::__hash_iterator"** %306, align 8
  %1181 = getelementptr inbounds %"class.std::__1::__hash_iterator", %"class.std::__1::__hash_iterator"* %1180, i32 0, i32 0
  %1182 = load %"struct.std::__1::__hash_node_base"*, %"struct.std::__1::__hash_node_base"** %1181, align 8
  store %"struct.std::__1::__hash_node_base"* %1182, %"struct.std::__1::__hash_node_base"** %305, align 8
  %1183 = load %"struct.std::__1::__hash_node_base"*, %"struct.std::__1::__hash_node_base"** %305, align 8
  store %"struct.std::__1::__hash_node_base"* %1183, %"struct.std::__1::__hash_node_base"** %304, align 8
  %1184 = load %"struct.std::__1::__hash_node_base"*, %"struct.std::__1::__hash_node_base"** %304, align 8
  store %"struct.std::__1::__hash_node_base"* %1184, %"struct.std::__1::__hash_node_base"** %303, align 8
  %1185 = load %"struct.std::__1::__hash_node_base"*, %"struct.std::__1::__hash_node_base"** %303, align 8
  %1186 = bitcast %"struct.std::__1::__hash_node_base"* %1185 to i8*
  %1187 = bitcast %"struct.std::__1::__hash_node_base"* %1185 to %"struct.std::__1::__hash_node"*
  %1188 = getelementptr inbounds %"struct.std::__1::__hash_node", %"struct.std::__1::__hash_node"* %1187, i32 0, i32 2
  store %"union.std::__1::__hash_value_type"* %1188, %"union.std::__1::__hash_value_type"** %302, align 8
  %1189 = load %"union.std::__1::__hash_value_type"*, %"union.std::__1::__hash_value_type"** %302, align 8
  store %"union.std::__1::__hash_value_type"* %1189, %"union.std::__1::__hash_value_type"** %301, align 8
  %1190 = load %"union.std::__1::__hash_value_type"*, %"union.std::__1::__hash_value_type"** %301, align 8
  %1191 = bitcast %"union.std::__1::__hash_value_type"* %1190 to i8*
  %1192 = bitcast %"union.std::__1::__hash_value_type"* %1190 to %"struct.std::__1::pair.92"*
  %1193 = getelementptr inbounds %"struct.std::__1::pair.92", %"struct.std::__1::pair.92"* %1192, i32 0, i32 1
  ret %"class.llvm::Constant"** %1193
}

; Function Attrs: ssp uwtable
define linkonce_odr void @_ZN4llvm8ArrayRefIPNS_5ValueEEC1ERKSt16initializer_listIS2_E(%"class.llvm::ArrayRef.36"*, %"class.std::initializer_list"* dereferenceable(16)) unnamed_addr #0 align 2 {
  %3 = alloca %"class.llvm::ArrayRef.36"*, align 8
  %4 = alloca %"class.std::initializer_list"*, align 8
  store %"class.llvm::ArrayRef.36"* %0, %"class.llvm::ArrayRef.36"** %3, align 8
  store %"class.std::initializer_list"* %1, %"class.std::initializer_list"** %4, align 8
  %5 = load %"class.llvm::ArrayRef.36"*, %"class.llvm::ArrayRef.36"** %3, align 8
  %6 = load %"class.std::initializer_list"*, %"class.std::initializer_list"** %4, align 8
  call void @_ZN4llvm8ArrayRefIPNS_5ValueEEC2ERKSt16initializer_listIS2_E(%"class.llvm::ArrayRef.36"* %5, %"class.std::initializer_list"* dereferenceable(16) %6)
  ret void
}

; Function Attrs: nounwind
declare void @_ZNSt3__112basic_stringIcNS_11char_traitsIcEENS_9allocatorIcEEED1Ev(%"class.std::__1::basic_string"*) unnamed_addr #2

; Function Attrs: ssp uwtable
define linkonce_odr %"class.llvm::Value"* @_ZN4llvm9IRBuilderINS_14ConstantFolderENS_24IRBuilderDefaultInserterEE13CreateBitCastEPNS_5ValueEPNS_4TypeERKNS_5TwineE(%"class.llvm::IRBuilder"*, %"class.llvm::Value"*, %"class.llvm::Type"*, %"class.llvm::Twine"* dereferenceable(24)) #0 align 2 {
  %5 = alloca %"class.llvm::IRBuilder"*, align 8
  %6 = alloca %"class.llvm::Value"*, align 8
  %7 = alloca %"class.llvm::Type"*, align 8
  %8 = alloca %"class.llvm::Twine"*, align 8
  store %"class.llvm::IRBuilder"* %0, %"class.llvm::IRBuilder"** %5, align 8
  store %"class.llvm::Value"* %1, %"class.llvm::Value"** %6, align 8
  store %"class.llvm::Type"* %2, %"class.llvm::Type"** %7, align 8
  store %"class.llvm::Twine"* %3, %"class.llvm::Twine"** %8, align 8
  %9 = load %"class.llvm::IRBuilder"*, %"class.llvm::IRBuilder"** %5, align 8
  %10 = load %"class.llvm::Value"*, %"class.llvm::Value"** %6, align 8
  %11 = load %"class.llvm::Type"*, %"class.llvm::Type"** %7, align 8
  %12 = load %"class.llvm::Twine"*, %"class.llvm::Twine"** %8, align 8
  %13 = call %"class.llvm::Value"* @_ZN4llvm9IRBuilderINS_14ConstantFolderENS_24IRBuilderDefaultInserterEE10CreateCastENS_11Instruction7CastOpsEPNS_5ValueEPNS_4TypeERKNS_5TwineE(%"class.llvm::IRBuilder"* %9, i32 47, %"class.llvm::Value"* %10, %"class.llvm::Type"* %11, %"class.llvm::Twine"* dereferenceable(24) %12)
  ret %"class.llvm::Value"* %13
}

; Function Attrs: nounwind ssp uwtable
define linkonce_odr %"class.llvm::BasicBlock"* @_ZNK4llvm13IRBuilderBase14GetInsertBlockEv(%"class.llvm::IRBuilderBase"*) #4 align 2 {
  %2 = alloca %"class.llvm::IRBuilderBase"*, align 8
  store %"class.llvm::IRBuilderBase"* %0, %"class.llvm::IRBuilderBase"** %2, align 8
  %3 = load %"class.llvm::IRBuilderBase"*, %"class.llvm::IRBuilderBase"** %2, align 8
  %4 = getelementptr inbounds %"class.llvm::IRBuilderBase", %"class.llvm::IRBuilderBase"* %3, i32 0, i32 1
  %5 = load %"class.llvm::BasicBlock"*, %"class.llvm::BasicBlock"** %4, align 8
  ret %"class.llvm::BasicBlock"* %5
}

; Function Attrs: inlinehint ssp uwtable
define linkonce_odr zeroext i1 @_ZN4llvm3isaINS_8ConstantEPNS_5ValueEEEbRKT0_(%"class.llvm::Value"** dereferenceable(8)) #3 {
  %2 = alloca %"class.llvm::Value"**, align 8
  store %"class.llvm::Value"** %0, %"class.llvm::Value"*** %2, align 8
  %3 = load %"class.llvm::Value"**, %"class.llvm::Value"*** %2, align 8
  %4 = call zeroext i1 @_ZN4llvm13isa_impl_wrapINS_8ConstantEKPNS_5ValueEPKS2_E4doitERS4_(%"class.llvm::Value"** dereferenceable(8) %3)
  ret i1 %4
}

; Function Attrs: ssp uwtable
define linkonce_odr void @_ZN4llvm13IRBuilderBase14SetInsertPointEPNS_10BasicBlockE(%"class.llvm::IRBuilderBase"*, %"class.llvm::BasicBlock"*) #0 align 2 {
  %3 = alloca %"class.llvm::IRBuilderBase"*, align 8
  %4 = alloca %"class.llvm::BasicBlock"*, align 8
  %5 = alloca %"class.llvm::ilist_iterator", align 8
  store %"class.llvm::IRBuilderBase"* %0, %"class.llvm::IRBuilderBase"** %3, align 8
  store %"class.llvm::BasicBlock"* %1, %"class.llvm::BasicBlock"** %4, align 8
  %6 = load %"class.llvm::IRBuilderBase"*, %"class.llvm::IRBuilderBase"** %3, align 8
  %7 = load %"class.llvm::BasicBlock"*, %"class.llvm::BasicBlock"** %4, align 8
  %8 = getelementptr inbounds %"class.llvm::IRBuilderBase", %"class.llvm::IRBuilderBase"* %6, i32 0, i32 1
  store %"class.llvm::BasicBlock"* %7, %"class.llvm::BasicBlock"** %8, align 8
  %9 = getelementptr inbounds %"class.llvm::IRBuilderBase", %"class.llvm::IRBuilderBase"* %6, i32 0, i32 2
  %10 = getelementptr inbounds %"class.llvm::IRBuilderBase", %"class.llvm::IRBuilderBase"* %6, i32 0, i32 1
  %11 = load %"class.llvm::BasicBlock"*, %"class.llvm::BasicBlock"** %10, align 8
  %12 = call %"class.llvm::ilist_node_impl.0"* @_ZN4llvm10BasicBlock3endEv(%"class.llvm::BasicBlock"* %11)
  %13 = getelementptr inbounds %"class.llvm::ilist_iterator", %"class.llvm::ilist_iterator"* %5, i32 0, i32 0
  store %"class.llvm::ilist_node_impl.0"* %12, %"class.llvm::ilist_node_impl.0"** %13, align 8
  %14 = bitcast %"class.llvm::ilist_iterator"* %9 to i8*
  %15 = bitcast %"class.llvm::ilist_iterator"* %5 to i8*
  call void @llvm.memcpy.p0i8.p0i8.i64(i8* %14, i8* %15, i64 8, i32 8, i1 false)
  ret void
}

; Function Attrs: ssp uwtable
define linkonce_odr %"class.llvm::AllocaInst"* @_ZN4llvm9IRBuilderINS_14ConstantFolderENS_24IRBuilderDefaultInserterEE12CreateAllocaEPNS_4TypeEPNS_5ValueERKNS_5TwineE(%"class.llvm::IRBuilder"*, %"class.llvm::Type"*, %"class.llvm::Value"*, %"class.llvm::Twine"* dereferenceable(24)) #0 align 2 personality i8* bitcast (i32 (...)* @__gxx_personality_v0 to i8*) {
  %5 = alloca %"class.llvm::IRBuilder"*, align 8
  %6 = alloca %"class.llvm::Type"*, align 8
  %7 = alloca %"class.llvm::Value"*, align 8
  %8 = alloca %"class.llvm::Twine"*, align 8
  %9 = alloca %"class.llvm::Twine", align 8
  %10 = alloca i8*
  %11 = alloca i32
  store %"class.llvm::IRBuilder"* %0, %"class.llvm::IRBuilder"** %5, align 8
  store %"class.llvm::Type"* %1, %"class.llvm::Type"** %6, align 8
  store %"class.llvm::Value"* %2, %"class.llvm::Value"** %7, align 8
  store %"class.llvm::Twine"* %3, %"class.llvm::Twine"** %8, align 8
  %12 = load %"class.llvm::IRBuilder"*, %"class.llvm::IRBuilder"** %5, align 8
  %13 = call i8* @_ZN4llvm16UnaryInstructionnwEm(i64 72)
  %14 = bitcast i8* %13 to %"class.llvm::AllocaInst"*
  %15 = load %"class.llvm::Type"*, %"class.llvm::Type"** %6, align 8
  %16 = load %"class.llvm::Value"*, %"class.llvm::Value"** %7, align 8
  invoke void @_ZN4llvm5TwineC1EPKc(%"class.llvm::Twine"* %9, i8* getelementptr inbounds ([1 x i8], [1 x i8]* @.str, i32 0, i32 0))
          to label %17 unwind label %21

; <label>:17:                                     ; preds = %4
  invoke void @_ZN4llvm10AllocaInstC1EPNS_4TypeEPNS_5ValueERKNS_5TwineEPNS_11InstructionE(%"class.llvm::AllocaInst"* %14, %"class.llvm::Type"* %15, %"class.llvm::Value"* %16, %"class.llvm::Twine"* dereferenceable(24) %9, %"class.llvm::Instruction"* null)
          to label %18 unwind label %21

; <label>:18:                                     ; preds = %17
  %19 = load %"class.llvm::Twine"*, %"class.llvm::Twine"** %8, align 8
  %20 = call %"class.llvm::AllocaInst"* @_ZNK4llvm9IRBuilderINS_14ConstantFolderENS_24IRBuilderDefaultInserterEE6InsertINS_10AllocaInstEEEPT_S7_RKNS_5TwineE(%"class.llvm::IRBuilder"* %12, %"class.llvm::AllocaInst"* %14, %"class.llvm::Twine"* dereferenceable(24) %19)
  ret %"class.llvm::AllocaInst"* %20

; <label>:21:                                     ; preds = %17, %4
  %22 = landingpad { i8*, i32 }
          cleanup
  %23 = extractvalue { i8*, i32 } %22, 0
  store i8* %23, i8** %10, align 8
  %24 = extractvalue { i8*, i32 } %22, 1
  store i32 %24, i32* %11, align 4
  call void @_ZN4llvm4UserdlEPv(i8* %13) #14
  br label %25

; <label>:25:                                     ; preds = %21
  %26 = load i8*, i8** %10, align 8
  %27 = load i32, i32* %11, align 4
  %28 = insertvalue { i8*, i32 } undef, i8* %26, 0
  %29 = insertvalue { i8*, i32 } %28, i32 %27, 1
  resume { i8*, i32 } %29
}

; Function Attrs: ssp uwtable
define linkonce_odr void @_ZN4llvm5TwineC1ERKNSt3__112basic_stringIcNS1_11char_traitsIcEENS1_9allocatorIcEEEE(%"class.llvm::Twine"*, %"class.std::__1::basic_string"* dereferenceable(24)) unnamed_addr #0 align 2 {
  %3 = alloca %"class.llvm::Twine"*, align 8
  %4 = alloca %"class.std::__1::basic_string"*, align 8
  store %"class.llvm::Twine"* %0, %"class.llvm::Twine"** %3, align 8
  store %"class.std::__1::basic_string"* %1, %"class.std::__1::basic_string"** %4, align 8
  %5 = load %"class.llvm::Twine"*, %"class.llvm::Twine"** %3, align 8
  %6 = load %"class.std::__1::basic_string"*, %"class.std::__1::basic_string"** %4, align 8
  call void @_ZN4llvm5TwineC2ERKNSt3__112basic_stringIcNS1_11char_traitsIcEENS1_9allocatorIcEEEE(%"class.llvm::Twine"* %5, %"class.std::__1::basic_string"* dereferenceable(24) %6)
  ret void
}

; Function Attrs: ssp uwtable
define %"class.llvm::Value"* @_ZN8CGMemory12CreateAllocaER13TypeSpecifierNSt3__112basic_stringIcNS2_11char_traitsIcEENS2_9allocatorIcEEEEPN4llvm5ValueEbPNS9_10BasicBlockE(%struct.TypeSpecifier* dereferenceable(216), %"class.std::__1::basic_string"*, %"class.llvm::Value"*, i1 zeroext, %"class.llvm::BasicBlock"*) #0 align 2 personality i8* bitcast (i32 (...)* @__gxx_personality_v0 to i8*) {
  %6 = alloca %struct.TypeSpecifier*, align 8
  %7 = alloca %"class.llvm::Value"*, align 8
  %8 = alloca i8, align 1
  %9 = alloca %"class.llvm::BasicBlock"*, align 8
  %10 = alloca %"class.std::__1::basic_string", align 8
  %11 = alloca i8*
  %12 = alloca i32
  store %struct.TypeSpecifier* %0, %struct.TypeSpecifier** %6, align 8
  store %"class.llvm::Value"* %2, %"class.llvm::Value"** %7, align 8
  %13 = zext i1 %3 to i8
  store i8 %13, i8* %8, align 1
  store %"class.llvm::BasicBlock"* %4, %"class.llvm::BasicBlock"** %9, align 8
  %14 = load %struct.TypeSpecifier*, %struct.TypeSpecifier** %6, align 8
  %15 = call %"class.llvm::Type"* @_ZN6CGType7getTypeER13TypeSpecifier(%struct.TypeSpecifier* dereferenceable(216) %14)
  call void @_ZNSt3__112basic_stringIcNS_11char_traitsIcEENS_9allocatorIcEEEC1ERKS5_(%"class.std::__1::basic_string"* %10, %"class.std::__1::basic_string"* dereferenceable(24) %1)
  %16 = load %"class.llvm::Value"*, %"class.llvm::Value"** %7, align 8
  %17 = load %struct.TypeSpecifier*, %struct.TypeSpecifier** %6, align 8
  %18 = invoke zeroext i16 @_ZN6CGType12getAlignmentER13TypeSpecifier(%struct.TypeSpecifier* dereferenceable(216) %17)
          to label %19 unwind label %24

; <label>:19:                                     ; preds = %5
  %20 = load %"class.llvm::BasicBlock"*, %"class.llvm::BasicBlock"** %9, align 8
  %21 = icmp ne %"class.llvm::BasicBlock"* %20, null
  %22 = invoke %"class.llvm::Value"* @_ZN8CGMemory12CreateAllocaEPN4llvm4TypeENSt3__112basic_stringIcNS3_11char_traitsIcEENS3_9allocatorIcEEEEPNS0_5ValueEtbPNS0_10BasicBlockE(%"class.llvm::Type"* %15, %"class.std::__1::basic_string"* %10, %"class.llvm::Value"* %16, i16 zeroext %18, i1 zeroext %21, %"class.llvm::BasicBlock"* null)
          to label %23 unwind label %24

; <label>:23:                                     ; preds = %19
  call void @_ZNSt3__112basic_stringIcNS_11char_traitsIcEENS_9allocatorIcEEED1Ev(%"class.std::__1::basic_string"* %10) #14
  ret %"class.llvm::Value"* %22

; <label>:24:                                     ; preds = %19, %5
  %25 = landingpad { i8*, i32 }
          cleanup
  %26 = extractvalue { i8*, i32 } %25, 0
  store i8* %26, i8** %11, align 8
  %27 = extractvalue { i8*, i32 } %25, 1
  store i32 %27, i32* %12, align 4
  call void @_ZNSt3__112basic_stringIcNS_11char_traitsIcEENS_9allocatorIcEEED1Ev(%"class.std::__1::basic_string"* %10) #14
  br label %28

; <label>:28:                                     ; preds = %24
  %29 = load i8*, i8** %11, align 8
  %30 = load i32, i32* %12, align 4
  %31 = insertvalue { i8*, i32 } undef, i8* %29, 0
  %32 = insertvalue { i8*, i32 } %31, i32 %30, 1
  resume { i8*, i32 } %32
}

declare %"class.llvm::Type"* @_ZN6CGType7getTypeER13TypeSpecifier(%struct.TypeSpecifier* dereferenceable(216)) #1

declare void @_ZNSt3__112basic_stringIcNS_11char_traitsIcEENS_9allocatorIcEEEC1ERKS5_(%"class.std::__1::basic_string"*, %"class.std::__1::basic_string"* dereferenceable(24)) unnamed_addr #1

declare zeroext i16 @_ZN6CGType12getAlignmentER13TypeSpecifier(%struct.TypeSpecifier* dereferenceable(216)) #1

declare i8* @_ZN4llvm4UsernwEmj(i64, i32) #1

; Function Attrs: ssp uwtable
define linkonce_odr void @_ZN4llvm5TwineC2EPKc(%"class.llvm::Twine"*, i8*) unnamed_addr #0 align 2 {
  %3 = alloca %"class.llvm::Twine"*, align 8
  %4 = alloca i8*, align 8
  store %"class.llvm::Twine"* %0, %"class.llvm::Twine"** %3, align 8
  store i8* %1, i8** %4, align 8
  %5 = load %"class.llvm::Twine"*, %"class.llvm::Twine"** %3, align 8
  %6 = getelementptr inbounds %"class.llvm::Twine", %"class.llvm::Twine"* %5, i32 0, i32 0
  %7 = getelementptr inbounds %"class.llvm::Twine", %"class.llvm::Twine"* %5, i32 0, i32 1
  %8 = getelementptr inbounds %"class.llvm::Twine", %"class.llvm::Twine"* %5, i32 0, i32 3
  store i8 1, i8* %8, align 1
  %9 = load i8*, i8** %4, align 8
  %10 = getelementptr inbounds i8, i8* %9, i64 0
  %11 = load i8, i8* %10, align 1
  %12 = sext i8 %11 to i32
  %13 = icmp ne i32 %12, 0
  br i1 %13, label %14, label %19

; <label>:14:                                     ; preds = %2
  %15 = load i8*, i8** %4, align 8
  %16 = getelementptr inbounds %"class.llvm::Twine", %"class.llvm::Twine"* %5, i32 0, i32 0
  %17 = bitcast %"union.llvm::Twine::Child"* %16 to i8**
  store i8* %15, i8** %17, align 8
  %18 = getelementptr inbounds %"class.llvm::Twine", %"class.llvm::Twine"* %5, i32 0, i32 2
  store i8 3, i8* %18, align 8
  br label %21

; <label>:19:                                     ; preds = %2
  %20 = getelementptr inbounds %"class.llvm::Twine", %"class.llvm::Twine"* %5, i32 0, i32 2
  store i8 1, i8* %20, align 8
  br label %21

; <label>:21:                                     ; preds = %19, %14
  %22 = call zeroext i1 @_ZNK4llvm5Twine7isValidEv(%"class.llvm::Twine"* %5)
  br i1 %22, label %23, label %24

; <label>:23:                                     ; preds = %21
  br label %24

; <label>:24:                                     ; preds = %23, %21
  %25 = phi i1 [ false, %21 ], [ true, %23 ]
  %26 = xor i1 %25, true
  br i1 %26, label %27, label %29

; <label>:27:                                     ; preds = %24
  call void @__assert_rtn(i8* getelementptr inbounds ([6 x i8], [6 x i8]* @__func__._ZN4llvm5TwineC2EPKc, i32 0, i32 0), i8* getelementptr inbounds ([56 x i8], [56 x i8]* @.str.3, i32 0, i32 0), i32 274, i8* getelementptr inbounds ([30 x i8], [30 x i8]* @.str.4, i32 0, i32 0)) #15
  unreachable
                                                  ; No predecessors!
  br label %30

; <label>:29:                                     ; preds = %24
  br label %30

; <label>:30:                                     ; preds = %29, %28
  ret void
}

; Function Attrs: ssp uwtable
define linkonce_odr zeroext i1 @_ZNK4llvm5Twine7isValidEv(%"class.llvm::Twine"*) #0 align 2 {
  %2 = alloca i1, align 1
  %3 = alloca %"class.llvm::Twine"*, align 8
  store %"class.llvm::Twine"* %0, %"class.llvm::Twine"** %3, align 8
  %4 = load %"class.llvm::Twine"*, %"class.llvm::Twine"** %3, align 8
  %5 = call zeroext i1 @_ZNK4llvm5Twine9isNullaryEv(%"class.llvm::Twine"* %4)
  br i1 %5, label %6, label %11

; <label>:6:                                      ; preds = %1
  %7 = call zeroext i8 @_ZNK4llvm5Twine10getRHSKindEv(%"class.llvm::Twine"* %4)
  %8 = zext i8 %7 to i32
  %9 = icmp ne i32 %8, 1
  br i1 %9, label %10, label %11

; <label>:10:                                     ; preds = %6
  store i1 false, i1* %2, align 1
  br label %46

; <label>:11:                                     ; preds = %6, %1
  %12 = call zeroext i8 @_ZNK4llvm5Twine10getRHSKindEv(%"class.llvm::Twine"* %4)
  %13 = zext i8 %12 to i32
  %14 = icmp eq i32 %13, 0
  br i1 %14, label %15, label %16

; <label>:15:                                     ; preds = %11
  store i1 false, i1* %2, align 1
  br label %46

; <label>:16:                                     ; preds = %11
  %17 = call zeroext i8 @_ZNK4llvm5Twine10getRHSKindEv(%"class.llvm::Twine"* %4)
  %18 = zext i8 %17 to i32
  %19 = icmp ne i32 %18, 1
  br i1 %19, label %20, label %25

; <label>:20:                                     ; preds = %16
  %21 = call zeroext i8 @_ZNK4llvm5Twine10getLHSKindEv(%"class.llvm::Twine"* %4)
  %22 = zext i8 %21 to i32
  %23 = icmp eq i32 %22, 1
  br i1 %23, label %24, label %25

; <label>:24:                                     ; preds = %20
  store i1 false, i1* %2, align 1
  br label %46

; <label>:25:                                     ; preds = %20, %16
  %26 = call zeroext i8 @_ZNK4llvm5Twine10getLHSKindEv(%"class.llvm::Twine"* %4)
  %27 = zext i8 %26 to i32
  %28 = icmp eq i32 %27, 2
  br i1 %28, label %29, label %35

; <label>:29:                                     ; preds = %25
  %30 = getelementptr inbounds %"class.llvm::Twine", %"class.llvm::Twine"* %4, i32 0, i32 0
  %31 = bitcast %"union.llvm::Twine::Child"* %30 to %"class.llvm::Twine"**
  %32 = load %"class.llvm::Twine"*, %"class.llvm::Twine"** %31, align 8
  %33 = call zeroext i1 @_ZNK4llvm5Twine8isBinaryEv(%"class.llvm::Twine"* %32)
  br i1 %33, label %35, label %34

; <label>:34:                                     ; preds = %29
  store i1 false, i1* %2, align 1
  br label %46

; <label>:35:                                     ; preds = %29, %25
  %36 = call zeroext i8 @_ZNK4llvm5Twine10getRHSKindEv(%"class.llvm::Twine"* %4)
  %37 = zext i8 %36 to i32
  %38 = icmp eq i32 %37, 2
  br i1 %38, label %39, label %45

; <label>:39:                                     ; preds = %35
  %40 = getelementptr inbounds %"class.llvm::Twine", %"class.llvm::Twine"* %4, i32 0, i32 1
  %41 = bitcast %"union.llvm::Twine::Child"* %40 to %"class.llvm::Twine"**
  %42 = load %"class.llvm::Twine"*, %"class.llvm::Twine"** %41, align 8
  %43 = call zeroext i1 @_ZNK4llvm5Twine8isBinaryEv(%"class.llvm::Twine"* %42)
  br i1 %43, label %45, label %44

; <label>:44:                                     ; preds = %39
  store i1 false, i1* %2, align 1
  br label %46

; <label>:45:                                     ; preds = %39, %35
  store i1 true, i1* %2, align 1
  br label %46

; <label>:46:                                     ; preds = %45, %44, %34, %24, %15, %10
  %47 = load i1, i1* %2, align 1
  ret i1 %47
}

; Function Attrs: noreturn
declare void @__assert_rtn(i8*, i8*, i32, i8*) #5

; Function Attrs: ssp uwtable
define linkonce_odr zeroext i1 @_ZNK4llvm5Twine9isNullaryEv(%"class.llvm::Twine"*) #0 align 2 {
  %2 = alloca %"class.llvm::Twine"*, align 8
  store %"class.llvm::Twine"* %0, %"class.llvm::Twine"** %2, align 8
  %3 = load %"class.llvm::Twine"*, %"class.llvm::Twine"** %2, align 8
  %4 = call zeroext i1 @_ZNK4llvm5Twine6isNullEv(%"class.llvm::Twine"* %3)
  br i1 %4, label %7, label %5

; <label>:5:                                      ; preds = %1
  %6 = call zeroext i1 @_ZNK4llvm5Twine7isEmptyEv(%"class.llvm::Twine"* %3)
  br label %7

; <label>:7:                                      ; preds = %5, %1
  %8 = phi i1 [ true, %1 ], [ %6, %5 ]
  ret i1 %8
}

; Function Attrs: nounwind ssp uwtable
define linkonce_odr zeroext i8 @_ZNK4llvm5Twine10getRHSKindEv(%"class.llvm::Twine"*) #4 align 2 {
  %2 = alloca %"class.llvm::Twine"*, align 8
  store %"class.llvm::Twine"* %0, %"class.llvm::Twine"** %2, align 8
  %3 = load %"class.llvm::Twine"*, %"class.llvm::Twine"** %2, align 8
  %4 = getelementptr inbounds %"class.llvm::Twine", %"class.llvm::Twine"* %3, i32 0, i32 3
  %5 = load i8, i8* %4, align 1
  ret i8 %5
}

; Function Attrs: nounwind ssp uwtable
define linkonce_odr zeroext i8 @_ZNK4llvm5Twine10getLHSKindEv(%"class.llvm::Twine"*) #4 align 2 {
  %2 = alloca %"class.llvm::Twine"*, align 8
  store %"class.llvm::Twine"* %0, %"class.llvm::Twine"** %2, align 8
  %3 = load %"class.llvm::Twine"*, %"class.llvm::Twine"** %2, align 8
  %4 = getelementptr inbounds %"class.llvm::Twine", %"class.llvm::Twine"* %3, i32 0, i32 2
  %5 = load i8, i8* %4, align 8
  ret i8 %5
}

; Function Attrs: nounwind ssp uwtable
define linkonce_odr zeroext i1 @_ZNK4llvm5Twine8isBinaryEv(%"class.llvm::Twine"*) #4 align 2 {
  %2 = alloca %"class.llvm::Twine"*, align 8
  store %"class.llvm::Twine"* %0, %"class.llvm::Twine"** %2, align 8
  %3 = load %"class.llvm::Twine"*, %"class.llvm::Twine"** %2, align 8
  %4 = call zeroext i8 @_ZNK4llvm5Twine10getLHSKindEv(%"class.llvm::Twine"* %3)
  %5 = zext i8 %4 to i32
  %6 = icmp ne i32 %5, 0
  br i1 %6, label %7, label %11

; <label>:7:                                      ; preds = %1
  %8 = call zeroext i8 @_ZNK4llvm5Twine10getRHSKindEv(%"class.llvm::Twine"* %3)
  %9 = zext i8 %8 to i32
  %10 = icmp ne i32 %9, 1
  br label %11

; <label>:11:                                     ; preds = %7, %1
  %12 = phi i1 [ false, %1 ], [ %10, %7 ]
  ret i1 %12
}

; Function Attrs: ssp uwtable
define linkonce_odr zeroext i1 @_ZNK4llvm5Twine6isNullEv(%"class.llvm::Twine"*) #0 align 2 {
  %2 = alloca %"class.llvm::Twine"*, align 8
  store %"class.llvm::Twine"* %0, %"class.llvm::Twine"** %2, align 8
  %3 = load %"class.llvm::Twine"*, %"class.llvm::Twine"** %2, align 8
  %4 = call zeroext i8 @_ZNK4llvm5Twine10getLHSKindEv(%"class.llvm::Twine"* %3)
  %5 = zext i8 %4 to i32
  %6 = icmp eq i32 %5, 0
  ret i1 %6
}

; Function Attrs: ssp uwtable
define linkonce_odr zeroext i1 @_ZNK4llvm5Twine7isEmptyEv(%"class.llvm::Twine"*) #0 align 2 {
  %2 = alloca %"class.llvm::Twine"*, align 8
  store %"class.llvm::Twine"* %0, %"class.llvm::Twine"** %2, align 8
  %3 = load %"class.llvm::Twine"*, %"class.llvm::Twine"** %2, align 8
  %4 = call zeroext i8 @_ZNK4llvm5Twine10getLHSKindEv(%"class.llvm::Twine"* %3)
  %5 = zext i8 %4 to i32
  %6 = icmp eq i32 %5, 1
  ret i1 %6
}

declare %"class.llvm::IntegerType"* @_ZN4llvm4Type10getInt64TyERNS_11LLVMContextE(%"class.llvm::LLVMContext"* dereferenceable(8)) #1

; Function Attrs: inlinehint ssp uwtable
define linkonce_odr %"class.llvm::ilist_node_impl.0"* @_ZN4llvm10BasicBlock3endEv(%"class.llvm::BasicBlock"*) #3 align 2 {
  %2 = alloca %"class.llvm::ilist_iterator", align 8
  %3 = alloca %"class.llvm::BasicBlock"*, align 8
  store %"class.llvm::BasicBlock"* %0, %"class.llvm::BasicBlock"** %3, align 8
  %4 = load %"class.llvm::BasicBlock"*, %"class.llvm::BasicBlock"** %3, align 8
  %5 = getelementptr inbounds %"class.llvm::BasicBlock", %"class.llvm::BasicBlock"* %4, i32 0, i32 2
  %6 = bitcast %"class.llvm::SymbolTableList"* %5 to %"class.llvm::iplist_impl"*
  %7 = bitcast %"class.llvm::iplist_impl"* %6 to %"class.llvm::simple_ilist"*
  %8 = call %"class.llvm::ilist_node_impl.0"* @_ZN4llvm12simple_ilistINS_11InstructionEJEE3endEv(%"class.llvm::simple_ilist"* %7)
  %9 = getelementptr inbounds %"class.llvm::ilist_iterator", %"class.llvm::ilist_iterator"* %2, i32 0, i32 0
  store %"class.llvm::ilist_node_impl.0"* %8, %"class.llvm::ilist_node_impl.0"** %9, align 8
  %10 = getelementptr inbounds %"class.llvm::ilist_iterator", %"class.llvm::ilist_iterator"* %2, i32 0, i32 0
  %11 = load %"class.llvm::ilist_node_impl.0"*, %"class.llvm::ilist_node_impl.0"** %10, align 8
  ret %"class.llvm::ilist_node_impl.0"* %11
}

; Function Attrs: argmemonly nounwind
declare void @llvm.memcpy.p0i8.p0i8.i64(i8* nocapture writeonly, i8* nocapture readonly, i64, i32, i1) #6

; Function Attrs: ssp uwtable
define linkonce_odr %"class.llvm::ilist_node_impl.0"* @_ZN4llvm12simple_ilistINS_11InstructionEJEE3endEv(%"class.llvm::simple_ilist"*) #0 align 2 {
  %2 = alloca %"class.llvm::ilist_iterator", align 8
  %3 = alloca %"class.llvm::simple_ilist"*, align 8
  store %"class.llvm::simple_ilist"* %0, %"class.llvm::simple_ilist"** %3, align 8
  %4 = load %"class.llvm::simple_ilist"*, %"class.llvm::simple_ilist"** %3, align 8
  %5 = getelementptr inbounds %"class.llvm::simple_ilist", %"class.llvm::simple_ilist"* %4, i32 0, i32 0
  %6 = bitcast %"class.llvm::ilist_sentinel"* %5 to %"class.llvm::ilist_node_impl.0"*
  call void @_ZN4llvm14ilist_iteratorINS_12ilist_detail12node_optionsINS_11InstructionELb0ELb0EvEELb0ELb0EEC1ERNS_15ilist_node_implIS4_EE(%"class.llvm::ilist_iterator"* %2, %"class.llvm::ilist_node_impl.0"* dereferenceable(16) %6)
  %7 = getelementptr inbounds %"class.llvm::ilist_iterator", %"class.llvm::ilist_iterator"* %2, i32 0, i32 0
  %8 = load %"class.llvm::ilist_node_impl.0"*, %"class.llvm::ilist_node_impl.0"** %7, align 8
  ret %"class.llvm::ilist_node_impl.0"* %8
}

; Function Attrs: ssp uwtable
define linkonce_odr void @_ZN4llvm14ilist_iteratorINS_12ilist_detail12node_optionsINS_11InstructionELb0ELb0EvEELb0ELb0EEC1ERNS_15ilist_node_implIS4_EE(%"class.llvm::ilist_iterator"*, %"class.llvm::ilist_node_impl.0"* dereferenceable(16)) unnamed_addr #0 align 2 {
  %3 = alloca %"class.llvm::ilist_iterator"*, align 8
  %4 = alloca %"class.llvm::ilist_node_impl.0"*, align 8
  store %"class.llvm::ilist_iterator"* %0, %"class.llvm::ilist_iterator"** %3, align 8
  store %"class.llvm::ilist_node_impl.0"* %1, %"class.llvm::ilist_node_impl.0"** %4, align 8
  %5 = load %"class.llvm::ilist_iterator"*, %"class.llvm::ilist_iterator"** %3, align 8
  %6 = load %"class.llvm::ilist_node_impl.0"*, %"class.llvm::ilist_node_impl.0"** %4, align 8
  call void @_ZN4llvm14ilist_iteratorINS_12ilist_detail12node_optionsINS_11InstructionELb0ELb0EvEELb0ELb0EEC2ERNS_15ilist_node_implIS4_EE(%"class.llvm::ilist_iterator"* %5, %"class.llvm::ilist_node_impl.0"* dereferenceable(16) %6)
  ret void
}

; Function Attrs: nounwind ssp uwtable
define linkonce_odr void @_ZN4llvm14ilist_iteratorINS_12ilist_detail12node_optionsINS_11InstructionELb0ELb0EvEELb0ELb0EEC2ERNS_15ilist_node_implIS4_EE(%"class.llvm::ilist_iterator"*, %"class.llvm::ilist_node_impl.0"* dereferenceable(16)) unnamed_addr #4 align 2 {
  %3 = alloca %"class.llvm::ilist_iterator"*, align 8
  %4 = alloca %"class.llvm::ilist_node_impl.0"*, align 8
  store %"class.llvm::ilist_iterator"* %0, %"class.llvm::ilist_iterator"** %3, align 8
  store %"class.llvm::ilist_node_impl.0"* %1, %"class.llvm::ilist_node_impl.0"** %4, align 8
  %5 = load %"class.llvm::ilist_iterator"*, %"class.llvm::ilist_iterator"** %3, align 8
  %6 = bitcast %"class.llvm::ilist_iterator"* %5 to %"struct.llvm::ilist_detail::SpecificNodeAccess"*
  %7 = getelementptr inbounds %"class.llvm::ilist_iterator", %"class.llvm::ilist_iterator"* %5, i32 0, i32 0
  %8 = load %"class.llvm::ilist_node_impl.0"*, %"class.llvm::ilist_node_impl.0"** %4, align 8
  store %"class.llvm::ilist_node_impl.0"* %8, %"class.llvm::ilist_node_impl.0"** %7, align 8
  ret void
}

; Function Attrs: ssp uwtable
define linkonce_odr void @_ZN4llvm5TwineC2ERKNSt3__112basic_stringIcNS1_11char_traitsIcEENS1_9allocatorIcEEEE(%"class.llvm::Twine"*, %"class.std::__1::basic_string"* dereferenceable(24)) unnamed_addr #0 align 2 {
  %3 = alloca %"class.llvm::Twine"*, align 8
  %4 = alloca %"class.std::__1::basic_string"*, align 8
  store %"class.llvm::Twine"* %0, %"class.llvm::Twine"** %3, align 8
  store %"class.std::__1::basic_string"* %1, %"class.std::__1::basic_string"** %4, align 8
  %5 = load %"class.llvm::Twine"*, %"class.llvm::Twine"** %3, align 8
  %6 = getelementptr inbounds %"class.llvm::Twine", %"class.llvm::Twine"* %5, i32 0, i32 0
  %7 = getelementptr inbounds %"class.llvm::Twine", %"class.llvm::Twine"* %5, i32 0, i32 1
  %8 = getelementptr inbounds %"class.llvm::Twine", %"class.llvm::Twine"* %5, i32 0, i32 2
  store i8 4, i8* %8, align 8
  %9 = getelementptr inbounds %"class.llvm::Twine", %"class.llvm::Twine"* %5, i32 0, i32 3
  store i8 1, i8* %9, align 1
  %10 = load %"class.std::__1::basic_string"*, %"class.std::__1::basic_string"** %4, align 8
  %11 = getelementptr inbounds %"class.llvm::Twine", %"class.llvm::Twine"* %5, i32 0, i32 0
  %12 = bitcast %"union.llvm::Twine::Child"* %11 to %"class.std::__1::basic_string"**
  store %"class.std::__1::basic_string"* %10, %"class.std::__1::basic_string"** %12, align 8
  %13 = call zeroext i1 @_ZNK4llvm5Twine7isValidEv(%"class.llvm::Twine"* %5)
  br i1 %13, label %14, label %15

; <label>:14:                                     ; preds = %2
  br label %15

; <label>:15:                                     ; preds = %14, %2
  %16 = phi i1 [ false, %2 ], [ true, %14 ]
  %17 = xor i1 %16, true
  br i1 %17, label %18, label %20

; <label>:18:                                     ; preds = %15
  call void @__assert_rtn(i8* getelementptr inbounds ([6 x i8], [6 x i8]* @__func__._ZN4llvm5TwineC2EPKc, i32 0, i32 0), i8* getelementptr inbounds ([56 x i8], [56 x i8]* @.str.3, i32 0, i32 0), i32 281, i8* getelementptr inbounds ([30 x i8], [30 x i8]* @.str.4, i32 0, i32 0)) #15
  unreachable
                                                  ; No predecessors!
  br label %21

; <label>:20:                                     ; preds = %15
  br label %21

; <label>:21:                                     ; preds = %20, %19
  ret void
}

; Function Attrs: ssp uwtable
define linkonce_odr zeroext i1 @_ZN4llvm13isa_impl_wrapINS_8ConstantEKPNS_5ValueEPKS2_E4doitERS4_(%"class.llvm::Value"** dereferenceable(8)) #0 align 2 {
  %2 = alloca %"class.llvm::Value"**, align 8
  %3 = alloca %"class.llvm::Value"*, align 8
  store %"class.llvm::Value"** %0, %"class.llvm::Value"*** %2, align 8
  %4 = load %"class.llvm::Value"**, %"class.llvm::Value"*** %2, align 8
  %5 = call %"class.llvm::Value"* @_ZN4llvm13simplify_typeIKPNS_5ValueEE18getSimplifiedValueERS3_(%"class.llvm::Value"** dereferenceable(8) %4)
  store %"class.llvm::Value"* %5, %"class.llvm::Value"** %3, align 8
  %6 = call zeroext i1 @_ZN4llvm13isa_impl_wrapINS_8ConstantEPKNS_5ValueES4_E4doitERKS4_(%"class.llvm::Value"** dereferenceable(8) %3)
  ret i1 %6
}

; Function Attrs: ssp uwtable
define linkonce_odr zeroext i1 @_ZN4llvm13isa_impl_wrapINS_8ConstantEPKNS_5ValueES4_E4doitERKS4_(%"class.llvm::Value"** dereferenceable(8)) #0 align 2 {
  %2 = alloca %"class.llvm::Value"**, align 8
  store %"class.llvm::Value"** %0, %"class.llvm::Value"*** %2, align 8
  %3 = load %"class.llvm::Value"**, %"class.llvm::Value"*** %2, align 8
  %4 = load %"class.llvm::Value"*, %"class.llvm::Value"** %3, align 8
  %5 = call zeroext i1 @_ZN4llvm11isa_impl_clINS_8ConstantEPKNS_5ValueEE4doitES4_(%"class.llvm::Value"* %4)
  ret i1 %5
}

; Function Attrs: ssp uwtable
define linkonce_odr %"class.llvm::Value"* @_ZN4llvm13simplify_typeIKPNS_5ValueEE18getSimplifiedValueERS3_(%"class.llvm::Value"** dereferenceable(8)) #0 align 2 {
  %2 = alloca %"class.llvm::Value"**, align 8
  store %"class.llvm::Value"** %0, %"class.llvm::Value"*** %2, align 8
  %3 = load %"class.llvm::Value"**, %"class.llvm::Value"*** %2, align 8
  %4 = call dereferenceable(8) %"class.llvm::Value"** @_ZN4llvm13simplify_typeIPNS_5ValueEE18getSimplifiedValueERS2_(%"class.llvm::Value"** dereferenceable(8) %3)
  %5 = load %"class.llvm::Value"*, %"class.llvm::Value"** %4, align 8
  ret %"class.llvm::Value"* %5
}

; Function Attrs: inlinehint ssp uwtable
define linkonce_odr zeroext i1 @_ZN4llvm11isa_impl_clINS_8ConstantEPKNS_5ValueEE4doitES4_(%"class.llvm::Value"*) #3 align 2 {
  %2 = alloca %"class.llvm::Value"*, align 8
  store %"class.llvm::Value"* %0, %"class.llvm::Value"** %2, align 8
  %3 = load %"class.llvm::Value"*, %"class.llvm::Value"** %2, align 8
  %4 = icmp ne %"class.llvm::Value"* %3, null
  br i1 %4, label %5, label %6

; <label>:5:                                      ; preds = %1
  br label %6

; <label>:6:                                      ; preds = %5, %1
  %7 = phi i1 [ false, %1 ], [ true, %5 ]
  %8 = xor i1 %7, true
  br i1 %8, label %9, label %11

; <label>:9:                                      ; preds = %6
  call void @__assert_rtn(i8* getelementptr inbounds ([5 x i8], [5 x i8]* @__func__._ZN4llvm11isa_impl_clINS_8ConstantEPKNS_5ValueEE4doitES4_, i32 0, i32 0), i8* getelementptr inbounds ([62 x i8], [62 x i8]* @.str.6, i32 0, i32 0), i32 95, i8* getelementptr inbounds ([38 x i8], [38 x i8]* @.str.7, i32 0, i32 0)) #15
  unreachable
                                                  ; No predecessors!
  br label %12

; <label>:11:                                     ; preds = %6
  br label %12

; <label>:12:                                     ; preds = %11, %10
  %13 = load %"class.llvm::Value"*, %"class.llvm::Value"** %2, align 8
  %14 = call zeroext i1 @_ZN4llvm8isa_implINS_8ConstantENS_5ValueEvE4doitERKS2_(%"class.llvm::Value"* dereferenceable(32) %13)
  ret i1 %14
}

; Function Attrs: inlinehint ssp uwtable
define linkonce_odr zeroext i1 @_ZN4llvm8isa_implINS_8ConstantENS_5ValueEvE4doitERKS2_(%"class.llvm::Value"* dereferenceable(32)) #3 align 2 {
  %2 = alloca %"class.llvm::Value"*, align 8
  store %"class.llvm::Value"* %0, %"class.llvm::Value"** %2, align 8
  %3 = load %"class.llvm::Value"*, %"class.llvm::Value"** %2, align 8
  %4 = call i32 @_ZNK4llvm5Value10getValueIDEv(%"class.llvm::Value"* %3)
  %5 = icmp uge i32 %4, 5
  br i1 %5, label %6, label %10

; <label>:6:                                      ; preds = %1
  %7 = load %"class.llvm::Value"*, %"class.llvm::Value"** %2, align 8
  %8 = call i32 @_ZNK4llvm5Value10getValueIDEv(%"class.llvm::Value"* %7)
  %9 = icmp ule i32 %8, 21
  br label %10

; <label>:10:                                     ; preds = %6, %1
  %11 = phi i1 [ false, %1 ], [ %9, %6 ]
  ret i1 %11
}

; Function Attrs: nounwind ssp uwtable
define linkonce_odr i32 @_ZNK4llvm5Value10getValueIDEv(%"class.llvm::Value"*) #4 align 2 {
  %2 = alloca %"class.llvm::Value"*, align 8
  store %"class.llvm::Value"* %0, %"class.llvm::Value"** %2, align 8
  %3 = load %"class.llvm::Value"*, %"class.llvm::Value"** %2, align 8
  %4 = getelementptr inbounds %"class.llvm::Value", %"class.llvm::Value"* %3, i32 0, i32 3
  %5 = load i8, i8* %4, align 8
  %6 = zext i8 %5 to i32
  ret i32 %6
}

; Function Attrs: nounwind ssp uwtable
define linkonce_odr dereferenceable(8) %"class.llvm::Value"** @_ZN4llvm13simplify_typeIPNS_5ValueEE18getSimplifiedValueERS2_(%"class.llvm::Value"** dereferenceable(8)) #4 align 2 {
  %2 = alloca %"class.llvm::Value"**, align 8
  store %"class.llvm::Value"** %0, %"class.llvm::Value"*** %2, align 8
  %3 = load %"class.llvm::Value"**, %"class.llvm::Value"*** %2, align 8
  ret %"class.llvm::Value"** %3
}

; Function Attrs: nounwind ssp uwtable
define linkonce_odr %"class.llvm::StructType"* @_ZN4llvm16cast_convert_valINS_10StructTypeEPNS_4TypeES3_E4doitERKS3_(%"class.llvm::Type"** dereferenceable(8)) #4 align 2 {
  %2 = alloca %"class.llvm::Type"**, align 8
  %3 = alloca %"class.llvm::StructType"*, align 8
  store %"class.llvm::Type"** %0, %"class.llvm::Type"*** %2, align 8
  %4 = load %"class.llvm::Type"**, %"class.llvm::Type"*** %2, align 8
  %5 = load %"class.llvm::Type"*, %"class.llvm::Type"** %4, align 8
  %6 = bitcast %"class.llvm::Type"* %5 to %"class.llvm::StructType"*
  store %"class.llvm::StructType"* %6, %"class.llvm::StructType"** %3, align 8
  %7 = load %"class.llvm::StructType"*, %"class.llvm::StructType"** %3, align 8
  ret %"class.llvm::StructType"* %7
}

; Function Attrs: ssp uwtable
define linkonce_odr zeroext i1 @_ZN4llvm13isa_impl_wrapINS_10StructTypeEKPNS_4TypeEPKS2_E4doitERS4_(%"class.llvm::Type"** dereferenceable(8)) #0 align 2 {
  %2 = alloca %"class.llvm::Type"**, align 8
  %3 = alloca %"class.llvm::Type"*, align 8
  store %"class.llvm::Type"** %0, %"class.llvm::Type"*** %2, align 8
  %4 = load %"class.llvm::Type"**, %"class.llvm::Type"*** %2, align 8
  %5 = call %"class.llvm::Type"* @_ZN4llvm13simplify_typeIKPNS_4TypeEE18getSimplifiedValueERS3_(%"class.llvm::Type"** dereferenceable(8) %4)
  store %"class.llvm::Type"* %5, %"class.llvm::Type"** %3, align 8
  %6 = call zeroext i1 @_ZN4llvm13isa_impl_wrapINS_10StructTypeEPKNS_4TypeES4_E4doitERKS4_(%"class.llvm::Type"** dereferenceable(8) %3)
  ret i1 %6
}

; Function Attrs: ssp uwtable
define linkonce_odr zeroext i1 @_ZN4llvm13isa_impl_wrapINS_10StructTypeEPKNS_4TypeES4_E4doitERKS4_(%"class.llvm::Type"** dereferenceable(8)) #0 align 2 {
  %2 = alloca %"class.llvm::Type"**, align 8
  store %"class.llvm::Type"** %0, %"class.llvm::Type"*** %2, align 8
  %3 = load %"class.llvm::Type"**, %"class.llvm::Type"*** %2, align 8
  %4 = load %"class.llvm::Type"*, %"class.llvm::Type"** %3, align 8
  %5 = call zeroext i1 @_ZN4llvm11isa_impl_clINS_10StructTypeEPKNS_4TypeEE4doitES4_(%"class.llvm::Type"* %4)
  ret i1 %5
}

; Function Attrs: ssp uwtable
define linkonce_odr %"class.llvm::Type"* @_ZN4llvm13simplify_typeIKPNS_4TypeEE18getSimplifiedValueERS3_(%"class.llvm::Type"** dereferenceable(8)) #0 align 2 {
  %2 = alloca %"class.llvm::Type"**, align 8
  store %"class.llvm::Type"** %0, %"class.llvm::Type"*** %2, align 8
  %3 = load %"class.llvm::Type"**, %"class.llvm::Type"*** %2, align 8
  %4 = call dereferenceable(8) %"class.llvm::Type"** @_ZN4llvm13simplify_typeIPNS_4TypeEE18getSimplifiedValueERS2_(%"class.llvm::Type"** dereferenceable(8) %3)
  %5 = load %"class.llvm::Type"*, %"class.llvm::Type"** %4, align 8
  ret %"class.llvm::Type"* %5
}

; Function Attrs: inlinehint ssp uwtable
define linkonce_odr zeroext i1 @_ZN4llvm11isa_impl_clINS_10StructTypeEPKNS_4TypeEE4doitES4_(%"class.llvm::Type"*) #3 align 2 {
  %2 = alloca %"class.llvm::Type"*, align 8
  store %"class.llvm::Type"* %0, %"class.llvm::Type"** %2, align 8
  %3 = load %"class.llvm::Type"*, %"class.llvm::Type"** %2, align 8
  %4 = icmp ne %"class.llvm::Type"* %3, null
  br i1 %4, label %5, label %6

; <label>:5:                                      ; preds = %1
  br label %6

; <label>:6:                                      ; preds = %5, %1
  %7 = phi i1 [ false, %1 ], [ true, %5 ]
  %8 = xor i1 %7, true
  br i1 %8, label %9, label %11

; <label>:9:                                      ; preds = %6
  call void @__assert_rtn(i8* getelementptr inbounds ([5 x i8], [5 x i8]* @__func__._ZN4llvm11isa_impl_clINS_8ConstantEPKNS_5ValueEE4doitES4_, i32 0, i32 0), i8* getelementptr inbounds ([62 x i8], [62 x i8]* @.str.6, i32 0, i32 0), i32 95, i8* getelementptr inbounds ([38 x i8], [38 x i8]* @.str.7, i32 0, i32 0)) #15
  unreachable
                                                  ; No predecessors!
  br label %12

; <label>:11:                                     ; preds = %6
  br label %12

; <label>:12:                                     ; preds = %11, %10
  %13 = load %"class.llvm::Type"*, %"class.llvm::Type"** %2, align 8
  %14 = call zeroext i1 @_ZN4llvm8isa_implINS_10StructTypeENS_4TypeEvE4doitERKS2_(%"class.llvm::Type"* dereferenceable(24) %13)
  ret i1 %14
}

; Function Attrs: inlinehint ssp uwtable
define linkonce_odr zeroext i1 @_ZN4llvm8isa_implINS_10StructTypeENS_4TypeEvE4doitERKS2_(%"class.llvm::Type"* dereferenceable(24)) #3 align 2 {
  %2 = alloca %"class.llvm::Type"*, align 8
  store %"class.llvm::Type"* %0, %"class.llvm::Type"** %2, align 8
  %3 = load %"class.llvm::Type"*, %"class.llvm::Type"** %2, align 8
  %4 = call zeroext i1 @_ZN4llvm10StructType7classofEPKNS_4TypeE(%"class.llvm::Type"* %3)
  ret i1 %4
}

; Function Attrs: inlinehint ssp uwtable
define linkonce_odr zeroext i1 @_ZN4llvm10StructType7classofEPKNS_4TypeE(%"class.llvm::Type"*) #3 align 2 {
  %2 = alloca %"class.llvm::Type"*, align 8
  store %"class.llvm::Type"* %0, %"class.llvm::Type"** %2, align 8
  %3 = load %"class.llvm::Type"*, %"class.llvm::Type"** %2, align 8
  %4 = call i32 @_ZNK4llvm4Type9getTypeIDEv(%"class.llvm::Type"* %3)
  %5 = icmp eq i32 %4, 13
  ret i1 %5
}

; Function Attrs: nounwind ssp uwtable
define linkonce_odr i32 @_ZNK4llvm4Type9getTypeIDEv(%"class.llvm::Type"*) #4 align 2 {
  %2 = alloca %"class.llvm::Type"*, align 8
  store %"class.llvm::Type"* %0, %"class.llvm::Type"** %2, align 8
  %3 = load %"class.llvm::Type"*, %"class.llvm::Type"** %2, align 8
  %4 = getelementptr inbounds %"class.llvm::Type", %"class.llvm::Type"* %3, i32 0, i32 1
  %5 = load i32, i32* %4, align 8
  %6 = and i32 %5, 255
  ret i32 %6
}

; Function Attrs: nounwind ssp uwtable
define linkonce_odr dereferenceable(8) %"class.llvm::Type"** @_ZN4llvm13simplify_typeIPNS_4TypeEE18getSimplifiedValueERS2_(%"class.llvm::Type"** dereferenceable(8)) #4 align 2 {
  %2 = alloca %"class.llvm::Type"**, align 8
  store %"class.llvm::Type"** %0, %"class.llvm::Type"*** %2, align 8
  %3 = load %"class.llvm::Type"**, %"class.llvm::Type"*** %2, align 8
  ret %"class.llvm::Type"** %3
}

; Function Attrs: ssp uwtable
define linkonce_odr %"class.llvm::Value"* @_ZN4llvm9IRBuilderINS_14ConstantFolderENS_24IRBuilderDefaultInserterEE10CreateCastENS_11Instruction7CastOpsEPNS_5ValueEPNS_4TypeERKNS_5TwineE(%"class.llvm::IRBuilder"*, i32, %"class.llvm::Value"*, %"class.llvm::Type"*, %"class.llvm::Twine"* dereferenceable(24)) #0 align 2 {
  %6 = alloca %"class.llvm::Value"*, align 8
  %7 = alloca %"class.llvm::IRBuilder"*, align 8
  %8 = alloca i32, align 4
  %9 = alloca %"class.llvm::Value"*, align 8
  %10 = alloca %"class.llvm::Type"*, align 8
  %11 = alloca %"class.llvm::Twine"*, align 8
  %12 = alloca %"class.llvm::Constant"*, align 8
  %13 = alloca %"class.llvm::Twine", align 8
  store %"class.llvm::IRBuilder"* %0, %"class.llvm::IRBuilder"** %7, align 8
  store i32 %1, i32* %8, align 4
  store %"class.llvm::Value"* %2, %"class.llvm::Value"** %9, align 8
  store %"class.llvm::Type"* %3, %"class.llvm::Type"** %10, align 8
  store %"class.llvm::Twine"* %4, %"class.llvm::Twine"** %11, align 8
  %14 = load %"class.llvm::IRBuilder"*, %"class.llvm::IRBuilder"** %7, align 8
  %15 = load %"class.llvm::Value"*, %"class.llvm::Value"** %9, align 8
  %16 = call %"class.llvm::Type"* @_ZNK4llvm5Value7getTypeEv(%"class.llvm::Value"* %15)
  %17 = load %"class.llvm::Type"*, %"class.llvm::Type"** %10, align 8
  %18 = icmp eq %"class.llvm::Type"* %16, %17
  br i1 %18, label %19, label %21

; <label>:19:                                     ; preds = %5
  %20 = load %"class.llvm::Value"*, %"class.llvm::Value"** %9, align 8
  store %"class.llvm::Value"* %20, %"class.llvm::Value"** %6, align 8
  br label %43

; <label>:21:                                     ; preds = %5
  %22 = load %"class.llvm::Value"*, %"class.llvm::Value"** %9, align 8
  %23 = call %"class.llvm::Constant"* @_ZN4llvm8dyn_castINS_8ConstantENS_5ValueEEENS_10cast_rettyIT_PT0_E8ret_typeES6_(%"class.llvm::Value"* %22)
  store %"class.llvm::Constant"* %23, %"class.llvm::Constant"** %12, align 8
  %24 = load %"class.llvm::Constant"*, %"class.llvm::Constant"** %12, align 8
  %25 = icmp ne %"class.llvm::Constant"* %24, null
  br i1 %25, label %26, label %35

; <label>:26:                                     ; preds = %21
  %27 = getelementptr inbounds %"class.llvm::IRBuilder", %"class.llvm::IRBuilder"* %14, i32 0, i32 1
  %28 = load i32, i32* %8, align 4
  %29 = load %"class.llvm::Constant"*, %"class.llvm::Constant"** %12, align 8
  %30 = load %"class.llvm::Type"*, %"class.llvm::Type"** %10, align 8
  %31 = call %"class.llvm::Constant"* @_ZNK4llvm14ConstantFolder10CreateCastENS_11Instruction7CastOpsEPNS_8ConstantEPNS_4TypeE(%"class.llvm::ConstantFolder"* %27, i32 %28, %"class.llvm::Constant"* %29, %"class.llvm::Type"* %30)
  %32 = load %"class.llvm::Twine"*, %"class.llvm::Twine"** %11, align 8
  %33 = call %"class.llvm::Constant"* @_ZNK4llvm9IRBuilderINS_14ConstantFolderENS_24IRBuilderDefaultInserterEE6InsertEPNS_8ConstantERKNS_5TwineE(%"class.llvm::IRBuilder"* %14, %"class.llvm::Constant"* %31, %"class.llvm::Twine"* dereferenceable(24) %32)
  %34 = bitcast %"class.llvm::Constant"* %33 to %"class.llvm::Value"*
  store %"class.llvm::Value"* %34, %"class.llvm::Value"** %6, align 8
  br label %43

; <label>:35:                                     ; preds = %21
  %36 = load i32, i32* %8, align 4
  %37 = load %"class.llvm::Value"*, %"class.llvm::Value"** %9, align 8
  %38 = load %"class.llvm::Type"*, %"class.llvm::Type"** %10, align 8
  call void @_ZN4llvm5TwineC1EPKc(%"class.llvm::Twine"* %13, i8* getelementptr inbounds ([1 x i8], [1 x i8]* @.str, i32 0, i32 0))
  %39 = call %"class.llvm::CastInst"* @_ZN4llvm8CastInst6CreateENS_11Instruction7CastOpsEPNS_5ValueEPNS_4TypeERKNS_5TwineEPS1_(i32 %36, %"class.llvm::Value"* %37, %"class.llvm::Type"* %38, %"class.llvm::Twine"* dereferenceable(24) %13, %"class.llvm::Instruction"* null)
  %40 = load %"class.llvm::Twine"*, %"class.llvm::Twine"** %11, align 8
  %41 = call %"class.llvm::CastInst"* @_ZNK4llvm9IRBuilderINS_14ConstantFolderENS_24IRBuilderDefaultInserterEE6InsertINS_8CastInstEEEPT_S7_RKNS_5TwineE(%"class.llvm::IRBuilder"* %14, %"class.llvm::CastInst"* %39, %"class.llvm::Twine"* dereferenceable(24) %40)
  %42 = bitcast %"class.llvm::CastInst"* %41 to %"class.llvm::Value"*
  store %"class.llvm::Value"* %42, %"class.llvm::Value"** %6, align 8
  br label %43

; <label>:43:                                     ; preds = %35, %26, %19
  %44 = load %"class.llvm::Value"*, %"class.llvm::Value"** %6, align 8
  ret %"class.llvm::Value"* %44
}

; Function Attrs: nounwind ssp uwtable
define linkonce_odr %"class.llvm::Type"* @_ZNK4llvm5Value7getTypeEv(%"class.llvm::Value"*) #4 align 2 {
  %2 = alloca %"class.llvm::Value"*, align 8
  store %"class.llvm::Value"* %0, %"class.llvm::Value"** %2, align 8
  %3 = load %"class.llvm::Value"*, %"class.llvm::Value"** %2, align 8
  %4 = getelementptr inbounds %"class.llvm::Value", %"class.llvm::Value"* %3, i32 0, i32 1
  %5 = load %"class.llvm::Type"*, %"class.llvm::Type"** %4, align 8
  ret %"class.llvm::Type"* %5
}

; Function Attrs: inlinehint ssp uwtable
define linkonce_odr %"class.llvm::Constant"* @_ZN4llvm8dyn_castINS_8ConstantENS_5ValueEEENS_10cast_rettyIT_PT0_E8ret_typeES6_(%"class.llvm::Value"*) #3 {
  %2 = alloca %"class.llvm::Value"*, align 8
  store %"class.llvm::Value"* %0, %"class.llvm::Value"** %2, align 8
  %3 = call zeroext i1 @_ZN4llvm3isaINS_8ConstantEPNS_5ValueEEEbRKT0_(%"class.llvm::Value"** dereferenceable(8) %2)
  br i1 %3, label %4, label %7

; <label>:4:                                      ; preds = %1
  %5 = load %"class.llvm::Value"*, %"class.llvm::Value"** %2, align 8
  %6 = call %"class.llvm::Constant"* @_ZN4llvm4castINS_8ConstantENS_5ValueEEENS_10cast_rettyIT_PT0_E8ret_typeES6_(%"class.llvm::Value"* %5)
  br label %8

; <label>:7:                                      ; preds = %1
  br label %8

; <label>:8:                                      ; preds = %7, %4
  %9 = phi %"class.llvm::Constant"* [ %6, %4 ], [ null, %7 ]
  ret %"class.llvm::Constant"* %9
}

; Function Attrs: nounwind ssp uwtable
define linkonce_odr %"class.llvm::Constant"* @_ZNK4llvm9IRBuilderINS_14ConstantFolderENS_24IRBuilderDefaultInserterEE6InsertEPNS_8ConstantERKNS_5TwineE(%"class.llvm::IRBuilder"*, %"class.llvm::Constant"*, %"class.llvm::Twine"* dereferenceable(24)) #4 align 2 {
  %4 = alloca %"class.llvm::IRBuilder"*, align 8
  %5 = alloca %"class.llvm::Constant"*, align 8
  %6 = alloca %"class.llvm::Twine"*, align 8
  store %"class.llvm::IRBuilder"* %0, %"class.llvm::IRBuilder"** %4, align 8
  store %"class.llvm::Constant"* %1, %"class.llvm::Constant"** %5, align 8
  store %"class.llvm::Twine"* %2, %"class.llvm::Twine"** %6, align 8
  %7 = load %"class.llvm::IRBuilder"*, %"class.llvm::IRBuilder"** %4, align 8
  %8 = load %"class.llvm::Constant"*, %"class.llvm::Constant"** %5, align 8
  ret %"class.llvm::Constant"* %8
}

; Function Attrs: ssp uwtable
define linkonce_odr %"class.llvm::Constant"* @_ZNK4llvm14ConstantFolder10CreateCastENS_11Instruction7CastOpsEPNS_8ConstantEPNS_4TypeE(%"class.llvm::ConstantFolder"*, i32, %"class.llvm::Constant"*, %"class.llvm::Type"*) #0 align 2 {
  %5 = alloca %"class.llvm::ConstantFolder"*, align 8
  %6 = alloca i32, align 4
  %7 = alloca %"class.llvm::Constant"*, align 8
  %8 = alloca %"class.llvm::Type"*, align 8
  store %"class.llvm::ConstantFolder"* %0, %"class.llvm::ConstantFolder"** %5, align 8
  store i32 %1, i32* %6, align 4
  store %"class.llvm::Constant"* %2, %"class.llvm::Constant"** %7, align 8
  store %"class.llvm::Type"* %3, %"class.llvm::Type"** %8, align 8
  %9 = load %"class.llvm::ConstantFolder"*, %"class.llvm::ConstantFolder"** %5, align 8
  %10 = load i32, i32* %6, align 4
  %11 = load %"class.llvm::Constant"*, %"class.llvm::Constant"** %7, align 8
  %12 = load %"class.llvm::Type"*, %"class.llvm::Type"** %8, align 8
  %13 = call %"class.llvm::Constant"* @_ZN4llvm12ConstantExpr7getCastEjPNS_8ConstantEPNS_4TypeEb(i32 %10, %"class.llvm::Constant"* %11, %"class.llvm::Type"* %12, i1 zeroext false)
  ret %"class.llvm::Constant"* %13
}

; Function Attrs: ssp uwtable
define linkonce_odr %"class.llvm::CastInst"* @_ZNK4llvm9IRBuilderINS_14ConstantFolderENS_24IRBuilderDefaultInserterEE6InsertINS_8CastInstEEEPT_S7_RKNS_5TwineE(%"class.llvm::IRBuilder"*, %"class.llvm::CastInst"*, %"class.llvm::Twine"* dereferenceable(24)) #0 align 2 {
  %4 = alloca %"class.llvm::IRBuilder"*, align 8
  %5 = alloca %"class.llvm::CastInst"*, align 8
  %6 = alloca %"class.llvm::Twine"*, align 8
  %7 = alloca %"class.llvm::ilist_iterator", align 8
  store %"class.llvm::IRBuilder"* %0, %"class.llvm::IRBuilder"** %4, align 8
  store %"class.llvm::CastInst"* %1, %"class.llvm::CastInst"** %5, align 8
  store %"class.llvm::Twine"* %2, %"class.llvm::Twine"** %6, align 8
  %8 = load %"class.llvm::IRBuilder"*, %"class.llvm::IRBuilder"** %4, align 8
  %9 = bitcast %"class.llvm::IRBuilder"* %8 to %"class.llvm::IRBuilderDefaultInserter"*
  %10 = load %"class.llvm::CastInst"*, %"class.llvm::CastInst"** %5, align 8
  %11 = bitcast %"class.llvm::CastInst"* %10 to %"class.llvm::Instruction"*
  %12 = load %"class.llvm::Twine"*, %"class.llvm::Twine"** %6, align 8
  %13 = bitcast %"class.llvm::IRBuilder"* %8 to %"class.llvm::IRBuilderBase"*
  %14 = getelementptr inbounds %"class.llvm::IRBuilderBase", %"class.llvm::IRBuilderBase"* %13, i32 0, i32 1
  %15 = load %"class.llvm::BasicBlock"*, %"class.llvm::BasicBlock"** %14, align 8
  %16 = bitcast %"class.llvm::IRBuilder"* %8 to %"class.llvm::IRBuilderBase"*
  %17 = getelementptr inbounds %"class.llvm::IRBuilderBase", %"class.llvm::IRBuilderBase"* %16, i32 0, i32 2
  %18 = bitcast %"class.llvm::ilist_iterator"* %7 to i8*
  %19 = bitcast %"class.llvm::ilist_iterator"* %17 to i8*
  call void @llvm.memcpy.p0i8.p0i8.i64(i8* %18, i8* %19, i64 8, i32 8, i1 false)
  %20 = getelementptr inbounds %"class.llvm::ilist_iterator", %"class.llvm::ilist_iterator"* %7, i32 0, i32 0
  %21 = load %"class.llvm::ilist_node_impl.0"*, %"class.llvm::ilist_node_impl.0"** %20, align 8
  call void @_ZNK4llvm24IRBuilderDefaultInserter12InsertHelperEPNS_11InstructionERKNS_5TwineEPNS_10BasicBlockENS_14ilist_iteratorINS_12ilist_detail12node_optionsIS1_Lb0ELb0EvEELb0ELb0EEE(%"class.llvm::IRBuilderDefaultInserter"* %9, %"class.llvm::Instruction"* %11, %"class.llvm::Twine"* dereferenceable(24) %12, %"class.llvm::BasicBlock"* %15, %"class.llvm::ilist_node_impl.0"* %21)
  %22 = bitcast %"class.llvm::IRBuilder"* %8 to %"class.llvm::IRBuilderBase"*
  %23 = load %"class.llvm::CastInst"*, %"class.llvm::CastInst"** %5, align 8
  %24 = bitcast %"class.llvm::CastInst"* %23 to %"class.llvm::Instruction"*
  call void @_ZNK4llvm13IRBuilderBase20SetInstDebugLocationEPNS_11InstructionE(%"class.llvm::IRBuilderBase"* %22, %"class.llvm::Instruction"* %24)
  %25 = load %"class.llvm::CastInst"*, %"class.llvm::CastInst"** %5, align 8
  ret %"class.llvm::CastInst"* %25
}

declare %"class.llvm::CastInst"* @_ZN4llvm8CastInst6CreateENS_11Instruction7CastOpsEPNS_5ValueEPNS_4TypeERKNS_5TwineEPS1_(i32, %"class.llvm::Value"*, %"class.llvm::Type"*, %"class.llvm::Twine"* dereferenceable(24), %"class.llvm::Instruction"*) #1

; Function Attrs: inlinehint ssp uwtable
define linkonce_odr %"class.llvm::Constant"* @_ZN4llvm4castINS_8ConstantENS_5ValueEEENS_10cast_rettyIT_PT0_E8ret_typeES6_(%"class.llvm::Value"*) #3 {
  %2 = alloca %"class.llvm::Value"*, align 8
  store %"class.llvm::Value"* %0, %"class.llvm::Value"** %2, align 8
  %3 = call zeroext i1 @_ZN4llvm3isaINS_8ConstantEPNS_5ValueEEEbRKT0_(%"class.llvm::Value"** dereferenceable(8) %2)
  br i1 %3, label %4, label %5

; <label>:4:                                      ; preds = %1
  br label %5

; <label>:5:                                      ; preds = %4, %1
  %6 = phi i1 [ false, %1 ], [ true, %4 ]
  %7 = xor i1 %6, true
  br i1 %7, label %8, label %10

; <label>:8:                                      ; preds = %5
  call void @__assert_rtn(i8* getelementptr inbounds ([5 x i8], [5 x i8]* @__func__._ZN4llvm4castINS_10StructTypeENS_4TypeEEENS_10cast_rettyIT_PT0_E8ret_typeES6_, i32 0, i32 0), i8* getelementptr inbounds ([62 x i8], [62 x i8]* @.str.6, i32 0, i32 0), i32 236, i8* getelementptr inbounds ([59 x i8], [59 x i8]* @.str.9, i32 0, i32 0)) #15
  unreachable
                                                  ; No predecessors!
  br label %11

; <label>:10:                                     ; preds = %5
  br label %11

; <label>:11:                                     ; preds = %10, %9
  %12 = call %"class.llvm::Constant"* @_ZN4llvm16cast_convert_valINS_8ConstantEPNS_5ValueES3_E4doitERKS3_(%"class.llvm::Value"** dereferenceable(8) %2)
  ret %"class.llvm::Constant"* %12
}

; Function Attrs: nounwind ssp uwtable
define linkonce_odr %"class.llvm::Constant"* @_ZN4llvm16cast_convert_valINS_8ConstantEPNS_5ValueES3_E4doitERKS3_(%"class.llvm::Value"** dereferenceable(8)) #4 align 2 {
  %2 = alloca %"class.llvm::Value"**, align 8
  %3 = alloca %"class.llvm::Constant"*, align 8
  store %"class.llvm::Value"** %0, %"class.llvm::Value"*** %2, align 8
  %4 = load %"class.llvm::Value"**, %"class.llvm::Value"*** %2, align 8
  %5 = load %"class.llvm::Value"*, %"class.llvm::Value"** %4, align 8
  %6 = bitcast %"class.llvm::Value"* %5 to %"class.llvm::Constant"*
  store %"class.llvm::Constant"* %6, %"class.llvm::Constant"** %3, align 8
  %7 = load %"class.llvm::Constant"*, %"class.llvm::Constant"** %3, align 8
  ret %"class.llvm::Constant"* %7
}

declare %"class.llvm::Constant"* @_ZN4llvm12ConstantExpr7getCastEjPNS_8ConstantEPNS_4TypeEb(i32, %"class.llvm::Constant"*, %"class.llvm::Type"*, i1 zeroext) #1

; Function Attrs: ssp uwtable
define linkonce_odr void @_ZNK4llvm24IRBuilderDefaultInserter12InsertHelperEPNS_11InstructionERKNS_5TwineEPNS_10BasicBlockENS_14ilist_iteratorINS_12ilist_detail12node_optionsIS1_Lb0ELb0EvEELb0ELb0EEE(%"class.llvm::IRBuilderDefaultInserter"*, %"class.llvm::Instruction"*, %"class.llvm::Twine"* dereferenceable(24), %"class.llvm::BasicBlock"*, %"class.llvm::ilist_node_impl.0"*) #0 align 2 {
  %6 = alloca %"class.llvm::ilist_iterator", align 8
  %7 = alloca %"class.llvm::IRBuilderDefaultInserter"*, align 8
  %8 = alloca %"class.llvm::Instruction"*, align 8
  %9 = alloca %"class.llvm::Twine"*, align 8
  %10 = alloca %"class.llvm::BasicBlock"*, align 8
  %11 = alloca %"class.llvm::ilist_iterator", align 8
  %12 = alloca %"class.llvm::ilist_iterator", align 8
  %13 = getelementptr inbounds %"class.llvm::ilist_iterator", %"class.llvm::ilist_iterator"* %6, i32 0, i32 0
  store %"class.llvm::ilist_node_impl.0"* %4, %"class.llvm::ilist_node_impl.0"** %13, align 8
  store %"class.llvm::IRBuilderDefaultInserter"* %0, %"class.llvm::IRBuilderDefaultInserter"** %7, align 8
  store %"class.llvm::Instruction"* %1, %"class.llvm::Instruction"** %8, align 8
  store %"class.llvm::Twine"* %2, %"class.llvm::Twine"** %9, align 8
  store %"class.llvm::BasicBlock"* %3, %"class.llvm::BasicBlock"** %10, align 8
  %14 = load %"class.llvm::IRBuilderDefaultInserter"*, %"class.llvm::IRBuilderDefaultInserter"** %7, align 8
  %15 = load %"class.llvm::BasicBlock"*, %"class.llvm::BasicBlock"** %10, align 8
  %16 = icmp ne %"class.llvm::BasicBlock"* %15, null
  br i1 %16, label %17, label %28

; <label>:17:                                     ; preds = %5
  %18 = load %"class.llvm::BasicBlock"*, %"class.llvm::BasicBlock"** %10, align 8
  %19 = call dereferenceable(16) %"class.llvm::SymbolTableList"* @_ZN4llvm10BasicBlock11getInstListEv(%"class.llvm::BasicBlock"* %18)
  %20 = bitcast %"class.llvm::SymbolTableList"* %19 to %"class.llvm::iplist_impl"*
  %21 = bitcast %"class.llvm::ilist_iterator"* %11 to i8*
  %22 = bitcast %"class.llvm::ilist_iterator"* %6 to i8*
  call void @llvm.memcpy.p0i8.p0i8.i64(i8* %21, i8* %22, i64 8, i32 8, i1 false)
  %23 = load %"class.llvm::Instruction"*, %"class.llvm::Instruction"** %8, align 8
  %24 = getelementptr inbounds %"class.llvm::ilist_iterator", %"class.llvm::ilist_iterator"* %11, i32 0, i32 0
  %25 = load %"class.llvm::ilist_node_impl.0"*, %"class.llvm::ilist_node_impl.0"** %24, align 8
  %26 = call %"class.llvm::ilist_node_impl.0"* @_ZN4llvm11iplist_implINS_12simple_ilistINS_11InstructionEJEEENS_21SymbolTableListTraitsIS2_EEE6insertENS_14ilist_iteratorINS_12ilist_detail12node_optionsIS2_Lb0ELb0EvEELb0ELb0EEEPS2_(%"class.llvm::iplist_impl"* %20, %"class.llvm::ilist_node_impl.0"* %25, %"class.llvm::Instruction"* %23)
  %27 = getelementptr inbounds %"class.llvm::ilist_iterator", %"class.llvm::ilist_iterator"* %12, i32 0, i32 0
  store %"class.llvm::ilist_node_impl.0"* %26, %"class.llvm::ilist_node_impl.0"** %27, align 8
  br label %28

; <label>:28:                                     ; preds = %17, %5
  %29 = load %"class.llvm::Instruction"*, %"class.llvm::Instruction"** %8, align 8
  %30 = bitcast %"class.llvm::Instruction"* %29 to %"class.llvm::Value"*
  %31 = load %"class.llvm::Twine"*, %"class.llvm::Twine"** %9, align 8
  call void @_ZN4llvm5Value7setNameERKNS_5TwineE(%"class.llvm::Value"* %30, %"class.llvm::Twine"* dereferenceable(24) %31)
  ret void
}

; Function Attrs: ssp uwtable
define linkonce_odr void @_ZNK4llvm13IRBuilderBase20SetInstDebugLocationEPNS_11InstructionE(%"class.llvm::IRBuilderBase"*, %"class.llvm::Instruction"*) #0 align 2 personality i8* bitcast (i32 (...)* @__gxx_personality_v0 to i8*) {
  %3 = alloca %"class.llvm::IRBuilderBase"*, align 8
  %4 = alloca %"class.llvm::Instruction"*, align 8
  %5 = alloca %"class.llvm::DebugLoc", align 8
  %6 = alloca i8*
  %7 = alloca i32
  store %"class.llvm::IRBuilderBase"* %0, %"class.llvm::IRBuilderBase"** %3, align 8
  store %"class.llvm::Instruction"* %1, %"class.llvm::Instruction"** %4, align 8
  %8 = load %"class.llvm::IRBuilderBase"*, %"class.llvm::IRBuilderBase"** %3, align 8
  %9 = getelementptr inbounds %"class.llvm::IRBuilderBase", %"class.llvm::IRBuilderBase"* %8, i32 0, i32 0
  %10 = call zeroext i1 @_ZNK4llvm8DebugLoccvbEv(%"class.llvm::DebugLoc"* %9)
  br i1 %10, label %11, label %19

; <label>:11:                                     ; preds = %2
  %12 = load %"class.llvm::Instruction"*, %"class.llvm::Instruction"** %4, align 8
  %13 = getelementptr inbounds %"class.llvm::IRBuilderBase", %"class.llvm::IRBuilderBase"* %8, i32 0, i32 0
  call void @_ZN4llvm8DebugLocC1ERKS0_(%"class.llvm::DebugLoc"* %5, %"class.llvm::DebugLoc"* dereferenceable(8) %13)
  invoke void @_ZN4llvm11Instruction11setDebugLocENS_8DebugLocE(%"class.llvm::Instruction"* %12, %"class.llvm::DebugLoc"* %5)
          to label %14 unwind label %15

; <label>:14:                                     ; preds = %11
  call void @_ZN4llvm8DebugLocD1Ev(%"class.llvm::DebugLoc"* %5) #14
  br label %19

; <label>:15:                                     ; preds = %11
  %16 = landingpad { i8*, i32 }
          cleanup
  %17 = extractvalue { i8*, i32 } %16, 0
  store i8* %17, i8** %6, align 8
  %18 = extractvalue { i8*, i32 } %16, 1
  store i32 %18, i32* %7, align 4
  call void @_ZN4llvm8DebugLocD1Ev(%"class.llvm::DebugLoc"* %5) #14
  br label %20

; <label>:19:                                     ; preds = %14, %2
  ret void

; <label>:20:                                     ; preds = %15
  %21 = load i8*, i8** %6, align 8
  %22 = load i32, i32* %7, align 4
  %23 = insertvalue { i8*, i32 } undef, i8* %21, 0
  %24 = insertvalue { i8*, i32 } %23, i32 %22, 1
  resume { i8*, i32 } %24
}

; Function Attrs: nounwind ssp uwtable
define linkonce_odr dereferenceable(16) %"class.llvm::SymbolTableList"* @_ZN4llvm10BasicBlock11getInstListEv(%"class.llvm::BasicBlock"*) #4 align 2 {
  %2 = alloca %"class.llvm::BasicBlock"*, align 8
  store %"class.llvm::BasicBlock"* %0, %"class.llvm::BasicBlock"** %2, align 8
  %3 = load %"class.llvm::BasicBlock"*, %"class.llvm::BasicBlock"** %2, align 8
  %4 = getelementptr inbounds %"class.llvm::BasicBlock", %"class.llvm::BasicBlock"* %3, i32 0, i32 2
  ret %"class.llvm::SymbolTableList"* %4
}

; Function Attrs: ssp uwtable
define linkonce_odr %"class.llvm::ilist_node_impl.0"* @_ZN4llvm11iplist_implINS_12simple_ilistINS_11InstructionEJEEENS_21SymbolTableListTraitsIS2_EEE6insertENS_14ilist_iteratorINS_12ilist_detail12node_optionsIS2_Lb0ELb0EvEELb0ELb0EEEPS2_(%"class.llvm::iplist_impl"*, %"class.llvm::ilist_node_impl.0"*, %"class.llvm::Instruction"*) #0 align 2 {
  %4 = alloca %"class.llvm::ilist_iterator", align 8
  %5 = alloca %"class.llvm::ilist_iterator", align 8
  %6 = alloca %"class.llvm::iplist_impl"*, align 8
  %7 = alloca %"class.llvm::Instruction"*, align 8
  %8 = alloca %"class.llvm::ilist_iterator", align 8
  %9 = getelementptr inbounds %"class.llvm::ilist_iterator", %"class.llvm::ilist_iterator"* %5, i32 0, i32 0
  store %"class.llvm::ilist_node_impl.0"* %1, %"class.llvm::ilist_node_impl.0"** %9, align 8
  store %"class.llvm::iplist_impl"* %0, %"class.llvm::iplist_impl"** %6, align 8
  store %"class.llvm::Instruction"* %2, %"class.llvm::Instruction"** %7, align 8
  %10 = load %"class.llvm::iplist_impl"*, %"class.llvm::iplist_impl"** %6, align 8
  %11 = bitcast %"class.llvm::iplist_impl"* %10 to %"class.llvm::SymbolTableListTraits"*
  %12 = load %"class.llvm::Instruction"*, %"class.llvm::Instruction"** %7, align 8
  call void @_ZN4llvm21SymbolTableListTraitsINS_11InstructionEE13addNodeToListEPS1_(%"class.llvm::SymbolTableListTraits"* %11, %"class.llvm::Instruction"* %12)
  %13 = bitcast %"class.llvm::iplist_impl"* %10 to %"class.llvm::simple_ilist"*
  %14 = bitcast %"class.llvm::ilist_iterator"* %8 to i8*
  %15 = bitcast %"class.llvm::ilist_iterator"* %5 to i8*
  call void @llvm.memcpy.p0i8.p0i8.i64(i8* %14, i8* %15, i64 8, i32 8, i1 false)
  %16 = load %"class.llvm::Instruction"*, %"class.llvm::Instruction"** %7, align 8
  %17 = getelementptr inbounds %"class.llvm::ilist_iterator", %"class.llvm::ilist_iterator"* %8, i32 0, i32 0
  %18 = load %"class.llvm::ilist_node_impl.0"*, %"class.llvm::ilist_node_impl.0"** %17, align 8
  %19 = call %"class.llvm::ilist_node_impl.0"* @_ZN4llvm12simple_ilistINS_11InstructionEJEE6insertENS_14ilist_iteratorINS_12ilist_detail12node_optionsIS1_Lb0ELb0EvEELb0ELb0EEERS1_(%"class.llvm::simple_ilist"* %13, %"class.llvm::ilist_node_impl.0"* %18, %"class.llvm::Instruction"* dereferenceable(64) %16)
  %20 = getelementptr inbounds %"class.llvm::ilist_iterator", %"class.llvm::ilist_iterator"* %4, i32 0, i32 0
  store %"class.llvm::ilist_node_impl.0"* %19, %"class.llvm::ilist_node_impl.0"** %20, align 8
  %21 = getelementptr inbounds %"class.llvm::ilist_iterator", %"class.llvm::ilist_iterator"* %4, i32 0, i32 0
  %22 = load %"class.llvm::ilist_node_impl.0"*, %"class.llvm::ilist_node_impl.0"** %21, align 8
  ret %"class.llvm::ilist_node_impl.0"* %22
}

declare void @_ZN4llvm5Value7setNameERKNS_5TwineE(%"class.llvm::Value"*, %"class.llvm::Twine"* dereferenceable(24)) #1

declare void @_ZN4llvm21SymbolTableListTraitsINS_11InstructionEE13addNodeToListEPS1_(%"class.llvm::SymbolTableListTraits"*, %"class.llvm::Instruction"*) #1

; Function Attrs: ssp uwtable
define linkonce_odr %"class.llvm::ilist_node_impl.0"* @_ZN4llvm12simple_ilistINS_11InstructionEJEE6insertENS_14ilist_iteratorINS_12ilist_detail12node_optionsIS1_Lb0ELb0EvEELb0ELb0EEERS1_(%"class.llvm::simple_ilist"*, %"class.llvm::ilist_node_impl.0"*, %"class.llvm::Instruction"* dereferenceable(64)) #0 align 2 {
  %4 = alloca %"class.llvm::ilist_iterator", align 8
  %5 = alloca %"class.llvm::ilist_iterator", align 8
  %6 = alloca %"class.llvm::simple_ilist"*, align 8
  %7 = alloca %"class.llvm::Instruction"*, align 8
  %8 = getelementptr inbounds %"class.llvm::ilist_iterator", %"class.llvm::ilist_iterator"* %5, i32 0, i32 0
  store %"class.llvm::ilist_node_impl.0"* %1, %"class.llvm::ilist_node_impl.0"** %8, align 8
  store %"class.llvm::simple_ilist"* %0, %"class.llvm::simple_ilist"** %6, align 8
  store %"class.llvm::Instruction"* %2, %"class.llvm::Instruction"** %7, align 8
  %9 = load %"class.llvm::simple_ilist"*, %"class.llvm::simple_ilist"** %6, align 8
  %10 = call %"class.llvm::ilist_node_impl.0"* @_ZNK4llvm14ilist_iteratorINS_12ilist_detail12node_optionsINS_11InstructionELb0ELb0EvEELb0ELb0EE10getNodePtrEv(%"class.llvm::ilist_iterator"* %5)
  %11 = load %"class.llvm::Instruction"*, %"class.llvm::Instruction"** %7, align 8
  %12 = call %"class.llvm::ilist_node_impl.0"* @_ZN4llvm12ilist_detail18SpecificNodeAccessINS0_12node_optionsINS_11InstructionELb0ELb0EvEEE10getNodePtrEPS3_(%"class.llvm::Instruction"* %11)
  call void @_ZN4llvm10ilist_baseILb0EE12insertBeforeINS_15ilist_node_implINS_12ilist_detail12node_optionsINS_11InstructionELb0ELb0EvEEEEEEvRT_SA_(%"class.llvm::ilist_node_impl.0"* dereferenceable(16) %10, %"class.llvm::ilist_node_impl.0"* dereferenceable(16) %12)
  %13 = load %"class.llvm::Instruction"*, %"class.llvm::Instruction"** %7, align 8
  call void @_ZN4llvm14ilist_iteratorINS_12ilist_detail12node_optionsINS_11InstructionELb0ELb0EvEELb0ELb0EEC1EPS3_(%"class.llvm::ilist_iterator"* %4, %"class.llvm::Instruction"* %13)
  %14 = getelementptr inbounds %"class.llvm::ilist_iterator", %"class.llvm::ilist_iterator"* %4, i32 0, i32 0
  %15 = load %"class.llvm::ilist_node_impl.0"*, %"class.llvm::ilist_node_impl.0"** %14, align 8
  ret %"class.llvm::ilist_node_impl.0"* %15
}

; Function Attrs: ssp uwtable
