; ModuleID = '/Users/Jonas/CLionProjects/HackerRank/XtremeJonasScript/src/AST/Visitor/CodeGen/CGType.cpp'
source_filename = "/Users/Jonas/CLionProjects/HackerRank/XtremeJonasScript/src/AST/Visitor/CodeGen/CGType.cpp"
target datalayout = "e-m:o-i64:64-f80:128-n8:16:32:64-S128"
target triple = "x86_64-apple-macosx10.12.0"

%"class.std::__1::unordered_map" = type { %"class.std::__1::__hash_table" }
%"class.std::__1::__hash_table" = type <{ %"class.std::__1::unique_ptr", %"class.std::__1::__compressed_pair.2", %"class.std::__1::__compressed_pair.6", %"class.std::__1::__compressed_pair.8", [4 x i8] }>
%"class.std::__1::unique_ptr" = type { %"class.std::__1::__compressed_pair" }
%"class.std::__1::__compressed_pair" = type { %"class.std::__1::__libcpp_compressed_pair_imp" }
%"class.std::__1::__libcpp_compressed_pair_imp" = type { %"struct.std::__1::__hash_node_base"**, %"class.std::__1::__bucket_list_deallocator" }
%"struct.std::__1::__hash_node_base" = type { %"struct.std::__1::__hash_node_base"* }
%"class.std::__1::__bucket_list_deallocator" = type { %"class.std::__1::__compressed_pair.0" }
%"class.std::__1::__compressed_pair.0" = type { %"class.std::__1::__libcpp_compressed_pair_imp.1" }
%"class.std::__1::__libcpp_compressed_pair_imp.1" = type { i64 }
%"class.std::__1::__compressed_pair.2" = type { %"class.std::__1::__libcpp_compressed_pair_imp.3" }
%"class.std::__1::__libcpp_compressed_pair_imp.3" = type { %"struct.std::__1::__hash_node_base" }
%"class.std::__1::__compressed_pair.6" = type { %"class.std::__1::__libcpp_compressed_pair_imp.7" }
%"class.std::__1::__libcpp_compressed_pair_imp.7" = type { i64 }
%"class.std::__1::__compressed_pair.8" = type { %"class.std::__1::__libcpp_compressed_pair_imp.9" }
%"class.std::__1::__libcpp_compressed_pair_imp.9" = type { float }
%"class.std::__1::unordered_map.10" = type { %"class.std::__1::__hash_table.11" }
%"class.std::__1::__hash_table.11" = type <{ %"class.std::__1::unique_ptr.12", %"class.std::__1::__compressed_pair.21", %"class.std::__1::__compressed_pair.25", %"class.std::__1::__compressed_pair.30", [4 x i8] }>
%"class.std::__1::unique_ptr.12" = type { %"class.std::__1::__compressed_pair.13" }
%"class.std::__1::__compressed_pair.13" = type { %"class.std::__1::__libcpp_compressed_pair_imp.14" }
%"class.std::__1::__libcpp_compressed_pair_imp.14" = type { %"struct.std::__1::__hash_node_base.15"**, %"class.std::__1::__bucket_list_deallocator.16" }
%"struct.std::__1::__hash_node_base.15" = type { %"struct.std::__1::__hash_node_base.15"* }
%"class.std::__1::__bucket_list_deallocator.16" = type { %"class.std::__1::__compressed_pair.17" }
%"class.std::__1::__compressed_pair.17" = type { %"class.std::__1::__libcpp_compressed_pair_imp.18" }
%"class.std::__1::__libcpp_compressed_pair_imp.18" = type { i64 }
%"class.std::__1::__compressed_pair.21" = type { %"class.std::__1::__libcpp_compressed_pair_imp.22" }
%"class.std::__1::__libcpp_compressed_pair_imp.22" = type { %"struct.std::__1::__hash_node_base.15" }
%"class.std::__1::__compressed_pair.25" = type { %"class.std::__1::__libcpp_compressed_pair_imp.26" }
%"class.std::__1::__libcpp_compressed_pair_imp.26" = type { i64 }
%"class.std::__1::__compressed_pair.30" = type { %"class.std::__1::__libcpp_compressed_pair_imp.31" }
%"class.std::__1::__libcpp_compressed_pair_imp.31" = type { float }
%"class.llvm::IRBuilder" = type <{ %"class.llvm::IRBuilderBase", %"class.llvm::ConstantFolder", [7 x i8] }>
%"class.llvm::IRBuilderBase" = type { %"class.llvm::DebugLoc", %"class.llvm::BasicBlock"*, %"class.llvm::ilist_iterator", %"class.llvm::LLVMContext"*, %"class.llvm::MDNode"*, %"class.llvm::FastMathFlags", %"class.llvm::ArrayRef.108" }
%"class.llvm::DebugLoc" = type { %"class.llvm::TypedTrackingMDRef" }
%"class.llvm::TypedTrackingMDRef" = type { %"class.llvm::TrackingMDRef" }
%"class.llvm::TrackingMDRef" = type { %"class.llvm::Metadata"* }
%"class.llvm::Metadata" = type { i8, i8, i16, i32 }
%"class.llvm::BasicBlock" = type { %"class.llvm::Value", %"class.llvm::ilist_node_with_parent", %"class.llvm::SymbolTableList", %"class.llvm::Function"* }
%"class.llvm::Value" = type { i32 (...)**, %"class.llvm::Type"*, %"class.llvm::Use"*, i8, i8, i16, i32 }
%"class.llvm::Type" = type { %"class.llvm::LLVMContext"*, i32, i32, %"class.llvm::Type"** }
%"class.llvm::Use" = type { %"class.llvm::Value"*, %"class.llvm::Use"*, %"class.llvm::PointerIntPair" }
%"class.llvm::PointerIntPair" = type { i64 }
%"class.llvm::ilist_node_with_parent" = type { %"class.llvm::ilist_node" }
%"class.llvm::ilist_node" = type { %"class.llvm::ilist_node_impl" }
%"class.llvm::ilist_node_impl" = type { %"class.llvm::ilist_node_base" }
%"class.llvm::ilist_node_base" = type { %"class.llvm::ilist_node_base"*, %"class.llvm::ilist_node_base"* }
%"class.llvm::SymbolTableList" = type { %"class.llvm::iplist_impl" }
%"class.llvm::iplist_impl" = type { %"class.llvm::simple_ilist" }
%"class.llvm::simple_ilist" = type { %"class.llvm::ilist_sentinel" }
%"class.llvm::ilist_sentinel" = type { %"class.llvm::ilist_node_impl.84" }
%"class.llvm::ilist_node_impl.84" = type { %"class.llvm::ilist_node_base" }
%"class.llvm::Function" = type { %"class.llvm::GlobalObject", %"class.llvm::ilist_node.85", %"class.llvm::SymbolTableList.87", %"class.llvm::SymbolTableList.94", %"class.std::__1::unique_ptr.102", %"class.llvm::AttributeSet" }
%"class.llvm::GlobalObject" = type { %"class.llvm::GlobalValue", %"class.llvm::Comdat"* }
%"class.llvm::GlobalValue" = type { %"class.llvm::Constant", %"class.llvm::Type"*, i32, i32, %"class.llvm::Module"* }
%"class.llvm::Constant" = type { %"class.llvm::User" }
%"class.llvm::User" = type { %"class.llvm::Value" }
%"class.llvm::Module" = type opaque
%"class.llvm::Comdat" = type opaque
%"class.llvm::ilist_node.85" = type { %"class.llvm::ilist_node_impl.86" }
%"class.llvm::ilist_node_impl.86" = type { %"class.llvm::ilist_node_base" }
%"class.llvm::SymbolTableList.87" = type { %"class.llvm::iplist_impl.88" }
%"class.llvm::iplist_impl.88" = type { %"class.llvm::simple_ilist.91" }
%"class.llvm::simple_ilist.91" = type { %"class.llvm::ilist_sentinel.93" }
%"class.llvm::ilist_sentinel.93" = type { %"class.llvm::ilist_node_impl" }
%"class.llvm::SymbolTableList.94" = type { %"class.llvm::iplist_impl.95" }
%"class.llvm::iplist_impl.95" = type { %"class.llvm::simple_ilist.98" }
%"class.llvm::simple_ilist.98" = type { %"class.llvm::ilist_sentinel.100" }
%"class.llvm::ilist_sentinel.100" = type { %"class.llvm::ilist_node_impl.101" }
%"class.llvm::ilist_node_impl.101" = type { %"class.llvm::ilist_node_base" }
%"class.std::__1::unique_ptr.102" = type { %"class.std::__1::__compressed_pair.103" }
%"class.std::__1::__compressed_pair.103" = type { %"class.std::__1::__libcpp_compressed_pair_imp.104" }
%"class.std::__1::__libcpp_compressed_pair_imp.104" = type { %"class.llvm::ValueSymbolTable"* }
%"class.llvm::ValueSymbolTable" = type opaque
%"class.llvm::AttributeSet" = type { %"class.llvm::AttributeSetImpl"* }
%"class.llvm::AttributeSetImpl" = type opaque
%"class.llvm::ilist_iterator" = type { %"class.llvm::ilist_node_impl.84"* }
%"class.llvm::LLVMContext" = type { %"class.llvm::LLVMContextImpl"* }
%"class.llvm::LLVMContextImpl" = type opaque
%"class.llvm::MDNode" = type { %"class.llvm::Metadata", i32, i32, %"class.llvm::ContextAndReplaceableUses" }
%"class.llvm::ContextAndReplaceableUses" = type { %"class.llvm::PointerUnion" }
%"class.llvm::PointerUnion" = type { %"class.llvm::PointerIntPair.107" }
%"class.llvm::PointerIntPair.107" = type { i64 }
%"class.llvm::FastMathFlags" = type { i32 }
%"class.llvm::ArrayRef.108" = type { %"class.llvm::OperandBundleDefT"*, i64 }
%"class.llvm::OperandBundleDefT" = type { %"class.std::__1::basic_string", %"class.std::__1::vector.109" }
%"class.std::__1::basic_string" = type { %"class.std::__1::__compressed_pair.36" }
%"class.std::__1::__compressed_pair.36" = type { %"class.std::__1::__libcpp_compressed_pair_imp.37" }
%"class.std::__1::__libcpp_compressed_pair_imp.37" = type { %"struct.std::__1::basic_string<char, std::__1::char_traits<char>, std::__1::allocator<char> >::__rep" }
%"struct.std::__1::basic_string<char, std::__1::char_traits<char>, std::__1::allocator<char> >::__rep" = type { %union.anon }
%union.anon = type { %"struct.std::__1::basic_string<char, std::__1::char_traits<char>, std::__1::allocator<char> >::__long" }
%"struct.std::__1::basic_string<char, std::__1::char_traits<char>, std::__1::allocator<char> >::__long" = type { i64, i64, i8* }
%"class.std::__1::vector.109" = type { %"class.std::__1::__vector_base.110" }
%"class.std::__1::__vector_base.110" = type { %"class.llvm::Value"**, %"class.llvm::Value"**, %"class.std::__1::__compressed_pair.111" }
%"class.std::__1::__compressed_pair.111" = type { %"class.std::__1::__libcpp_compressed_pair_imp.112" }
%"class.std::__1::__libcpp_compressed_pair_imp.112" = type { %"class.llvm::Value"** }
%"class.llvm::ConstantFolder" = type { i8 }
%"struct.std::__1::piecewise_construct_t" = type { i8 }
%"class.std::__1::__unordered_map_equal" = type { i8 }
%"class.std::__1::__unordered_map_hasher" = type { i8 }
%"class.std::__1::allocator" = type { i8 }
%"class.std::__1::allocator.4" = type { i8 }
%"struct.std::__1::hash" = type { i8 }
%"struct.std::__1::equal_to" = type { i8 }
%"class.std::__1::__unordered_map_equal.32" = type { i8 }
%"class.std::__1::__unordered_map_hasher.27" = type { i8 }
%"class.std::__1::allocator.19" = type { i8 }
%"class.std::__1::allocator.23" = type { i8 }
%"struct.std::__1::hash.28" = type { i8 }
%"struct.std::__1::equal_to.33" = type { i8 }
%"class.llvm::FunctionType" = type { %"class.llvm::Type" }
%struct.TypeSpecifier = type { i32, %"class.std::__1::basic_string", %"class.std::__1::shared_ptr", i8, i8, i8, i8, i64, i32, i8, i8, %"class.std::__1::basic_string", i8, [7 x i8], %"class.std::__1::unordered_map.41", i8, i8, i8, i8, i8, i8, i8, i32, %"class.std::__1::vector", %"class.std::__1::vector.67", %union.anon.73 }
%"class.std::__1::shared_ptr" = type { %class.Expression*, %"class.std::__1::__shared_weak_count"* }
%class.Expression = type { %class.Statement.base, %"class.std::__1::shared_ptr", i8, %"class.std::__1::shared_ptr", i8, %"class.std::__1::unique_ptr.74", i8, %struct.TypeSpecifier }
%class.Statement.base = type { %class.AstNode.base }
%class.AstNode.base = type <{ i32 (...)**, i32, i32, i64, %class.AstNode*, %class.DeclStmt*, i8, [3 x i8], i32, %"class.std::__1::vector", %struct.TypeSpecifier, %struct.TypeSpecifier, i8, [7 x i8], %"class.std::__1::basic_string", i8, i8 }>
%class.AstNode = type <{ i32 (...)**, i32, i32, i64, %class.AstNode*, %class.DeclStmt*, i8, [3 x i8], i32, %"class.std::__1::vector", %struct.TypeSpecifier, %struct.TypeSpecifier, i8, [7 x i8], %"class.std::__1::basic_string", i8, i8, [6 x i8] }>
%class.DeclStmt = type opaque
%"class.std::__1::unique_ptr.74" = type { %"class.std::__1::__compressed_pair.75" }
%"class.std::__1::__compressed_pair.75" = type { %"class.std::__1::__libcpp_compressed_pair_imp.76" }
%"class.std::__1::__libcpp_compressed_pair_imp.76" = type { %struct.Variant* }
%struct.Variant = type <{ %union.anon.77, i8, [7 x i8], %"class.std::__1::basic_string", %struct.TypeSpecifier, i8, i8, i8, [5 x i8] }>
%union.anon.77 = type { i64 }
%"class.std::__1::__shared_weak_count" = type { %"class.std::__1::__shared_count", i64 }
%"class.std::__1::__shared_count" = type { i32 (...)**, i64 }
%"class.std::__1::unordered_map.41" = type { %"class.std::__1::__hash_table.42" }
%"class.std::__1::__hash_table.42" = type <{ %"class.std::__1::unique_ptr.43", %"class.std::__1::__compressed_pair.52", %"class.std::__1::__compressed_pair.56", %"class.std::__1::__compressed_pair.59", [4 x i8] }>
%"class.std::__1::unique_ptr.43" = type { %"class.std::__1::__compressed_pair.44" }
%"class.std::__1::__compressed_pair.44" = type { %"class.std::__1::__libcpp_compressed_pair_imp.45" }
%"class.std::__1::__libcpp_compressed_pair_imp.45" = type { %"struct.std::__1::__hash_node_base.46"**, %"class.std::__1::__bucket_list_deallocator.47" }
%"struct.std::__1::__hash_node_base.46" = type { %"struct.std::__1::__hash_node_base.46"* }
%"class.std::__1::__bucket_list_deallocator.47" = type { %"class.std::__1::__compressed_pair.48" }
%"class.std::__1::__compressed_pair.48" = type { %"class.std::__1::__libcpp_compressed_pair_imp.49" }
%"class.std::__1::__libcpp_compressed_pair_imp.49" = type { i64 }
%"class.std::__1::__compressed_pair.52" = type { %"class.std::__1::__libcpp_compressed_pair_imp.53" }
%"class.std::__1::__libcpp_compressed_pair_imp.53" = type { %"struct.std::__1::__hash_node_base.46" }
%"class.std::__1::__compressed_pair.56" = type { %"class.std::__1::__libcpp_compressed_pair_imp.57" }
%"class.std::__1::__libcpp_compressed_pair_imp.57" = type { i64 }
%"class.std::__1::__compressed_pair.59" = type { %"class.std::__1::__libcpp_compressed_pair_imp.60" }
%"class.std::__1::__libcpp_compressed_pair_imp.60" = type { float }
%"class.std::__1::vector" = type { %"class.std::__1::__vector_base" }
%"class.std::__1::__vector_base" = type { %"class.std::__1::basic_string"*, %"class.std::__1::basic_string"*, %"class.std::__1::__compressed_pair.63" }
%"class.std::__1::__compressed_pair.63" = type { %"class.std::__1::__libcpp_compressed_pair_imp.64" }
%"class.std::__1::__libcpp_compressed_pair_imp.64" = type { %"class.std::__1::basic_string"* }
%"class.std::__1::vector.67" = type { %"class.std::__1::__vector_base.68" }
%"class.std::__1::__vector_base.68" = type { %struct.TypeSpecifier*, %struct.TypeSpecifier*, %"class.std::__1::__compressed_pair.69" }
%"class.std::__1::__compressed_pair.69" = type { %"class.std::__1::__libcpp_compressed_pair_imp.70" }
%"class.std::__1::__libcpp_compressed_pair_imp.70" = type { %struct.TypeSpecifier* }
%union.anon.73 = type { %struct.TypeSpecifier* }
%"class.std::__1::vector.78" = type { %"class.std::__1::__vector_base.79" }
%"class.std::__1::__vector_base.79" = type { %"class.llvm::Type"**, %"class.llvm::Type"**, %"class.std::__1::__compressed_pair.80" }
%"class.std::__1::__compressed_pair.80" = type { %"class.std::__1::__libcpp_compressed_pair_imp.81" }
%"class.std::__1::__libcpp_compressed_pair_imp.81" = type { %"class.llvm::Type"** }
%"class.llvm::ArrayRef" = type { %"class.llvm::Type"**, i64 }
%"class.llvm::PointerType" = type { %"class.llvm::Type", %"class.llvm::Type"* }
%"class.std::__1::__wrap_iter" = type { %struct.TypeSpecifier* }
%"class.std::__1::allocator.82" = type { i8 }
%"struct.std::__1::integral_constant.128" = type { i8 }
%"struct.std::__1::__has_construct.154" = type { i8 }
%"struct.std::__1::vector<llvm::Type *, std::__1::allocator<llvm::Type *> >::__RAII_IncreaseAnnotator" = type { i8 }
%"class.std::initializer_list" = type { %"class.llvm::Type"**, i64 }
%"class.std::__1::__vector_base_common" = type { i8 }
%"class.llvm::StructType" = type { %"class.llvm::CompositeType", i8* }
%"class.llvm::CompositeType" = type { %"class.llvm::Type" }
%"class.llvm::IntegerType" = type { %"class.llvm::Type" }
%"class.std::__1::__basic_string_common" = type { i8 }
%"struct.std::__1::basic_string<char, std::__1::char_traits<char>, std::__1::allocator<char> >::__raw" = type { [3 x i64] }
%"class.std::__1::tuple.131" = type { i8 }
%"union.std::__1::__hash_value_type.124" = type { %"struct.std::__1::pair.125" }
%"struct.std::__1::pair.125" = type { i32, %"class.llvm::StructType"* }
%"class.std::__1::tuple.141" = type { %"struct.std::__1::__tuple_impl.142" }
%"struct.std::__1::__tuple_impl.142" = type { %"class.std::__1::__tuple_leaf.143" }
%"class.std::__1::__tuple_leaf.143" = type { i32* }
%"struct.std::__1::__less" = type { i8 }
%"class.std::__1::__libcpp_compressed_pair_imp.146" = type { %"struct.std::__1::__hash_node.123"*, %"class.std::__1::__hash_node_destructor.147" }
%"struct.std::__1::__hash_node.123" = type { %"struct.std::__1::__hash_node_base.15", i64, %"union.std::__1::__hash_value_type.124" }
%"class.std::__1::__hash_node_destructor.147" = type <{ %"class.std::__1::allocator.23"*, i8, [7 x i8] }>
%"class.std::__1::__compressed_pair.145" = type { %"class.std::__1::__libcpp_compressed_pair_imp.146" }
%"struct.std::__1::integral_constant" = type { i8 }
%"struct.std::__1::__has_destroy.127" = type { i8 }
%"class.std::__1::unique_ptr.144" = type { %"class.std::__1::__compressed_pair.145" }
%"class.std::__1::__hash_iterator.139" = type { %"struct.std::__1::__hash_node_base.15"* }
%"struct.std::__1::pair.138" = type <{ %"class.std::__1::__hash_iterator.139", i8, [7 x i8] }>
%"struct.std::__1::__tuple_indices" = type { i8 }
%"struct.std::__1::__tuple_types.150" = type { i8 }
%"struct.std::__1::__tuple_indices.136" = type { i8 }
%"struct.std::__1::__tuple_types.137" = type { i8 }
%"struct.std::__1::__split_buffer" = type { %"class.llvm::Type"**, %"class.llvm::Type"**, %"class.llvm::Type"**, %"class.std::__1::__compressed_pair.152" }
%"class.std::__1::__compressed_pair.152" = type { %"class.std::__1::__libcpp_compressed_pair_imp.153" }
%"class.std::__1::__libcpp_compressed_pair_imp.153" = type { %"class.llvm::Type"**, %"class.std::__1::allocator.82"* }
%"union.std::__1::__hash_value_type" = type { %"struct.std::__1::pair" }
%"struct.std::__1::pair" = type { %"class.std::__1::basic_string", %"class.llvm::StructType"* }
%"class.std::__1::tuple" = type { %"struct.std::__1::__tuple_impl" }
%"struct.std::__1::__tuple_impl" = type { %"class.std::__1::__tuple_leaf" }
%"class.std::__1::__tuple_leaf" = type { %"class.std::__1::basic_string"* }
%"class.std::__1::__libcpp_compressed_pair_imp.134" = type { %"struct.std::__1::__hash_node"*, %"class.std::__1::__hash_node_destructor" }
%"struct.std::__1::__hash_node" = type { %"struct.std::__1::__hash_node_base", i64, %"union.std::__1::__hash_value_type" }
%"class.std::__1::__hash_node_destructor" = type <{ %"class.std::__1::allocator.4"*, i8, [7 x i8] }>
%"class.std::__1::__compressed_pair.133" = type { %"class.std::__1::__libcpp_compressed_pair_imp.134" }
%"struct.std::__1::__has_destroy" = type { i8 }
%"class.std::__1::unique_ptr.132" = type { %"class.std::__1::__compressed_pair.133" }
%"class.std::__1::__hash_iterator" = type { %"struct.std::__1::__hash_node_base"* }
%"struct.std::__1::pair.130" = type <{ %"class.std::__1::__hash_iterator", i8, [7 x i8] }>
%"struct.std::__1::__tuple_types" = type { i8 }
%"struct.std::__1::basic_string<char, std::__1::char_traits<char>, std::__1::allocator<char> >::__short" = type { %union.anon.40, [23 x i8] }
%union.anon.40 = type { i8 }
%"class.llvm::APInt" = type { i32, %union.anon.115 }
%union.anon.115 = type { i64 }
%"class.llvm::APFloat" = type { [8 x i8], %"union.llvm::APFloat::Storage" }
%"union.llvm::APFloat::Storage" = type { %"class.llvm::detail::DoubleAPFloat", [8 x i8] }
%"class.llvm::detail::DoubleAPFloat" = type { %"struct.llvm::fltSemantics"*, %"class.std::__1::unique_ptr.116" }
%"struct.llvm::fltSemantics" = type opaque
%"class.std::__1::unique_ptr.116" = type { %"class.std::__1::__compressed_pair.117" }
%"class.std::__1::__compressed_pair.117" = type { %"class.std::__1::__libcpp_compressed_pair_imp.118" }
%"class.std::__1::__libcpp_compressed_pair_imp.118" = type { %"class.llvm::APFloat"* }
%"class.llvm::ConstantInt" = type { %"class.llvm::ConstantData", %"class.llvm::APInt" }
%"class.llvm::ConstantData" = type { %"class.llvm::Constant" }
%"class.llvm::ConstantFP" = type { %"class.llvm::ConstantData", %"class.llvm::APFloat" }
%"class.llvm::ConstantPointerNull" = type { %"class.llvm::ConstantData" }
%"class.llvm::ArrayRef.121" = type { %"class.llvm::Constant"**, i64 }
%"class.llvm::ArrayType" = type { %"class.llvm::SequentialType" }
%"class.llvm::SequentialType" = type { %"class.llvm::CompositeType", %"class.llvm::Type"*, i64 }
%"struct.std::__1::__has_destroy.129" = type { i8 }
%"class.llvm::detail::IEEEFloat" = type <{ %"struct.llvm::fltSemantics"*, %"union.llvm::detail::IEEEFloat::Significand", i16, i8, [5 x i8] }>
%"union.llvm::detail::IEEEFloat::Significand" = type { i64 }
%"struct.llvm::APFloatBase" = type { i8 }
%"struct.std::__1::default_delete.119" = type { i8 }
%"struct.std::__1::__has_construct" = type { i8 }
%"struct.std::__1::__murmur2_or_cityhash" = type { i8 }
%"struct.std::__1::pair.135" = type { i64, i64 }
%"struct.std::__1::__has_construct.149" = type { i8 }
%"struct.std::__1::__has_construct.151" = type { i8 }
%"struct.std::__1::__has_max_size" = type { i8 }
%"class.std::__1::__split_buffer_common" = type { i8 }

@_ZN4llvm24DisableABIBreakingChecksE = external global i32, align 4
@_ZN4llvm30VerifyDisableABIBreakingChecksE = weak hidden global i32* @_ZN4llvm24DisableABIBreakingChecksE, align 8
@_ZN6CGType14StructureTypesE = global %"class.std::__1::unordered_map" zeroinitializer, align 8
@__dso_handle = external global i8
@_ZN6CGType8EnvTypesE = global %"class.std::__1::unordered_map.10" zeroinitializer, align 8
@_ZN14CodeGenVisitor7BuilderE = external global %"class.llvm::IRBuilder", align 8
@_ZN14CodeGenVisitor7ContextE = external global %"class.llvm::LLVMContext", align 8
@.str = private unnamed_addr constant [18 x i8] c"Unsupported type \00", align 1
@.str.2 = private unnamed_addr constant [26 x i8] c"Unsupported literal type \00", align 1
@.str.3 = private unnamed_addr constant [19 x i8] c"bitwidth too small\00", align 1
@__func__._ZN4llvm5APIntC2Ejyb = private unnamed_addr constant [6 x i8] c"APInt\00", align 1
@.str.4 = private unnamed_addr constant [56 x i8] c"/usr/local/Cellar/llvm/4.0.0_1/include/llvm/ADT/APInt.h\00", align 1
@.str.5 = private unnamed_addr constant [33 x i8] c"BitWidth && \22bitwidth too small\22\00", align 1
@.str.6 = private unnamed_addr constant [21 x i8] c"Unexpected semantics\00", align 1
@.str.7 = private unnamed_addr constant [58 x i8] c"/usr/local/Cellar/llvm/4.0.0_1/include/llvm/ADT/APFloat.h\00", align 1
@_ZNSt3__1L19piecewise_constructE = internal constant %"struct.std::__1::piecewise_construct_t" undef, align 1
@llvm.global_ctors = appending global [1 x { i32, void ()*, i8* }] [{ i32, void ()*, i8* } { i32 65535, void ()* @_GLOBAL__sub_I_CGType.cpp, i8* null }]

; Function Attrs: ssp uwtable
define internal void @__cxx_global_var_init() #0 section "__TEXT,__StaticInit,regular,pure_instructions" personality i32 (...)* @__gxx_personality_v0 {
  %1 = alloca float*, align 8
  %2 = alloca %"class.std::__1::__unordered_map_equal"*, align 8
  %3 = alloca %"class.std::__1::__libcpp_compressed_pair_imp.9"*, align 8
  %4 = alloca float, align 4
  %5 = alloca float*, align 8
  %6 = alloca %"class.std::__1::__compressed_pair.8"*, align 8
  %7 = alloca float, align 4
  %8 = alloca %"class.std::__1::__compressed_pair.8"*, align 8
  %9 = alloca float, align 4
  %10 = alloca i64*, align 8
  %11 = alloca %"class.std::__1::__unordered_map_hasher"*, align 8
  %12 = alloca %"class.std::__1::__libcpp_compressed_pair_imp.7"*, align 8
  %13 = alloca i64, align 8
  %14 = alloca i64*, align 8
  %15 = alloca %"class.std::__1::__compressed_pair.6"*, align 8
  %16 = alloca i64, align 8
  %17 = alloca %"class.std::__1::__compressed_pair.6"*, align 8
  %18 = alloca i64, align 8
  %19 = alloca %"class.std::__1::__libcpp_compressed_pair_imp"*, align 8
  %20 = alloca %"class.std::__1::__compressed_pair"*, align 8
  %21 = alloca %"class.std::__1::__libcpp_compressed_pair_imp"*, align 8
  %22 = alloca %"class.std::__1::__compressed_pair"*, align 8
  %23 = alloca %"class.std::__1::__libcpp_compressed_pair_imp.1"*, align 8
  %24 = alloca %"class.std::__1::__compressed_pair.0"*, align 8
  %25 = alloca %"class.std::__1::__bucket_list_deallocator"*, align 8
  %26 = alloca i8*, align 8
  %27 = alloca %"class.std::__1::allocator"*, align 8
  %28 = alloca %"struct.std::__1::__hash_node_base"**, align 8
  %29 = alloca i64, align 8
  %30 = alloca %"class.std::__1::allocator"*, align 8
  %31 = alloca %"struct.std::__1::__hash_node_base"**, align 8
  %32 = alloca i64, align 8
  %33 = alloca %"class.std::__1::__libcpp_compressed_pair_imp.1"*, align 8
  %34 = alloca %"class.std::__1::__compressed_pair.0"*, align 8
  %35 = alloca %"class.std::__1::__bucket_list_deallocator"*, align 8
  %36 = alloca %"class.std::__1::__bucket_list_deallocator"*, align 8
  %37 = alloca %"struct.std::__1::__hash_node_base"**, align 8
  %38 = alloca %"class.std::__1::__libcpp_compressed_pair_imp"*, align 8
  %39 = alloca %"class.std::__1::__compressed_pair"*, align 8
  %40 = alloca %"class.std::__1::unique_ptr"*, align 8
  %41 = alloca %"struct.std::__1::__hash_node_base"**, align 8
  %42 = alloca %"class.std::__1::unique_ptr"*, align 8
  %43 = alloca %"class.std::__1::unique_ptr"*, align 8
  %44 = alloca %"struct.std::__1::__hash_node_base"*, align 8
  %45 = alloca %"struct.std::__1::__hash_node_base"*, align 8
  %46 = alloca %"class.std::__1::allocator.4"*, align 8
  %47 = alloca %"class.std::__1::__libcpp_compressed_pair_imp.3"*, align 8
  %48 = alloca %"class.std::__1::__compressed_pair.2"*, align 8
  %49 = alloca %"class.std::__1::__compressed_pair.2"*, align 8
  %50 = alloca i64*, align 8
  %51 = alloca %"class.std::__1::allocator"*, align 8
  %52 = alloca %"class.std::__1::__libcpp_compressed_pair_imp.1"*, align 8
  %53 = alloca i64, align 8
  %54 = alloca i64*, align 8
  %55 = alloca %"class.std::__1::__compressed_pair.0"*, align 8
  %56 = alloca i64, align 8
  %57 = alloca %"class.std::__1::__compressed_pair.0"*, align 8
  %58 = alloca i64, align 8
  %59 = alloca %"class.std::__1::__bucket_list_deallocator"*, align 8
  %60 = alloca %"class.std::__1::__bucket_list_deallocator"*, align 8
  %61 = alloca %"struct.std::__1::__hash_node_base"***, align 8
  %62 = alloca %"class.std::__1::__libcpp_compressed_pair_imp"*, align 8
  %63 = alloca %"struct.std::__1::__hash_node_base"**, align 8
  %64 = alloca %"struct.std::__1::__hash_node_base"***, align 8
  %65 = alloca %"class.std::__1::__compressed_pair"*, align 8
  %66 = alloca %"struct.std::__1::__hash_node_base"**, align 8
  %67 = alloca %"class.std::__1::__compressed_pair"*, align 8
  %68 = alloca %"struct.std::__1::__hash_node_base"**, align 8
  %69 = alloca %"class.std::__1::unique_ptr"*, align 8
  %70 = alloca %"class.std::__1::unique_ptr"*, align 8
  %71 = alloca %"class.std::__1::__hash_table"*, align 8
  %72 = alloca i8*
  %73 = alloca i32
  %74 = alloca %"class.std::__1::__hash_table"*, align 8
  %75 = alloca %"class.std::__1::unordered_map"*, align 8
  %76 = alloca %"class.std::__1::unordered_map"*, align 8
  store %"class.std::__1::unordered_map"* @_ZN6CGType14StructureTypesE, %"class.std::__1::unordered_map"** %76, align 8
  %77 = load %"class.std::__1::unordered_map"*, %"class.std::__1::unordered_map"** %76, align 8
  store %"class.std::__1::unordered_map"* %77, %"class.std::__1::unordered_map"** %75, align 8
  %78 = load %"class.std::__1::unordered_map"*, %"class.std::__1::unordered_map"** %75, align 8
  %79 = getelementptr inbounds %"class.std::__1::unordered_map", %"class.std::__1::unordered_map"* %78, i32 0, i32 0
  store %"class.std::__1::__hash_table"* %79, %"class.std::__1::__hash_table"** %74, align 8
  %80 = load %"class.std::__1::__hash_table"*, %"class.std::__1::__hash_table"** %74, align 8
  store %"class.std::__1::__hash_table"* %80, %"class.std::__1::__hash_table"** %71, align 8
  %81 = load %"class.std::__1::__hash_table"*, %"class.std::__1::__hash_table"** %71, align 8
  %82 = getelementptr inbounds %"class.std::__1::__hash_table", %"class.std::__1::__hash_table"* %81, i32 0, i32 0
  store %"class.std::__1::unique_ptr"* %82, %"class.std::__1::unique_ptr"** %70, align 8
  %83 = load %"class.std::__1::unique_ptr"*, %"class.std::__1::unique_ptr"** %70, align 8
  store %"class.std::__1::unique_ptr"* %83, %"class.std::__1::unique_ptr"** %69, align 8
  %84 = load %"class.std::__1::unique_ptr"*, %"class.std::__1::unique_ptr"** %69, align 8
  %85 = getelementptr inbounds %"class.std::__1::unique_ptr", %"class.std::__1::unique_ptr"* %84, i32 0, i32 0
  store %"class.std::__1::__compressed_pair"* %85, %"class.std::__1::__compressed_pair"** %67, align 8
  store %"struct.std::__1::__hash_node_base"** null, %"struct.std::__1::__hash_node_base"*** %68, align 8
  %86 = load %"class.std::__1::__compressed_pair"*, %"class.std::__1::__compressed_pair"** %67, align 8
  %87 = load %"struct.std::__1::__hash_node_base"**, %"struct.std::__1::__hash_node_base"*** %68, align 8
  store %"class.std::__1::__compressed_pair"* %86, %"class.std::__1::__compressed_pair"** %65, align 8
  store %"struct.std::__1::__hash_node_base"** %87, %"struct.std::__1::__hash_node_base"*** %66, align 8
  %88 = load %"class.std::__1::__compressed_pair"*, %"class.std::__1::__compressed_pair"** %65, align 8
  %89 = bitcast %"class.std::__1::__compressed_pair"* %88 to %"class.std::__1::__libcpp_compressed_pair_imp"*
  store %"struct.std::__1::__hash_node_base"*** %66, %"struct.std::__1::__hash_node_base"**** %64, align 8
  %90 = load %"struct.std::__1::__hash_node_base"***, %"struct.std::__1::__hash_node_base"**** %64, align 8
  %91 = load %"struct.std::__1::__hash_node_base"**, %"struct.std::__1::__hash_node_base"*** %90, align 8
  store %"class.std::__1::__libcpp_compressed_pair_imp"* %89, %"class.std::__1::__libcpp_compressed_pair_imp"** %62, align 8
  store %"struct.std::__1::__hash_node_base"** %91, %"struct.std::__1::__hash_node_base"*** %63, align 8
  %92 = load %"class.std::__1::__libcpp_compressed_pair_imp"*, %"class.std::__1::__libcpp_compressed_pair_imp"** %62, align 8
  %93 = getelementptr inbounds %"class.std::__1::__libcpp_compressed_pair_imp", %"class.std::__1::__libcpp_compressed_pair_imp"* %92, i32 0, i32 0
  store %"struct.std::__1::__hash_node_base"*** %63, %"struct.std::__1::__hash_node_base"**** %61, align 8
  %94 = load %"struct.std::__1::__hash_node_base"***, %"struct.std::__1::__hash_node_base"**** %61, align 8
  %95 = load %"struct.std::__1::__hash_node_base"**, %"struct.std::__1::__hash_node_base"*** %94, align 8
  store %"struct.std::__1::__hash_node_base"** %95, %"struct.std::__1::__hash_node_base"*** %93, align 8
  %96 = getelementptr inbounds %"class.std::__1::__libcpp_compressed_pair_imp", %"class.std::__1::__libcpp_compressed_pair_imp"* %92, i32 0, i32 1
  store %"class.std::__1::__bucket_list_deallocator"* %96, %"class.std::__1::__bucket_list_deallocator"** %60, align 8
  %97 = load %"class.std::__1::__bucket_list_deallocator"*, %"class.std::__1::__bucket_list_deallocator"** %60, align 8
  store %"class.std::__1::__bucket_list_deallocator"* %97, %"class.std::__1::__bucket_list_deallocator"** %59, align 8
  %98 = load %"class.std::__1::__bucket_list_deallocator"*, %"class.std::__1::__bucket_list_deallocator"** %59, align 8
  %99 = getelementptr inbounds %"class.std::__1::__bucket_list_deallocator", %"class.std::__1::__bucket_list_deallocator"* %98, i32 0, i32 0
  store %"class.std::__1::__compressed_pair.0"* %99, %"class.std::__1::__compressed_pair.0"** %57, align 8
  store i64 0, i64* %58, align 8
  %100 = load %"class.std::__1::__compressed_pair.0"*, %"class.std::__1::__compressed_pair.0"** %57, align 8
  %101 = load i64, i64* %58, align 8
  store %"class.std::__1::__compressed_pair.0"* %100, %"class.std::__1::__compressed_pair.0"** %55, align 8
  store i64 %101, i64* %56, align 8
  %102 = load %"class.std::__1::__compressed_pair.0"*, %"class.std::__1::__compressed_pair.0"** %55, align 8
  %103 = bitcast %"class.std::__1::__compressed_pair.0"* %102 to %"class.std::__1::__libcpp_compressed_pair_imp.1"*
  store i64* %56, i64** %54, align 8
  %104 = load i64*, i64** %54, align 8
  %105 = load i64, i64* %104, align 8
  store %"class.std::__1::__libcpp_compressed_pair_imp.1"* %103, %"class.std::__1::__libcpp_compressed_pair_imp.1"** %52, align 8
  store i64 %105, i64* %53, align 8
  %106 = load %"class.std::__1::__libcpp_compressed_pair_imp.1"*, %"class.std::__1::__libcpp_compressed_pair_imp.1"** %52, align 8
  %107 = bitcast %"class.std::__1::__libcpp_compressed_pair_imp.1"* %106 to %"class.std::__1::allocator"*
  store %"class.std::__1::allocator"* %107, %"class.std::__1::allocator"** %51, align 8
  %108 = load %"class.std::__1::allocator"*, %"class.std::__1::allocator"** %51, align 8
  %109 = getelementptr inbounds %"class.std::__1::__libcpp_compressed_pair_imp.1", %"class.std::__1::__libcpp_compressed_pair_imp.1"* %106, i32 0, i32 0
  store i64* %53, i64** %50, align 8
  %110 = load i64*, i64** %50, align 8
  %111 = load i64, i64* %110, align 8
  store i64 %111, i64* %109, align 8
  %112 = getelementptr inbounds %"class.std::__1::__hash_table", %"class.std::__1::__hash_table"* %81, i32 0, i32 1
  store %"class.std::__1::__compressed_pair.2"* %112, %"class.std::__1::__compressed_pair.2"** %49, align 8
  %113 = load %"class.std::__1::__compressed_pair.2"*, %"class.std::__1::__compressed_pair.2"** %49, align 8
  store %"class.std::__1::__compressed_pair.2"* %113, %"class.std::__1::__compressed_pair.2"** %48, align 8
  %114 = load %"class.std::__1::__compressed_pair.2"*, %"class.std::__1::__compressed_pair.2"** %48, align 8
  %115 = bitcast %"class.std::__1::__compressed_pair.2"* %114 to %"class.std::__1::__libcpp_compressed_pair_imp.3"*
  store %"class.std::__1::__libcpp_compressed_pair_imp.3"* %115, %"class.std::__1::__libcpp_compressed_pair_imp.3"** %47, align 8
  %116 = load %"class.std::__1::__libcpp_compressed_pair_imp.3"*, %"class.std::__1::__libcpp_compressed_pair_imp.3"** %47, align 8
  %117 = bitcast %"class.std::__1::__libcpp_compressed_pair_imp.3"* %116 to %"class.std::__1::allocator.4"*
  store %"class.std::__1::allocator.4"* %117, %"class.std::__1::allocator.4"** %46, align 8
  %118 = load %"class.std::__1::allocator.4"*, %"class.std::__1::allocator.4"** %46, align 8
  %119 = getelementptr inbounds %"class.std::__1::__libcpp_compressed_pair_imp.3", %"class.std::__1::__libcpp_compressed_pair_imp.3"* %116, i32 0, i32 0
  store %"struct.std::__1::__hash_node_base"* %119, %"struct.std::__1::__hash_node_base"** %45, align 8
  %120 = load %"struct.std::__1::__hash_node_base"*, %"struct.std::__1::__hash_node_base"** %45, align 8
  store %"struct.std::__1::__hash_node_base"* %120, %"struct.std::__1::__hash_node_base"** %44, align 8
  %121 = load %"struct.std::__1::__hash_node_base"*, %"struct.std::__1::__hash_node_base"** %44, align 8
  %122 = getelementptr inbounds %"struct.std::__1::__hash_node_base", %"struct.std::__1::__hash_node_base"* %121, i32 0, i32 0
  store %"struct.std::__1::__hash_node_base"* null, %"struct.std::__1::__hash_node_base"** %122, align 8
  %123 = getelementptr inbounds %"class.std::__1::__hash_table", %"class.std::__1::__hash_table"* %81, i32 0, i32 2
  store %"class.std::__1::__compressed_pair.6"* %123, %"class.std::__1::__compressed_pair.6"** %17, align 8
  store i64 0, i64* %18, align 8
  %124 = load %"class.std::__1::__compressed_pair.6"*, %"class.std::__1::__compressed_pair.6"** %17, align 8
  %125 = load i64, i64* %18, align 8
  store %"class.std::__1::__compressed_pair.6"* %124, %"class.std::__1::__compressed_pair.6"** %15, align 8
  store i64 %125, i64* %16, align 8
  %126 = load %"class.std::__1::__compressed_pair.6"*, %"class.std::__1::__compressed_pair.6"** %15, align 8
  %127 = bitcast %"class.std::__1::__compressed_pair.6"* %126 to %"class.std::__1::__libcpp_compressed_pair_imp.7"*
  store i64* %16, i64** %14, align 8
  %128 = load i64*, i64** %14, align 8
  %129 = load i64, i64* %128, align 8
  store %"class.std::__1::__libcpp_compressed_pair_imp.7"* %127, %"class.std::__1::__libcpp_compressed_pair_imp.7"** %12, align 8
  store i64 %129, i64* %13, align 8
  %130 = load %"class.std::__1::__libcpp_compressed_pair_imp.7"*, %"class.std::__1::__libcpp_compressed_pair_imp.7"** %12, align 8
  %131 = bitcast %"class.std::__1::__libcpp_compressed_pair_imp.7"* %130 to %"class.std::__1::__unordered_map_hasher"*
  store %"class.std::__1::__unordered_map_hasher"* %131, %"class.std::__1::__unordered_map_hasher"** %11, align 8
  %132 = load %"class.std::__1::__unordered_map_hasher"*, %"class.std::__1::__unordered_map_hasher"** %11, align 8
  %133 = bitcast %"class.std::__1::__unordered_map_hasher"* %132 to %"struct.std::__1::hash"*
  %134 = getelementptr inbounds %"class.std::__1::__libcpp_compressed_pair_imp.7", %"class.std::__1::__libcpp_compressed_pair_imp.7"* %130, i32 0, i32 0
  store i64* %13, i64** %10, align 8
  %135 = load i64*, i64** %10, align 8
  %136 = load i64, i64* %135, align 8
  store i64 %136, i64* %134, align 8
  %137 = getelementptr inbounds %"class.std::__1::__hash_table", %"class.std::__1::__hash_table"* %81, i32 0, i32 3
  store %"class.std::__1::__compressed_pair.8"* %137, %"class.std::__1::__compressed_pair.8"** %8, align 8
  store float 1.000000e+00, float* %9, align 4
  %138 = load %"class.std::__1::__compressed_pair.8"*, %"class.std::__1::__compressed_pair.8"** %8, align 8
  %139 = load float, float* %9, align 4
  store %"class.std::__1::__compressed_pair.8"* %138, %"class.std::__1::__compressed_pair.8"** %6, align 8
  store float %139, float* %7, align 4
  %140 = load %"class.std::__1::__compressed_pair.8"*, %"class.std::__1::__compressed_pair.8"** %6, align 8
  %141 = bitcast %"class.std::__1::__compressed_pair.8"* %140 to %"class.std::__1::__libcpp_compressed_pair_imp.9"*
  store float* %7, float** %5, align 8
  %142 = load float*, float** %5, align 8
  %143 = load float, float* %142, align 4
  store %"class.std::__1::__libcpp_compressed_pair_imp.9"* %141, %"class.std::__1::__libcpp_compressed_pair_imp.9"** %3, align 8
  store float %143, float* %4, align 4
  %144 = load %"class.std::__1::__libcpp_compressed_pair_imp.9"*, %"class.std::__1::__libcpp_compressed_pair_imp.9"** %3, align 8
  %145 = bitcast %"class.std::__1::__libcpp_compressed_pair_imp.9"* %144 to %"class.std::__1::__unordered_map_equal"*
  store %"class.std::__1::__unordered_map_equal"* %145, %"class.std::__1::__unordered_map_equal"** %2, align 8
  %146 = load %"class.std::__1::__unordered_map_equal"*, %"class.std::__1::__unordered_map_equal"** %2, align 8
  %147 = bitcast %"class.std::__1::__unordered_map_equal"* %146 to %"struct.std::__1::equal_to"*
  %148 = getelementptr inbounds %"class.std::__1::__libcpp_compressed_pair_imp.9", %"class.std::__1::__libcpp_compressed_pair_imp.9"* %144, i32 0, i32 0
  store float* %4, float** %1, align 8
  %149 = load float*, float** %1, align 8
  %150 = load float, float* %149, align 4
  store float %150, float* %148, align 4
  %151 = call i32 @__cxa_atexit(void (i8*)* bitcast (void (%"class.std::__1::unordered_map"*)* @_ZNSt3__113unordered_mapINS_12basic_stringIcNS_11char_traitsIcEENS_9allocatorIcEEEEPN4llvm10StructTypeENS_4hashIS6_EENS_8equal_toIS6_EENS4_INS_4pairIKS6_S9_EEEEED1Ev to void (i8*)*), i8* bitcast (%"class.std::__1::unordered_map"* @_ZN6CGType14StructureTypesE to i8*), i8* @__dso_handle) #2
  ret void
}

; Function Attrs: inlinehint nounwind ssp uwtable
define linkonce_odr void @_ZNSt3__113unordered_mapINS_12basic_stringIcNS_11char_traitsIcEENS_9allocatorIcEEEEPN4llvm10StructTypeENS_4hashIS6_EENS_8equal_toIS6_EENS4_INS_4pairIKS6_S9_EEEEED1Ev(%"class.std::__1::unordered_map"*) unnamed_addr #1 align 2 {
  %2 = alloca %"class.std::__1::unordered_map"*, align 8
  store %"class.std::__1::unordered_map"* %0, %"class.std::__1::unordered_map"** %2, align 8
  %3 = load %"class.std::__1::unordered_map"*, %"class.std::__1::unordered_map"** %2, align 8
  call void @_ZNSt3__113unordered_mapINS_12basic_stringIcNS_11char_traitsIcEENS_9allocatorIcEEEEPN4llvm10StructTypeENS_4hashIS6_EENS_8equal_toIS6_EENS4_INS_4pairIKS6_S9_EEEEED2Ev(%"class.std::__1::unordered_map"* %3) #2
  ret void
}

; Function Attrs: nounwind
declare i32 @__cxa_atexit(void (i8*)*, i8*, i8*) #2

; Function Attrs: ssp uwtable
define internal void @__cxx_global_var_init.1() #0 section "__TEXT,__StaticInit,regular,pure_instructions" personality i32 (...)* @__gxx_personality_v0 {
  %1 = alloca float*, align 8
  %2 = alloca %"class.std::__1::__unordered_map_equal.32"*, align 8
  %3 = alloca %"class.std::__1::__libcpp_compressed_pair_imp.31"*, align 8
  %4 = alloca float, align 4
  %5 = alloca float*, align 8
  %6 = alloca %"class.std::__1::__compressed_pair.30"*, align 8
  %7 = alloca float, align 4
  %8 = alloca %"class.std::__1::__compressed_pair.30"*, align 8
  %9 = alloca float, align 4
  %10 = alloca i64*, align 8
  %11 = alloca %"class.std::__1::__unordered_map_hasher.27"*, align 8
  %12 = alloca %"class.std::__1::__libcpp_compressed_pair_imp.26"*, align 8
  %13 = alloca i64, align 8
  %14 = alloca i64*, align 8
  %15 = alloca %"class.std::__1::__compressed_pair.25"*, align 8
  %16 = alloca i64, align 8
  %17 = alloca %"class.std::__1::__compressed_pair.25"*, align 8
  %18 = alloca i64, align 8
  %19 = alloca %"class.std::__1::__libcpp_compressed_pair_imp.14"*, align 8
  %20 = alloca %"class.std::__1::__compressed_pair.13"*, align 8
  %21 = alloca %"class.std::__1::__libcpp_compressed_pair_imp.14"*, align 8
  %22 = alloca %"class.std::__1::__compressed_pair.13"*, align 8
  %23 = alloca %"class.std::__1::__libcpp_compressed_pair_imp.18"*, align 8
  %24 = alloca %"class.std::__1::__compressed_pair.17"*, align 8
  %25 = alloca %"class.std::__1::__bucket_list_deallocator.16"*, align 8
  %26 = alloca i8*, align 8
  %27 = alloca %"class.std::__1::allocator.19"*, align 8
  %28 = alloca %"struct.std::__1::__hash_node_base.15"**, align 8
  %29 = alloca i64, align 8
  %30 = alloca %"class.std::__1::allocator.19"*, align 8
  %31 = alloca %"struct.std::__1::__hash_node_base.15"**, align 8
  %32 = alloca i64, align 8
  %33 = alloca %"class.std::__1::__libcpp_compressed_pair_imp.18"*, align 8
  %34 = alloca %"class.std::__1::__compressed_pair.17"*, align 8
  %35 = alloca %"class.std::__1::__bucket_list_deallocator.16"*, align 8
  %36 = alloca %"class.std::__1::__bucket_list_deallocator.16"*, align 8
  %37 = alloca %"struct.std::__1::__hash_node_base.15"**, align 8
  %38 = alloca %"class.std::__1::__libcpp_compressed_pair_imp.14"*, align 8
  %39 = alloca %"class.std::__1::__compressed_pair.13"*, align 8
  %40 = alloca %"class.std::__1::unique_ptr.12"*, align 8
  %41 = alloca %"struct.std::__1::__hash_node_base.15"**, align 8
  %42 = alloca %"class.std::__1::unique_ptr.12"*, align 8
  %43 = alloca %"class.std::__1::unique_ptr.12"*, align 8
  %44 = alloca %"struct.std::__1::__hash_node_base.15"*, align 8
  %45 = alloca %"struct.std::__1::__hash_node_base.15"*, align 8
  %46 = alloca %"class.std::__1::allocator.23"*, align 8
  %47 = alloca %"class.std::__1::__libcpp_compressed_pair_imp.22"*, align 8
  %48 = alloca %"class.std::__1::__compressed_pair.21"*, align 8
  %49 = alloca %"class.std::__1::__compressed_pair.21"*, align 8
  %50 = alloca i64*, align 8
  %51 = alloca %"class.std::__1::allocator.19"*, align 8
  %52 = alloca %"class.std::__1::__libcpp_compressed_pair_imp.18"*, align 8
  %53 = alloca i64, align 8
  %54 = alloca i64*, align 8
  %55 = alloca %"class.std::__1::__compressed_pair.17"*, align 8
  %56 = alloca i64, align 8
  %57 = alloca %"class.std::__1::__compressed_pair.17"*, align 8
  %58 = alloca i64, align 8
  %59 = alloca %"class.std::__1::__bucket_list_deallocator.16"*, align 8
  %60 = alloca %"class.std::__1::__bucket_list_deallocator.16"*, align 8
  %61 = alloca %"struct.std::__1::__hash_node_base.15"***, align 8
  %62 = alloca %"class.std::__1::__libcpp_compressed_pair_imp.14"*, align 8
  %63 = alloca %"struct.std::__1::__hash_node_base.15"**, align 8
  %64 = alloca %"struct.std::__1::__hash_node_base.15"***, align 8
  %65 = alloca %"class.std::__1::__compressed_pair.13"*, align 8
  %66 = alloca %"struct.std::__1::__hash_node_base.15"**, align 8
  %67 = alloca %"class.std::__1::__compressed_pair.13"*, align 8
  %68 = alloca %"struct.std::__1::__hash_node_base.15"**, align 8
  %69 = alloca %"class.std::__1::unique_ptr.12"*, align 8
  %70 = alloca %"class.std::__1::unique_ptr.12"*, align 8
  %71 = alloca %"class.std::__1::__hash_table.11"*, align 8
  %72 = alloca i8*
  %73 = alloca i32
  %74 = alloca %"class.std::__1::__hash_table.11"*, align 8
  %75 = alloca %"class.std::__1::unordered_map.10"*, align 8
  %76 = alloca %"class.std::__1::unordered_map.10"*, align 8
  store %"class.std::__1::unordered_map.10"* @_ZN6CGType8EnvTypesE, %"class.std::__1::unordered_map.10"** %76, align 8
  %77 = load %"class.std::__1::unordered_map.10"*, %"class.std::__1::unordered_map.10"** %76, align 8
  store %"class.std::__1::unordered_map.10"* %77, %"class.std::__1::unordered_map.10"** %75, align 8
  %78 = load %"class.std::__1::unordered_map.10"*, %"class.std::__1::unordered_map.10"** %75, align 8
  %79 = getelementptr inbounds %"class.std::__1::unordered_map.10", %"class.std::__1::unordered_map.10"* %78, i32 0, i32 0
  store %"class.std::__1::__hash_table.11"* %79, %"class.std::__1::__hash_table.11"** %74, align 8
  %80 = load %"class.std::__1::__hash_table.11"*, %"class.std::__1::__hash_table.11"** %74, align 8
  store %"class.std::__1::__hash_table.11"* %80, %"class.std::__1::__hash_table.11"** %71, align 8
  %81 = load %"class.std::__1::__hash_table.11"*, %"class.std::__1::__hash_table.11"** %71, align 8
  %82 = getelementptr inbounds %"class.std::__1::__hash_table.11", %"class.std::__1::__hash_table.11"* %81, i32 0, i32 0
  store %"class.std::__1::unique_ptr.12"* %82, %"class.std::__1::unique_ptr.12"** %70, align 8
  %83 = load %"class.std::__1::unique_ptr.12"*, %"class.std::__1::unique_ptr.12"** %70, align 8
  store %"class.std::__1::unique_ptr.12"* %83, %"class.std::__1::unique_ptr.12"** %69, align 8
  %84 = load %"class.std::__1::unique_ptr.12"*, %"class.std::__1::unique_ptr.12"** %69, align 8
  %85 = getelementptr inbounds %"class.std::__1::unique_ptr.12", %"class.std::__1::unique_ptr.12"* %84, i32 0, i32 0
  store %"class.std::__1::__compressed_pair.13"* %85, %"class.std::__1::__compressed_pair.13"** %67, align 8
  store %"struct.std::__1::__hash_node_base.15"** null, %"struct.std::__1::__hash_node_base.15"*** %68, align 8
  %86 = load %"class.std::__1::__compressed_pair.13"*, %"class.std::__1::__compressed_pair.13"** %67, align 8
  %87 = load %"struct.std::__1::__hash_node_base.15"**, %"struct.std::__1::__hash_node_base.15"*** %68, align 8
  store %"class.std::__1::__compressed_pair.13"* %86, %"class.std::__1::__compressed_pair.13"** %65, align 8
  store %"struct.std::__1::__hash_node_base.15"** %87, %"struct.std::__1::__hash_node_base.15"*** %66, align 8
  %88 = load %"class.std::__1::__compressed_pair.13"*, %"class.std::__1::__compressed_pair.13"** %65, align 8
  %89 = bitcast %"class.std::__1::__compressed_pair.13"* %88 to %"class.std::__1::__libcpp_compressed_pair_imp.14"*
  store %"struct.std::__1::__hash_node_base.15"*** %66, %"struct.std::__1::__hash_node_base.15"**** %64, align 8
  %90 = load %"struct.std::__1::__hash_node_base.15"***, %"struct.std::__1::__hash_node_base.15"**** %64, align 8
  %91 = load %"struct.std::__1::__hash_node_base.15"**, %"struct.std::__1::__hash_node_base.15"*** %90, align 8
  store %"class.std::__1::__libcpp_compressed_pair_imp.14"* %89, %"class.std::__1::__libcpp_compressed_pair_imp.14"** %62, align 8
  store %"struct.std::__1::__hash_node_base.15"** %91, %"struct.std::__1::__hash_node_base.15"*** %63, align 8
  %92 = load %"class.std::__1::__libcpp_compressed_pair_imp.14"*, %"class.std::__1::__libcpp_compressed_pair_imp.14"** %62, align 8
  %93 = getelementptr inbounds %"class.std::__1::__libcpp_compressed_pair_imp.14", %"class.std::__1::__libcpp_compressed_pair_imp.14"* %92, i32 0, i32 0
  store %"struct.std::__1::__hash_node_base.15"*** %63, %"struct.std::__1::__hash_node_base.15"**** %61, align 8
  %94 = load %"struct.std::__1::__hash_node_base.15"***, %"struct.std::__1::__hash_node_base.15"**** %61, align 8
  %95 = load %"struct.std::__1::__hash_node_base.15"**, %"struct.std::__1::__hash_node_base.15"*** %94, align 8
  store %"struct.std::__1::__hash_node_base.15"** %95, %"struct.std::__1::__hash_node_base.15"*** %93, align 8
  %96 = getelementptr inbounds %"class.std::__1::__libcpp_compressed_pair_imp.14", %"class.std::__1::__libcpp_compressed_pair_imp.14"* %92, i32 0, i32 1
  store %"class.std::__1::__bucket_list_deallocator.16"* %96, %"class.std::__1::__bucket_list_deallocator.16"** %60, align 8
  %97 = load %"class.std::__1::__bucket_list_deallocator.16"*, %"class.std::__1::__bucket_list_deallocator.16"** %60, align 8
  store %"class.std::__1::__bucket_list_deallocator.16"* %97, %"class.std::__1::__bucket_list_deallocator.16"** %59, align 8
  %98 = load %"class.std::__1::__bucket_list_deallocator.16"*, %"class.std::__1::__bucket_list_deallocator.16"** %59, align 8
  %99 = getelementptr inbounds %"class.std::__1::__bucket_list_deallocator.16", %"class.std::__1::__bucket_list_deallocator.16"* %98, i32 0, i32 0
  store %"class.std::__1::__compressed_pair.17"* %99, %"class.std::__1::__compressed_pair.17"** %57, align 8
  store i64 0, i64* %58, align 8
  %100 = load %"class.std::__1::__compressed_pair.17"*, %"class.std::__1::__compressed_pair.17"** %57, align 8
  %101 = load i64, i64* %58, align 8
  store %"class.std::__1::__compressed_pair.17"* %100, %"class.std::__1::__compressed_pair.17"** %55, align 8
  store i64 %101, i64* %56, align 8
  %102 = load %"class.std::__1::__compressed_pair.17"*, %"class.std::__1::__compressed_pair.17"** %55, align 8
  %103 = bitcast %"class.std::__1::__compressed_pair.17"* %102 to %"class.std::__1::__libcpp_compressed_pair_imp.18"*
  store i64* %56, i64** %54, align 8
  %104 = load i64*, i64** %54, align 8
  %105 = load i64, i64* %104, align 8
  store %"class.std::__1::__libcpp_compressed_pair_imp.18"* %103, %"class.std::__1::__libcpp_compressed_pair_imp.18"** %52, align 8
  store i64 %105, i64* %53, align 8
  %106 = load %"class.std::__1::__libcpp_compressed_pair_imp.18"*, %"class.std::__1::__libcpp_compressed_pair_imp.18"** %52, align 8
  %107 = bitcast %"class.std::__1::__libcpp_compressed_pair_imp.18"* %106 to %"class.std::__1::allocator.19"*
  store %"class.std::__1::allocator.19"* %107, %"class.std::__1::allocator.19"** %51, align 8
  %108 = load %"class.std::__1::allocator.19"*, %"class.std::__1::allocator.19"** %51, align 8
  %109 = getelementptr inbounds %"class.std::__1::__libcpp_compressed_pair_imp.18", %"class.std::__1::__libcpp_compressed_pair_imp.18"* %106, i32 0, i32 0
  store i64* %53, i64** %50, align 8
  %110 = load i64*, i64** %50, align 8
  %111 = load i64, i64* %110, align 8
  store i64 %111, i64* %109, align 8
  %112 = getelementptr inbounds %"class.std::__1::__hash_table.11", %"class.std::__1::__hash_table.11"* %81, i32 0, i32 1
  store %"class.std::__1::__compressed_pair.21"* %112, %"class.std::__1::__compressed_pair.21"** %49, align 8
  %113 = load %"class.std::__1::__compressed_pair.21"*, %"class.std::__1::__compressed_pair.21"** %49, align 8
  store %"class.std::__1::__compressed_pair.21"* %113, %"class.std::__1::__compressed_pair.21"** %48, align 8
  %114 = load %"class.std::__1::__compressed_pair.21"*, %"class.std::__1::__compressed_pair.21"** %48, align 8
  %115 = bitcast %"class.std::__1::__compressed_pair.21"* %114 to %"class.std::__1::__libcpp_compressed_pair_imp.22"*
  store %"class.std::__1::__libcpp_compressed_pair_imp.22"* %115, %"class.std::__1::__libcpp_compressed_pair_imp.22"** %47, align 8
  %116 = load %"class.std::__1::__libcpp_compressed_pair_imp.22"*, %"class.std::__1::__libcpp_compressed_pair_imp.22"** %47, align 8
  %117 = bitcast %"class.std::__1::__libcpp_compressed_pair_imp.22"* %116 to %"class.std::__1::allocator.23"*
  store %"class.std::__1::allocator.23"* %117, %"class.std::__1::allocator.23"** %46, align 8
  %118 = load %"class.std::__1::allocator.23"*, %"class.std::__1::allocator.23"** %46, align 8
  %119 = getelementptr inbounds %"class.std::__1::__libcpp_compressed_pair_imp.22", %"class.std::__1::__libcpp_compressed_pair_imp.22"* %116, i32 0, i32 0
  store %"struct.std::__1::__hash_node_base.15"* %119, %"struct.std::__1::__hash_node_base.15"** %45, align 8
  %120 = load %"struct.std::__1::__hash_node_base.15"*, %"struct.std::__1::__hash_node_base.15"** %45, align 8
  store %"struct.std::__1::__hash_node_base.15"* %120, %"struct.std::__1::__hash_node_base.15"** %44, align 8
  %121 = load %"struct.std::__1::__hash_node_base.15"*, %"struct.std::__1::__hash_node_base.15"** %44, align 8
  %122 = getelementptr inbounds %"struct.std::__1::__hash_node_base.15", %"struct.std::__1::__hash_node_base.15"* %121, i32 0, i32 0
  store %"struct.std::__1::__hash_node_base.15"* null, %"struct.std::__1::__hash_node_base.15"** %122, align 8
  %123 = getelementptr inbounds %"class.std::__1::__hash_table.11", %"class.std::__1::__hash_table.11"* %81, i32 0, i32 2
  store %"class.std::__1::__compressed_pair.25"* %123, %"class.std::__1::__compressed_pair.25"** %17, align 8
  store i64 0, i64* %18, align 8
  %124 = load %"class.std::__1::__compressed_pair.25"*, %"class.std::__1::__compressed_pair.25"** %17, align 8
  %125 = load i64, i64* %18, align 8
  store %"class.std::__1::__compressed_pair.25"* %124, %"class.std::__1::__compressed_pair.25"** %15, align 8
  store i64 %125, i64* %16, align 8
  %126 = load %"class.std::__1::__compressed_pair.25"*, %"class.std::__1::__compressed_pair.25"** %15, align 8
  %127 = bitcast %"class.std::__1::__compressed_pair.25"* %126 to %"class.std::__1::__libcpp_compressed_pair_imp.26"*
  store i64* %16, i64** %14, align 8
  %128 = load i64*, i64** %14, align 8
  %129 = load i64, i64* %128, align 8
  store %"class.std::__1::__libcpp_compressed_pair_imp.26"* %127, %"class.std::__1::__libcpp_compressed_pair_imp.26"** %12, align 8
  store i64 %129, i64* %13, align 8
  %130 = load %"class.std::__1::__libcpp_compressed_pair_imp.26"*, %"class.std::__1::__libcpp_compressed_pair_imp.26"** %12, align 8
  %131 = bitcast %"class.std::__1::__libcpp_compressed_pair_imp.26"* %130 to %"class.std::__1::__unordered_map_hasher.27"*
  store %"class.std::__1::__unordered_map_hasher.27"* %131, %"class.std::__1::__unordered_map_hasher.27"** %11, align 8
  %132 = load %"class.std::__1::__unordered_map_hasher.27"*, %"class.std::__1::__unordered_map_hasher.27"** %11, align 8
  %133 = bitcast %"class.std::__1::__unordered_map_hasher.27"* %132 to %"struct.std::__1::hash.28"*
  %134 = getelementptr inbounds %"class.std::__1::__libcpp_compressed_pair_imp.26", %"class.std::__1::__libcpp_compressed_pair_imp.26"* %130, i32 0, i32 0
  store i64* %13, i64** %10, align 8
  %135 = load i64*, i64** %10, align 8
  %136 = load i64, i64* %135, align 8
  store i64 %136, i64* %134, align 8
  %137 = getelementptr inbounds %"class.std::__1::__hash_table.11", %"class.std::__1::__hash_table.11"* %81, i32 0, i32 3
  store %"class.std::__1::__compressed_pair.30"* %137, %"class.std::__1::__compressed_pair.30"** %8, align 8
  store float 1.000000e+00, float* %9, align 4
  %138 = load %"class.std::__1::__compressed_pair.30"*, %"class.std::__1::__compressed_pair.30"** %8, align 8
  %139 = load float, float* %9, align 4
  store %"class.std::__1::__compressed_pair.30"* %138, %"class.std::__1::__compressed_pair.30"** %6, align 8
  store float %139, float* %7, align 4
  %140 = load %"class.std::__1::__compressed_pair.30"*, %"class.std::__1::__compressed_pair.30"** %6, align 8
  %141 = bitcast %"class.std::__1::__compressed_pair.30"* %140 to %"class.std::__1::__libcpp_compressed_pair_imp.31"*
  store float* %7, float** %5, align 8
  %142 = load float*, float** %5, align 8
  %143 = load float, float* %142, align 4
  store %"class.std::__1::__libcpp_compressed_pair_imp.31"* %141, %"class.std::__1::__libcpp_compressed_pair_imp.31"** %3, align 8
  store float %143, float* %4, align 4
  %144 = load %"class.std::__1::__libcpp_compressed_pair_imp.31"*, %"class.std::__1::__libcpp_compressed_pair_imp.31"** %3, align 8
  %145 = bitcast %"class.std::__1::__libcpp_compressed_pair_imp.31"* %144 to %"class.std::__1::__unordered_map_equal.32"*
  store %"class.std::__1::__unordered_map_equal.32"* %145, %"class.std::__1::__unordered_map_equal.32"** %2, align 8
  %146 = load %"class.std::__1::__unordered_map_equal.32"*, %"class.std::__1::__unordered_map_equal.32"** %2, align 8
  %147 = bitcast %"class.std::__1::__unordered_map_equal.32"* %146 to %"struct.std::__1::equal_to.33"*
  %148 = getelementptr inbounds %"class.std::__1::__libcpp_compressed_pair_imp.31", %"class.std::__1::__libcpp_compressed_pair_imp.31"* %144, i32 0, i32 0
  store float* %4, float** %1, align 8
  %149 = load float*, float** %1, align 8
  %150 = load float, float* %149, align 4
  store float %150, float* %148, align 4
  %151 = call i32 @__cxa_atexit(void (i8*)* bitcast (void (%"class.std::__1::unordered_map.10"*)* @_ZNSt3__113unordered_mapIjPN4llvm10StructTypeENS_4hashIjEENS_8equal_toIjEENS_9allocatorINS_4pairIKjS3_EEEEED1Ev to void (i8*)*), i8* bitcast (%"class.std::__1::unordered_map.10"* @_ZN6CGType8EnvTypesE to i8*), i8* @__dso_handle) #2
  ret void
}

; Function Attrs: inlinehint nounwind ssp uwtable
define linkonce_odr void @_ZNSt3__113unordered_mapIjPN4llvm10StructTypeENS_4hashIjEENS_8equal_toIjEENS_9allocatorINS_4pairIKjS3_EEEEED1Ev(%"class.std::__1::unordered_map.10"*) unnamed_addr #1 align 2 {
  %2 = alloca %"class.std::__1::unordered_map.10"*, align 8
  store %"class.std::__1::unordered_map.10"* %0, %"class.std::__1::unordered_map.10"** %2, align 8
  %3 = load %"class.std::__1::unordered_map.10"*, %"class.std::__1::unordered_map.10"** %2, align 8
  call void @_ZNSt3__113unordered_mapIjPN4llvm10StructTypeENS_4hashIjEENS_8equal_toIjEENS_9allocatorINS_4pairIKjS3_EEEEED2Ev(%"class.std::__1::unordered_map.10"* %3) #2
  ret void
}

; Function Attrs: ssp uwtable
define %"class.llvm::FunctionType"* @_ZN6CGType11getFuncTypeER13TypeSpecifierNSt3__16vectorIPN4llvm4TypeENS2_9allocatorIS6_EEEE(%struct.TypeSpecifier* dereferenceable(216), %"class.std::__1::vector.78"*) #0 align 2 {
  %3 = alloca %struct.TypeSpecifier*, align 8
  %4 = alloca %"class.llvm::Type"*, align 8
  %5 = alloca %"class.llvm::ArrayRef", align 8
  store %struct.TypeSpecifier* %0, %struct.TypeSpecifier** %3, align 8
  %6 = load %struct.TypeSpecifier*, %struct.TypeSpecifier** %3, align 8
  %7 = call %"class.llvm::Type"* @_ZN6CGType7getTypeER13TypeSpecifier(%struct.TypeSpecifier* dereferenceable(216) %6)
  store %"class.llvm::Type"* %7, %"class.llvm::Type"** %4, align 8
  %8 = load %"class.llvm::Type"*, %"class.llvm::Type"** %4, align 8
  call void @_ZN4llvm8ArrayRefIPNS_4TypeEEC1INSt3__19allocatorIS2_EEEERKNS5_6vectorIS2_T_EE(%"class.llvm::ArrayRef"* %5, %"class.std::__1::vector.78"* dereferenceable(24) %1)
  %9 = bitcast %"class.llvm::ArrayRef"* %5 to { %"class.llvm::Type"**, i64 }*
  %10 = getelementptr inbounds { %"class.llvm::Type"**, i64 }, { %"class.llvm::Type"**, i64 }* %9, i32 0, i32 0
  %11 = load %"class.llvm::Type"**, %"class.llvm::Type"*** %10, align 8
  %12 = getelementptr inbounds { %"class.llvm::Type"**, i64 }, { %"class.llvm::Type"**, i64 }* %9, i32 0, i32 1
  %13 = load i64, i64* %12, align 8
  %14 = call %"class.llvm::FunctionType"* @_ZN4llvm12FunctionType3getEPNS_4TypeENS_8ArrayRefIS2_EEb(%"class.llvm::Type"* %8, %"class.llvm::Type"** %11, i64 %13, i1 zeroext false)
  ret %"class.llvm::FunctionType"* %14
}

; Function Attrs: ssp uwtable
define %"class.llvm::Type"* @_ZN6CGType7getTypeER13TypeSpecifier(%struct.TypeSpecifier* dereferenceable(216)) #0 align 2 {
  %2 = alloca %"class.llvm::Type"*, align 8
  %3 = alloca %struct.TypeSpecifier*, align 8
  %4 = alloca %"class.llvm::Type"*, align 8
  store %struct.TypeSpecifier* %0, %struct.TypeSpecifier** %3, align 8
  %5 = load %struct.TypeSpecifier*, %struct.TypeSpecifier** %3, align 8
  %6 = call %"class.llvm::Type"* @_ZN6CGType8_getTypeER13TypeSpecifier(%struct.TypeSpecifier* dereferenceable(216) %5)
  store %"class.llvm::Type"* %6, %"class.llvm::Type"** %4, align 8
  %7 = load %struct.TypeSpecifier*, %struct.TypeSpecifier** %3, align 8
  %8 = getelementptr inbounds %struct.TypeSpecifier, %struct.TypeSpecifier* %7, i32 0, i32 19
  %9 = load i8, i8* %8, align 4
  %10 = trunc i8 %9 to i1
  br i1 %10, label %16, label %11

; <label>:11:                                     ; preds = %1
  %12 = load %struct.TypeSpecifier*, %struct.TypeSpecifier** %3, align 8
  %13 = getelementptr inbounds %struct.TypeSpecifier, %struct.TypeSpecifier* %12, i32 0, i32 20
  %14 = load i8, i8* %13, align 1
  %15 = trunc i8 %14 to i1
  br i1 %15, label %16, label %20

; <label>:16:                                     ; preds = %11, %1
  %17 = load %"class.llvm::Type"*, %"class.llvm::Type"** %4, align 8
  %18 = call %"class.llvm::PointerType"* @_ZNK4llvm4Type12getPointerToEj(%"class.llvm::Type"* %17, i32 0)
  %19 = bitcast %"class.llvm::PointerType"* %18 to %"class.llvm::Type"*
  store %"class.llvm::Type"* %19, %"class.llvm::Type"** %2, align 8
  br label %22

; <label>:20:                                     ; preds = %11
  %21 = load %"class.llvm::Type"*, %"class.llvm::Type"** %4, align 8
  store %"class.llvm::Type"* %21, %"class.llvm::Type"** %2, align 8
  br label %22

; <label>:22:                                     ; preds = %20, %16
  %23 = load %"class.llvm::Type"*, %"class.llvm::Type"** %2, align 8
  ret %"class.llvm::Type"* %23
}

declare %"class.llvm::FunctionType"* @_ZN4llvm12FunctionType3getEPNS_4TypeENS_8ArrayRefIS2_EEb(%"class.llvm::Type"*, %"class.llvm::Type"**, i64, i1 zeroext) #3

; Function Attrs: ssp uwtable
define linkonce_odr void @_ZN4llvm8ArrayRefIPNS_4TypeEEC1INSt3__19allocatorIS2_EEEERKNS5_6vectorIS2_T_EE(%"class.llvm::ArrayRef"*, %"class.std::__1::vector.78"* dereferenceable(24)) unnamed_addr #0 align 2 {
  %3 = alloca %"class.llvm::ArrayRef"*, align 8
  %4 = alloca %"class.std::__1::vector.78"*, align 8
  store %"class.llvm::ArrayRef"* %0, %"class.llvm::ArrayRef"** %3, align 8
  store %"class.std::__1::vector.78"* %1, %"class.std::__1::vector.78"** %4, align 8
  %5 = load %"class.llvm::ArrayRef"*, %"class.llvm::ArrayRef"** %3, align 8
  %6 = load %"class.std::__1::vector.78"*, %"class.std::__1::vector.78"** %4, align 8
  call void @_ZN4llvm8ArrayRefIPNS_4TypeEEC2INSt3__19allocatorIS2_EEEERKNS5_6vectorIS2_T_EE(%"class.llvm::ArrayRef"* %5, %"class.std::__1::vector.78"* dereferenceable(24) %6)
  ret void
}

; Function Attrs: ssp uwtable
define %"class.llvm::Type"* @_ZN6CGType8_getTypeER13TypeSpecifier(%struct.TypeSpecifier* dereferenceable(216)) #0 align 2 personality i8* bitcast (i32 (...)* @__gxx_personality_v0 to i8*) {
  %2 = alloca %"class.std::__1::__wrap_iter"*, align 8
  %3 = alloca %"class.llvm::Type"**, align 8
  %4 = alloca %"class.llvm::Type"**, align 8
  %5 = alloca %"class.std::__1::allocator.82"*, align 8
  %6 = alloca %"class.llvm::Type"**, align 8
  %7 = alloca %"class.llvm::Type"**, align 8
  %8 = alloca %"class.llvm::Type"**, align 8
  %9 = alloca %"struct.std::__1::integral_constant.128", align 1
  %10 = alloca %"class.std::__1::allocator.82"*, align 8
  %11 = alloca %"class.llvm::Type"**, align 8
  %12 = alloca %"class.llvm::Type"**, align 8
  %13 = alloca %"class.llvm::Type"**, align 8
  %14 = alloca %"class.std::__1::allocator.82"*, align 8
  %15 = alloca %"class.llvm::Type"**, align 8
  %16 = alloca %"class.llvm::Type"**, align 8
  %17 = alloca %"struct.std::__1::integral_constant.128", align 1
  %18 = alloca %"struct.std::__1::__has_construct.154", align 1
  %19 = alloca %"class.llvm::Type"**, align 8
  %20 = alloca %"class.llvm::Type"**, align 8
  %21 = alloca %"class.std::__1::__libcpp_compressed_pair_imp.81"*, align 8
  %22 = alloca %"class.std::__1::__compressed_pair.80"*, align 8
  %23 = alloca %"class.std::__1::__vector_base.79"*, align 8
  %24 = alloca %"class.std::__1::__libcpp_compressed_pair_imp.81"*, align 8
  %25 = alloca %"class.std::__1::__compressed_pair.80"*, align 8
  %26 = alloca %"class.std::__1::__vector_base.79"*, align 8
  %27 = alloca %"class.std::__1::vector.78"*, align 8
  %28 = alloca %"class.llvm::Type"**, align 8
  %29 = alloca %"struct.std::__1::vector<llvm::Type *, std::__1::allocator<llvm::Type *> >::__RAII_IncreaseAnnotator", align 1
  %30 = alloca %"class.std::__1::__wrap_iter"*, align 8
  %31 = alloca %"class.std::__1::__wrap_iter"*, align 8
  %32 = alloca %"class.std::__1::__wrap_iter"*, align 8
  %33 = alloca %"class.std::__1::__wrap_iter"*, align 8
  %34 = alloca %"class.std::__1::__wrap_iter"*, align 8
  %35 = alloca %"class.std::__1::__wrap_iter"*, align 8
  %36 = alloca %"class.std::__1::__wrap_iter"*, align 8
  %37 = alloca %"class.std::__1::__wrap_iter"*, align 8
  %38 = alloca %struct.TypeSpecifier*, align 8
  %39 = alloca %"class.std::__1::__wrap_iter"*, align 8
  %40 = alloca %struct.TypeSpecifier*, align 8
  %41 = alloca %"class.std::__1::__wrap_iter", align 8
  %42 = alloca %"class.std::__1::vector.67"*, align 8
  %43 = alloca %struct.TypeSpecifier*, align 8
  %44 = alloca %"class.std::__1::__wrap_iter", align 8
  %45 = alloca %"class.std::__1::vector.67"*, align 8
  %46 = alloca %"class.std::__1::__wrap_iter"*, align 8
  %47 = alloca %struct.TypeSpecifier*, align 8
  %48 = alloca %"class.std::__1::__wrap_iter"*, align 8
  %49 = alloca %struct.TypeSpecifier*, align 8
  %50 = alloca %"class.std::__1::__wrap_iter", align 8
  %51 = alloca %"class.std::__1::vector.67"*, align 8
  %52 = alloca %struct.TypeSpecifier*, align 8
  %53 = alloca %"class.std::__1::__wrap_iter", align 8
  %54 = alloca %"class.std::__1::vector.67"*, align 8
  %55 = alloca %"class.std::__1::vector.67"*, align 8
  %56 = alloca %"class.std::initializer_list"*, align 8
  %57 = alloca %"class.std::initializer_list"*, align 8
  %58 = alloca %"class.std::initializer_list"*, align 8
  %59 = alloca %"class.std::initializer_list"*, align 8
  %60 = alloca %"class.std::initializer_list"*, align 8
  %61 = alloca %"class.llvm::Type"***, align 8
  %62 = alloca %"class.std::__1::allocator.82"*, align 8
  %63 = alloca %"class.std::__1::__libcpp_compressed_pair_imp.81"*, align 8
  %64 = alloca %"class.llvm::Type"**, align 8
  %65 = alloca %"class.llvm::Type"***, align 8
  %66 = alloca %"class.std::__1::__compressed_pair.80"*, align 8
  %67 = alloca %"class.llvm::Type"**, align 8
  %68 = alloca %"class.std::__1::__compressed_pair.80"*, align 8
  %69 = alloca %"class.llvm::Type"**, align 8
  %70 = alloca %"class.std::__1::__vector_base_common"*, align 8
  %71 = alloca %"class.std::__1::__vector_base.79"*, align 8
  %72 = alloca %"class.std::initializer_list", align 8
  %73 = alloca %"class.std::__1::vector.78"*, align 8
  %74 = alloca i8*
  %75 = alloca i32
  %76 = alloca %"class.std::initializer_list", align 8
  %77 = alloca %"class.std::__1::vector.78"*, align 8
  %78 = alloca %"class.std::__1::__libcpp_compressed_pair_imp.37"*, align 8
  %79 = alloca %"class.std::__1::__compressed_pair.36"*, align 8
  %80 = alloca %"class.std::__1::basic_string"*, align 8
  %81 = alloca [3 x i64]*, align 8
  %82 = alloca i32, align 4
  %83 = alloca %"class.std::__1::__compressed_pair.36"*, align 8
  %84 = alloca %"class.std::__1::basic_string"*, align 8
  %85 = alloca %"class.std::__1::basic_string"*, align 8
  %86 = alloca %"class.std::__1::basic_string"*, align 8
  %87 = alloca %"class.std::__1::basic_string"*, align 8
  %88 = alloca %"class.std::__1::basic_string"*, align 8
  %89 = alloca i8*, align 8
  %90 = alloca %"class.std::__1::basic_string"*, align 8
  %91 = alloca %"class.llvm::Type"*, align 8
  %92 = alloca %struct.TypeSpecifier*, align 8
  %93 = alloca %"class.std::__1::vector.78", align 8
  %94 = alloca %"class.std::initializer_list", align 8
  %95 = alloca [1 x %"class.llvm::Type"*], align 8
  %96 = alloca i8*
  %97 = alloca i32
  %98 = alloca %"class.std::__1::vector.67"*, align 8
  %99 = alloca %"class.std::__1::__wrap_iter", align 8
  %100 = alloca %"class.std::__1::__wrap_iter", align 8
  %101 = alloca %struct.TypeSpecifier*, align 8
  %102 = alloca %"class.llvm::Type"*, align 8
  %103 = alloca %"class.llvm::ArrayRef", align 8
  %104 = alloca %"class.std::__1::basic_string", align 8
  %105 = alloca %"class.std::__1::basic_string", align 8
  store %struct.TypeSpecifier* %0, %struct.TypeSpecifier** %92, align 8
  %106 = load %struct.TypeSpecifier*, %struct.TypeSpecifier** %92, align 8
  %107 = getelementptr inbounds %struct.TypeSpecifier, %struct.TypeSpecifier* %106, i32 0, i32 4
  %108 = load i8, i8* %107, align 1
  %109 = trunc i8 %108 to i1
  br i1 %109, label %110, label %118

; <label>:110:                                    ; preds = %1
  %111 = load %struct.TypeSpecifier*, %struct.TypeSpecifier** %92, align 8
  %112 = getelementptr inbounds %struct.TypeSpecifier, %struct.TypeSpecifier* %111, i32 0, i32 25
  %113 = bitcast %union.anon.73* %112 to %struct.TypeSpecifier**
  %114 = load %struct.TypeSpecifier*, %struct.TypeSpecifier** %113, align 8
  %115 = call %"class.llvm::Type"* @_ZN6CGType7getTypeER13TypeSpecifier(%struct.TypeSpecifier* dereferenceable(216) %114)
  %116 = call %"class.llvm::PointerType"* @_ZNK4llvm4Type12getPointerToEj(%"class.llvm::Type"* %115, i32 0)
  %117 = bitcast %"class.llvm::PointerType"* %116 to %"class.llvm::Type"*
  store %"class.llvm::Type"* %117, %"class.llvm::Type"** %91, align 8
  br label %457

; <label>:118:                                    ; preds = %1
  %119 = load %struct.TypeSpecifier*, %struct.TypeSpecifier** %92, align 8
  %120 = getelementptr inbounds %struct.TypeSpecifier, %struct.TypeSpecifier* %119, i32 0, i32 21
  %121 = load i8, i8* %120, align 2
  %122 = trunc i8 %121 to i1
  br i1 %122, label %123, label %131

; <label>:123:                                    ; preds = %118
  %124 = load %struct.TypeSpecifier*, %struct.TypeSpecifier** %92, align 8
  %125 = getelementptr inbounds %struct.TypeSpecifier, %struct.TypeSpecifier* %124, i32 0, i32 22
  %126 = call dereferenceable(8) %"class.llvm::StructType"** @_ZNSt3__113unordered_mapIjPN4llvm10StructTypeENS_4hashIjEENS_8equal_toIjEENS_9allocatorINS_4pairIKjS3_EEEEEixERSA_(%"class.std::__1::unordered_map.10"* @_ZN6CGType8EnvTypesE, i32* dereferenceable(4) %125)
  %127 = load %"class.llvm::StructType"*, %"class.llvm::StructType"** %126, align 8
  %128 = bitcast %"class.llvm::StructType"* %127 to %"class.llvm::Type"*
  %129 = call %"class.llvm::PointerType"* @_ZNK4llvm4Type12getPointerToEj(%"class.llvm::Type"* %128, i32 0)
  %130 = bitcast %"class.llvm::PointerType"* %129 to %"class.llvm::Type"*
  store %"class.llvm::Type"* %130, %"class.llvm::Type"** %91, align 8
  br label %457

; <label>:131:                                    ; preds = %118
  %132 = load %struct.TypeSpecifier*, %struct.TypeSpecifier** %92, align 8
  %133 = getelementptr inbounds %struct.TypeSpecifier, %struct.TypeSpecifier* %132, i32 0, i32 5
  %134 = load i8, i8* %133, align 2
  %135 = trunc i8 %134 to i1
  br i1 %135, label %136, label %139

; <label>:136:                                    ; preds = %131
  %137 = call %"class.llvm::PointerType"* @_ZN4llvm13IRBuilderBase12getInt8PtrTyEj(%"class.llvm::IRBuilderBase"* getelementptr inbounds (%"class.llvm::IRBuilder", %"class.llvm::IRBuilder"* @_ZN14CodeGenVisitor7BuilderE, i32 0, i32 0), i32 0)
  %138 = bitcast %"class.llvm::PointerType"* %137 to %"class.llvm::Type"*
  store %"class.llvm::Type"* %138, %"class.llvm::Type"** %91, align 8
  br label %457

; <label>:139:                                    ; preds = %131
  %140 = load %struct.TypeSpecifier*, %struct.TypeSpecifier** %92, align 8
  %141 = getelementptr inbounds %struct.TypeSpecifier, %struct.TypeSpecifier* %140, i32 0, i32 18
  %142 = load i8, i8* %141, align 1
  %143 = trunc i8 %142 to i1
  br i1 %143, label %144, label %373

; <label>:144:                                    ; preds = %139
  %145 = getelementptr inbounds [1 x %"class.llvm::Type"*], [1 x %"class.llvm::Type"*]* %95, i64 0, i64 0
  %146 = call %"class.llvm::PointerType"* @_ZN4llvm4Type12getInt8PtrTyERNS_11LLVMContextEj(%"class.llvm::LLVMContext"* dereferenceable(8) @_ZN14CodeGenVisitor7ContextE, i32 0)
  %147 = bitcast %"class.llvm::PointerType"* %146 to %"class.llvm::Type"*
  store %"class.llvm::Type"* %147, %"class.llvm::Type"** %145, align 8
  %148 = getelementptr inbounds %"class.std::initializer_list", %"class.std::initializer_list"* %94, i32 0, i32 0
  %149 = getelementptr inbounds [1 x %"class.llvm::Type"*], [1 x %"class.llvm::Type"*]* %95, i64 0, i64 0
  store %"class.llvm::Type"** %149, %"class.llvm::Type"*** %148, align 8
  %150 = getelementptr inbounds %"class.std::initializer_list", %"class.std::initializer_list"* %94, i32 0, i32 1
  store i64 1, i64* %150, align 8
  %151 = bitcast %"class.std::initializer_list"* %94 to { %"class.llvm::Type"**, i64 }*
  %152 = getelementptr inbounds { %"class.llvm::Type"**, i64 }, { %"class.llvm::Type"**, i64 }* %151, i32 0, i32 0
  %153 = load %"class.llvm::Type"**, %"class.llvm::Type"*** %152, align 8
  %154 = getelementptr inbounds { %"class.llvm::Type"**, i64 }, { %"class.llvm::Type"**, i64 }* %151, i32 0, i32 1
  %155 = load i64, i64* %154, align 8
  %156 = bitcast %"class.std::initializer_list"* %76 to { %"class.llvm::Type"**, i64 }*
  %157 = getelementptr inbounds { %"class.llvm::Type"**, i64 }, { %"class.llvm::Type"**, i64 }* %156, i32 0, i32 0
  store %"class.llvm::Type"** %153, %"class.llvm::Type"*** %157, align 8
  %158 = getelementptr inbounds { %"class.llvm::Type"**, i64 }, { %"class.llvm::Type"**, i64 }* %156, i32 0, i32 1
  store i64 %155, i64* %158, align 8
  store %"class.std::__1::vector.78"* %93, %"class.std::__1::vector.78"** %77, align 8
  %159 = load %"class.std::__1::vector.78"*, %"class.std::__1::vector.78"** %77, align 8
  %160 = bitcast %"class.std::initializer_list"* %76 to { %"class.llvm::Type"**, i64 }*
  %161 = getelementptr inbounds { %"class.llvm::Type"**, i64 }, { %"class.llvm::Type"**, i64 }* %160, i32 0, i32 0
  %162 = load %"class.llvm::Type"**, %"class.llvm::Type"*** %161, align 8
  %163 = getelementptr inbounds { %"class.llvm::Type"**, i64 }, { %"class.llvm::Type"**, i64 }* %160, i32 0, i32 1
  %164 = load i64, i64* %163, align 8
  %165 = bitcast %"class.std::initializer_list"* %72 to { %"class.llvm::Type"**, i64 }*
  %166 = getelementptr inbounds { %"class.llvm::Type"**, i64 }, { %"class.llvm::Type"**, i64 }* %165, i32 0, i32 0
  store %"class.llvm::Type"** %162, %"class.llvm::Type"*** %166, align 8
  %167 = getelementptr inbounds { %"class.llvm::Type"**, i64 }, { %"class.llvm::Type"**, i64 }* %165, i32 0, i32 1
  store i64 %164, i64* %167, align 8
  store %"class.std::__1::vector.78"* %159, %"class.std::__1::vector.78"** %73, align 8
  %168 = load %"class.std::__1::vector.78"*, %"class.std::__1::vector.78"** %73, align 8
  %169 = bitcast %"class.std::__1::vector.78"* %168 to %"class.std::__1::__vector_base.79"*
  store %"class.std::__1::__vector_base.79"* %169, %"class.std::__1::__vector_base.79"** %71, align 8
  %170 = load %"class.std::__1::__vector_base.79"*, %"class.std::__1::__vector_base.79"** %71, align 8
  %171 = bitcast %"class.std::__1::__vector_base.79"* %170 to %"class.std::__1::__vector_base_common"*
  store %"class.std::__1::__vector_base_common"* %171, %"class.std::__1::__vector_base_common"** %70, align 8
  %172 = load %"class.std::__1::__vector_base_common"*, %"class.std::__1::__vector_base_common"** %70, align 8
  %173 = getelementptr inbounds %"class.std::__1::__vector_base.79", %"class.std::__1::__vector_base.79"* %170, i32 0, i32 0
  store %"class.llvm::Type"** null, %"class.llvm::Type"*** %173, align 8
  %174 = getelementptr inbounds %"class.std::__1::__vector_base.79", %"class.std::__1::__vector_base.79"* %170, i32 0, i32 1
  store %"class.llvm::Type"** null, %"class.llvm::Type"*** %174, align 8
  %175 = getelementptr inbounds %"class.std::__1::__vector_base.79", %"class.std::__1::__vector_base.79"* %170, i32 0, i32 2
  store %"class.std::__1::__compressed_pair.80"* %175, %"class.std::__1::__compressed_pair.80"** %68, align 8
  store %"class.llvm::Type"** null, %"class.llvm::Type"*** %69, align 8
  %176 = load %"class.std::__1::__compressed_pair.80"*, %"class.std::__1::__compressed_pair.80"** %68, align 8
  %177 = load %"class.llvm::Type"**, %"class.llvm::Type"*** %69, align 8
  store %"class.std::__1::__compressed_pair.80"* %176, %"class.std::__1::__compressed_pair.80"** %66, align 8
  store %"class.llvm::Type"** %177, %"class.llvm::Type"*** %67, align 8
  %178 = load %"class.std::__1::__compressed_pair.80"*, %"class.std::__1::__compressed_pair.80"** %66, align 8
  %179 = bitcast %"class.std::__1::__compressed_pair.80"* %178 to %"class.std::__1::__libcpp_compressed_pair_imp.81"*
  store %"class.llvm::Type"*** %67, %"class.llvm::Type"**** %65, align 8
  %180 = load %"class.llvm::Type"***, %"class.llvm::Type"**** %65, align 8
  %181 = load %"class.llvm::Type"**, %"class.llvm::Type"*** %180, align 8
  store %"class.std::__1::__libcpp_compressed_pair_imp.81"* %179, %"class.std::__1::__libcpp_compressed_pair_imp.81"** %63, align 8
  store %"class.llvm::Type"** %181, %"class.llvm::Type"*** %64, align 8
  %182 = load %"class.std::__1::__libcpp_compressed_pair_imp.81"*, %"class.std::__1::__libcpp_compressed_pair_imp.81"** %63, align 8
  %183 = bitcast %"class.std::__1::__libcpp_compressed_pair_imp.81"* %182 to %"class.std::__1::allocator.82"*
  store %"class.std::__1::allocator.82"* %183, %"class.std::__1::allocator.82"** %62, align 8
  %184 = load %"class.std::__1::allocator.82"*, %"class.std::__1::allocator.82"** %62, align 8
  %185 = getelementptr inbounds %"class.std::__1::__libcpp_compressed_pair_imp.81", %"class.std::__1::__libcpp_compressed_pair_imp.81"* %182, i32 0, i32 0
  store %"class.llvm::Type"*** %64, %"class.llvm::Type"**** %61, align 8
  %186 = load %"class.llvm::Type"***, %"class.llvm::Type"**** %61, align 8
  %187 = load %"class.llvm::Type"**, %"class.llvm::Type"*** %186, align 8
  store %"class.llvm::Type"** %187, %"class.llvm::Type"*** %185, align 8
  store %"class.std::initializer_list"* %72, %"class.std::initializer_list"** %60, align 8
  %188 = load %"class.std::initializer_list"*, %"class.std::initializer_list"** %60, align 8
  %189 = getelementptr inbounds %"class.std::initializer_list", %"class.std::initializer_list"* %188, i32 0, i32 1
  %190 = load i64, i64* %189, align 8
  %191 = icmp ugt i64 %190, 0
  br i1 %191, label %192, label %219

; <label>:192:                                    ; preds = %144
  store %"class.std::initializer_list"* %72, %"class.std::initializer_list"** %59, align 8
  %193 = load %"class.std::initializer_list"*, %"class.std::initializer_list"** %59, align 8
  %194 = getelementptr inbounds %"class.std::initializer_list", %"class.std::initializer_list"* %193, i32 0, i32 1
  %195 = load i64, i64* %194, align 8
  invoke void @_ZNSt3__16vectorIPN4llvm4TypeENS_9allocatorIS3_EEE8allocateEm(%"class.std::__1::vector.78"* %168, i64 %195)
          to label %196 unwind label %210

; <label>:196:                                    ; preds = %192
  store %"class.std::initializer_list"* %72, %"class.std::initializer_list"** %56, align 8
  %197 = load %"class.std::initializer_list"*, %"class.std::initializer_list"** %56, align 8
  %198 = getelementptr inbounds %"class.std::initializer_list", %"class.std::initializer_list"* %197, i32 0, i32 0
  %199 = load %"class.llvm::Type"**, %"class.llvm::Type"*** %198, align 8
  store %"class.std::initializer_list"* %72, %"class.std::initializer_list"** %57, align 8
  %200 = load %"class.std::initializer_list"*, %"class.std::initializer_list"** %57, align 8
  %201 = getelementptr inbounds %"class.std::initializer_list", %"class.std::initializer_list"* %200, i32 0, i32 0
  %202 = load %"class.llvm::Type"**, %"class.llvm::Type"*** %201, align 8
  %203 = getelementptr inbounds %"class.std::initializer_list", %"class.std::initializer_list"* %200, i32 0, i32 1
  %204 = load i64, i64* %203, align 8
  %205 = getelementptr inbounds %"class.llvm::Type"*, %"class.llvm::Type"** %202, i64 %204
  store %"class.std::initializer_list"* %72, %"class.std::initializer_list"** %58, align 8
  %206 = load %"class.std::initializer_list"*, %"class.std::initializer_list"** %58, align 8
  %207 = getelementptr inbounds %"class.std::initializer_list", %"class.std::initializer_list"* %206, i32 0, i32 1
  %208 = load i64, i64* %207, align 8
  invoke void @_ZNSt3__16vectorIPN4llvm4TypeENS_9allocatorIS3_EEE18__construct_at_endIPKS3_EENS_9enable_ifIXsr21__is_forward_iteratorIT_EE5valueEvE4typeESB_SB_m(%"class.std::__1::vector.78"* %168, %"class.llvm::Type"** %199, %"class.llvm::Type"** %205, i64 %208)
          to label %209 unwind label %210

; <label>:209:                                    ; preds = %196
  br label %219

; <label>:210:                                    ; preds = %196, %192
  %211 = landingpad { i8*, i32 }
          cleanup
  %212 = extractvalue { i8*, i32 } %211, 0
  store i8* %212, i8** %74, align 8
  %213 = extractvalue { i8*, i32 } %211, 1
  store i32 %213, i32* %75, align 4
  %214 = bitcast %"class.std::__1::vector.78"* %168 to %"class.std::__1::__vector_base.79"*
  call void @_ZNSt3__113__vector_baseIPN4llvm4TypeENS_9allocatorIS3_EEED2Ev(%"class.std::__1::__vector_base.79"* %214) #2
  %215 = load i8*, i8** %74, align 8
  %216 = load i32, i32* %75, align 4
  %217 = insertvalue { i8*, i32 } undef, i8* %215, 0
  %218 = insertvalue { i8*, i32 } %217, i32 %216, 1
  resume { i8*, i32 } %218

; <label>:219:                                    ; preds = %144, %209
  %220 = load %struct.TypeSpecifier*, %struct.TypeSpecifier** %92, align 8
  %221 = getelementptr inbounds %struct.TypeSpecifier, %struct.TypeSpecifier* %220, i32 0, i32 24
  store %"class.std::__1::vector.67"* %221, %"class.std::__1::vector.67"** %55, align 8
  %222 = load %"class.std::__1::vector.67"*, %"class.std::__1::vector.67"** %55, align 8
  %223 = bitcast %"class.std::__1::vector.67"* %222 to %"class.std::__1::__vector_base.68"*
  %224 = getelementptr inbounds %"class.std::__1::__vector_base.68", %"class.std::__1::__vector_base.68"* %223, i32 0, i32 1
  %225 = load %struct.TypeSpecifier*, %struct.TypeSpecifier** %224, align 8
  %226 = bitcast %"class.std::__1::vector.67"* %222 to %"class.std::__1::__vector_base.68"*
  %227 = getelementptr inbounds %"class.std::__1::__vector_base.68", %"class.std::__1::__vector_base.68"* %226, i32 0, i32 0
  %228 = load %struct.TypeSpecifier*, %struct.TypeSpecifier** %227, align 8
  %229 = ptrtoint %struct.TypeSpecifier* %225 to i64
  %230 = ptrtoint %struct.TypeSpecifier* %228 to i64
  %231 = sub i64 %229, %230
  %232 = sdiv exact i64 %231, 216
  invoke void @_ZNSt3__16vectorIPN4llvm4TypeENS_9allocatorIS3_EEE7reserveEm(%"class.std::__1::vector.78"* %93, i64 %232)
          to label %233 unwind label %350

; <label>:233:                                    ; preds = %219
  %234 = load %struct.TypeSpecifier*, %struct.TypeSpecifier** %92, align 8
  %235 = getelementptr inbounds %struct.TypeSpecifier, %struct.TypeSpecifier* %234, i32 0, i32 24
  store %"class.std::__1::vector.67"* %235, %"class.std::__1::vector.67"** %98, align 8
  %236 = load %"class.std::__1::vector.67"*, %"class.std::__1::vector.67"** %98, align 8
  store %"class.std::__1::vector.67"* %236, %"class.std::__1::vector.67"** %54, align 8
  %237 = load %"class.std::__1::vector.67"*, %"class.std::__1::vector.67"** %54, align 8
  %238 = bitcast %"class.std::__1::vector.67"* %237 to %"class.std::__1::__vector_base.68"*
  %239 = getelementptr inbounds %"class.std::__1::__vector_base.68", %"class.std::__1::__vector_base.68"* %238, i32 0, i32 0
  %240 = load %struct.TypeSpecifier*, %struct.TypeSpecifier** %239, align 8
  store %"class.std::__1::vector.67"* %237, %"class.std::__1::vector.67"** %51, align 8
  store %struct.TypeSpecifier* %240, %struct.TypeSpecifier** %52, align 8
  %241 = load %"class.std::__1::vector.67"*, %"class.std::__1::vector.67"** %51, align 8
  %242 = load %struct.TypeSpecifier*, %struct.TypeSpecifier** %52, align 8
  store %"class.std::__1::__wrap_iter"* %50, %"class.std::__1::__wrap_iter"** %48, align 8
  store %struct.TypeSpecifier* %242, %struct.TypeSpecifier** %49, align 8
  %243 = load %"class.std::__1::__wrap_iter"*, %"class.std::__1::__wrap_iter"** %48, align 8
  %244 = load %struct.TypeSpecifier*, %struct.TypeSpecifier** %49, align 8
  store %"class.std::__1::__wrap_iter"* %243, %"class.std::__1::__wrap_iter"** %46, align 8
  store %struct.TypeSpecifier* %244, %struct.TypeSpecifier** %47, align 8
  %245 = load %"class.std::__1::__wrap_iter"*, %"class.std::__1::__wrap_iter"** %46, align 8
  %246 = getelementptr inbounds %"class.std::__1::__wrap_iter", %"class.std::__1::__wrap_iter"* %245, i32 0, i32 0
  %247 = load %struct.TypeSpecifier*, %struct.TypeSpecifier** %47, align 8
  store %struct.TypeSpecifier* %247, %struct.TypeSpecifier** %246, align 8
  %248 = getelementptr inbounds %"class.std::__1::__wrap_iter", %"class.std::__1::__wrap_iter"* %50, i32 0, i32 0
  %249 = load %struct.TypeSpecifier*, %struct.TypeSpecifier** %248, align 8
  %250 = getelementptr inbounds %"class.std::__1::__wrap_iter", %"class.std::__1::__wrap_iter"* %53, i32 0, i32 0
  store %struct.TypeSpecifier* %249, %struct.TypeSpecifier** %250, align 8
  %251 = getelementptr inbounds %"class.std::__1::__wrap_iter", %"class.std::__1::__wrap_iter"* %53, i32 0, i32 0
  %252 = load %struct.TypeSpecifier*, %struct.TypeSpecifier** %251, align 8
  %253 = getelementptr inbounds %"class.std::__1::__wrap_iter", %"class.std::__1::__wrap_iter"* %99, i32 0, i32 0
  store %struct.TypeSpecifier* %252, %struct.TypeSpecifier** %253, align 8
  %254 = load %"class.std::__1::vector.67"*, %"class.std::__1::vector.67"** %98, align 8
  store %"class.std::__1::vector.67"* %254, %"class.std::__1::vector.67"** %45, align 8
  %255 = load %"class.std::__1::vector.67"*, %"class.std::__1::vector.67"** %45, align 8
  %256 = bitcast %"class.std::__1::vector.67"* %255 to %"class.std::__1::__vector_base.68"*
  %257 = getelementptr inbounds %"class.std::__1::__vector_base.68", %"class.std::__1::__vector_base.68"* %256, i32 0, i32 1
  %258 = load %struct.TypeSpecifier*, %struct.TypeSpecifier** %257, align 8
  store %"class.std::__1::vector.67"* %255, %"class.std::__1::vector.67"** %42, align 8
  store %struct.TypeSpecifier* %258, %struct.TypeSpecifier** %43, align 8
  %259 = load %"class.std::__1::vector.67"*, %"class.std::__1::vector.67"** %42, align 8
  %260 = load %struct.TypeSpecifier*, %struct.TypeSpecifier** %43, align 8
  store %"class.std::__1::__wrap_iter"* %41, %"class.std::__1::__wrap_iter"** %39, align 8
  store %struct.TypeSpecifier* %260, %struct.TypeSpecifier** %40, align 8
  %261 = load %"class.std::__1::__wrap_iter"*, %"class.std::__1::__wrap_iter"** %39, align 8
  %262 = load %struct.TypeSpecifier*, %struct.TypeSpecifier** %40, align 8
  store %"class.std::__1::__wrap_iter"* %261, %"class.std::__1::__wrap_iter"** %37, align 8
  store %struct.TypeSpecifier* %262, %struct.TypeSpecifier** %38, align 8
  %263 = load %"class.std::__1::__wrap_iter"*, %"class.std::__1::__wrap_iter"** %37, align 8
  %264 = getelementptr inbounds %"class.std::__1::__wrap_iter", %"class.std::__1::__wrap_iter"* %263, i32 0, i32 0
  %265 = load %struct.TypeSpecifier*, %struct.TypeSpecifier** %38, align 8
  store %struct.TypeSpecifier* %265, %struct.TypeSpecifier** %264, align 8
  %266 = getelementptr inbounds %"class.std::__1::__wrap_iter", %"class.std::__1::__wrap_iter"* %41, i32 0, i32 0
  %267 = load %struct.TypeSpecifier*, %struct.TypeSpecifier** %266, align 8
  %268 = getelementptr inbounds %"class.std::__1::__wrap_iter", %"class.std::__1::__wrap_iter"* %44, i32 0, i32 0
  store %struct.TypeSpecifier* %267, %struct.TypeSpecifier** %268, align 8
  %269 = getelementptr inbounds %"class.std::__1::__wrap_iter", %"class.std::__1::__wrap_iter"* %44, i32 0, i32 0
  %270 = load %struct.TypeSpecifier*, %struct.TypeSpecifier** %269, align 8
  %271 = getelementptr inbounds %"class.std::__1::__wrap_iter", %"class.std::__1::__wrap_iter"* %100, i32 0, i32 0
  store %struct.TypeSpecifier* %270, %struct.TypeSpecifier** %271, align 8
  br label %272

; <label>:272:                                    ; preds = %345, %233
  store %"class.std::__1::__wrap_iter"* %99, %"class.std::__1::__wrap_iter"** %35, align 8
  store %"class.std::__1::__wrap_iter"* %100, %"class.std::__1::__wrap_iter"** %36, align 8
  %273 = load %"class.std::__1::__wrap_iter"*, %"class.std::__1::__wrap_iter"** %35, align 8
  %274 = load %"class.std::__1::__wrap_iter"*, %"class.std::__1::__wrap_iter"** %36, align 8
  store %"class.std::__1::__wrap_iter"* %273, %"class.std::__1::__wrap_iter"** %33, align 8
  store %"class.std::__1::__wrap_iter"* %274, %"class.std::__1::__wrap_iter"** %34, align 8
  %275 = load %"class.std::__1::__wrap_iter"*, %"class.std::__1::__wrap_iter"** %33, align 8
  store %"class.std::__1::__wrap_iter"* %275, %"class.std::__1::__wrap_iter"** %32, align 8
  %276 = load %"class.std::__1::__wrap_iter"*, %"class.std::__1::__wrap_iter"** %32, align 8
  %277 = getelementptr inbounds %"class.std::__1::__wrap_iter", %"class.std::__1::__wrap_iter"* %276, i32 0, i32 0
  %278 = load %struct.TypeSpecifier*, %struct.TypeSpecifier** %277, align 8
  %279 = load %"class.std::__1::__wrap_iter"*, %"class.std::__1::__wrap_iter"** %34, align 8
  store %"class.std::__1::__wrap_iter"* %279, %"class.std::__1::__wrap_iter"** %31, align 8
  %280 = load %"class.std::__1::__wrap_iter"*, %"class.std::__1::__wrap_iter"** %31, align 8
  %281 = getelementptr inbounds %"class.std::__1::__wrap_iter", %"class.std::__1::__wrap_iter"* %280, i32 0, i32 0
  %282 = load %struct.TypeSpecifier*, %struct.TypeSpecifier** %281, align 8
  %283 = icmp eq %struct.TypeSpecifier* %278, %282
  %284 = xor i1 %283, true
  br i1 %284, label %285, label %354

; <label>:285:                                    ; preds = %272
  store %"class.std::__1::__wrap_iter"* %99, %"class.std::__1::__wrap_iter"** %30, align 8
  %286 = load %"class.std::__1::__wrap_iter"*, %"class.std::__1::__wrap_iter"** %30, align 8
  %287 = getelementptr inbounds %"class.std::__1::__wrap_iter", %"class.std::__1::__wrap_iter"* %286, i32 0, i32 0
  %288 = load %struct.TypeSpecifier*, %struct.TypeSpecifier** %287, align 8
  store %struct.TypeSpecifier* %288, %struct.TypeSpecifier** %101, align 8
  %289 = load %struct.TypeSpecifier*, %struct.TypeSpecifier** %101, align 8
  %290 = invoke %"class.llvm::Type"* @_ZN6CGType7getTypeER13TypeSpecifier(%struct.TypeSpecifier* dereferenceable(216) %289)
          to label %291 unwind label %350

; <label>:291:                                    ; preds = %285
  store %"class.llvm::Type"* %290, %"class.llvm::Type"** %102, align 8
  store %"class.std::__1::vector.78"* %93, %"class.std::__1::vector.78"** %27, align 8
  store %"class.llvm::Type"** %102, %"class.llvm::Type"*** %28, align 8
  %292 = load %"class.std::__1::vector.78"*, %"class.std::__1::vector.78"** %27, align 8
  %293 = bitcast %"class.std::__1::vector.78"* %292 to %"class.std::__1::__vector_base.79"*
  %294 = getelementptr inbounds %"class.std::__1::__vector_base.79", %"class.std::__1::__vector_base.79"* %293, i32 0, i32 1
  %295 = load %"class.llvm::Type"**, %"class.llvm::Type"*** %294, align 8
  %296 = bitcast %"class.std::__1::vector.78"* %292 to %"class.std::__1::__vector_base.79"*
  store %"class.std::__1::__vector_base.79"* %296, %"class.std::__1::__vector_base.79"** %26, align 8
  %297 = load %"class.std::__1::__vector_base.79"*, %"class.std::__1::__vector_base.79"** %26, align 8
  %298 = getelementptr inbounds %"class.std::__1::__vector_base.79", %"class.std::__1::__vector_base.79"* %297, i32 0, i32 2
  store %"class.std::__1::__compressed_pair.80"* %298, %"class.std::__1::__compressed_pair.80"** %25, align 8
  %299 = load %"class.std::__1::__compressed_pair.80"*, %"class.std::__1::__compressed_pair.80"** %25, align 8
  %300 = bitcast %"class.std::__1::__compressed_pair.80"* %299 to %"class.std::__1::__libcpp_compressed_pair_imp.81"*
  store %"class.std::__1::__libcpp_compressed_pair_imp.81"* %300, %"class.std::__1::__libcpp_compressed_pair_imp.81"** %24, align 8
  %301 = load %"class.std::__1::__libcpp_compressed_pair_imp.81"*, %"class.std::__1::__libcpp_compressed_pair_imp.81"** %24, align 8
  %302 = getelementptr inbounds %"class.std::__1::__libcpp_compressed_pair_imp.81", %"class.std::__1::__libcpp_compressed_pair_imp.81"* %301, i32 0, i32 0
  %303 = load %"class.llvm::Type"**, %"class.llvm::Type"*** %302, align 8
  %304 = icmp ult %"class.llvm::Type"** %295, %303
  br i1 %304, label %305, label %339

; <label>:305:                                    ; preds = %291
  invoke void @_ZNSt3__16vectorIPN4llvm4TypeENS_9allocatorIS3_EEE24__RAII_IncreaseAnnotatorC1ERKS6_m(%"struct.std::__1::vector<llvm::Type *, std::__1::allocator<llvm::Type *> >::__RAII_IncreaseAnnotator"* %29, %"class.std::__1::vector.78"* dereferenceable(24) %292, i64 1)
          to label %306 unwind label %350

; <label>:306:                                    ; preds = %305
  %307 = bitcast %"class.std::__1::vector.78"* %292 to %"class.std::__1::__vector_base.79"*
  store %"class.std::__1::__vector_base.79"* %307, %"class.std::__1::__vector_base.79"** %23, align 8
  %308 = load %"class.std::__1::__vector_base.79"*, %"class.std::__1::__vector_base.79"** %23, align 8
  %309 = getelementptr inbounds %"class.std::__1::__vector_base.79", %"class.std::__1::__vector_base.79"* %308, i32 0, i32 2
  store %"class.std::__1::__compressed_pair.80"* %309, %"class.std::__1::__compressed_pair.80"** %22, align 8
  %310 = load %"class.std::__1::__compressed_pair.80"*, %"class.std::__1::__compressed_pair.80"** %22, align 8
  %311 = bitcast %"class.std::__1::__compressed_pair.80"* %310 to %"class.std::__1::__libcpp_compressed_pair_imp.81"*
  store %"class.std::__1::__libcpp_compressed_pair_imp.81"* %311, %"class.std::__1::__libcpp_compressed_pair_imp.81"** %21, align 8
  %312 = load %"class.std::__1::__libcpp_compressed_pair_imp.81"*, %"class.std::__1::__libcpp_compressed_pair_imp.81"** %21, align 8
  %313 = bitcast %"class.std::__1::__libcpp_compressed_pair_imp.81"* %312 to %"class.std::__1::allocator.82"*
  %314 = bitcast %"class.std::__1::vector.78"* %292 to %"class.std::__1::__vector_base.79"*
  %315 = getelementptr inbounds %"class.std::__1::__vector_base.79", %"class.std::__1::__vector_base.79"* %314, i32 0, i32 1
  %316 = load %"class.llvm::Type"**, %"class.llvm::Type"*** %315, align 8
  store %"class.llvm::Type"** %316, %"class.llvm::Type"*** %19, align 8
  %317 = load %"class.llvm::Type"**, %"class.llvm::Type"*** %19, align 8
  %318 = load %"class.llvm::Type"**, %"class.llvm::Type"*** %28, align 8
  store %"class.llvm::Type"** %318, %"class.llvm::Type"*** %3, align 8
  %319 = load %"class.llvm::Type"**, %"class.llvm::Type"*** %3, align 8
  store %"class.std::__1::allocator.82"* %313, %"class.std::__1::allocator.82"** %14, align 8
  store %"class.llvm::Type"** %317, %"class.llvm::Type"*** %15, align 8
  store %"class.llvm::Type"** %319, %"class.llvm::Type"*** %16, align 8
  %320 = bitcast %"struct.std::__1::__has_construct.154"* %18 to %"struct.std::__1::integral_constant.128"*
  %321 = load %"class.std::__1::allocator.82"*, %"class.std::__1::allocator.82"** %14, align 8
  %322 = load %"class.llvm::Type"**, %"class.llvm::Type"*** %15, align 8
  %323 = load %"class.llvm::Type"**, %"class.llvm::Type"*** %16, align 8
  store %"class.llvm::Type"** %323, %"class.llvm::Type"*** %13, align 8
  %324 = load %"class.llvm::Type"**, %"class.llvm::Type"*** %13, align 8
  store %"class.std::__1::allocator.82"* %321, %"class.std::__1::allocator.82"** %10, align 8
  store %"class.llvm::Type"** %322, %"class.llvm::Type"*** %11, align 8
  store %"class.llvm::Type"** %324, %"class.llvm::Type"*** %12, align 8
  %325 = load %"class.std::__1::allocator.82"*, %"class.std::__1::allocator.82"** %10, align 8
  %326 = load %"class.llvm::Type"**, %"class.llvm::Type"*** %11, align 8
  %327 = load %"class.llvm::Type"**, %"class.llvm::Type"*** %12, align 8
  store %"class.llvm::Type"** %327, %"class.llvm::Type"*** %8, align 8
  %328 = load %"class.llvm::Type"**, %"class.llvm::Type"*** %8, align 8
  store %"class.std::__1::allocator.82"* %325, %"class.std::__1::allocator.82"** %5, align 8
  store %"class.llvm::Type"** %326, %"class.llvm::Type"*** %6, align 8
  store %"class.llvm::Type"** %328, %"class.llvm::Type"*** %7, align 8
  %329 = load %"class.std::__1::allocator.82"*, %"class.std::__1::allocator.82"** %5, align 8
  %330 = load %"class.llvm::Type"**, %"class.llvm::Type"*** %6, align 8
  %331 = bitcast %"class.llvm::Type"** %330 to i8*
  %332 = load %"class.llvm::Type"**, %"class.llvm::Type"*** %7, align 8
  store %"class.llvm::Type"** %332, %"class.llvm::Type"*** %4, align 8
  %333 = load %"class.llvm::Type"**, %"class.llvm::Type"*** %4, align 8
  %334 = load %"class.llvm::Type"*, %"class.llvm::Type"** %333, align 8
  store %"class.llvm::Type"* %334, %"class.llvm::Type"** %330, align 8
  call void @_ZNSt3__16vectorIPN4llvm4TypeENS_9allocatorIS3_EEE24__RAII_IncreaseAnnotator6__doneEv(%"struct.std::__1::vector<llvm::Type *, std::__1::allocator<llvm::Type *> >::__RAII_IncreaseAnnotator"* %29)
  %335 = bitcast %"class.std::__1::vector.78"* %292 to %"class.std::__1::__vector_base.79"*
  %336 = getelementptr inbounds %"class.std::__1::__vector_base.79", %"class.std::__1::__vector_base.79"* %335, i32 0, i32 1
  %337 = load %"class.llvm::Type"**, %"class.llvm::Type"*** %336, align 8
  %338 = getelementptr inbounds %"class.llvm::Type"*, %"class.llvm::Type"** %337, i32 1
  store %"class.llvm::Type"** %338, %"class.llvm::Type"*** %336, align 8
  br label %343

; <label>:339:                                    ; preds = %291
  %340 = load %"class.llvm::Type"**, %"class.llvm::Type"*** %28, align 8
  store %"class.llvm::Type"** %340, %"class.llvm::Type"*** %20, align 8
  %341 = load %"class.llvm::Type"**, %"class.llvm::Type"*** %20, align 8
  invoke void @_ZNSt3__16vectorIPN4llvm4TypeENS_9allocatorIS3_EEE21__push_back_slow_pathIS3_EEvOT_(%"class.std::__1::vector.78"* %292, %"class.llvm::Type"** dereferenceable(8) %341)
          to label %342 unwind label %350

; <label>:342:                                    ; preds = %339
  br label %343

; <label>:343:                                    ; preds = %306, %342
  br label %344

; <label>:344:                                    ; preds = %343
  br label %345

; <label>:345:                                    ; preds = %344
  store %"class.std::__1::__wrap_iter"* %99, %"class.std::__1::__wrap_iter"** %2, align 8
  %346 = load %"class.std::__1::__wrap_iter"*, %"class.std::__1::__wrap_iter"** %2, align 8
  %347 = getelementptr inbounds %"class.std::__1::__wrap_iter", %"class.std::__1::__wrap_iter"* %346, i32 0, i32 0
  %348 = load %struct.TypeSpecifier*, %struct.TypeSpecifier** %347, align 8
  %349 = getelementptr inbounds %struct.TypeSpecifier, %struct.TypeSpecifier* %348, i32 1
  store %struct.TypeSpecifier* %349, %struct.TypeSpecifier** %347, align 8
  br label %272

; <label>:350:                                    ; preds = %339, %305, %368, %361, %360, %354, %285, %219
  %351 = landingpad { i8*, i32 }
          cleanup
  %352 = extractvalue { i8*, i32 } %351, 0
  store i8* %352, i8** %96, align 8
  %353 = extractvalue { i8*, i32 } %351, 1
  store i32 %353, i32* %97, align 4
  call void @_ZNSt3__16vectorIPN4llvm4TypeENS_9allocatorIS3_EEED1Ev(%"class.std::__1::vector.78"* %93) #2
  br label %468

; <label>:354:                                    ; preds = %272
  %355 = load %struct.TypeSpecifier*, %struct.TypeSpecifier** %92, align 8
  %356 = getelementptr inbounds %struct.TypeSpecifier, %struct.TypeSpecifier* %355, i32 0, i32 25
  %357 = bitcast %union.anon.73* %356 to %struct.TypeSpecifier**
  %358 = load %struct.TypeSpecifier*, %struct.TypeSpecifier** %357, align 8
  %359 = invoke %"class.llvm::Type"* @_ZN6CGType7getTypeER13TypeSpecifier(%struct.TypeSpecifier* dereferenceable(216) %358)
          to label %360 unwind label %350

; <label>:360:                                    ; preds = %354
  invoke void @_ZN4llvm8ArrayRefIPNS_4TypeEEC1INSt3__19allocatorIS2_EEEERKNS5_6vectorIS2_T_EE(%"class.llvm::ArrayRef"* %103, %"class.std::__1::vector.78"* dereferenceable(24) %93)
          to label %361 unwind label %350

; <label>:361:                                    ; preds = %360
  %362 = bitcast %"class.llvm::ArrayRef"* %103 to { %"class.llvm::Type"**, i64 }*
  %363 = getelementptr inbounds { %"class.llvm::Type"**, i64 }, { %"class.llvm::Type"**, i64 }* %362, i32 0, i32 0
  %364 = load %"class.llvm::Type"**, %"class.llvm::Type"*** %363, align 8
  %365 = getelementptr inbounds { %"class.llvm::Type"**, i64 }, { %"class.llvm::Type"**, i64 }* %362, i32 0, i32 1
  %366 = load i64, i64* %365, align 8
  %367 = invoke %"class.llvm::FunctionType"* @_ZN4llvm12FunctionType3getEPNS_4TypeENS_8ArrayRefIS2_EEb(%"class.llvm::Type"* %359, %"class.llvm::Type"** %364, i64 %366, i1 zeroext false)
          to label %368 unwind label %350

; <label>:368:                                    ; preds = %361
  %369 = bitcast %"class.llvm::FunctionType"* %367 to %"class.llvm::Type"*
  %370 = invoke %"class.llvm::PointerType"* @_ZNK4llvm4Type12getPointerToEj(%"class.llvm::Type"* %369, i32 0)
          to label %371 unwind label %350

; <label>:371:                                    ; preds = %368
  %372 = bitcast %"class.llvm::PointerType"* %370 to %"class.llvm::Type"*
  store %"class.llvm::Type"* %372, %"class.llvm::Type"** %91, align 8
  call void @_ZNSt3__16vectorIPN4llvm4TypeENS_9allocatorIS3_EEED1Ev(%"class.std::__1::vector.78"* %93) #2
  br label %457

; <label>:373:                                    ; preds = %139
  %374 = load %struct.TypeSpecifier*, %struct.TypeSpecifier** %92, align 8
  %375 = getelementptr inbounds %struct.TypeSpecifier, %struct.TypeSpecifier* %374, i32 0, i32 0
  %376 = load i32, i32* %375, align 8
  switch i32 %376, label %417 [
    i32 0, label %377
    i32 1, label %394
    i32 2, label %397
    i32 3, label %399
    i32 5, label %401
    i32 6, label %404
    i32 9, label %407
    i32 7, label %409
    i32 12, label %409
  ]

; <label>:377:                                    ; preds = %373
  %378 = load %struct.TypeSpecifier*, %struct.TypeSpecifier** %92, align 8
  %379 = getelementptr inbounds %struct.TypeSpecifier, %struct.TypeSpecifier* %378, i32 0, i32 8
  %380 = load i32, i32* %379, align 8
  switch i32 %380, label %388 [
    i32 8, label %381
    i32 16, label %384
    i32 32, label %387
    i32 64, label %391
  ]

; <label>:381:                                    ; preds = %377
  %382 = call %"class.llvm::IntegerType"* @_ZN4llvm4Type9getInt8TyERNS_11LLVMContextE(%"class.llvm::LLVMContext"* dereferenceable(8) @_ZN14CodeGenVisitor7ContextE)
  %383 = bitcast %"class.llvm::IntegerType"* %382 to %"class.llvm::Type"*
  store %"class.llvm::Type"* %383, %"class.llvm::Type"** %91, align 8
  br label %457

; <label>:384:                                    ; preds = %377
  %385 = call %"class.llvm::IntegerType"* @_ZN4llvm4Type10getInt16TyERNS_11LLVMContextE(%"class.llvm::LLVMContext"* dereferenceable(8) @_ZN14CodeGenVisitor7ContextE)
  %386 = bitcast %"class.llvm::IntegerType"* %385 to %"class.llvm::Type"*
  store %"class.llvm::Type"* %386, %"class.llvm::Type"** %91, align 8
  br label %457

; <label>:387:                                    ; preds = %377
  br label %388

; <label>:388:                                    ; preds = %377, %387
  %389 = call %"class.llvm::IntegerType"* @_ZN4llvm4Type10getInt32TyERNS_11LLVMContextE(%"class.llvm::LLVMContext"* dereferenceable(8) @_ZN14CodeGenVisitor7ContextE)
  %390 = bitcast %"class.llvm::IntegerType"* %389 to %"class.llvm::Type"*
  store %"class.llvm::Type"* %390, %"class.llvm::Type"** %91, align 8
  br label %457

; <label>:391:                                    ; preds = %377
  %392 = call %"class.llvm::IntegerType"* @_ZN4llvm4Type10getInt64TyERNS_11LLVMContextE(%"class.llvm::LLVMContext"* dereferenceable(8) @_ZN14CodeGenVisitor7ContextE)
  %393 = bitcast %"class.llvm::IntegerType"* %392 to %"class.llvm::Type"*
  store %"class.llvm::Type"* %393, %"class.llvm::Type"** %91, align 8
  br label %457

; <label>:394:                                    ; preds = %373
  %395 = call %"class.llvm::IntegerType"* @_ZN4llvm4Type10getInt64TyERNS_11LLVMContextE(%"class.llvm::LLVMContext"* dereferenceable(8) @_ZN14CodeGenVisitor7ContextE)
  %396 = bitcast %"class.llvm::IntegerType"* %395 to %"class.llvm::Type"*
  store %"class.llvm::Type"* %396, %"class.llvm::Type"** %91, align 8
  br label %457

; <label>:397:                                    ; preds = %373
  %398 = call %"class.llvm::Type"* @_ZN4llvm4Type10getFloatTyERNS_11LLVMContextE(%"class.llvm::LLVMContext"* dereferenceable(8) @_ZN14CodeGenVisitor7ContextE)
  store %"class.llvm::Type"* %398, %"class.llvm::Type"** %91, align 8
  br label %457

; <label>:399:                                    ; preds = %373
  %400 = call %"class.llvm::Type"* @_ZN4llvm4Type11getDoubleTyERNS_11LLVMContextE(%"class.llvm::LLVMContext"* dereferenceable(8) @_ZN14CodeGenVisitor7ContextE)
  store %"class.llvm::Type"* %400, %"class.llvm::Type"** %91, align 8
  br label %457

; <label>:401:                                    ; preds = %373
  %402 = call %"class.llvm::IntegerType"* @_ZN4llvm4Type9getInt1TyERNS_11LLVMContextE(%"class.llvm::LLVMContext"* dereferenceable(8) @_ZN14CodeGenVisitor7ContextE)
  %403 = bitcast %"class.llvm::IntegerType"* %402 to %"class.llvm::Type"*
  store %"class.llvm::Type"* %403, %"class.llvm::Type"** %91, align 8
  br label %457

; <label>:404:                                    ; preds = %373
  %405 = call %"class.llvm::IntegerType"* @_ZN4llvm4Type9getInt8TyERNS_11LLVMContextE(%"class.llvm::LLVMContext"* dereferenceable(8) @_ZN14CodeGenVisitor7ContextE)
  %406 = bitcast %"class.llvm::IntegerType"* %405 to %"class.llvm::Type"*
  store %"class.llvm::Type"* %406, %"class.llvm::Type"** %91, align 8
  br label %457

; <label>:407:                                    ; preds = %373
  %408 = call %"class.llvm::Type"* @_ZN4llvm4Type9getVoidTyERNS_11LLVMContextE(%"class.llvm::LLVMContext"* dereferenceable(8) @_ZN14CodeGenVisitor7ContextE)
  store %"class.llvm::Type"* %408, %"class.llvm::Type"** %91, align 8
  br label %457

; <label>:409:                                    ; preds = %373, %373
  %410 = load %struct.TypeSpecifier*, %struct.TypeSpecifier** %92, align 8
  %411 = getelementptr inbounds %struct.TypeSpecifier, %struct.TypeSpecifier* %410, i32 0, i32 1
  %412 = call dereferenceable(8) %"class.llvm::StructType"** @_ZNSt3__113unordered_mapINS_12basic_stringIcNS_11char_traitsIcEENS_9allocatorIcEEEEPN4llvm10StructTypeENS_4hashIS6_EENS_8equal_toIS6_EENS4_INS_4pairIKS6_S9_EEEEEixERSF_(%"class.std::__1::unordered_map"* @_ZN6CGType14StructureTypesE, %"class.std::__1::basic_string"* dereferenceable(24) %411)
  %413 = load %"class.llvm::StructType"*, %"class.llvm::StructType"** %412, align 8
  %414 = bitcast %"class.llvm::StructType"* %413 to %"class.llvm::Type"*
  %415 = call %"class.llvm::PointerType"* @_ZNK4llvm4Type12getPointerToEj(%"class.llvm::Type"* %414, i32 0)
  %416 = bitcast %"class.llvm::PointerType"* %415 to %"class.llvm::Type"*
  store %"class.llvm::Type"* %416, %"class.llvm::Type"** %91, align 8
  br label %457

; <label>:417:                                    ; preds = %373
  %418 = load %struct.TypeSpecifier*, %struct.TypeSpecifier** %92, align 8
  call void @_ZNK13TypeSpecifier9to_stringEv(%"class.std::__1::basic_string"* sret %105, %struct.TypeSpecifier* %418)
  store i8* getelementptr inbounds ([18 x i8], [18 x i8]* @.str, i32 0, i32 0), i8** %89, align 8, !noalias !2
  store %"class.std::__1::basic_string"* %105, %"class.std::__1::basic_string"** %90, align 8, !noalias !2
  %419 = load %"class.std::__1::basic_string"*, %"class.std::__1::basic_string"** %90, align 8, !noalias !2
  %420 = load i8*, i8** %89, align 8, !noalias !2
  %421 = invoke dereferenceable(24) %"class.std::__1::basic_string"* @_ZNSt3__112basic_stringIcNS_11char_traitsIcEENS_9allocatorIcEEE6insertEmPKc(%"class.std::__1::basic_string"* %419, i64 0, i8* %420)
          to label %422 unwind label %459

; <label>:422:                                    ; preds = %417
  store %"class.std::__1::basic_string"* %421, %"class.std::__1::basic_string"** %88, align 8, !noalias !2
  %423 = load %"class.std::__1::basic_string"*, %"class.std::__1::basic_string"** %88, align 8, !noalias !2
  store %"class.std::__1::basic_string"* %104, %"class.std::__1::basic_string"** %86, align 8, !noalias !2
  store %"class.std::__1::basic_string"* %423, %"class.std::__1::basic_string"** %87, align 8, !noalias !2
  %424 = load %"class.std::__1::basic_string"*, %"class.std::__1::basic_string"** %86, align 8, !noalias !2
  %425 = load %"class.std::__1::basic_string"*, %"class.std::__1::basic_string"** %87, align 8, !noalias !2
  store %"class.std::__1::basic_string"* %424, %"class.std::__1::basic_string"** %84, align 8, !noalias !2
  store %"class.std::__1::basic_string"* %425, %"class.std::__1::basic_string"** %85, align 8, !noalias !2
  %426 = load %"class.std::__1::basic_string"*, %"class.std::__1::basic_string"** %84, align 8, !noalias !2
  %427 = bitcast %"class.std::__1::basic_string"* %426 to %"class.std::__1::__basic_string_common"*
  %428 = getelementptr inbounds %"class.std::__1::basic_string", %"class.std::__1::basic_string"* %426, i32 0, i32 0
  %429 = load %"class.std::__1::basic_string"*, %"class.std::__1::basic_string"** %85, align 8, !noalias !2
  %430 = getelementptr inbounds %"class.std::__1::basic_string", %"class.std::__1::basic_string"* %429, i32 0, i32 0
  store %"class.std::__1::__compressed_pair.36"* %430, %"class.std::__1::__compressed_pair.36"** %83, align 8, !noalias !2
  %431 = load %"class.std::__1::__compressed_pair.36"*, %"class.std::__1::__compressed_pair.36"** %83, align 8, !noalias !2
  %432 = bitcast %"class.std::__1::__compressed_pair.36"* %428 to i8*
  %433 = bitcast %"class.std::__1::__compressed_pair.36"* %431 to i8*
  call void @llvm.memcpy.p0i8.p0i8.i64(i8* %432, i8* %433, i64 24, i32 8, i1 false) #2
  %434 = load %"class.std::__1::basic_string"*, %"class.std::__1::basic_string"** %85, align 8, !noalias !2
  store %"class.std::__1::basic_string"* %434, %"class.std::__1::basic_string"** %80, align 8, !noalias !2
  %435 = load %"class.std::__1::basic_string"*, %"class.std::__1::basic_string"** %80, align 8, !noalias !2
  %436 = getelementptr inbounds %"class.std::__1::basic_string", %"class.std::__1::basic_string"* %435, i32 0, i32 0
  store %"class.std::__1::__compressed_pair.36"* %436, %"class.std::__1::__compressed_pair.36"** %79, align 8, !noalias !2
  %437 = load %"class.std::__1::__compressed_pair.36"*, %"class.std::__1::__compressed_pair.36"** %79, align 8, !noalias !2
  %438 = bitcast %"class.std::__1::__compressed_pair.36"* %437 to %"class.std::__1::__libcpp_compressed_pair_imp.37"*
  store %"class.std::__1::__libcpp_compressed_pair_imp.37"* %438, %"class.std::__1::__libcpp_compressed_pair_imp.37"** %78, align 8, !noalias !2
  %439 = load %"class.std::__1::__libcpp_compressed_pair_imp.37"*, %"class.std::__1::__libcpp_compressed_pair_imp.37"** %78, align 8, !noalias !2
  %440 = getelementptr inbounds %"class.std::__1::__libcpp_compressed_pair_imp.37", %"class.std::__1::__libcpp_compressed_pair_imp.37"* %439, i32 0, i32 0
  %441 = getelementptr inbounds %"struct.std::__1::basic_string<char, std::__1::char_traits<char>, std::__1::allocator<char> >::__rep", %"struct.std::__1::basic_string<char, std::__1::char_traits<char>, std::__1::allocator<char> >::__rep"* %440, i32 0, i32 0
  %442 = bitcast %union.anon* %441 to %"struct.std::__1::basic_string<char, std::__1::char_traits<char>, std::__1::allocator<char> >::__raw"*
  %443 = getelementptr inbounds %"struct.std::__1::basic_string<char, std::__1::char_traits<char>, std::__1::allocator<char> >::__raw", %"struct.std::__1::basic_string<char, std::__1::char_traits<char>, std::__1::allocator<char> >::__raw"* %442, i32 0, i32 0
  store [3 x i64]* %443, [3 x i64]** %81, align 8, !noalias !2
  store i32 0, i32* %82, align 4, !noalias !2
  br label %444

; <label>:444:                                    ; preds = %447, %422
  %445 = load i32, i32* %82, align 4, !noalias !2
  %446 = icmp ult i32 %445, 3
  br i1 %446, label %447, label %454

; <label>:447:                                    ; preds = %444
  %448 = load i32, i32* %82, align 4, !noalias !2
  %449 = zext i32 %448 to i64
  %450 = load [3 x i64]*, [3 x i64]** %81, align 8, !noalias !2
  %451 = getelementptr inbounds [3 x i64], [3 x i64]* %450, i64 0, i64 %449
  store i64 0, i64* %451, align 8
  %452 = load i32, i32* %82, align 4, !noalias !2
  %453 = add i32 %452, 1
  store i32 %453, i32* %82, align 4, !noalias !2
  br label %444

; <label>:454:                                    ; preds = %444
  br label %455

; <label>:455:                                    ; preds = %454
  invoke void @_ZN12RuntimeError5raiseE13RuntimeErrorsNSt3__112basic_stringIcNS1_11char_traitsIcEENS1_9allocatorIcEEEEP7AstNode(i32 7, %"class.std::__1::basic_string"* %104, %class.AstNode* null)
          to label %456 unwind label %463

; <label>:456:                                    ; preds = %455
  call void @_ZNSt3__112basic_stringIcNS_11char_traitsIcEENS_9allocatorIcEEED1Ev(%"class.std::__1::basic_string"* %104) #2
  call void @_ZNSt3__112basic_stringIcNS_11char_traitsIcEENS_9allocatorIcEEED1Ev(%"class.std::__1::basic_string"* %105) #2
  br label %457

; <label>:457:                                    ; preds = %110, %123, %136, %371, %381, %384, %388, %391, %394, %397, %399, %401, %404, %407, %409, %456
  %458 = load %"class.llvm::Type"*, %"class.llvm::Type"** %91, align 8
  ret %"class.llvm::Type"* %458

; <label>:459:                                    ; preds = %417
  %460 = landingpad { i8*, i32 }
          cleanup
  %461 = extractvalue { i8*, i32 } %460, 0
  store i8* %461, i8** %96, align 8
  %462 = extractvalue { i8*, i32 } %460, 1
  store i32 %462, i32* %97, align 4
  br label %467

; <label>:463:                                    ; preds = %455
  %464 = landingpad { i8*, i32 }
          cleanup
  %465 = extractvalue { i8*, i32 } %464, 0
  store i8* %465, i8** %96, align 8
  %466 = extractvalue { i8*, i32 } %464, 1
  store i32 %466, i32* %97, align 4
  call void @_ZNSt3__112basic_stringIcNS_11char_traitsIcEENS_9allocatorIcEEED1Ev(%"class.std::__1::basic_string"* %104) #2
  br label %467

; <label>:467:                                    ; preds = %463, %459
  call void @_ZNSt3__112basic_stringIcNS_11char_traitsIcEENS_9allocatorIcEEED1Ev(%"class.std::__1::basic_string"* %105) #2
  br label %468

; <label>:468:                                    ; preds = %467, %350
  %469 = load i8*, i8** %96, align 8
  %470 = load i32, i32* %97, align 4
  %471 = insertvalue { i8*, i32 } undef, i8* %469, 0
  %472 = insertvalue { i8*, i32 } %471, i32 %470, 1
  resume { i8*, i32 } %472
}

declare %"class.llvm::PointerType"* @_ZNK4llvm4Type12getPointerToEj(%"class.llvm::Type"*, i32) #3

; Function Attrs: ssp uwtable
define linkonce_odr dereferenceable(8) %"class.llvm::StructType"** @_ZNSt3__113unordered_mapIjPN4llvm10StructTypeENS_4hashIjEENS_8equal_toIjEENS_9allocatorINS_4pairIKjS3_EEEEEixERSA_(%"class.std::__1::unordered_map.10"*, i32* dereferenceable(4)) #0 align 2 personality i32 (...)* @__gxx_personality_v0 {
  %3 = alloca %"class.std::__1::tuple.131"*, align 8
  %4 = alloca %"class.std::__1::tuple.131"*, align 8
  %5 = alloca %"class.std::__1::tuple.131", align 1
  %6 = alloca i64, align 8
  %7 = alloca i64, align 8
  %8 = alloca %"class.std::__1::__libcpp_compressed_pair_imp.31"*, align 8
  %9 = alloca %"class.std::__1::__compressed_pair.30"*, align 8
  %10 = alloca %"class.std::__1::__hash_table.11"*, align 8
  %11 = alloca %"struct.std::__1::__hash_node_base.15"*, align 8
  %12 = alloca %"struct.std::__1::__hash_node_base.15"*, align 8
  %13 = alloca %"struct.std::__1::__hash_node_base.15"*, align 8
  %14 = alloca %"struct.std::__1::equal_to.33"*, align 8
  %15 = alloca i32*, align 8
  %16 = alloca i32*, align 8
  %17 = alloca %"class.std::__1::__unordered_map_equal.32"*, align 8
  %18 = alloca %"union.std::__1::__hash_value_type.124"*, align 8
  %19 = alloca i32*, align 8
  %20 = alloca %"struct.std::__1::piecewise_construct_t"*, align 8
  %21 = alloca %"class.std::__1::tuple.141"*, align 8
  %22 = alloca %"class.std::__1::tuple.131"*, align 8
  %23 = alloca %"struct.std::__1::__hash_node_base.15"*, align 8
  %24 = alloca %"class.std::__1::__libcpp_compressed_pair_imp.26"*, align 8
  %25 = alloca %"class.std::__1::__compressed_pair.25"*, align 8
  %26 = alloca %"class.std::__1::__hash_table.11"*, align 8
  %27 = alloca %"class.std::__1::__libcpp_compressed_pair_imp.31"*, align 8
  %28 = alloca %"class.std::__1::__compressed_pair.30"*, align 8
  %29 = alloca %"class.std::__1::__hash_table.11"*, align 8
  %30 = alloca i64, align 8
  %31 = alloca %"class.std::__1::__libcpp_compressed_pair_imp.26"*, align 8
  %32 = alloca %"class.std::__1::__compressed_pair.25"*, align 8
  %33 = alloca %"class.std::__1::__hash_table.11"*, align 8
  %34 = alloca %"class.std::__1::__libcpp_compressed_pair_imp.31"*, align 8
  %35 = alloca %"class.std::__1::__compressed_pair.30"*, align 8
  %36 = alloca %"class.std::__1::__hash_table.11"*, align 8
  %37 = alloca %"class.std::__1::__libcpp_compressed_pair_imp.14"*, align 8
  %38 = alloca %"class.std::__1::__compressed_pair.13"*, align 8
  %39 = alloca %"class.std::__1::unique_ptr.12"*, align 8
  %40 = alloca i64, align 8
  %41 = alloca float, align 4
  %42 = alloca %"struct.std::__1::__less"*, align 8
  %43 = alloca i64*, align 8
  %44 = alloca i64*, align 8
  %45 = alloca %"struct.std::__1::__less", align 1
  %46 = alloca i64*, align 8
  %47 = alloca i64*, align 8
  %48 = alloca i64*, align 8
  %49 = alloca i64*, align 8
  %50 = alloca %"struct.std::__1::__less", align 1
  %51 = alloca i64, align 8
  %52 = alloca i64, align 8
  %53 = alloca %"class.std::__1::__libcpp_compressed_pair_imp.18"*, align 8
  %54 = alloca %"class.std::__1::__compressed_pair.17"*, align 8
  %55 = alloca %"class.std::__1::__bucket_list_deallocator.16"*, align 8
  %56 = alloca %"class.std::__1::__libcpp_compressed_pair_imp.14"*, align 8
  %57 = alloca %"class.std::__1::__compressed_pair.13"*, align 8
  %58 = alloca %"class.std::__1::unique_ptr.12"*, align 8
  %59 = alloca %"class.std::__1::__hash_table.11"*, align 8
  %60 = alloca i64, align 8
  %61 = alloca i64, align 8
  %62 = alloca %"class.std::__1::__libcpp_compressed_pair_imp.18"*, align 8
  %63 = alloca %"class.std::__1::__compressed_pair.17"*, align 8
  %64 = alloca %"class.std::__1::__bucket_list_deallocator.16"*, align 8
  %65 = alloca %"class.std::__1::__libcpp_compressed_pair_imp.14"*, align 8
  %66 = alloca %"class.std::__1::__compressed_pair.13"*, align 8
  %67 = alloca %"class.std::__1::unique_ptr.12"*, align 8
  %68 = alloca %"class.std::__1::__hash_table.11"*, align 8
  %69 = alloca %"class.std::__1::__libcpp_compressed_pair_imp.146"*, align 8
  %70 = alloca %"class.std::__1::__compressed_pair.145"*, align 8
  %71 = alloca %"class.std::__1::__libcpp_compressed_pair_imp.146"*, align 8
  %72 = alloca %"class.std::__1::__compressed_pair.145"*, align 8
  %73 = alloca i8*, align 8
  %74 = alloca %"class.std::__1::allocator.23"*, align 8
  %75 = alloca %"struct.std::__1::__hash_node.123"*, align 8
  %76 = alloca i64, align 8
  %77 = alloca %"class.std::__1::allocator.23"*, align 8
  %78 = alloca %"struct.std::__1::__hash_node.123"*, align 8
  %79 = alloca i64, align 8
  %80 = alloca %"class.std::__1::allocator.23"*, align 8
  %81 = alloca %"struct.std::__1::pair.125"*, align 8
  %82 = alloca %"class.std::__1::allocator.23"*, align 8
  %83 = alloca %"struct.std::__1::pair.125"*, align 8
  %84 = alloca %"struct.std::__1::integral_constant", align 1
  %85 = alloca %"struct.std::__1::__has_destroy.127", align 1
  %86 = alloca %"struct.std::__1::pair.125"*, align 8
  %87 = alloca %"union.std::__1::__hash_value_type.124"*, align 8
  %88 = alloca %"class.std::__1::__hash_node_destructor.147"*, align 8
  %89 = alloca %"struct.std::__1::__hash_node.123"*, align 8
  %90 = alloca %"class.std::__1::__libcpp_compressed_pair_imp.146"*, align 8
  %91 = alloca %"class.std::__1::__compressed_pair.145"*, align 8
  %92 = alloca %"class.std::__1::unique_ptr.144"*, align 8
  %93 = alloca %"struct.std::__1::__hash_node.123"*, align 8
  %94 = alloca %"struct.std::__1::__hash_node.123"*, align 8
  %95 = alloca %"class.std::__1::unique_ptr.144"*, align 8
  %96 = alloca %"class.std::__1::unique_ptr.144"*, align 8
  %97 = alloca %"class.std::__1::__libcpp_compressed_pair_imp.14"*, align 8
  %98 = alloca %"class.std::__1::__compressed_pair.13"*, align 8
  %99 = alloca %"class.std::__1::unique_ptr.12"*, align 8
  %100 = alloca i64, align 8
  %101 = alloca %"class.std::__1::__libcpp_compressed_pair_imp.22"*, align 8
  %102 = alloca %"class.std::__1::__compressed_pair.21"*, align 8
  %103 = alloca %"struct.std::__1::__hash_node_base.15"*, align 8
  %104 = alloca %"struct.std::__1::__hash_node_base.15"*, align 8
  %105 = alloca %"struct.std::__1::__hash_node_base.15"*, align 8
  %106 = alloca %"class.std::__1::__libcpp_compressed_pair_imp.146"*, align 8
  %107 = alloca %"class.std::__1::__compressed_pair.145"*, align 8
  %108 = alloca %"class.std::__1::unique_ptr.144"*, align 8
  %109 = alloca %"class.std::__1::__libcpp_compressed_pair_imp.146"*, align 8
  %110 = alloca %"class.std::__1::__compressed_pair.145"*, align 8
  %111 = alloca %"class.std::__1::unique_ptr.144"*, align 8
  %112 = alloca %"struct.std::__1::__hash_node_base.15"*, align 8
  %113 = alloca %"struct.std::__1::__hash_node_base.15"*, align 8
  %114 = alloca %"struct.std::__1::__hash_node_base.15"*, align 8
  %115 = alloca %"class.std::__1::__libcpp_compressed_pair_imp.14"*, align 8
  %116 = alloca %"class.std::__1::__compressed_pair.13"*, align 8
  %117 = alloca %"class.std::__1::unique_ptr.12"*, align 8
  %118 = alloca i64, align 8
  %119 = alloca %"class.std::__1::__libcpp_compressed_pair_imp.146"*, align 8
  %120 = alloca %"class.std::__1::__compressed_pair.145"*, align 8
  %121 = alloca %"class.std::__1::unique_ptr.144"*, align 8
  %122 = alloca %"class.std::__1::__libcpp_compressed_pair_imp.146"*, align 8
  %123 = alloca %"class.std::__1::__compressed_pair.145"*, align 8
  %124 = alloca %"class.std::__1::unique_ptr.144"*, align 8
  %125 = alloca %"struct.std::__1::__hash_node_base.15"*, align 8
  %126 = alloca %"struct.std::__1::__hash_node_base.15"*, align 8
  %127 = alloca %"struct.std::__1::__hash_node_base.15"*, align 8
  %128 = alloca %"class.std::__1::__libcpp_compressed_pair_imp.146"*, align 8
  %129 = alloca %"class.std::__1::__compressed_pair.145"*, align 8
  %130 = alloca %"class.std::__1::unique_ptr.144"*, align 8
  %131 = alloca %"struct.std::__1::__hash_node_base.15"*, align 8
  %132 = alloca i64, align 8
  %133 = alloca i64, align 8
  %134 = alloca %"class.std::__1::__libcpp_compressed_pair_imp.14"*, align 8
  %135 = alloca %"class.std::__1::__compressed_pair.13"*, align 8
  %136 = alloca %"class.std::__1::unique_ptr.12"*, align 8
  %137 = alloca i64, align 8
  %138 = alloca %"class.std::__1::__libcpp_compressed_pair_imp.146"*, align 8
  %139 = alloca %"class.std::__1::__compressed_pair.145"*, align 8
  %140 = alloca %"class.std::__1::unique_ptr.144"*, align 8
  %141 = alloca %"class.std::__1::__libcpp_compressed_pair_imp.146"*, align 8
  %142 = alloca %"class.std::__1::__compressed_pair.145"*, align 8
  %143 = alloca %"class.std::__1::unique_ptr.144"*, align 8
  %144 = alloca %"class.std::__1::__libcpp_compressed_pair_imp.146"*, align 8
  %145 = alloca %"class.std::__1::__compressed_pair.145"*, align 8
  %146 = alloca %"class.std::__1::__libcpp_compressed_pair_imp.146"*, align 8
  %147 = alloca %"class.std::__1::__compressed_pair.145"*, align 8
  %148 = alloca %"class.std::__1::unique_ptr.144"*, align 8
  %149 = alloca %"struct.std::__1::__hash_node.123"*, align 8
  %150 = alloca %"class.std::__1::__libcpp_compressed_pair_imp.26"*, align 8
  %151 = alloca %"class.std::__1::__compressed_pair.25"*, align 8
  %152 = alloca %"class.std::__1::__hash_table.11"*, align 8
  %153 = alloca %"struct.std::__1::hash.28"*, align 8
  %154 = alloca i32, align 4
  %155 = alloca %"class.std::__1::__unordered_map_hasher.27"*, align 8
  %156 = alloca i32*, align 8
  %157 = alloca %"class.std::__1::__libcpp_compressed_pair_imp.146"*, align 8
  %158 = alloca %"class.std::__1::__compressed_pair.145"*, align 8
  %159 = alloca %"class.std::__1::__libcpp_compressed_pair_imp.146"*, align 8
  %160 = alloca %"class.std::__1::__compressed_pair.145"*, align 8
  %161 = alloca i8*, align 8
  %162 = alloca %"class.std::__1::allocator.23"*, align 8
  %163 = alloca %"struct.std::__1::__hash_node.123"*, align 8
  %164 = alloca i64, align 8
  %165 = alloca %"class.std::__1::allocator.23"*, align 8
  %166 = alloca %"struct.std::__1::__hash_node.123"*, align 8
  %167 = alloca i64, align 8
  %168 = alloca %"class.std::__1::allocator.23"*, align 8
  %169 = alloca %"struct.std::__1::pair.125"*, align 8
  %170 = alloca %"class.std::__1::allocator.23"*, align 8
  %171 = alloca %"struct.std::__1::pair.125"*, align 8
  %172 = alloca %"struct.std::__1::integral_constant", align 1
  %173 = alloca %"struct.std::__1::__has_destroy.127", align 1
  %174 = alloca %"struct.std::__1::pair.125"*, align 8
  %175 = alloca %"union.std::__1::__hash_value_type.124"*, align 8
  %176 = alloca %"class.std::__1::__hash_node_destructor.147"*, align 8
  %177 = alloca %"struct.std::__1::__hash_node.123"*, align 8
  %178 = alloca %"class.std::__1::__libcpp_compressed_pair_imp.146"*, align 8
  %179 = alloca %"class.std::__1::__compressed_pair.145"*, align 8
  %180 = alloca %"class.std::__1::unique_ptr.144"*, align 8
  %181 = alloca %"struct.std::__1::__hash_node.123"*, align 8
  %182 = alloca %"struct.std::__1::__hash_node.123"*, align 8
  %183 = alloca %"class.std::__1::unique_ptr.144"*, align 8
  %184 = alloca %"class.std::__1::unique_ptr.144"*, align 8
  %185 = alloca %"class.std::__1::__hash_iterator.139"*, align 8
  %186 = alloca %"struct.std::__1::__hash_node_base.15"*, align 8
  %187 = alloca %"class.std::__1::__hash_iterator.139"*, align 8
  %188 = alloca %"struct.std::__1::__hash_node_base.15"*, align 8
  %189 = alloca i8*, align 8
  %190 = alloca %"class.std::__1::__hash_iterator.139"*, align 8
  %191 = alloca %"struct.std::__1::pair.138"*, align 8
  %192 = alloca %"class.std::__1::__hash_iterator.139"*, align 8
  %193 = alloca i8*, align 8
  %194 = alloca %"struct.std::__1::pair.138"*, align 8
  %195 = alloca %"class.std::__1::__hash_iterator.139"*, align 8
  %196 = alloca i8*, align 8
  %197 = alloca %"class.std::__1::__libcpp_compressed_pair_imp.26"*, align 8
  %198 = alloca %"class.std::__1::__compressed_pair.25"*, align 8
  %199 = alloca %"class.std::__1::__hash_table.11"*, align 8
  %200 = alloca %"struct.std::__1::pair.138", align 8
  %201 = alloca %"class.std::__1::__hash_table.11"*, align 8
  %202 = alloca i32*, align 8
  %203 = alloca %"struct.std::__1::piecewise_construct_t"*, align 8
  %204 = alloca %"class.std::__1::tuple.141"*, align 8
  %205 = alloca %"class.std::__1::tuple.131"*, align 8
  %206 = alloca i64, align 8
  %207 = alloca i64, align 8
  %208 = alloca i8, align 1
  %209 = alloca %"struct.std::__1::__hash_node_base.15"*, align 8
  %210 = alloca i64, align 8
  %211 = alloca %"class.std::__1::unique_ptr.144", align 8
  %212 = alloca i64, align 8
  %213 = alloca i8*
  %214 = alloca i32
  %215 = alloca i64, align 8
  %216 = alloca %"struct.std::__1::__hash_node_base.15"*, align 8
  %217 = alloca %"class.std::__1::__hash_iterator.139", align 8
  %218 = alloca %"union.std::__1::__hash_value_type.124"*, align 8
  %219 = alloca %"union.std::__1::__hash_value_type.124"*, align 8
  %220 = alloca %"struct.std::__1::__hash_node_base.15"*, align 8
  %221 = alloca %"struct.std::__1::__hash_node_base.15"*, align 8
  %222 = alloca %"struct.std::__1::__hash_node_base.15"*, align 8
  %223 = alloca %"class.std::__1::__hash_iterator.139"*, align 8
  %224 = alloca i32*, align 8
  %225 = alloca %"class.std::__1::__tuple_leaf.143"*, align 8
  %226 = alloca i32*, align 8
  %227 = alloca i32*, align 8
  %228 = alloca %"struct.std::__1::__tuple_indices", align 1
  %229 = alloca %"struct.std::__1::__tuple_types.150", align 1
  %230 = alloca %"struct.std::__1::__tuple_indices.136", align 1
  %231 = alloca %"struct.std::__1::__tuple_types.137", align 1
  %232 = alloca %"struct.std::__1::__tuple_impl.142"*, align 8
  %233 = alloca i32*, align 8
  %234 = alloca %"struct.std::__1::__tuple_indices", align 1
  %235 = alloca %"struct.std::__1::__tuple_types.150", align 1
  %236 = alloca %"struct.std::__1::__tuple_indices.136", align 1
  %237 = alloca %"struct.std::__1::__tuple_types.137", align 1
  %238 = alloca %"struct.std::__1::__tuple_impl.142"*, align 8
  %239 = alloca i32*, align 8
  %240 = alloca %"class.std::__1::tuple.141"*, align 8
  %241 = alloca i32*, align 8
  %242 = alloca %"struct.std::__1::__tuple_indices", align 1
  %243 = alloca %"struct.std::__1::__tuple_types.150", align 1
  %244 = alloca %"struct.std::__1::__tuple_indices.136", align 1
  %245 = alloca %"struct.std::__1::__tuple_types.137", align 1
  %246 = alloca %"class.std::__1::tuple.141"*, align 8
  %247 = alloca i32*, align 8
  %248 = alloca i32*, align 8
  %249 = alloca %"class.std::__1::tuple.141", align 8
  %250 = alloca i32*, align 8
  %251 = alloca %"class.std::__1::unordered_map.10"*, align 8
  %252 = alloca i32*, align 8
  %253 = alloca %"class.std::__1::tuple.141", align 8
  %254 = alloca %"class.std::__1::tuple.131", align 1
  %255 = alloca %"class.std::__1::tuple.131", align 1
  %256 = alloca %"struct.std::__1::pair.138", align 8
  store %"class.std::__1::unordered_map.10"* %0, %"class.std::__1::unordered_map.10"** %251, align 8
  store i32* %1, i32** %252, align 8
  %257 = load %"class.std::__1::unordered_map.10"*, %"class.std::__1::unordered_map.10"** %251, align 8
  %258 = getelementptr inbounds %"class.std::__1::unordered_map.10", %"class.std::__1::unordered_map.10"* %257, i32 0, i32 0
  %259 = load i32*, i32** %252, align 8
  %260 = load i32*, i32** %252, align 8
  store i32* %260, i32** %250, align 8
  %261 = load i32*, i32** %250, align 8
  store i32* %261, i32** %248, align 8
  %262 = load i32*, i32** %248, align 8
  store %"class.std::__1::tuple.141"* %249, %"class.std::__1::tuple.141"** %246, align 8
  store i32* %262, i32** %247, align 8
  %263 = load %"class.std::__1::tuple.141"*, %"class.std::__1::tuple.141"** %246, align 8
  %264 = load i32*, i32** %247, align 8
  store %"class.std::__1::tuple.141"* %263, %"class.std::__1::tuple.141"** %240, align 8
  store i32* %264, i32** %241, align 8
  %265 = load %"class.std::__1::tuple.141"*, %"class.std::__1::tuple.141"** %240, align 8
  %266 = getelementptr inbounds %"class.std::__1::tuple.141", %"class.std::__1::tuple.141"* %265, i32 0, i32 0
  %267 = load i32*, i32** %241, align 8
  store %"struct.std::__1::__tuple_impl.142"* %266, %"struct.std::__1::__tuple_impl.142"** %238, align 8
  store i32* %267, i32** %239, align 8
  %268 = load %"struct.std::__1::__tuple_impl.142"*, %"struct.std::__1::__tuple_impl.142"** %238, align 8
  %269 = load i32*, i32** %239, align 8
  store %"struct.std::__1::__tuple_impl.142"* %268, %"struct.std::__1::__tuple_impl.142"** %232, align 8
  store i32* %269, i32** %233, align 8
  %270 = load %"struct.std::__1::__tuple_impl.142"*, %"struct.std::__1::__tuple_impl.142"** %232, align 8
  %271 = bitcast %"struct.std::__1::__tuple_impl.142"* %270 to %"class.std::__1::__tuple_leaf.143"*
  %272 = load i32*, i32** %233, align 8
  store i32* %272, i32** %227, align 8
  %273 = load i32*, i32** %227, align 8
  store %"class.std::__1::__tuple_leaf.143"* %271, %"class.std::__1::__tuple_leaf.143"** %225, align 8
  store i32* %273, i32** %226, align 8
  %274 = load %"class.std::__1::__tuple_leaf.143"*, %"class.std::__1::__tuple_leaf.143"** %225, align 8
  %275 = getelementptr inbounds %"class.std::__1::__tuple_leaf.143", %"class.std::__1::__tuple_leaf.143"* %274, i32 0, i32 0
  %276 = load i32*, i32** %226, align 8
  store i32* %276, i32** %224, align 8
  %277 = load i32*, i32** %224, align 8
  store i32* %277, i32** %275, align 8
  %278 = getelementptr inbounds %"class.std::__1::tuple.141", %"class.std::__1::tuple.141"* %249, i32 0, i32 0
  %279 = getelementptr inbounds %"struct.std::__1::__tuple_impl.142", %"struct.std::__1::__tuple_impl.142"* %278, i32 0, i32 0
  %280 = getelementptr inbounds %"class.std::__1::__tuple_leaf.143", %"class.std::__1::__tuple_leaf.143"* %279, i32 0, i32 0
  %281 = load i32*, i32** %280, align 8
  %282 = getelementptr inbounds %"class.std::__1::tuple.141", %"class.std::__1::tuple.141"* %253, i32 0, i32 0
  %283 = getelementptr inbounds %"struct.std::__1::__tuple_impl.142", %"struct.std::__1::__tuple_impl.142"* %282, i32 0, i32 0
  %284 = getelementptr inbounds %"class.std::__1::__tuple_leaf.143", %"class.std::__1::__tuple_leaf.143"* %283, i32 0, i32 0
  store i32* %281, i32** %284, align 8
  store %"class.std::__1::tuple.131"* %5, %"class.std::__1::tuple.131"** %4, align 8
  %285 = load %"class.std::__1::tuple.131"*, %"class.std::__1::tuple.131"** %4, align 8
  store %"class.std::__1::tuple.131"* %285, %"class.std::__1::tuple.131"** %3, align 8
  %286 = load %"class.std::__1::tuple.131"*, %"class.std::__1::tuple.131"** %3, align 8
  store %"class.std::__1::__hash_table.11"* %258, %"class.std::__1::__hash_table.11"** %201, align 8
  store i32* %259, i32** %202, align 8
  store %"struct.std::__1::piecewise_construct_t"* @_ZNSt3__1L19piecewise_constructE, %"struct.std::__1::piecewise_construct_t"** %203, align 8
  store %"class.std::__1::tuple.141"* %253, %"class.std::__1::tuple.141"** %204, align 8
  store %"class.std::__1::tuple.131"* %254, %"class.std::__1::tuple.131"** %205, align 8
  %287 = load %"class.std::__1::__hash_table.11"*, %"class.std::__1::__hash_table.11"** %201, align 8
  store %"class.std::__1::__hash_table.11"* %287, %"class.std::__1::__hash_table.11"** %199, align 8
  %288 = load %"class.std::__1::__hash_table.11"*, %"class.std::__1::__hash_table.11"** %199, align 8
  %289 = getelementptr inbounds %"class.std::__1::__hash_table.11", %"class.std::__1::__hash_table.11"* %288, i32 0, i32 2
  store %"class.std::__1::__compressed_pair.25"* %289, %"class.std::__1::__compressed_pair.25"** %198, align 8
  %290 = load %"class.std::__1::__compressed_pair.25"*, %"class.std::__1::__compressed_pair.25"** %198, align 8
  %291 = bitcast %"class.std::__1::__compressed_pair.25"* %290 to %"class.std::__1::__libcpp_compressed_pair_imp.26"*
  store %"class.std::__1::__libcpp_compressed_pair_imp.26"* %291, %"class.std::__1::__libcpp_compressed_pair_imp.26"** %197, align 8
  %292 = load %"class.std::__1::__libcpp_compressed_pair_imp.26"*, %"class.std::__1::__libcpp_compressed_pair_imp.26"** %197, align 8
  %293 = bitcast %"class.std::__1::__libcpp_compressed_pair_imp.26"* %292 to %"class.std::__1::__unordered_map_hasher.27"*
  %294 = load i32*, i32** %202, align 8
  store %"class.std::__1::__unordered_map_hasher.27"* %293, %"class.std::__1::__unordered_map_hasher.27"** %155, align 8
  store i32* %294, i32** %156, align 8
  %295 = load %"class.std::__1::__unordered_map_hasher.27"*, %"class.std::__1::__unordered_map_hasher.27"** %155, align 8
  %296 = bitcast %"class.std::__1::__unordered_map_hasher.27"* %295 to %"struct.std::__1::hash.28"*
  %297 = load i32*, i32** %156, align 8
  %298 = load i32, i32* %297, align 4
  store %"struct.std::__1::hash.28"* %296, %"struct.std::__1::hash.28"** %153, align 8
  store i32 %298, i32* %154, align 4
  %299 = load %"struct.std::__1::hash.28"*, %"struct.std::__1::hash.28"** %153, align 8
  %300 = load i32, i32* %154, align 4
  %301 = zext i32 %300 to i64
  store i64 %301, i64* %206, align 8
  store %"class.std::__1::__hash_table.11"* %287, %"class.std::__1::__hash_table.11"** %68, align 8
  %302 = load %"class.std::__1::__hash_table.11"*, %"class.std::__1::__hash_table.11"** %68, align 8
  %303 = getelementptr inbounds %"class.std::__1::__hash_table.11", %"class.std::__1::__hash_table.11"* %302, i32 0, i32 0
  store %"class.std::__1::unique_ptr.12"* %303, %"class.std::__1::unique_ptr.12"** %67, align 8
  %304 = load %"class.std::__1::unique_ptr.12"*, %"class.std::__1::unique_ptr.12"** %67, align 8
  %305 = getelementptr inbounds %"class.std::__1::unique_ptr.12", %"class.std::__1::unique_ptr.12"* %304, i32 0, i32 0
  store %"class.std::__1::__compressed_pair.13"* %305, %"class.std::__1::__compressed_pair.13"** %66, align 8
  %306 = load %"class.std::__1::__compressed_pair.13"*, %"class.std::__1::__compressed_pair.13"** %66, align 8
  %307 = bitcast %"class.std::__1::__compressed_pair.13"* %306 to %"class.std::__1::__libcpp_compressed_pair_imp.14"*
  store %"class.std::__1::__libcpp_compressed_pair_imp.14"* %307, %"class.std::__1::__libcpp_compressed_pair_imp.14"** %65, align 8
  %308 = load %"class.std::__1::__libcpp_compressed_pair_imp.14"*, %"class.std::__1::__libcpp_compressed_pair_imp.14"** %65, align 8
  %309 = getelementptr inbounds %"class.std::__1::__libcpp_compressed_pair_imp.14", %"class.std::__1::__libcpp_compressed_pair_imp.14"* %308, i32 0, i32 1
  store %"class.std::__1::__bucket_list_deallocator.16"* %309, %"class.std::__1::__bucket_list_deallocator.16"** %64, align 8
  %310 = load %"class.std::__1::__bucket_list_deallocator.16"*, %"class.std::__1::__bucket_list_deallocator.16"** %64, align 8
  %311 = getelementptr inbounds %"class.std::__1::__bucket_list_deallocator.16", %"class.std::__1::__bucket_list_deallocator.16"* %310, i32 0, i32 0
  store %"class.std::__1::__compressed_pair.17"* %311, %"class.std::__1::__compressed_pair.17"** %63, align 8
  %312 = load %"class.std::__1::__compressed_pair.17"*, %"class.std::__1::__compressed_pair.17"** %63, align 8
  %313 = bitcast %"class.std::__1::__compressed_pair.17"* %312 to %"class.std::__1::__libcpp_compressed_pair_imp.18"*
  store %"class.std::__1::__libcpp_compressed_pair_imp.18"* %313, %"class.std::__1::__libcpp_compressed_pair_imp.18"** %62, align 8
  %314 = load %"class.std::__1::__libcpp_compressed_pair_imp.18"*, %"class.std::__1::__libcpp_compressed_pair_imp.18"** %62, align 8
  %315 = getelementptr inbounds %"class.std::__1::__libcpp_compressed_pair_imp.18", %"class.std::__1::__libcpp_compressed_pair_imp.18"* %314, i32 0, i32 0
  %316 = load i64, i64* %315, align 8
  store i64 %316, i64* %207, align 8
  store i8 0, i8* %208, align 1
  %317 = load i64, i64* %207, align 8
  %318 = icmp ne i64 %317, 0
  br i1 %318, label %319, label %436

; <label>:319:                                    ; preds = %2
  %320 = load i64, i64* %206, align 8
  %321 = load i64, i64* %207, align 8
  store i64 %320, i64* %51, align 8
  store i64 %321, i64* %52, align 8
  %322 = load i64, i64* %52, align 8
  %323 = load i64, i64* %52, align 8
  %324 = sub i64 %323, 1
  %325 = and i64 %322, %324
  %326 = icmp ne i64 %325, 0
  br i1 %326, label %332, label %327

; <label>:327:                                    ; preds = %319
  %328 = load i64, i64* %51, align 8
  %329 = load i64, i64* %52, align 8
  %330 = sub i64 %329, 1
  %331 = and i64 %328, %330
  br label %344

; <label>:332:                                    ; preds = %319
  %333 = load i64, i64* %51, align 8
  %334 = load i64, i64* %52, align 8
  %335 = icmp ult i64 %333, %334
  br i1 %335, label %336, label %338

; <label>:336:                                    ; preds = %332
  %337 = load i64, i64* %51, align 8
  br label %342

; <label>:338:                                    ; preds = %332
  %339 = load i64, i64* %51, align 8
  %340 = load i64, i64* %52, align 8
  %341 = urem i64 %339, %340
  br label %342

; <label>:342:                                    ; preds = %338, %336
  %343 = phi i64 [ %337, %336 ], [ %341, %338 ]
  br label %344

; <label>:344:                                    ; preds = %342, %327
  %345 = phi i64 [ %331, %327 ], [ %343, %342 ]
  store i64 %345, i64* %210, align 8
  %346 = getelementptr inbounds %"class.std::__1::__hash_table.11", %"class.std::__1::__hash_table.11"* %287, i32 0, i32 0
  %347 = load i64, i64* %210, align 8
  store %"class.std::__1::unique_ptr.12"* %346, %"class.std::__1::unique_ptr.12"** %39, align 8
  store i64 %347, i64* %40, align 8
  %348 = load %"class.std::__1::unique_ptr.12"*, %"class.std::__1::unique_ptr.12"** %39, align 8
  %349 = load i64, i64* %40, align 8
  %350 = getelementptr inbounds %"class.std::__1::unique_ptr.12", %"class.std::__1::unique_ptr.12"* %348, i32 0, i32 0
  store %"class.std::__1::__compressed_pair.13"* %350, %"class.std::__1::__compressed_pair.13"** %38, align 8
  %351 = load %"class.std::__1::__compressed_pair.13"*, %"class.std::__1::__compressed_pair.13"** %38, align 8
  %352 = bitcast %"class.std::__1::__compressed_pair.13"* %351 to %"class.std::__1::__libcpp_compressed_pair_imp.14"*
  store %"class.std::__1::__libcpp_compressed_pair_imp.14"* %352, %"class.std::__1::__libcpp_compressed_pair_imp.14"** %37, align 8
  %353 = load %"class.std::__1::__libcpp_compressed_pair_imp.14"*, %"class.std::__1::__libcpp_compressed_pair_imp.14"** %37, align 8
  %354 = getelementptr inbounds %"class.std::__1::__libcpp_compressed_pair_imp.14", %"class.std::__1::__libcpp_compressed_pair_imp.14"* %353, i32 0, i32 0
  %355 = load %"struct.std::__1::__hash_node_base.15"**, %"struct.std::__1::__hash_node_base.15"*** %354, align 8
  %356 = getelementptr inbounds %"struct.std::__1::__hash_node_base.15"*, %"struct.std::__1::__hash_node_base.15"** %355, i64 %349
  %357 = load %"struct.std::__1::__hash_node_base.15"*, %"struct.std::__1::__hash_node_base.15"** %356, align 8
  store %"struct.std::__1::__hash_node_base.15"* %357, %"struct.std::__1::__hash_node_base.15"** %209, align 8
  %358 = load %"struct.std::__1::__hash_node_base.15"*, %"struct.std::__1::__hash_node_base.15"** %209, align 8
  %359 = icmp ne %"struct.std::__1::__hash_node_base.15"* %358, null
  br i1 %359, label %360, label %435

; <label>:360:                                    ; preds = %344
  %361 = load %"struct.std::__1::__hash_node_base.15"*, %"struct.std::__1::__hash_node_base.15"** %209, align 8
  %362 = getelementptr inbounds %"struct.std::__1::__hash_node_base.15", %"struct.std::__1::__hash_node_base.15"* %361, i32 0, i32 0
  %363 = load %"struct.std::__1::__hash_node_base.15"*, %"struct.std::__1::__hash_node_base.15"** %362, align 8
  store %"struct.std::__1::__hash_node_base.15"* %363, %"struct.std::__1::__hash_node_base.15"** %209, align 8
  br label %364

; <label>:364:                                    ; preds = %430, %360
  %365 = load %"struct.std::__1::__hash_node_base.15"*, %"struct.std::__1::__hash_node_base.15"** %209, align 8
  %366 = icmp ne %"struct.std::__1::__hash_node_base.15"* %365, null
  br i1 %366, label %367, label %400

; <label>:367:                                    ; preds = %364
  %368 = load %"struct.std::__1::__hash_node_base.15"*, %"struct.std::__1::__hash_node_base.15"** %209, align 8
  store %"struct.std::__1::__hash_node_base.15"* %368, %"struct.std::__1::__hash_node_base.15"** %23, align 8
  %369 = load %"struct.std::__1::__hash_node_base.15"*, %"struct.std::__1::__hash_node_base.15"** %23, align 8
  %370 = bitcast %"struct.std::__1::__hash_node_base.15"* %369 to %"struct.std::__1::__hash_node.123"*
  %371 = getelementptr inbounds %"struct.std::__1::__hash_node.123", %"struct.std::__1::__hash_node.123"* %370, i32 0, i32 1
  %372 = load i64, i64* %371, align 8
  %373 = load i64, i64* %207, align 8
  store i64 %372, i64* %6, align 8
  store i64 %373, i64* %7, align 8
  %374 = load i64, i64* %7, align 8
  %375 = load i64, i64* %7, align 8
  %376 = sub i64 %375, 1
  %377 = and i64 %374, %376
  %378 = icmp ne i64 %377, 0
  br i1 %378, label %384, label %379

; <label>:379:                                    ; preds = %367
  %380 = load i64, i64* %6, align 8
  %381 = load i64, i64* %7, align 8
  %382 = sub i64 %381, 1
  %383 = and i64 %380, %382
  br label %396

; <label>:384:                                    ; preds = %367
  %385 = load i64, i64* %6, align 8
  %386 = load i64, i64* %7, align 8
  %387 = icmp ult i64 %385, %386
  br i1 %387, label %388, label %390

; <label>:388:                                    ; preds = %384
  %389 = load i64, i64* %6, align 8
  br label %394

; <label>:390:                                    ; preds = %384
  %391 = load i64, i64* %6, align 8
  %392 = load i64, i64* %7, align 8
  %393 = urem i64 %391, %392
  br label %394

; <label>:394:                                    ; preds = %390, %388
  %395 = phi i64 [ %389, %388 ], [ %393, %390 ]
  br label %396

; <label>:396:                                    ; preds = %394, %379
  %397 = phi i64 [ %383, %379 ], [ %395, %394 ]
  %398 = load i64, i64* %210, align 8
  %399 = icmp eq i64 %397, %398
  br label %400

; <label>:400:                                    ; preds = %396, %364
  %401 = phi i1 [ false, %364 ], [ %399, %396 ]
  br i1 %401, label %402, label %434

; <label>:402:                                    ; preds = %400
  store %"class.std::__1::__hash_table.11"* %287, %"class.std::__1::__hash_table.11"** %10, align 8
  %403 = load %"class.std::__1::__hash_table.11"*, %"class.std::__1::__hash_table.11"** %10, align 8
  %404 = getelementptr inbounds %"class.std::__1::__hash_table.11", %"class.std::__1::__hash_table.11"* %403, i32 0, i32 3
  store %"class.std::__1::__compressed_pair.30"* %404, %"class.std::__1::__compressed_pair.30"** %9, align 8
  %405 = load %"class.std::__1::__compressed_pair.30"*, %"class.std::__1::__compressed_pair.30"** %9, align 8
  %406 = bitcast %"class.std::__1::__compressed_pair.30"* %405 to %"class.std::__1::__libcpp_compressed_pair_imp.31"*
  store %"class.std::__1::__libcpp_compressed_pair_imp.31"* %406, %"class.std::__1::__libcpp_compressed_pair_imp.31"** %8, align 8
  %407 = load %"class.std::__1::__libcpp_compressed_pair_imp.31"*, %"class.std::__1::__libcpp_compressed_pair_imp.31"** %8, align 8
  %408 = bitcast %"class.std::__1::__libcpp_compressed_pair_imp.31"* %407 to %"class.std::__1::__unordered_map_equal.32"*
  %409 = load %"struct.std::__1::__hash_node_base.15"*, %"struct.std::__1::__hash_node_base.15"** %209, align 8
  store %"struct.std::__1::__hash_node_base.15"* %409, %"struct.std::__1::__hash_node_base.15"** %13, align 8
  %410 = load %"struct.std::__1::__hash_node_base.15"*, %"struct.std::__1::__hash_node_base.15"** %13, align 8
  store %"struct.std::__1::__hash_node_base.15"* %410, %"struct.std::__1::__hash_node_base.15"** %12, align 8
  %411 = load %"struct.std::__1::__hash_node_base.15"*, %"struct.std::__1::__hash_node_base.15"** %12, align 8
  store %"struct.std::__1::__hash_node_base.15"* %411, %"struct.std::__1::__hash_node_base.15"** %11, align 8
  %412 = load %"struct.std::__1::__hash_node_base.15"*, %"struct.std::__1::__hash_node_base.15"** %11, align 8
  %413 = bitcast %"struct.std::__1::__hash_node_base.15"* %412 to i8*
  %414 = bitcast %"struct.std::__1::__hash_node_base.15"* %412 to %"struct.std::__1::__hash_node.123"*
  %415 = getelementptr inbounds %"struct.std::__1::__hash_node.123", %"struct.std::__1::__hash_node.123"* %414, i32 0, i32 2
  %416 = load i32*, i32** %202, align 8
  store %"class.std::__1::__unordered_map_equal.32"* %408, %"class.std::__1::__unordered_map_equal.32"** %17, align 8
  store %"union.std::__1::__hash_value_type.124"* %415, %"union.std::__1::__hash_value_type.124"** %18, align 8
  store i32* %416, i32** %19, align 8
  %417 = load %"class.std::__1::__unordered_map_equal.32"*, %"class.std::__1::__unordered_map_equal.32"** %17, align 8
  %418 = bitcast %"class.std::__1::__unordered_map_equal.32"* %417 to %"struct.std::__1::equal_to.33"*
  %419 = load %"union.std::__1::__hash_value_type.124"*, %"union.std::__1::__hash_value_type.124"** %18, align 8
  %420 = bitcast %"union.std::__1::__hash_value_type.124"* %419 to %"struct.std::__1::pair.125"*
  %421 = getelementptr inbounds %"struct.std::__1::pair.125", %"struct.std::__1::pair.125"* %420, i32 0, i32 0
  %422 = load i32*, i32** %19, align 8
  store %"struct.std::__1::equal_to.33"* %418, %"struct.std::__1::equal_to.33"** %14, align 8
  store i32* %421, i32** %15, align 8
  store i32* %422, i32** %16, align 8
  %423 = load %"struct.std::__1::equal_to.33"*, %"struct.std::__1::equal_to.33"** %14, align 8
  %424 = load i32*, i32** %15, align 8
  %425 = load i32, i32* %424, align 4
  %426 = load i32*, i32** %16, align 8
  %427 = load i32, i32* %426, align 4
  %428 = icmp eq i32 %425, %427
  br i1 %428, label %429, label %430

; <label>:429:                                    ; preds = %402
  br label %869

; <label>:430:                                    ; preds = %402
  %431 = load %"struct.std::__1::__hash_node_base.15"*, %"struct.std::__1::__hash_node_base.15"** %209, align 8
  %432 = getelementptr inbounds %"struct.std::__1::__hash_node_base.15", %"struct.std::__1::__hash_node_base.15"* %431, i32 0, i32 0
  %433 = load %"struct.std::__1::__hash_node_base.15"*, %"struct.std::__1::__hash_node_base.15"** %432, align 8
  store %"struct.std::__1::__hash_node_base.15"* %433, %"struct.std::__1::__hash_node_base.15"** %209, align 8
  br label %364

; <label>:434:                                    ; preds = %400
  br label %435

; <label>:435:                                    ; preds = %434, %344
  br label %436

; <label>:436:                                    ; preds = %435, %2
  %437 = load i64, i64* %206, align 8
  %438 = load %"struct.std::__1::piecewise_construct_t"*, %"struct.std::__1::piecewise_construct_t"** %203, align 8
  store %"struct.std::__1::piecewise_construct_t"* %438, %"struct.std::__1::piecewise_construct_t"** %20, align 8
  %439 = load %"struct.std::__1::piecewise_construct_t"*, %"struct.std::__1::piecewise_construct_t"** %20, align 8
  %440 = load %"class.std::__1::tuple.141"*, %"class.std::__1::tuple.141"** %204, align 8
  store %"class.std::__1::tuple.141"* %440, %"class.std::__1::tuple.141"** %21, align 8
  %441 = load %"class.std::__1::tuple.141"*, %"class.std::__1::tuple.141"** %21, align 8
  %442 = load %"class.std::__1::tuple.131"*, %"class.std::__1::tuple.131"** %205, align 8
  store %"class.std::__1::tuple.131"* %442, %"class.std::__1::tuple.131"** %22, align 8
  %443 = load %"class.std::__1::tuple.131"*, %"class.std::__1::tuple.131"** %22, align 8
  call void @_ZNSt3__112__hash_tableINS_17__hash_value_typeIjPN4llvm10StructTypeEEENS_22__unordered_map_hasherIjS5_NS_4hashIjEELb1EEENS_21__unordered_map_equalIjS5_NS_8equal_toIjEELb1EEENS_9allocatorIS5_EEE21__construct_node_hashIRKNS_21piecewise_construct_tEJNS_5tupleIJRKjEEENSL_IJEEEEEENS_10unique_ptrINS_11__hash_nodeIS5_PvEENS_22__hash_node_destructorINSE_IST_EEEEEEmOT_DpOT0_(%"class.std::__1::unique_ptr.144"* sret %211, %"class.std::__1::__hash_table.11"* %287, i64 %437, %"struct.std::__1::piecewise_construct_t"* dereferenceable(1) %439, %"class.std::__1::tuple.141"* dereferenceable(8) %441, %"class.std::__1::tuple.131"* dereferenceable(1) %443)
  store %"class.std::__1::__hash_table.11"* %287, %"class.std::__1::__hash_table.11"** %26, align 8
  %444 = load %"class.std::__1::__hash_table.11"*, %"class.std::__1::__hash_table.11"** %26, align 8
  %445 = getelementptr inbounds %"class.std::__1::__hash_table.11", %"class.std::__1::__hash_table.11"* %444, i32 0, i32 2
  store %"class.std::__1::__compressed_pair.25"* %445, %"class.std::__1::__compressed_pair.25"** %25, align 8
  %446 = load %"class.std::__1::__compressed_pair.25"*, %"class.std::__1::__compressed_pair.25"** %25, align 8
  %447 = bitcast %"class.std::__1::__compressed_pair.25"* %446 to %"class.std::__1::__libcpp_compressed_pair_imp.26"*
  store %"class.std::__1::__libcpp_compressed_pair_imp.26"* %447, %"class.std::__1::__libcpp_compressed_pair_imp.26"** %24, align 8
  %448 = load %"class.std::__1::__libcpp_compressed_pair_imp.26"*, %"class.std::__1::__libcpp_compressed_pair_imp.26"** %24, align 8
  %449 = getelementptr inbounds %"class.std::__1::__libcpp_compressed_pair_imp.26", %"class.std::__1::__libcpp_compressed_pair_imp.26"* %448, i32 0, i32 0
  %450 = load i64, i64* %449, align 8
  %451 = add i64 %450, 1
  %452 = uitofp i64 %451 to float
  %453 = load i64, i64* %207, align 8
  %454 = uitofp i64 %453 to float
  store %"class.std::__1::__hash_table.11"* %287, %"class.std::__1::__hash_table.11"** %29, align 8
  %455 = load %"class.std::__1::__hash_table.11"*, %"class.std::__1::__hash_table.11"** %29, align 8
  %456 = getelementptr inbounds %"class.std::__1::__hash_table.11", %"class.std::__1::__hash_table.11"* %455, i32 0, i32 3
  store %"class.std::__1::__compressed_pair.30"* %456, %"class.std::__1::__compressed_pair.30"** %28, align 8
  %457 = load %"class.std::__1::__compressed_pair.30"*, %"class.std::__1::__compressed_pair.30"** %28, align 8
  %458 = bitcast %"class.std::__1::__compressed_pair.30"* %457 to %"class.std::__1::__libcpp_compressed_pair_imp.31"*
  store %"class.std::__1::__libcpp_compressed_pair_imp.31"* %458, %"class.std::__1::__libcpp_compressed_pair_imp.31"** %27, align 8
  %459 = load %"class.std::__1::__libcpp_compressed_pair_imp.31"*, %"class.std::__1::__libcpp_compressed_pair_imp.31"** %27, align 8
  %460 = getelementptr inbounds %"class.std::__1::__libcpp_compressed_pair_imp.31", %"class.std::__1::__libcpp_compressed_pair_imp.31"* %459, i32 0, i32 0
  %461 = load float, float* %460, align 4
  %462 = fmul float %454, %461
  %463 = fcmp ogt float %452, %462
  br i1 %463, label %467, label %464

; <label>:464:                                    ; preds = %436
  %465 = load i64, i64* %207, align 8
  %466 = icmp eq i64 %465, 0
  br i1 %466, label %467, label %629

; <label>:467:                                    ; preds = %464, %436
  %468 = load i64, i64* %207, align 8
  %469 = mul i64 2, %468
  %470 = load i64, i64* %207, align 8
  store i64 %470, i64* %30, align 8
  %471 = load i64, i64* %30, align 8
  %472 = icmp ugt i64 %471, 2
  br i1 %472, label %473, label %480

; <label>:473:                                    ; preds = %467
  %474 = load i64, i64* %30, align 8
  %475 = load i64, i64* %30, align 8
  %476 = sub i64 %475, 1
  %477 = and i64 %474, %476
  %478 = icmp ne i64 %477, 0
  %479 = xor i1 %478, true
  br label %480

; <label>:480:                                    ; preds = %473, %467
  %481 = phi i1 [ false, %467 ], [ %479, %473 ]
  %482 = xor i1 %481, true
  %483 = zext i1 %482 to i64
  %484 = add i64 %469, %483
  store i64 %484, i64* %212, align 8
  store %"class.std::__1::__hash_table.11"* %287, %"class.std::__1::__hash_table.11"** %33, align 8
  %485 = load %"class.std::__1::__hash_table.11"*, %"class.std::__1::__hash_table.11"** %33, align 8
  %486 = getelementptr inbounds %"class.std::__1::__hash_table.11", %"class.std::__1::__hash_table.11"* %485, i32 0, i32 2
  store %"class.std::__1::__compressed_pair.25"* %486, %"class.std::__1::__compressed_pair.25"** %32, align 8
  %487 = load %"class.std::__1::__compressed_pair.25"*, %"class.std::__1::__compressed_pair.25"** %32, align 8
  %488 = bitcast %"class.std::__1::__compressed_pair.25"* %487 to %"class.std::__1::__libcpp_compressed_pair_imp.26"*
  store %"class.std::__1::__libcpp_compressed_pair_imp.26"* %488, %"class.std::__1::__libcpp_compressed_pair_imp.26"** %31, align 8
  %489 = load %"class.std::__1::__libcpp_compressed_pair_imp.26"*, %"class.std::__1::__libcpp_compressed_pair_imp.26"** %31, align 8
  %490 = getelementptr inbounds %"class.std::__1::__libcpp_compressed_pair_imp.26", %"class.std::__1::__libcpp_compressed_pair_imp.26"* %489, i32 0, i32 0
  %491 = load i64, i64* %490, align 8
  %492 = add i64 %491, 1
  %493 = uitofp i64 %492 to float
  store %"class.std::__1::__hash_table.11"* %287, %"class.std::__1::__hash_table.11"** %36, align 8
  %494 = load %"class.std::__1::__hash_table.11"*, %"class.std::__1::__hash_table.11"** %36, align 8
  %495 = getelementptr inbounds %"class.std::__1::__hash_table.11", %"class.std::__1::__hash_table.11"* %494, i32 0, i32 3
  store %"class.std::__1::__compressed_pair.30"* %495, %"class.std::__1::__compressed_pair.30"** %35, align 8
  %496 = load %"class.std::__1::__compressed_pair.30"*, %"class.std::__1::__compressed_pair.30"** %35, align 8
  %497 = bitcast %"class.std::__1::__compressed_pair.30"* %496 to %"class.std::__1::__libcpp_compressed_pair_imp.31"*
  store %"class.std::__1::__libcpp_compressed_pair_imp.31"* %497, %"class.std::__1::__libcpp_compressed_pair_imp.31"** %34, align 8
  %498 = load %"class.std::__1::__libcpp_compressed_pair_imp.31"*, %"class.std::__1::__libcpp_compressed_pair_imp.31"** %34, align 8
  %499 = getelementptr inbounds %"class.std::__1::__libcpp_compressed_pair_imp.31", %"class.std::__1::__libcpp_compressed_pair_imp.31"* %498, i32 0, i32 0
  %500 = load float, float* %499, align 4
  %501 = fdiv float %493, %500
  store float %501, float* %41, align 4
  %502 = load float, float* %41, align 4
  %503 = call float @ceilf(float %502) #12
  %504 = fptoui float %503 to i64
  store i64 %504, i64* %215, align 8
  store i64* %212, i64** %48, align 8
  store i64* %215, i64** %49, align 8
  %505 = load i64*, i64** %48, align 8
  %506 = load i64*, i64** %49, align 8
  store i64* %505, i64** %46, align 8
  store i64* %506, i64** %47, align 8
  %507 = load i64*, i64** %46, align 8
  %508 = load i64*, i64** %47, align 8
  store %"struct.std::__1::__less"* %45, %"struct.std::__1::__less"** %42, align 8
  store i64* %507, i64** %43, align 8
  store i64* %508, i64** %44, align 8
  %509 = load %"struct.std::__1::__less"*, %"struct.std::__1::__less"** %42, align 8
  %510 = load i64*, i64** %43, align 8
  %511 = load i64, i64* %510, align 8
  %512 = load i64*, i64** %44, align 8
  %513 = load i64, i64* %512, align 8
  %514 = icmp ult i64 %511, %513
  br i1 %514, label %515, label %517

; <label>:515:                                    ; preds = %480
  %516 = load i64*, i64** %47, align 8
  br label %519

; <label>:517:                                    ; preds = %480
  %518 = load i64*, i64** %46, align 8
  br label %519

; <label>:519:                                    ; preds = %517, %515
  %520 = phi i64* [ %516, %515 ], [ %518, %517 ]
  %521 = load i64, i64* %520, align 8
  invoke void @_ZNSt3__112__hash_tableINS_17__hash_value_typeIjPN4llvm10StructTypeEEENS_22__unordered_map_hasherIjS5_NS_4hashIjEELb1EEENS_21__unordered_map_equalIjS5_NS_8equal_toIjEELb1EEENS_9allocatorIS5_EEE6rehashEm(%"class.std::__1::__hash_table.11"* %287, i64 %521)
          to label %522 unwind label %564

; <label>:522:                                    ; preds = %519
  store %"class.std::__1::__hash_table.11"* %287, %"class.std::__1::__hash_table.11"** %59, align 8
  %523 = load %"class.std::__1::__hash_table.11"*, %"class.std::__1::__hash_table.11"** %59, align 8
  %524 = getelementptr inbounds %"class.std::__1::__hash_table.11", %"class.std::__1::__hash_table.11"* %523, i32 0, i32 0
  store %"class.std::__1::unique_ptr.12"* %524, %"class.std::__1::unique_ptr.12"** %58, align 8
  %525 = load %"class.std::__1::unique_ptr.12"*, %"class.std::__1::unique_ptr.12"** %58, align 8
  %526 = getelementptr inbounds %"class.std::__1::unique_ptr.12", %"class.std::__1::unique_ptr.12"* %525, i32 0, i32 0
  store %"class.std::__1::__compressed_pair.13"* %526, %"class.std::__1::__compressed_pair.13"** %57, align 8
  %527 = load %"class.std::__1::__compressed_pair.13"*, %"class.std::__1::__compressed_pair.13"** %57, align 8
  %528 = bitcast %"class.std::__1::__compressed_pair.13"* %527 to %"class.std::__1::__libcpp_compressed_pair_imp.14"*
  store %"class.std::__1::__libcpp_compressed_pair_imp.14"* %528, %"class.std::__1::__libcpp_compressed_pair_imp.14"** %56, align 8
  %529 = load %"class.std::__1::__libcpp_compressed_pair_imp.14"*, %"class.std::__1::__libcpp_compressed_pair_imp.14"** %56, align 8
  %530 = getelementptr inbounds %"class.std::__1::__libcpp_compressed_pair_imp.14", %"class.std::__1::__libcpp_compressed_pair_imp.14"* %529, i32 0, i32 1
  store %"class.std::__1::__bucket_list_deallocator.16"* %530, %"class.std::__1::__bucket_list_deallocator.16"** %55, align 8
  %531 = load %"class.std::__1::__bucket_list_deallocator.16"*, %"class.std::__1::__bucket_list_deallocator.16"** %55, align 8
  %532 = getelementptr inbounds %"class.std::__1::__bucket_list_deallocator.16", %"class.std::__1::__bucket_list_deallocator.16"* %531, i32 0, i32 0
  store %"class.std::__1::__compressed_pair.17"* %532, %"class.std::__1::__compressed_pair.17"** %54, align 8
  %533 = load %"class.std::__1::__compressed_pair.17"*, %"class.std::__1::__compressed_pair.17"** %54, align 8
  %534 = bitcast %"class.std::__1::__compressed_pair.17"* %533 to %"class.std::__1::__libcpp_compressed_pair_imp.18"*
  store %"class.std::__1::__libcpp_compressed_pair_imp.18"* %534, %"class.std::__1::__libcpp_compressed_pair_imp.18"** %53, align 8
  %535 = load %"class.std::__1::__libcpp_compressed_pair_imp.18"*, %"class.std::__1::__libcpp_compressed_pair_imp.18"** %53, align 8
  %536 = getelementptr inbounds %"class.std::__1::__libcpp_compressed_pair_imp.18", %"class.std::__1::__libcpp_compressed_pair_imp.18"* %535, i32 0, i32 0
  %537 = load i64, i64* %536, align 8
  store i64 %537, i64* %207, align 8
  %538 = load i64, i64* %206, align 8
  %539 = load i64, i64* %207, align 8
  store i64 %538, i64* %60, align 8
  store i64 %539, i64* %61, align 8
  %540 = load i64, i64* %61, align 8
  %541 = load i64, i64* %61, align 8
  %542 = sub i64 %541, 1
  %543 = and i64 %540, %542
  %544 = icmp ne i64 %543, 0
  br i1 %544, label %550, label %545

; <label>:545:                                    ; preds = %522
  %546 = load i64, i64* %60, align 8
  %547 = load i64, i64* %61, align 8
  %548 = sub i64 %547, 1
  %549 = and i64 %546, %548
  br label %562

; <label>:550:                                    ; preds = %522
  %551 = load i64, i64* %60, align 8
  %552 = load i64, i64* %61, align 8
  %553 = icmp ult i64 %551, %552
  br i1 %553, label %554, label %556

; <label>:554:                                    ; preds = %550
  %555 = load i64, i64* %60, align 8
  br label %560

; <label>:556:                                    ; preds = %550
  %557 = load i64, i64* %60, align 8
  %558 = load i64, i64* %61, align 8
  %559 = urem i64 %557, %558
  br label %560

; <label>:560:                                    ; preds = %556, %554
  %561 = phi i64 [ %555, %554 ], [ %559, %556 ]
  br label %562

; <label>:562:                                    ; preds = %560, %545
  %563 = phi i64 [ %549, %545 ], [ %561, %560 ]
  store i64 %563, i64* %210, align 8
  br label %629

; <label>:564:                                    ; preds = %519
  %565 = landingpad { i8*, i32 }
          cleanup
  %566 = extractvalue { i8*, i32 } %565, 0
  store i8* %566, i8** %213, align 8
  %567 = extractvalue { i8*, i32 } %565, 1
  store i32 %567, i32* %214, align 4
  store %"class.std::__1::unique_ptr.144"* %211, %"class.std::__1::unique_ptr.144"** %96, align 8
  %568 = load %"class.std::__1::unique_ptr.144"*, %"class.std::__1::unique_ptr.144"** %96, align 8
  store %"class.std::__1::unique_ptr.144"* %568, %"class.std::__1::unique_ptr.144"** %95, align 8
  %569 = load %"class.std::__1::unique_ptr.144"*, %"class.std::__1::unique_ptr.144"** %95, align 8
  store %"class.std::__1::unique_ptr.144"* %569, %"class.std::__1::unique_ptr.144"** %92, align 8
  store %"struct.std::__1::__hash_node.123"* null, %"struct.std::__1::__hash_node.123"** %93, align 8
  %570 = load %"class.std::__1::unique_ptr.144"*, %"class.std::__1::unique_ptr.144"** %92, align 8
  %571 = getelementptr inbounds %"class.std::__1::unique_ptr.144", %"class.std::__1::unique_ptr.144"* %570, i32 0, i32 0
  store %"class.std::__1::__compressed_pair.145"* %571, %"class.std::__1::__compressed_pair.145"** %91, align 8
  %572 = load %"class.std::__1::__compressed_pair.145"*, %"class.std::__1::__compressed_pair.145"** %91, align 8
  %573 = bitcast %"class.std::__1::__compressed_pair.145"* %572 to %"class.std::__1::__libcpp_compressed_pair_imp.146"*
  store %"class.std::__1::__libcpp_compressed_pair_imp.146"* %573, %"class.std::__1::__libcpp_compressed_pair_imp.146"** %90, align 8
  %574 = load %"class.std::__1::__libcpp_compressed_pair_imp.146"*, %"class.std::__1::__libcpp_compressed_pair_imp.146"** %90, align 8
  %575 = getelementptr inbounds %"class.std::__1::__libcpp_compressed_pair_imp.146", %"class.std::__1::__libcpp_compressed_pair_imp.146"* %574, i32 0, i32 0
  %576 = load %"struct.std::__1::__hash_node.123"*, %"struct.std::__1::__hash_node.123"** %575, align 8
  store %"struct.std::__1::__hash_node.123"* %576, %"struct.std::__1::__hash_node.123"** %94, align 8
  %577 = load %"struct.std::__1::__hash_node.123"*, %"struct.std::__1::__hash_node.123"** %93, align 8
  %578 = getelementptr inbounds %"class.std::__1::unique_ptr.144", %"class.std::__1::unique_ptr.144"* %570, i32 0, i32 0
  store %"class.std::__1::__compressed_pair.145"* %578, %"class.std::__1::__compressed_pair.145"** %72, align 8
  %579 = load %"class.std::__1::__compressed_pair.145"*, %"class.std::__1::__compressed_pair.145"** %72, align 8
  %580 = bitcast %"class.std::__1::__compressed_pair.145"* %579 to %"class.std::__1::__libcpp_compressed_pair_imp.146"*
  store %"class.std::__1::__libcpp_compressed_pair_imp.146"* %580, %"class.std::__1::__libcpp_compressed_pair_imp.146"** %71, align 8
  %581 = load %"class.std::__1::__libcpp_compressed_pair_imp.146"*, %"class.std::__1::__libcpp_compressed_pair_imp.146"** %71, align 8
  %582 = getelementptr inbounds %"class.std::__1::__libcpp_compressed_pair_imp.146", %"class.std::__1::__libcpp_compressed_pair_imp.146"* %581, i32 0, i32 0
  store %"struct.std::__1::__hash_node.123"* %577, %"struct.std::__1::__hash_node.123"** %582, align 8
  %583 = load %"struct.std::__1::__hash_node.123"*, %"struct.std::__1::__hash_node.123"** %94, align 8
  %584 = icmp ne %"struct.std::__1::__hash_node.123"* %583, null
  br i1 %584, label %585, label %624

; <label>:585:                                    ; preds = %564
  %586 = getelementptr inbounds %"class.std::__1::unique_ptr.144", %"class.std::__1::unique_ptr.144"* %570, i32 0, i32 0
  store %"class.std::__1::__compressed_pair.145"* %586, %"class.std::__1::__compressed_pair.145"** %70, align 8
  %587 = load %"class.std::__1::__compressed_pair.145"*, %"class.std::__1::__compressed_pair.145"** %70, align 8
  %588 = bitcast %"class.std::__1::__compressed_pair.145"* %587 to %"class.std::__1::__libcpp_compressed_pair_imp.146"*
  store %"class.std::__1::__libcpp_compressed_pair_imp.146"* %588, %"class.std::__1::__libcpp_compressed_pair_imp.146"** %69, align 8
  %589 = load %"class.std::__1::__libcpp_compressed_pair_imp.146"*, %"class.std::__1::__libcpp_compressed_pair_imp.146"** %69, align 8
  %590 = getelementptr inbounds %"class.std::__1::__libcpp_compressed_pair_imp.146", %"class.std::__1::__libcpp_compressed_pair_imp.146"* %589, i32 0, i32 1
  %591 = load %"struct.std::__1::__hash_node.123"*, %"struct.std::__1::__hash_node.123"** %94, align 8
  store %"class.std::__1::__hash_node_destructor.147"* %590, %"class.std::__1::__hash_node_destructor.147"** %88, align 8
  store %"struct.std::__1::__hash_node.123"* %591, %"struct.std::__1::__hash_node.123"** %89, align 8
  %592 = load %"class.std::__1::__hash_node_destructor.147"*, %"class.std::__1::__hash_node_destructor.147"** %88, align 8
  %593 = getelementptr inbounds %"class.std::__1::__hash_node_destructor.147", %"class.std::__1::__hash_node_destructor.147"* %592, i32 0, i32 1
  %594 = load i8, i8* %593, align 8
  %595 = trunc i8 %594 to i1
  br i1 %595, label %596, label %609

; <label>:596:                                    ; preds = %585
  %597 = getelementptr inbounds %"class.std::__1::__hash_node_destructor.147", %"class.std::__1::__hash_node_destructor.147"* %592, i32 0, i32 0
  %598 = load %"class.std::__1::allocator.23"*, %"class.std::__1::allocator.23"** %597, align 8
  %599 = load %"struct.std::__1::__hash_node.123"*, %"struct.std::__1::__hash_node.123"** %89, align 8
  %600 = getelementptr inbounds %"struct.std::__1::__hash_node.123", %"struct.std::__1::__hash_node.123"* %599, i32 0, i32 2
  store %"union.std::__1::__hash_value_type.124"* %600, %"union.std::__1::__hash_value_type.124"** %87, align 8
  %601 = load %"union.std::__1::__hash_value_type.124"*, %"union.std::__1::__hash_value_type.124"** %87, align 8
  %602 = bitcast %"union.std::__1::__hash_value_type.124"* %601 to %"struct.std::__1::pair.125"*
  store %"struct.std::__1::pair.125"* %602, %"struct.std::__1::pair.125"** %86, align 8
  %603 = load %"struct.std::__1::pair.125"*, %"struct.std::__1::pair.125"** %86, align 8
  %604 = bitcast %"struct.std::__1::pair.125"* %603 to i8*
  store %"class.std::__1::allocator.23"* %598, %"class.std::__1::allocator.23"** %82, align 8
  store %"struct.std::__1::pair.125"* %603, %"struct.std::__1::pair.125"** %83, align 8
  %605 = bitcast %"struct.std::__1::__has_destroy.127"* %85 to %"struct.std::__1::integral_constant"*
  %606 = load %"class.std::__1::allocator.23"*, %"class.std::__1::allocator.23"** %82, align 8
  %607 = load %"struct.std::__1::pair.125"*, %"struct.std::__1::pair.125"** %83, align 8
  store %"class.std::__1::allocator.23"* %606, %"class.std::__1::allocator.23"** %80, align 8
  store %"struct.std::__1::pair.125"* %607, %"struct.std::__1::pair.125"** %81, align 8
  %608 = load %"struct.std::__1::pair.125"*, %"struct.std::__1::pair.125"** %81, align 8
  br label %609

; <label>:609:                                    ; preds = %596, %585
  %610 = load %"struct.std::__1::__hash_node.123"*, %"struct.std::__1::__hash_node.123"** %89, align 8
  %611 = icmp ne %"struct.std::__1::__hash_node.123"* %610, null
  br i1 %611, label %612, label %623

; <label>:612:                                    ; preds = %609
  %613 = getelementptr inbounds %"class.std::__1::__hash_node_destructor.147", %"class.std::__1::__hash_node_destructor.147"* %592, i32 0, i32 0
  %614 = load %"class.std::__1::allocator.23"*, %"class.std::__1::allocator.23"** %613, align 8
  %615 = load %"struct.std::__1::__hash_node.123"*, %"struct.std::__1::__hash_node.123"** %89, align 8
  store %"class.std::__1::allocator.23"* %614, %"class.std::__1::allocator.23"** %77, align 8
  store %"struct.std::__1::__hash_node.123"* %615, %"struct.std::__1::__hash_node.123"** %78, align 8
  store i64 1, i64* %79, align 8
  %616 = load %"class.std::__1::allocator.23"*, %"class.std::__1::allocator.23"** %77, align 8
  %617 = load %"struct.std::__1::__hash_node.123"*, %"struct.std::__1::__hash_node.123"** %78, align 8
  %618 = load i64, i64* %79, align 8
  store %"class.std::__1::allocator.23"* %616, %"class.std::__1::allocator.23"** %74, align 8
  store %"struct.std::__1::__hash_node.123"* %617, %"struct.std::__1::__hash_node.123"** %75, align 8
  store i64 %618, i64* %76, align 8
  %619 = load %"class.std::__1::allocator.23"*, %"class.std::__1::allocator.23"** %74, align 8
  %620 = load %"struct.std::__1::__hash_node.123"*, %"struct.std::__1::__hash_node.123"** %75, align 8
  %621 = bitcast %"struct.std::__1::__hash_node.123"* %620 to i8*
  store i8* %621, i8** %73, align 8
  %622 = load i8*, i8** %73, align 8
  call void @_ZdlPv(i8* %622) #14
  br label %623

; <label>:623:                                    ; preds = %612, %609
  br label %624

; <label>:624:                                    ; preds = %623, %564
  %625 = load i8*, i8** %213, align 8
  %626 = load i32, i32* %214, align 4
  %627 = insertvalue { i8*, i32 } undef, i8* %625, 0
  %628 = insertvalue { i8*, i32 } %627, i32 %626, 1
  resume { i8*, i32 } %628

; <label>:629:                                    ; preds = %562, %464
  %630 = getelementptr inbounds %"class.std::__1::__hash_table.11", %"class.std::__1::__hash_table.11"* %287, i32 0, i32 0
  %631 = load i64, i64* %210, align 8
  store %"class.std::__1::unique_ptr.12"* %630, %"class.std::__1::unique_ptr.12"** %99, align 8
  store i64 %631, i64* %100, align 8
  %632 = load %"class.std::__1::unique_ptr.12"*, %"class.std::__1::unique_ptr.12"** %99, align 8
  %633 = load i64, i64* %100, align 8
  %634 = getelementptr inbounds %"class.std::__1::unique_ptr.12", %"class.std::__1::unique_ptr.12"* %632, i32 0, i32 0
  store %"class.std::__1::__compressed_pair.13"* %634, %"class.std::__1::__compressed_pair.13"** %98, align 8
  %635 = load %"class.std::__1::__compressed_pair.13"*, %"class.std::__1::__compressed_pair.13"** %98, align 8
  %636 = bitcast %"class.std::__1::__compressed_pair.13"* %635 to %"class.std::__1::__libcpp_compressed_pair_imp.14"*
  store %"class.std::__1::__libcpp_compressed_pair_imp.14"* %636, %"class.std::__1::__libcpp_compressed_pair_imp.14"** %97, align 8
  %637 = load %"class.std::__1::__libcpp_compressed_pair_imp.14"*, %"class.std::__1::__libcpp_compressed_pair_imp.14"** %97, align 8
  %638 = getelementptr inbounds %"class.std::__1::__libcpp_compressed_pair_imp.14", %"class.std::__1::__libcpp_compressed_pair_imp.14"* %637, i32 0, i32 0
  %639 = load %"struct.std::__1::__hash_node_base.15"**, %"struct.std::__1::__hash_node_base.15"*** %638, align 8
  %640 = getelementptr inbounds %"struct.std::__1::__hash_node_base.15"*, %"struct.std::__1::__hash_node_base.15"** %639, i64 %633
  %641 = load %"struct.std::__1::__hash_node_base.15"*, %"struct.std::__1::__hash_node_base.15"** %640, align 8
  store %"struct.std::__1::__hash_node_base.15"* %641, %"struct.std::__1::__hash_node_base.15"** %216, align 8
  %642 = load %"struct.std::__1::__hash_node_base.15"*, %"struct.std::__1::__hash_node_base.15"** %216, align 8
  %643 = icmp eq %"struct.std::__1::__hash_node_base.15"* %642, null
  br i1 %643, label %644, label %766

; <label>:644:                                    ; preds = %629
  %645 = getelementptr inbounds %"class.std::__1::__hash_table.11", %"class.std::__1::__hash_table.11"* %287, i32 0, i32 1
  store %"class.std::__1::__compressed_pair.21"* %645, %"class.std::__1::__compressed_pair.21"** %102, align 8
  %646 = load %"class.std::__1::__compressed_pair.21"*, %"class.std::__1::__compressed_pair.21"** %102, align 8
  %647 = bitcast %"class.std::__1::__compressed_pair.21"* %646 to %"class.std::__1::__libcpp_compressed_pair_imp.22"*
  store %"class.std::__1::__libcpp_compressed_pair_imp.22"* %647, %"class.std::__1::__libcpp_compressed_pair_imp.22"** %101, align 8
  %648 = load %"class.std::__1::__libcpp_compressed_pair_imp.22"*, %"class.std::__1::__libcpp_compressed_pair_imp.22"** %101, align 8
  %649 = getelementptr inbounds %"class.std::__1::__libcpp_compressed_pair_imp.22", %"class.std::__1::__libcpp_compressed_pair_imp.22"* %648, i32 0, i32 0
  store %"struct.std::__1::__hash_node_base.15"* %649, %"struct.std::__1::__hash_node_base.15"** %105, align 8
  %650 = load %"struct.std::__1::__hash_node_base.15"*, %"struct.std::__1::__hash_node_base.15"** %105, align 8
  store %"struct.std::__1::__hash_node_base.15"* %650, %"struct.std::__1::__hash_node_base.15"** %104, align 8
  %651 = load %"struct.std::__1::__hash_node_base.15"*, %"struct.std::__1::__hash_node_base.15"** %104, align 8
  store %"struct.std::__1::__hash_node_base.15"* %651, %"struct.std::__1::__hash_node_base.15"** %103, align 8
  %652 = load %"struct.std::__1::__hash_node_base.15"*, %"struct.std::__1::__hash_node_base.15"** %103, align 8
  %653 = bitcast %"struct.std::__1::__hash_node_base.15"* %652 to i8*
  store %"struct.std::__1::__hash_node_base.15"* %652, %"struct.std::__1::__hash_node_base.15"** %216, align 8
  %654 = load %"struct.std::__1::__hash_node_base.15"*, %"struct.std::__1::__hash_node_base.15"** %216, align 8
  %655 = getelementptr inbounds %"struct.std::__1::__hash_node_base.15", %"struct.std::__1::__hash_node_base.15"* %654, i32 0, i32 0
  %656 = load %"struct.std::__1::__hash_node_base.15"*, %"struct.std::__1::__hash_node_base.15"** %655, align 8
  store %"class.std::__1::unique_ptr.144"* %211, %"class.std::__1::unique_ptr.144"** %108, align 8
  %657 = load %"class.std::__1::unique_ptr.144"*, %"class.std::__1::unique_ptr.144"** %108, align 8
  %658 = getelementptr inbounds %"class.std::__1::unique_ptr.144", %"class.std::__1::unique_ptr.144"* %657, i32 0, i32 0
  store %"class.std::__1::__compressed_pair.145"* %658, %"class.std::__1::__compressed_pair.145"** %107, align 8
  %659 = load %"class.std::__1::__compressed_pair.145"*, %"class.std::__1::__compressed_pair.145"** %107, align 8
  %660 = bitcast %"class.std::__1::__compressed_pair.145"* %659 to %"class.std::__1::__libcpp_compressed_pair_imp.146"*
  store %"class.std::__1::__libcpp_compressed_pair_imp.146"* %660, %"class.std::__1::__libcpp_compressed_pair_imp.146"** %106, align 8
  %661 = load %"class.std::__1::__libcpp_compressed_pair_imp.146"*, %"class.std::__1::__libcpp_compressed_pair_imp.146"** %106, align 8
  %662 = getelementptr inbounds %"class.std::__1::__libcpp_compressed_pair_imp.146", %"class.std::__1::__libcpp_compressed_pair_imp.146"* %661, i32 0, i32 0
  %663 = load %"struct.std::__1::__hash_node.123"*, %"struct.std::__1::__hash_node.123"** %662, align 8
  %664 = bitcast %"struct.std::__1::__hash_node.123"* %663 to %"struct.std::__1::__hash_node_base.15"*
  %665 = getelementptr inbounds %"struct.std::__1::__hash_node_base.15", %"struct.std::__1::__hash_node_base.15"* %664, i32 0, i32 0
  store %"struct.std::__1::__hash_node_base.15"* %656, %"struct.std::__1::__hash_node_base.15"** %665, align 8
  store %"class.std::__1::unique_ptr.144"* %211, %"class.std::__1::unique_ptr.144"** %111, align 8
  %666 = load %"class.std::__1::unique_ptr.144"*, %"class.std::__1::unique_ptr.144"** %111, align 8
  %667 = getelementptr inbounds %"class.std::__1::unique_ptr.144", %"class.std::__1::unique_ptr.144"* %666, i32 0, i32 0
  store %"class.std::__1::__compressed_pair.145"* %667, %"class.std::__1::__compressed_pair.145"** %110, align 8
  %668 = load %"class.std::__1::__compressed_pair.145"*, %"class.std::__1::__compressed_pair.145"** %110, align 8
  %669 = bitcast %"class.std::__1::__compressed_pair.145"* %668 to %"class.std::__1::__libcpp_compressed_pair_imp.146"*
  store %"class.std::__1::__libcpp_compressed_pair_imp.146"* %669, %"class.std::__1::__libcpp_compressed_pair_imp.146"** %109, align 8
  %670 = load %"class.std::__1::__libcpp_compressed_pair_imp.146"*, %"class.std::__1::__libcpp_compressed_pair_imp.146"** %109, align 8
  %671 = getelementptr inbounds %"class.std::__1::__libcpp_compressed_pair_imp.146", %"class.std::__1::__libcpp_compressed_pair_imp.146"* %670, i32 0, i32 0
  %672 = load %"struct.std::__1::__hash_node.123"*, %"struct.std::__1::__hash_node.123"** %671, align 8
  %673 = bitcast %"struct.std::__1::__hash_node.123"* %672 to %"struct.std::__1::__hash_node_base.15"*
  store %"struct.std::__1::__hash_node_base.15"* %673, %"struct.std::__1::__hash_node_base.15"** %114, align 8
  %674 = load %"struct.std::__1::__hash_node_base.15"*, %"struct.std::__1::__hash_node_base.15"** %114, align 8
  store %"struct.std::__1::__hash_node_base.15"* %674, %"struct.std::__1::__hash_node_base.15"** %113, align 8
  %675 = load %"struct.std::__1::__hash_node_base.15"*, %"struct.std::__1::__hash_node_base.15"** %113, align 8
  store %"struct.std::__1::__hash_node_base.15"* %675, %"struct.std::__1::__hash_node_base.15"** %112, align 8
  %676 = load %"struct.std::__1::__hash_node_base.15"*, %"struct.std::__1::__hash_node_base.15"** %112, align 8
  %677 = bitcast %"struct.std::__1::__hash_node_base.15"* %676 to i8*
  %678 = load %"struct.std::__1::__hash_node_base.15"*, %"struct.std::__1::__hash_node_base.15"** %216, align 8
  %679 = getelementptr inbounds %"struct.std::__1::__hash_node_base.15", %"struct.std::__1::__hash_node_base.15"* %678, i32 0, i32 0
  store %"struct.std::__1::__hash_node_base.15"* %676, %"struct.std::__1::__hash_node_base.15"** %679, align 8
  %680 = load %"struct.std::__1::__hash_node_base.15"*, %"struct.std::__1::__hash_node_base.15"** %216, align 8
  %681 = getelementptr inbounds %"class.std::__1::__hash_table.11", %"class.std::__1::__hash_table.11"* %287, i32 0, i32 0
  %682 = load i64, i64* %210, align 8
  store %"class.std::__1::unique_ptr.12"* %681, %"class.std::__1::unique_ptr.12"** %117, align 8
  store i64 %682, i64* %118, align 8
  %683 = load %"class.std::__1::unique_ptr.12"*, %"class.std::__1::unique_ptr.12"** %117, align 8
  %684 = load i64, i64* %118, align 8
  %685 = getelementptr inbounds %"class.std::__1::unique_ptr.12", %"class.std::__1::unique_ptr.12"* %683, i32 0, i32 0
  store %"class.std::__1::__compressed_pair.13"* %685, %"class.std::__1::__compressed_pair.13"** %116, align 8
  %686 = load %"class.std::__1::__compressed_pair.13"*, %"class.std::__1::__compressed_pair.13"** %116, align 8
  %687 = bitcast %"class.std::__1::__compressed_pair.13"* %686 to %"class.std::__1::__libcpp_compressed_pair_imp.14"*
  store %"class.std::__1::__libcpp_compressed_pair_imp.14"* %687, %"class.std::__1::__libcpp_compressed_pair_imp.14"** %115, align 8
  %688 = load %"class.std::__1::__libcpp_compressed_pair_imp.14"*, %"class.std::__1::__libcpp_compressed_pair_imp.14"** %115, align 8
  %689 = getelementptr inbounds %"class.std::__1::__libcpp_compressed_pair_imp.14", %"class.std::__1::__libcpp_compressed_pair_imp.14"* %688, i32 0, i32 0
  %690 = load %"struct.std::__1::__hash_node_base.15"**, %"struct.std::__1::__hash_node_base.15"*** %689, align 8
  %691 = getelementptr inbounds %"struct.std::__1::__hash_node_base.15"*, %"struct.std::__1::__hash_node_base.15"** %690, i64 %684
  store %"struct.std::__1::__hash_node_base.15"* %680, %"struct.std::__1::__hash_node_base.15"** %691, align 8
  store %"class.std::__1::unique_ptr.144"* %211, %"class.std::__1::unique_ptr.144"** %121, align 8
  %692 = load %"class.std::__1::unique_ptr.144"*, %"class.std::__1::unique_ptr.144"** %121, align 8
  %693 = getelementptr inbounds %"class.std::__1::unique_ptr.144", %"class.std::__1::unique_ptr.144"* %692, i32 0, i32 0
  store %"class.std::__1::__compressed_pair.145"* %693, %"class.std::__1::__compressed_pair.145"** %120, align 8
  %694 = load %"class.std::__1::__compressed_pair.145"*, %"class.std::__1::__compressed_pair.145"** %120, align 8
  %695 = bitcast %"class.std::__1::__compressed_pair.145"* %694 to %"class.std::__1::__libcpp_compressed_pair_imp.146"*
  store %"class.std::__1::__libcpp_compressed_pair_imp.146"* %695, %"class.std::__1::__libcpp_compressed_pair_imp.146"** %119, align 8
  %696 = load %"class.std::__1::__libcpp_compressed_pair_imp.146"*, %"class.std::__1::__libcpp_compressed_pair_imp.146"** %119, align 8
  %697 = getelementptr inbounds %"class.std::__1::__libcpp_compressed_pair_imp.146", %"class.std::__1::__libcpp_compressed_pair_imp.146"* %696, i32 0, i32 0
  %698 = load %"struct.std::__1::__hash_node.123"*, %"struct.std::__1::__hash_node.123"** %697, align 8
  %699 = bitcast %"struct.std::__1::__hash_node.123"* %698 to %"struct.std::__1::__hash_node_base.15"*
  %700 = getelementptr inbounds %"struct.std::__1::__hash_node_base.15", %"struct.std::__1::__hash_node_base.15"* %699, i32 0, i32 0
  %701 = load %"struct.std::__1::__hash_node_base.15"*, %"struct.std::__1::__hash_node_base.15"** %700, align 8
  %702 = icmp ne %"struct.std::__1::__hash_node_base.15"* %701, null
  br i1 %702, label %703, label %765

; <label>:703:                                    ; preds = %644
  store %"class.std::__1::unique_ptr.144"* %211, %"class.std::__1::unique_ptr.144"** %124, align 8
  %704 = load %"class.std::__1::unique_ptr.144"*, %"class.std::__1::unique_ptr.144"** %124, align 8
  %705 = getelementptr inbounds %"class.std::__1::unique_ptr.144", %"class.std::__1::unique_ptr.144"* %704, i32 0, i32 0
  store %"class.std::__1::__compressed_pair.145"* %705, %"class.std::__1::__compressed_pair.145"** %123, align 8
  %706 = load %"class.std::__1::__compressed_pair.145"*, %"class.std::__1::__compressed_pair.145"** %123, align 8
  %707 = bitcast %"class.std::__1::__compressed_pair.145"* %706 to %"class.std::__1::__libcpp_compressed_pair_imp.146"*
  store %"class.std::__1::__libcpp_compressed_pair_imp.146"* %707, %"class.std::__1::__libcpp_compressed_pair_imp.146"** %122, align 8
  %708 = load %"class.std::__1::__libcpp_compressed_pair_imp.146"*, %"class.std::__1::__libcpp_compressed_pair_imp.146"** %122, align 8
  %709 = getelementptr inbounds %"class.std::__1::__libcpp_compressed_pair_imp.146", %"class.std::__1::__libcpp_compressed_pair_imp.146"* %708, i32 0, i32 0
  %710 = load %"struct.std::__1::__hash_node.123"*, %"struct.std::__1::__hash_node.123"** %709, align 8
  %711 = bitcast %"struct.std::__1::__hash_node.123"* %710 to %"struct.std::__1::__hash_node_base.15"*
  store %"struct.std::__1::__hash_node_base.15"* %711, %"struct.std::__1::__hash_node_base.15"** %127, align 8
  %712 = load %"struct.std::__1::__hash_node_base.15"*, %"struct.std::__1::__hash_node_base.15"** %127, align 8
  store %"struct.std::__1::__hash_node_base.15"* %712, %"struct.std::__1::__hash_node_base.15"** %126, align 8
  %713 = load %"struct.std::__1::__hash_node_base.15"*, %"struct.std::__1::__hash_node_base.15"** %126, align 8
  store %"struct.std::__1::__hash_node_base.15"* %713, %"struct.std::__1::__hash_node_base.15"** %125, align 8
  %714 = load %"struct.std::__1::__hash_node_base.15"*, %"struct.std::__1::__hash_node_base.15"** %125, align 8
  %715 = bitcast %"struct.std::__1::__hash_node_base.15"* %714 to i8*
  %716 = getelementptr inbounds %"class.std::__1::__hash_table.11", %"class.std::__1::__hash_table.11"* %287, i32 0, i32 0
  store %"class.std::__1::unique_ptr.144"* %211, %"class.std::__1::unique_ptr.144"** %130, align 8
  %717 = load %"class.std::__1::unique_ptr.144"*, %"class.std::__1::unique_ptr.144"** %130, align 8
  %718 = getelementptr inbounds %"class.std::__1::unique_ptr.144", %"class.std::__1::unique_ptr.144"* %717, i32 0, i32 0
  store %"class.std::__1::__compressed_pair.145"* %718, %"class.std::__1::__compressed_pair.145"** %129, align 8
  %719 = load %"class.std::__1::__compressed_pair.145"*, %"class.std::__1::__compressed_pair.145"** %129, align 8
  %720 = bitcast %"class.std::__1::__compressed_pair.145"* %719 to %"class.std::__1::__libcpp_compressed_pair_imp.146"*
  store %"class.std::__1::__libcpp_compressed_pair_imp.146"* %720, %"class.std::__1::__libcpp_compressed_pair_imp.146"** %128, align 8
  %721 = load %"class.std::__1::__libcpp_compressed_pair_imp.146"*, %"class.std::__1::__libcpp_compressed_pair_imp.146"** %128, align 8
  %722 = getelementptr inbounds %"class.std::__1::__libcpp_compressed_pair_imp.146", %"class.std::__1::__libcpp_compressed_pair_imp.146"* %721, i32 0, i32 0
  %723 = load %"struct.std::__1::__hash_node.123"*, %"struct.std::__1::__hash_node.123"** %722, align 8
  %724 = bitcast %"struct.std::__1::__hash_node.123"* %723 to %"struct.std::__1::__hash_node_base.15"*
  %725 = getelementptr inbounds %"struct.std::__1::__hash_node_base.15", %"struct.std::__1::__hash_node_base.15"* %724, i32 0, i32 0
  %726 = load %"struct.std::__1::__hash_node_base.15"*, %"struct.std::__1::__hash_node_base.15"** %725, align 8
  store %"struct.std::__1::__hash_node_base.15"* %726, %"struct.std::__1::__hash_node_base.15"** %131, align 8
  %727 = load %"struct.std::__1::__hash_node_base.15"*, %"struct.std::__1::__hash_node_base.15"** %131, align 8
  %728 = bitcast %"struct.std::__1::__hash_node_base.15"* %727 to %"struct.std::__1::__hash_node.123"*
  %729 = getelementptr inbounds %"struct.std::__1::__hash_node.123", %"struct.std::__1::__hash_node.123"* %728, i32 0, i32 1
  %730 = load i64, i64* %729, align 8
  %731 = load i64, i64* %207, align 8
  store i64 %730, i64* %132, align 8
  store i64 %731, i64* %133, align 8
  %732 = load i64, i64* %133, align 8
  %733 = load i64, i64* %133, align 8
  %734 = sub i64 %733, 1
  %735 = and i64 %732, %734
  %736 = icmp ne i64 %735, 0
  br i1 %736, label %742, label %737

; <label>:737:                                    ; preds = %703
  %738 = load i64, i64* %132, align 8
  %739 = load i64, i64* %133, align 8
  %740 = sub i64 %739, 1
  %741 = and i64 %738, %740
  br label %754

; <label>:742:                                    ; preds = %703
  %743 = load i64, i64* %132, align 8
  %744 = load i64, i64* %133, align 8
  %745 = icmp ult i64 %743, %744
  br i1 %745, label %746, label %748

; <label>:746:                                    ; preds = %742
  %747 = load i64, i64* %132, align 8
  br label %752

; <label>:748:                                    ; preds = %742
  %749 = load i64, i64* %132, align 8
  %750 = load i64, i64* %133, align 8
  %751 = urem i64 %749, %750
  br label %752

; <label>:752:                                    ; preds = %748, %746
  %753 = phi i64 [ %747, %746 ], [ %751, %748 ]
  br label %754

; <label>:754:                                    ; preds = %752, %737
  %755 = phi i64 [ %741, %737 ], [ %753, %752 ]
  store %"class.std::__1::unique_ptr.12"* %716, %"class.std::__1::unique_ptr.12"** %136, align 8
  store i64 %755, i64* %137, align 8
  %756 = load %"class.std::__1::unique_ptr.12"*, %"class.std::__1::unique_ptr.12"** %136, align 8
  %757 = load i64, i64* %137, align 8
  %758 = getelementptr inbounds %"class.std::__1::unique_ptr.12", %"class.std::__1::unique_ptr.12"* %756, i32 0, i32 0
  store %"class.std::__1::__compressed_pair.13"* %758, %"class.std::__1::__compressed_pair.13"** %135, align 8
  %759 = load %"class.std::__1::__compressed_pair.13"*, %"class.std::__1::__compressed_pair.13"** %135, align 8
  %760 = bitcast %"class.std::__1::__compressed_pair.13"* %759 to %"class.std::__1::__libcpp_compressed_pair_imp.14"*
  store %"class.std::__1::__libcpp_compressed_pair_imp.14"* %760, %"class.std::__1::__libcpp_compressed_pair_imp.14"** %134, align 8
  %761 = load %"class.std::__1::__libcpp_compressed_pair_imp.14"*, %"class.std::__1::__libcpp_compressed_pair_imp.14"** %134, align 8
  %762 = getelementptr inbounds %"class.std::__1::__libcpp_compressed_pair_imp.14", %"class.std::__1::__libcpp_compressed_pair_imp.14"* %761, i32 0, i32 0
  %763 = load %"struct.std::__1::__hash_node_base.15"**, %"struct.std::__1::__hash_node_base.15"*** %762, align 8
  %764 = getelementptr inbounds %"struct.std::__1::__hash_node_base.15"*, %"struct.std::__1::__hash_node_base.15"** %763, i64 %757
  store %"struct.std::__1::__hash_node_base.15"* %714, %"struct.std::__1::__hash_node_base.15"** %764, align 8
  br label %765

; <label>:765:                                    ; preds = %754, %644
  br label %789

; <label>:766:                                    ; preds = %629
  %767 = load %"struct.std::__1::__hash_node_base.15"*, %"struct.std::__1::__hash_node_base.15"** %216, align 8
  %768 = getelementptr inbounds %"struct.std::__1::__hash_node_base.15", %"struct.std::__1::__hash_node_base.15"* %767, i32 0, i32 0
  %769 = load %"struct.std::__1::__hash_node_base.15"*, %"struct.std::__1::__hash_node_base.15"** %768, align 8
  store %"class.std::__1::unique_ptr.144"* %211, %"class.std::__1::unique_ptr.144"** %140, align 8
  %770 = load %"class.std::__1::unique_ptr.144"*, %"class.std::__1::unique_ptr.144"** %140, align 8
  %771 = getelementptr inbounds %"class.std::__1::unique_ptr.144", %"class.std::__1::unique_ptr.144"* %770, i32 0, i32 0
  store %"class.std::__1::__compressed_pair.145"* %771, %"class.std::__1::__compressed_pair.145"** %139, align 8
  %772 = load %"class.std::__1::__compressed_pair.145"*, %"class.std::__1::__compressed_pair.145"** %139, align 8
  %773 = bitcast %"class.std::__1::__compressed_pair.145"* %772 to %"class.std::__1::__libcpp_compressed_pair_imp.146"*
  store %"class.std::__1::__libcpp_compressed_pair_imp.146"* %773, %"class.std::__1::__libcpp_compressed_pair_imp.146"** %138, align 8
  %774 = load %"class.std::__1::__libcpp_compressed_pair_imp.146"*, %"class.std::__1::__libcpp_compressed_pair_imp.146"** %138, align 8
  %775 = getelementptr inbounds %"class.std::__1::__libcpp_compressed_pair_imp.146", %"class.std::__1::__libcpp_compressed_pair_imp.146"* %774, i32 0, i32 0
  %776 = load %"struct.std::__1::__hash_node.123"*, %"struct.std::__1::__hash_node.123"** %775, align 8
  %777 = bitcast %"struct.std::__1::__hash_node.123"* %776 to %"struct.std::__1::__hash_node_base.15"*
  %778 = getelementptr inbounds %"struct.std::__1::__hash_node_base.15", %"struct.std::__1::__hash_node_base.15"* %777, i32 0, i32 0
  store %"struct.std::__1::__hash_node_base.15"* %769, %"struct.std::__1::__hash_node_base.15"** %778, align 8
  store %"class.std::__1::unique_ptr.144"* %211, %"class.std::__1::unique_ptr.144"** %143, align 8
  %779 = load %"class.std::__1::unique_ptr.144"*, %"class.std::__1::unique_ptr.144"** %143, align 8
  %780 = getelementptr inbounds %"class.std::__1::unique_ptr.144", %"class.std::__1::unique_ptr.144"* %779, i32 0, i32 0
  store %"class.std::__1::__compressed_pair.145"* %780, %"class.std::__1::__compressed_pair.145"** %142, align 8
  %781 = load %"class.std::__1::__compressed_pair.145"*, %"class.std::__1::__compressed_pair.145"** %142, align 8
  %782 = bitcast %"class.std::__1::__compressed_pair.145"* %781 to %"class.std::__1::__libcpp_compressed_pair_imp.146"*
  store %"class.std::__1::__libcpp_compressed_pair_imp.146"* %782, %"class.std::__1::__libcpp_compressed_pair_imp.146"** %141, align 8
  %783 = load %"class.std::__1::__libcpp_compressed_pair_imp.146"*, %"class.std::__1::__libcpp_compressed_pair_imp.146"** %141, align 8
  %784 = getelementptr inbounds %"class.std::__1::__libcpp_compressed_pair_imp.146", %"class.std::__1::__libcpp_compressed_pair_imp.146"* %783, i32 0, i32 0
  %785 = load %"struct.std::__1::__hash_node.123"*, %"struct.std::__1::__hash_node.123"** %784, align 8
  %786 = bitcast %"struct.std::__1::__hash_node.123"* %785 to %"struct.std::__1::__hash_node_base.15"*
  %787 = load %"struct.std::__1::__hash_node_base.15"*, %"struct.std::__1::__hash_node_base.15"** %216, align 8
  %788 = getelementptr inbounds %"struct.std::__1::__hash_node_base.15", %"struct.std::__1::__hash_node_base.15"* %787, i32 0, i32 0
  store %"struct.std::__1::__hash_node_base.15"* %786, %"struct.std::__1::__hash_node_base.15"** %788, align 8
  br label %789

; <label>:789:                                    ; preds = %766, %765
  store %"class.std::__1::unique_ptr.144"* %211, %"class.std::__1::unique_ptr.144"** %148, align 8
  %790 = load %"class.std::__1::unique_ptr.144"*, %"class.std::__1::unique_ptr.144"** %148, align 8
  %791 = getelementptr inbounds %"class.std::__1::unique_ptr.144", %"class.std::__1::unique_ptr.144"* %790, i32 0, i32 0
  store %"class.std::__1::__compressed_pair.145"* %791, %"class.std::__1::__compressed_pair.145"** %147, align 8
  %792 = load %"class.std::__1::__compressed_pair.145"*, %"class.std::__1::__compressed_pair.145"** %147, align 8
  %793 = bitcast %"class.std::__1::__compressed_pair.145"* %792 to %"class.std::__1::__libcpp_compressed_pair_imp.146"*
  store %"class.std::__1::__libcpp_compressed_pair_imp.146"* %793, %"class.std::__1::__libcpp_compressed_pair_imp.146"** %146, align 8
  %794 = load %"class.std::__1::__libcpp_compressed_pair_imp.146"*, %"class.std::__1::__libcpp_compressed_pair_imp.146"** %146, align 8
  %795 = getelementptr inbounds %"class.std::__1::__libcpp_compressed_pair_imp.146", %"class.std::__1::__libcpp_compressed_pair_imp.146"* %794, i32 0, i32 0
  %796 = load %"struct.std::__1::__hash_node.123"*, %"struct.std::__1::__hash_node.123"** %795, align 8
  store %"struct.std::__1::__hash_node.123"* %796, %"struct.std::__1::__hash_node.123"** %149, align 8
  %797 = getelementptr inbounds %"class.std::__1::unique_ptr.144", %"class.std::__1::unique_ptr.144"* %790, i32 0, i32 0
  store %"class.std::__1::__compressed_pair.145"* %797, %"class.std::__1::__compressed_pair.145"** %145, align 8
  %798 = load %"class.std::__1::__compressed_pair.145"*, %"class.std::__1::__compressed_pair.145"** %145, align 8
  %799 = bitcast %"class.std::__1::__compressed_pair.145"* %798 to %"class.std::__1::__libcpp_compressed_pair_imp.146"*
  store %"class.std::__1::__libcpp_compressed_pair_imp.146"* %799, %"class.std::__1::__libcpp_compressed_pair_imp.146"** %144, align 8
  %800 = load %"class.std::__1::__libcpp_compressed_pair_imp.146"*, %"class.std::__1::__libcpp_compressed_pair_imp.146"** %144, align 8
  %801 = getelementptr inbounds %"class.std::__1::__libcpp_compressed_pair_imp.146", %"class.std::__1::__libcpp_compressed_pair_imp.146"* %800, i32 0, i32 0
  store %"struct.std::__1::__hash_node.123"* null, %"struct.std::__1::__hash_node.123"** %801, align 8
  %802 = load %"struct.std::__1::__hash_node.123"*, %"struct.std::__1::__hash_node.123"** %149, align 8
  %803 = bitcast %"struct.std::__1::__hash_node.123"* %802 to %"struct.std::__1::__hash_node_base.15"*
  store %"struct.std::__1::__hash_node_base.15"* %803, %"struct.std::__1::__hash_node_base.15"** %209, align 8
  store %"class.std::__1::__hash_table.11"* %287, %"class.std::__1::__hash_table.11"** %152, align 8
  %804 = load %"class.std::__1::__hash_table.11"*, %"class.std::__1::__hash_table.11"** %152, align 8
  %805 = getelementptr inbounds %"class.std::__1::__hash_table.11", %"class.std::__1::__hash_table.11"* %804, i32 0, i32 2
  store %"class.std::__1::__compressed_pair.25"* %805, %"class.std::__1::__compressed_pair.25"** %151, align 8
  %806 = load %"class.std::__1::__compressed_pair.25"*, %"class.std::__1::__compressed_pair.25"** %151, align 8
  %807 = bitcast %"class.std::__1::__compressed_pair.25"* %806 to %"class.std::__1::__libcpp_compressed_pair_imp.26"*
  store %"class.std::__1::__libcpp_compressed_pair_imp.26"* %807, %"class.std::__1::__libcpp_compressed_pair_imp.26"** %150, align 8
  %808 = load %"class.std::__1::__libcpp_compressed_pair_imp.26"*, %"class.std::__1::__libcpp_compressed_pair_imp.26"** %150, align 8
  %809 = getelementptr inbounds %"class.std::__1::__libcpp_compressed_pair_imp.26", %"class.std::__1::__libcpp_compressed_pair_imp.26"* %808, i32 0, i32 0
  %810 = load i64, i64* %809, align 8
  %811 = add i64 %810, 1
  store i64 %811, i64* %809, align 8
  store i8 1, i8* %208, align 1
  store %"class.std::__1::unique_ptr.144"* %211, %"class.std::__1::unique_ptr.144"** %184, align 8
  %812 = load %"class.std::__1::unique_ptr.144"*, %"class.std::__1::unique_ptr.144"** %184, align 8
  store %"class.std::__1::unique_ptr.144"* %812, %"class.std::__1::unique_ptr.144"** %183, align 8
  %813 = load %"class.std::__1::unique_ptr.144"*, %"class.std::__1::unique_ptr.144"** %183, align 8
  store %"class.std::__1::unique_ptr.144"* %813, %"class.std::__1::unique_ptr.144"** %180, align 8
  store %"struct.std::__1::__hash_node.123"* null, %"struct.std::__1::__hash_node.123"** %181, align 8
  %814 = load %"class.std::__1::unique_ptr.144"*, %"class.std::__1::unique_ptr.144"** %180, align 8
  %815 = getelementptr inbounds %"class.std::__1::unique_ptr.144", %"class.std::__1::unique_ptr.144"* %814, i32 0, i32 0
  store %"class.std::__1::__compressed_pair.145"* %815, %"class.std::__1::__compressed_pair.145"** %179, align 8
  %816 = load %"class.std::__1::__compressed_pair.145"*, %"class.std::__1::__compressed_pair.145"** %179, align 8
  %817 = bitcast %"class.std::__1::__compressed_pair.145"* %816 to %"class.std::__1::__libcpp_compressed_pair_imp.146"*
  store %"class.std::__1::__libcpp_compressed_pair_imp.146"* %817, %"class.std::__1::__libcpp_compressed_pair_imp.146"** %178, align 8
  %818 = load %"class.std::__1::__libcpp_compressed_pair_imp.146"*, %"class.std::__1::__libcpp_compressed_pair_imp.146"** %178, align 8
  %819 = getelementptr inbounds %"class.std::__1::__libcpp_compressed_pair_imp.146", %"class.std::__1::__libcpp_compressed_pair_imp.146"* %818, i32 0, i32 0
  %820 = load %"struct.std::__1::__hash_node.123"*, %"struct.std::__1::__hash_node.123"** %819, align 8
  store %"struct.std::__1::__hash_node.123"* %820, %"struct.std::__1::__hash_node.123"** %182, align 8
  %821 = load %"struct.std::__1::__hash_node.123"*, %"struct.std::__1::__hash_node.123"** %181, align 8
  %822 = getelementptr inbounds %"class.std::__1::unique_ptr.144", %"class.std::__1::unique_ptr.144"* %814, i32 0, i32 0
  store %"class.std::__1::__compressed_pair.145"* %822, %"class.std::__1::__compressed_pair.145"** %160, align 8
  %823 = load %"class.std::__1::__compressed_pair.145"*, %"class.std::__1::__compressed_pair.145"** %160, align 8
  %824 = bitcast %"class.std::__1::__compressed_pair.145"* %823 to %"class.std::__1::__libcpp_compressed_pair_imp.146"*
  store %"class.std::__1::__libcpp_compressed_pair_imp.146"* %824, %"class.std::__1::__libcpp_compressed_pair_imp.146"** %159, align 8
  %825 = load %"class.std::__1::__libcpp_compressed_pair_imp.146"*, %"class.std::__1::__libcpp_compressed_pair_imp.146"** %159, align 8
  %826 = getelementptr inbounds %"class.std::__1::__libcpp_compressed_pair_imp.146", %"class.std::__1::__libcpp_compressed_pair_imp.146"* %825, i32 0, i32 0
  store %"struct.std::__1::__hash_node.123"* %821, %"struct.std::__1::__hash_node.123"** %826, align 8
  %827 = load %"struct.std::__1::__hash_node.123"*, %"struct.std::__1::__hash_node.123"** %182, align 8
  %828 = icmp ne %"struct.std::__1::__hash_node.123"* %827, null
  br i1 %828, label %829, label %868

; <label>:829:                                    ; preds = %789
  %830 = getelementptr inbounds %"class.std::__1::unique_ptr.144", %"class.std::__1::unique_ptr.144"* %814, i32 0, i32 0
  store %"class.std::__1::__compressed_pair.145"* %830, %"class.std::__1::__compressed_pair.145"** %158, align 8
  %831 = load %"class.std::__1::__compressed_pair.145"*, %"class.std::__1::__compressed_pair.145"** %158, align 8
  %832 = bitcast %"class.std::__1::__compressed_pair.145"* %831 to %"class.std::__1::__libcpp_compressed_pair_imp.146"*
  store %"class.std::__1::__libcpp_compressed_pair_imp.146"* %832, %"class.std::__1::__libcpp_compressed_pair_imp.146"** %157, align 8
  %833 = load %"class.std::__1::__libcpp_compressed_pair_imp.146"*, %"class.std::__1::__libcpp_compressed_pair_imp.146"** %157, align 8
  %834 = getelementptr inbounds %"class.std::__1::__libcpp_compressed_pair_imp.146", %"class.std::__1::__libcpp_compressed_pair_imp.146"* %833, i32 0, i32 1
  %835 = load %"struct.std::__1::__hash_node.123"*, %"struct.std::__1::__hash_node.123"** %182, align 8
  store %"class.std::__1::__hash_node_destructor.147"* %834, %"class.std::__1::__hash_node_destructor.147"** %176, align 8
  store %"struct.std::__1::__hash_node.123"* %835, %"struct.std::__1::__hash_node.123"** %177, align 8
  %836 = load %"class.std::__1::__hash_node_destructor.147"*, %"class.std::__1::__hash_node_destructor.147"** %176, align 8
  %837 = getelementptr inbounds %"class.std::__1::__hash_node_destructor.147", %"class.std::__1::__hash_node_destructor.147"* %836, i32 0, i32 1
  %838 = load i8, i8* %837, align 8
  %839 = trunc i8 %838 to i1
  br i1 %839, label %840, label %853

; <label>:840:                                    ; preds = %829
  %841 = getelementptr inbounds %"class.std::__1::__hash_node_destructor.147", %"class.std::__1::__hash_node_destructor.147"* %836, i32 0, i32 0
  %842 = load %"class.std::__1::allocator.23"*, %"class.std::__1::allocator.23"** %841, align 8
  %843 = load %"struct.std::__1::__hash_node.123"*, %"struct.std::__1::__hash_node.123"** %177, align 8
  %844 = getelementptr inbounds %"struct.std::__1::__hash_node.123", %"struct.std::__1::__hash_node.123"* %843, i32 0, i32 2
  store %"union.std::__1::__hash_value_type.124"* %844, %"union.std::__1::__hash_value_type.124"** %175, align 8
  %845 = load %"union.std::__1::__hash_value_type.124"*, %"union.std::__1::__hash_value_type.124"** %175, align 8
  %846 = bitcast %"union.std::__1::__hash_value_type.124"* %845 to %"struct.std::__1::pair.125"*
  store %"struct.std::__1::pair.125"* %846, %"struct.std::__1::pair.125"** %174, align 8
  %847 = load %"struct.std::__1::pair.125"*, %"struct.std::__1::pair.125"** %174, align 8
  %848 = bitcast %"struct.std::__1::pair.125"* %847 to i8*
  store %"class.std::__1::allocator.23"* %842, %"class.std::__1::allocator.23"** %170, align 8
  store %"struct.std::__1::pair.125"* %847, %"struct.std::__1::pair.125"** %171, align 8
  %849 = bitcast %"struct.std::__1::__has_destroy.127"* %173 to %"struct.std::__1::integral_constant"*
  %850 = load %"class.std::__1::allocator.23"*, %"class.std::__1::allocator.23"** %170, align 8
  %851 = load %"struct.std::__1::pair.125"*, %"struct.std::__1::pair.125"** %171, align 8
  store %"class.std::__1::allocator.23"* %850, %"class.std::__1::allocator.23"** %168, align 8
  store %"struct.std::__1::pair.125"* %851, %"struct.std::__1::pair.125"** %169, align 8
  %852 = load %"struct.std::__1::pair.125"*, %"struct.std::__1::pair.125"** %169, align 8
  br label %853

; <label>:853:                                    ; preds = %840, %829
  %854 = load %"struct.std::__1::__hash_node.123"*, %"struct.std::__1::__hash_node.123"** %177, align 8
  %855 = icmp ne %"struct.std::__1::__hash_node.123"* %854, null
  br i1 %855, label %856, label %867

; <label>:856:                                    ; preds = %853
  %857 = getelementptr inbounds %"class.std::__1::__hash_node_destructor.147", %"class.std::__1::__hash_node_destructor.147"* %836, i32 0, i32 0
  %858 = load %"class.std::__1::allocator.23"*, %"class.std::__1::allocator.23"** %857, align 8
  %859 = load %"struct.std::__1::__hash_node.123"*, %"struct.std::__1::__hash_node.123"** %177, align 8
  store %"class.std::__1::allocator.23"* %858, %"class.std::__1::allocator.23"** %165, align 8
  store %"struct.std::__1::__hash_node.123"* %859, %"struct.std::__1::__hash_node.123"** %166, align 8
  store i64 1, i64* %167, align 8
  %860 = load %"class.std::__1::allocator.23"*, %"class.std::__1::allocator.23"** %165, align 8
  %861 = load %"struct.std::__1::__hash_node.123"*, %"struct.std::__1::__hash_node.123"** %166, align 8
  %862 = load i64, i64* %167, align 8
  store %"class.std::__1::allocator.23"* %860, %"class.std::__1::allocator.23"** %162, align 8
  store %"struct.std::__1::__hash_node.123"* %861, %"struct.std::__1::__hash_node.123"** %163, align 8
  store i64 %862, i64* %164, align 8
  %863 = load %"class.std::__1::allocator.23"*, %"class.std::__1::allocator.23"** %162, align 8
  %864 = load %"struct.std::__1::__hash_node.123"*, %"struct.std::__1::__hash_node.123"** %163, align 8
  %865 = bitcast %"struct.std::__1::__hash_node.123"* %864 to i8*
  store i8* %865, i8** %161, align 8
  %866 = load i8*, i8** %161, align 8
  call void @_ZdlPv(i8* %866) #14
  br label %867

; <label>:867:                                    ; preds = %856, %853
  br label %868

; <label>:868:                                    ; preds = %867, %789
  br label %869

; <label>:869:                                    ; preds = %429, %868
  %870 = load %"struct.std::__1::__hash_node_base.15"*, %"struct.std::__1::__hash_node_base.15"** %209, align 8
  store %"class.std::__1::__hash_iterator.139"* %217, %"class.std::__1::__hash_iterator.139"** %187, align 8
  store %"struct.std::__1::__hash_node_base.15"* %870, %"struct.std::__1::__hash_node_base.15"** %188, align 8
  %871 = load %"class.std::__1::__hash_iterator.139"*, %"class.std::__1::__hash_iterator.139"** %187, align 8
  %872 = load %"struct.std::__1::__hash_node_base.15"*, %"struct.std::__1::__hash_node_base.15"** %188, align 8
  store %"class.std::__1::__hash_iterator.139"* %871, %"class.std::__1::__hash_iterator.139"** %185, align 8
  store %"struct.std::__1::__hash_node_base.15"* %872, %"struct.std::__1::__hash_node_base.15"** %186, align 8
  %873 = load %"class.std::__1::__hash_iterator.139"*, %"class.std::__1::__hash_iterator.139"** %185, align 8
  %874 = getelementptr inbounds %"class.std::__1::__hash_iterator.139", %"class.std::__1::__hash_iterator.139"* %873, i32 0, i32 0
  %875 = load %"struct.std::__1::__hash_node_base.15"*, %"struct.std::__1::__hash_node_base.15"** %186, align 8
  store %"struct.std::__1::__hash_node_base.15"* %875, %"struct.std::__1::__hash_node_base.15"** %874, align 8
  store %"struct.std::__1::pair.138"* %200, %"struct.std::__1::pair.138"** %194, align 8
  store %"class.std::__1::__hash_iterator.139"* %217, %"class.std::__1::__hash_iterator.139"** %195, align 8
  store i8* %208, i8** %196, align 8
  %876 = load %"struct.std::__1::pair.138"*, %"struct.std::__1::pair.138"** %194, align 8
  %877 = load %"class.std::__1::__hash_iterator.139"*, %"class.std::__1::__hash_iterator.139"** %195, align 8
  %878 = load i8*, i8** %196, align 8
  store %"struct.std::__1::pair.138"* %876, %"struct.std::__1::pair.138"** %191, align 8
  store %"class.std::__1::__hash_iterator.139"* %877, %"class.std::__1::__hash_iterator.139"** %192, align 8
  store i8* %878, i8** %193, align 8
  %879 = load %"struct.std::__1::pair.138"*, %"struct.std::__1::pair.138"** %191, align 8
  %880 = getelementptr inbounds %"struct.std::__1::pair.138", %"struct.std::__1::pair.138"* %879, i32 0, i32 0
  %881 = load %"class.std::__1::__hash_iterator.139"*, %"class.std::__1::__hash_iterator.139"** %192, align 8
  store %"class.std::__1::__hash_iterator.139"* %881, %"class.std::__1::__hash_iterator.139"** %190, align 8
  %882 = load %"class.std::__1::__hash_iterator.139"*, %"class.std::__1::__hash_iterator.139"** %190, align 8
  %883 = bitcast %"class.std::__1::__hash_iterator.139"* %880 to i8*
  %884 = bitcast %"class.std::__1::__hash_iterator.139"* %882 to i8*
  call void @llvm.memcpy.p0i8.p0i8.i64(i8* %883, i8* %884, i64 8, i32 8, i1 false) #2
  %885 = getelementptr inbounds %"struct.std::__1::pair.138", %"struct.std::__1::pair.138"* %879, i32 0, i32 1
  %886 = load i8*, i8** %193, align 8
  store i8* %886, i8** %189, align 8
  %887 = load i8*, i8** %189, align 8
  %888 = load i8, i8* %887, align 1
  %889 = trunc i8 %888 to i1
  %890 = zext i1 %889 to i8
  store i8 %890, i8* %885, align 8
  %891 = bitcast %"struct.std::__1::pair.138"* %200 to { %"struct.std::__1::__hash_node_base.15"*, i8 }*
  %892 = load { %"struct.std::__1::__hash_node_base.15"*, i8 }, { %"struct.std::__1::__hash_node_base.15"*, i8 }* %891, align 8
  %893 = bitcast %"struct.std::__1::pair.138"* %256 to { %"struct.std::__1::__hash_node_base.15"*, i8 }*
  %894 = getelementptr inbounds { %"struct.std::__1::__hash_node_base.15"*, i8 }, { %"struct.std::__1::__hash_node_base.15"*, i8 }* %893, i32 0, i32 0
  %895 = extractvalue { %"struct.std::__1::__hash_node_base.15"*, i8 } %892, 0
  store %"struct.std::__1::__hash_node_base.15"* %895, %"struct.std::__1::__hash_node_base.15"** %894, align 8
  %896 = getelementptr inbounds { %"struct.std::__1::__hash_node_base.15"*, i8 }, { %"struct.std::__1::__hash_node_base.15"*, i8 }* %893, i32 0, i32 1
  %897 = extractvalue { %"struct.std::__1::__hash_node_base.15"*, i8 } %892, 1
  store i8 %897, i8* %896, align 8
  %898 = getelementptr inbounds %"struct.std::__1::pair.138", %"struct.std::__1::pair.138"* %256, i32 0, i32 0
  store %"class.std::__1::__hash_iterator.139"* %898, %"class.std::__1::__hash_iterator.139"** %223, align 8
  %899 = load %"class.std::__1::__hash_iterator.139"*, %"class.std::__1::__hash_iterator.139"** %223, align 8
  %900 = getelementptr inbounds %"class.std::__1::__hash_iterator.139", %"class.std::__1::__hash_iterator.139"* %899, i32 0, i32 0
  %901 = load %"struct.std::__1::__hash_node_base.15"*, %"struct.std::__1::__hash_node_base.15"** %900, align 8
  store %"struct.std::__1::__hash_node_base.15"* %901, %"struct.std::__1::__hash_node_base.15"** %222, align 8
  %902 = load %"struct.std::__1::__hash_node_base.15"*, %"struct.std::__1::__hash_node_base.15"** %222, align 8
  store %"struct.std::__1::__hash_node_base.15"* %902, %"struct.std::__1::__hash_node_base.15"** %221, align 8
  %903 = load %"struct.std::__1::__hash_node_base.15"*, %"struct.std::__1::__hash_node_base.15"** %221, align 8
  store %"struct.std::__1::__hash_node_base.15"* %903, %"struct.std::__1::__hash_node_base.15"** %220, align 8
  %904 = load %"struct.std::__1::__hash_node_base.15"*, %"struct.std::__1::__hash_node_base.15"** %220, align 8
  %905 = bitcast %"struct.std::__1::__hash_node_base.15"* %904 to i8*
  %906 = bitcast %"struct.std::__1::__hash_node_base.15"* %904 to %"struct.std::__1::__hash_node.123"*
  %907 = getelementptr inbounds %"struct.std::__1::__hash_node.123", %"struct.std::__1::__hash_node.123"* %906, i32 0, i32 2
  store %"union.std::__1::__hash_value_type.124"* %907, %"union.std::__1::__hash_value_type.124"** %219, align 8
  %908 = load %"union.std::__1::__hash_value_type.124"*, %"union.std::__1::__hash_value_type.124"** %219, align 8
  store %"union.std::__1::__hash_value_type.124"* %908, %"union.std::__1::__hash_value_type.124"** %218, align 8
  %909 = load %"union.std::__1::__hash_value_type.124"*, %"union.std::__1::__hash_value_type.124"** %218, align 8
  %910 = bitcast %"union.std::__1::__hash_value_type.124"* %909 to i8*
  %911 = bitcast %"union.std::__1::__hash_value_type.124"* %909 to %"struct.std::__1::pair.125"*
  %912 = getelementptr inbounds %"struct.std::__1::pair.125", %"struct.std::__1::pair.125"* %911, i32 0, i32 1
  ret %"class.llvm::StructType"** %912
}

; Function Attrs: ssp uwtable
define linkonce_odr %"class.llvm::PointerType"* @_ZN4llvm13IRBuilderBase12getInt8PtrTyEj(%"class.llvm::IRBuilderBase"*, i32) #0 align 2 {
  %3 = alloca %"class.llvm::IRBuilderBase"*, align 8
  %4 = alloca i32, align 4
  store %"class.llvm::IRBuilderBase"* %0, %"class.llvm::IRBuilderBase"** %3, align 8
  store i32 %1, i32* %4, align 4
  %5 = load %"class.llvm::IRBuilderBase"*, %"class.llvm::IRBuilderBase"** %3, align 8
  %6 = getelementptr inbounds %"class.llvm::IRBuilderBase", %"class.llvm::IRBuilderBase"* %5, i32 0, i32 3
  %7 = load %"class.llvm::LLVMContext"*, %"class.llvm::LLVMContext"** %6, align 8
  %8 = load i32, i32* %4, align 4
  %9 = call %"class.llvm::PointerType"* @_ZN4llvm4Type12getInt8PtrTyERNS_11LLVMContextEj(%"class.llvm::LLVMContext"* dereferenceable(8) %7, i32 %8)
  ret %"class.llvm::PointerType"* %9
}

declare %"class.llvm::PointerType"* @_ZN4llvm4Type12getInt8PtrTyERNS_11LLVMContextEj(%"class.llvm::LLVMContext"* dereferenceable(8), i32) #3

; Function Attrs: ssp uwtable
define linkonce_odr void @_ZNSt3__16vectorIPN4llvm4TypeENS_9allocatorIS3_EEE7reserveEm(%"class.std::__1::vector.78"*, i64) #0 align 2 personality i8* bitcast (i32 (...)* @__gxx_personality_v0 to i8*) {
  %3 = alloca %"class.std::__1::vector.78"*, align 8
  %4 = alloca %"class.std::__1::__libcpp_compressed_pair_imp.81"*, align 8
  %5 = alloca %"class.std::__1::__compressed_pair.80"*, align 8
  %6 = alloca %"class.std::__1::__vector_base.79"*, align 8
  %7 = alloca %"class.std::__1::__libcpp_compressed_pair_imp.81"*, align 8
  %8 = alloca %"class.std::__1::__compressed_pair.80"*, align 8
  %9 = alloca %"class.std::__1::__vector_base.79"*, align 8
  %10 = alloca %"class.std::__1::__vector_base.79"*, align 8
  %11 = alloca %"class.std::__1::vector.78"*, align 8
  %12 = alloca %"class.std::__1::vector.78"*, align 8
  %13 = alloca i64, align 8
  %14 = alloca %"class.std::__1::allocator.82"*, align 8
  %15 = alloca %"struct.std::__1::__split_buffer", align 8
  %16 = alloca i8*
  %17 = alloca i32
  store %"class.std::__1::vector.78"* %0, %"class.std::__1::vector.78"** %12, align 8
  store i64 %1, i64* %13, align 8
  %18 = load %"class.std::__1::vector.78"*, %"class.std::__1::vector.78"** %12, align 8
  %19 = load i64, i64* %13, align 8
  store %"class.std::__1::vector.78"* %18, %"class.std::__1::vector.78"** %11, align 8
  %20 = load %"class.std::__1::vector.78"*, %"class.std::__1::vector.78"** %11, align 8
  %21 = bitcast %"class.std::__1::vector.78"* %20 to %"class.std::__1::__vector_base.79"*
  store %"class.std::__1::__vector_base.79"* %21, %"class.std::__1::__vector_base.79"** %10, align 8
  %22 = load %"class.std::__1::__vector_base.79"*, %"class.std::__1::__vector_base.79"** %10, align 8
  store %"class.std::__1::__vector_base.79"* %22, %"class.std::__1::__vector_base.79"** %9, align 8
  %23 = load %"class.std::__1::__vector_base.79"*, %"class.std::__1::__vector_base.79"** %9, align 8
  %24 = getelementptr inbounds %"class.std::__1::__vector_base.79", %"class.std::__1::__vector_base.79"* %23, i32 0, i32 2
  store %"class.std::__1::__compressed_pair.80"* %24, %"class.std::__1::__compressed_pair.80"** %8, align 8
  %25 = load %"class.std::__1::__compressed_pair.80"*, %"class.std::__1::__compressed_pair.80"** %8, align 8
  %26 = bitcast %"class.std::__1::__compressed_pair.80"* %25 to %"class.std::__1::__libcpp_compressed_pair_imp.81"*
  store %"class.std::__1::__libcpp_compressed_pair_imp.81"* %26, %"class.std::__1::__libcpp_compressed_pair_imp.81"** %7, align 8
  %27 = load %"class.std::__1::__libcpp_compressed_pair_imp.81"*, %"class.std::__1::__libcpp_compressed_pair_imp.81"** %7, align 8
  %28 = getelementptr inbounds %"class.std::__1::__libcpp_compressed_pair_imp.81", %"class.std::__1::__libcpp_compressed_pair_imp.81"* %27, i32 0, i32 0
  %29 = load %"class.llvm::Type"**, %"class.llvm::Type"*** %28, align 8
  %30 = getelementptr inbounds %"class.std::__1::__vector_base.79", %"class.std::__1::__vector_base.79"* %22, i32 0, i32 0
  %31 = load %"class.llvm::Type"**, %"class.llvm::Type"*** %30, align 8
  %32 = ptrtoint %"class.llvm::Type"** %29 to i64
  %33 = ptrtoint %"class.llvm::Type"** %31 to i64
  %34 = sub i64 %32, %33
  %35 = sdiv exact i64 %34, 8
  %36 = icmp ugt i64 %19, %35
  br i1 %36, label %37, label %63

; <label>:37:                                     ; preds = %2
  %38 = bitcast %"class.std::__1::vector.78"* %18 to %"class.std::__1::__vector_base.79"*
  store %"class.std::__1::__vector_base.79"* %38, %"class.std::__1::__vector_base.79"** %6, align 8
  %39 = load %"class.std::__1::__vector_base.79"*, %"class.std::__1::__vector_base.79"** %6, align 8
  %40 = getelementptr inbounds %"class.std::__1::__vector_base.79", %"class.std::__1::__vector_base.79"* %39, i32 0, i32 2
  store %"class.std::__1::__compressed_pair.80"* %40, %"class.std::__1::__compressed_pair.80"** %5, align 8
  %41 = load %"class.std::__1::__compressed_pair.80"*, %"class.std::__1::__compressed_pair.80"** %5, align 8
  %42 = bitcast %"class.std::__1::__compressed_pair.80"* %41 to %"class.std::__1::__libcpp_compressed_pair_imp.81"*
  store %"class.std::__1::__libcpp_compressed_pair_imp.81"* %42, %"class.std::__1::__libcpp_compressed_pair_imp.81"** %4, align 8
  %43 = load %"class.std::__1::__libcpp_compressed_pair_imp.81"*, %"class.std::__1::__libcpp_compressed_pair_imp.81"** %4, align 8
  %44 = bitcast %"class.std::__1::__libcpp_compressed_pair_imp.81"* %43 to %"class.std::__1::allocator.82"*
  store %"class.std::__1::allocator.82"* %44, %"class.std::__1::allocator.82"** %14, align 8
  %45 = load i64, i64* %13, align 8
  store %"class.std::__1::vector.78"* %18, %"class.std::__1::vector.78"** %3, align 8
  %46 = load %"class.std::__1::vector.78"*, %"class.std::__1::vector.78"** %3, align 8
  %47 = bitcast %"class.std::__1::vector.78"* %46 to %"class.std::__1::__vector_base.79"*
  %48 = getelementptr inbounds %"class.std::__1::__vector_base.79", %"class.std::__1::__vector_base.79"* %47, i32 0, i32 1
  %49 = load %"class.llvm::Type"**, %"class.llvm::Type"*** %48, align 8
  %50 = bitcast %"class.std::__1::vector.78"* %46 to %"class.std::__1::__vector_base.79"*
  %51 = getelementptr inbounds %"class.std::__1::__vector_base.79", %"class.std::__1::__vector_base.79"* %50, i32 0, i32 0
  %52 = load %"class.llvm::Type"**, %"class.llvm::Type"*** %51, align 8
  %53 = ptrtoint %"class.llvm::Type"** %49 to i64
  %54 = ptrtoint %"class.llvm::Type"** %52 to i64
  %55 = sub i64 %53, %54
  %56 = sdiv exact i64 %55, 8
  %57 = load %"class.std::__1::allocator.82"*, %"class.std::__1::allocator.82"** %14, align 8
  call void @_ZNSt3__114__split_bufferIPN4llvm4TypeERNS_9allocatorIS3_EEEC1EmmS6_(%"struct.std::__1::__split_buffer"* %15, i64 %45, i64 %56, %"class.std::__1::allocator.82"* dereferenceable(1) %57)
  invoke void @_ZNSt3__16vectorIPN4llvm4TypeENS_9allocatorIS3_EEE26__swap_out_circular_bufferERNS_14__split_bufferIS3_RS5_EE(%"class.std::__1::vector.78"* %18, %"struct.std::__1::__split_buffer"* dereferenceable(40) %15)
          to label %58 unwind label %59

; <label>:58:                                     ; preds = %37
  call void @_ZNSt3__114__split_bufferIPN4llvm4TypeERNS_9allocatorIS3_EEED1Ev(%"struct.std::__1::__split_buffer"* %15) #2
  br label %63

; <label>:59:                                     ; preds = %37
  %60 = landingpad { i8*, i32 }
          cleanup
  %61 = extractvalue { i8*, i32 } %60, 0
  store i8* %61, i8** %16, align 8
  %62 = extractvalue { i8*, i32 } %60, 1
  store i32 %62, i32* %17, align 4
  call void @_ZNSt3__114__split_bufferIPN4llvm4TypeERNS_9allocatorIS3_EEED1Ev(%"struct.std::__1::__split_buffer"* %15) #2
  br label %64

; <label>:63:                                     ; preds = %58, %2
  ret void

; <label>:64:                                     ; preds = %59
  %65 = load i8*, i8** %16, align 8
  %66 = load i32, i32* %17, align 4
  %67 = insertvalue { i8*, i32 } undef, i8* %65, 0
  %68 = insertvalue { i8*, i32 } %67, i32 %66, 1
  resume { i8*, i32 } %68
}

declare i32 @__gxx_personality_v0(...)

; Function Attrs: inlinehint nounwind ssp uwtable
define linkonce_odr void @_ZNSt3__16vectorIPN4llvm4TypeENS_9allocatorIS3_EEED1Ev(%"class.std::__1::vector.78"*) unnamed_addr #1 align 2 {
  %2 = alloca %"class.std::__1::vector.78"*, align 8
  store %"class.std::__1::vector.78"* %0, %"class.std::__1::vector.78"** %2, align 8
  %3 = load %"class.std::__1::vector.78"*, %"class.std::__1::vector.78"** %2, align 8
  call void @_ZNSt3__16vectorIPN4llvm4TypeENS_9allocatorIS3_EEED2Ev(%"class.std::__1::vector.78"* %3) #2
  ret void
}

declare %"class.llvm::IntegerType"* @_ZN4llvm4Type9getInt8TyERNS_11LLVMContextE(%"class.llvm::LLVMContext"* dereferenceable(8)) #3

declare %"class.llvm::IntegerType"* @_ZN4llvm4Type10getInt16TyERNS_11LLVMContextE(%"class.llvm::LLVMContext"* dereferenceable(8)) #3

declare %"class.llvm::IntegerType"* @_ZN4llvm4Type10getInt32TyERNS_11LLVMContextE(%"class.llvm::LLVMContext"* dereferenceable(8)) #3

declare %"class.llvm::IntegerType"* @_ZN4llvm4Type10getInt64TyERNS_11LLVMContextE(%"class.llvm::LLVMContext"* dereferenceable(8)) #3

declare %"class.llvm::Type"* @_ZN4llvm4Type10getFloatTyERNS_11LLVMContextE(%"class.llvm::LLVMContext"* dereferenceable(8)) #3

declare %"class.llvm::Type"* @_ZN4llvm4Type11getDoubleTyERNS_11LLVMContextE(%"class.llvm::LLVMContext"* dereferenceable(8)) #3

declare %"class.llvm::IntegerType"* @_ZN4llvm4Type9getInt1TyERNS_11LLVMContextE(%"class.llvm::LLVMContext"* dereferenceable(8)) #3

declare %"class.llvm::Type"* @_ZN4llvm4Type9getVoidTyERNS_11LLVMContextE(%"class.llvm::LLVMContext"* dereferenceable(8)) #3

; Function Attrs: ssp uwtable
define linkonce_odr dereferenceable(8) %"class.llvm::StructType"** @_ZNSt3__113unordered_mapINS_12basic_stringIcNS_11char_traitsIcEENS_9allocatorIcEEEEPN4llvm10StructTypeENS_4hashIS6_EENS_8equal_toIS6_EENS4_INS_4pairIKS6_S9_EEEEEixERSF_(%"class.std::__1::unordered_map"*, %"class.std::__1::basic_string"* dereferenceable(24)) #0 align 2 personality i32 (...)* @__gxx_personality_v0 {
  %3 = alloca %"class.std::__1::tuple.131"*, align 8
  %4 = alloca %"class.std::__1::tuple.131"*, align 8
  %5 = alloca %"class.std::__1::tuple.131", align 1
  %6 = alloca i8*, align 8
  %7 = alloca %"class.std::__1::__libcpp_compressed_pair_imp.37"*, align 8
  %8 = alloca %"class.std::__1::__compressed_pair.36"*, align 8
  %9 = alloca %"class.std::__1::basic_string"*, align 8
  %10 = alloca i8*, align 8
  %11 = alloca i8*, align 8
  %12 = alloca %"class.std::__1::__libcpp_compressed_pair_imp.37"*, align 8
  %13 = alloca %"class.std::__1::__compressed_pair.36"*, align 8
  %14 = alloca %"class.std::__1::basic_string"*, align 8
  %15 = alloca %"class.std::__1::__libcpp_compressed_pair_imp.37"*, align 8
  %16 = alloca %"class.std::__1::__compressed_pair.36"*, align 8
  %17 = alloca %"class.std::__1::basic_string"*, align 8
  %18 = alloca %"class.std::__1::basic_string"*, align 8
  %19 = alloca %"class.std::__1::basic_string"*, align 8
  %20 = alloca %"class.std::__1::__libcpp_compressed_pair_imp.37"*, align 8
  %21 = alloca %"class.std::__1::__compressed_pair.36"*, align 8
  %22 = alloca %"class.std::__1::basic_string"*, align 8
  %23 = alloca i8*, align 8
  %24 = alloca %"class.std::__1::__libcpp_compressed_pair_imp.37"*, align 8
  %25 = alloca %"class.std::__1::__compressed_pair.36"*, align 8
  %26 = alloca %"class.std::__1::basic_string"*, align 8
  %27 = alloca i8*, align 8
  %28 = alloca i8*, align 8
  %29 = alloca %"class.std::__1::__libcpp_compressed_pair_imp.37"*, align 8
  %30 = alloca %"class.std::__1::__compressed_pair.36"*, align 8
  %31 = alloca %"class.std::__1::basic_string"*, align 8
  %32 = alloca %"class.std::__1::__libcpp_compressed_pair_imp.37"*, align 8
  %33 = alloca %"class.std::__1::__compressed_pair.36"*, align 8
  %34 = alloca %"class.std::__1::basic_string"*, align 8
  %35 = alloca %"class.std::__1::basic_string"*, align 8
  %36 = alloca %"class.std::__1::basic_string"*, align 8
  %37 = alloca %"class.std::__1::__libcpp_compressed_pair_imp.37"*, align 8
  %38 = alloca %"class.std::__1::__compressed_pair.36"*, align 8
  %39 = alloca %"class.std::__1::basic_string"*, align 8
  %40 = alloca %"class.std::__1::__libcpp_compressed_pair_imp.37"*, align 8
  %41 = alloca %"class.std::__1::__compressed_pair.36"*, align 8
  %42 = alloca %"class.std::__1::basic_string"*, align 8
  %43 = alloca %"class.std::__1::__libcpp_compressed_pair_imp.37"*, align 8
  %44 = alloca %"class.std::__1::__compressed_pair.36"*, align 8
  %45 = alloca %"class.std::__1::basic_string"*, align 8
  %46 = alloca %"class.std::__1::basic_string"*, align 8
  %47 = alloca %"class.std::__1::__libcpp_compressed_pair_imp.37"*, align 8
  %48 = alloca %"class.std::__1::__compressed_pair.36"*, align 8
  %49 = alloca %"class.std::__1::basic_string"*, align 8
  %50 = alloca %"class.std::__1::__libcpp_compressed_pair_imp.37"*, align 8
  %51 = alloca %"class.std::__1::__compressed_pair.36"*, align 8
  %52 = alloca %"class.std::__1::basic_string"*, align 8
  %53 = alloca %"class.std::__1::__libcpp_compressed_pair_imp.37"*, align 8
  %54 = alloca %"class.std::__1::__compressed_pair.36"*, align 8
  %55 = alloca %"class.std::__1::basic_string"*, align 8
  %56 = alloca %"class.std::__1::basic_string"*, align 8
  %57 = alloca i1, align 1
  %58 = alloca %"class.std::__1::basic_string"*, align 8
  %59 = alloca %"class.std::__1::basic_string"*, align 8
  %60 = alloca i64, align 8
  %61 = alloca i8*, align 8
  %62 = alloca i8*, align 8
  %63 = alloca %"struct.std::__1::equal_to"*, align 8
  %64 = alloca %"class.std::__1::basic_string"*, align 8
  %65 = alloca %"class.std::__1::basic_string"*, align 8
  %66 = alloca %"class.std::__1::__unordered_map_equal"*, align 8
  %67 = alloca %"union.std::__1::__hash_value_type"*, align 8
  %68 = alloca %"class.std::__1::basic_string"*, align 8
  %69 = alloca %"struct.std::__1::piecewise_construct_t"*, align 8
  %70 = alloca %"class.std::__1::tuple"*, align 8
  %71 = alloca %"class.std::__1::tuple.131"*, align 8
  %72 = alloca %"struct.std::__1::__hash_node_base"*, align 8
  %73 = alloca %"struct.std::__1::__hash_node_base"*, align 8
  %74 = alloca %"struct.std::__1::__hash_node_base"*, align 8
  %75 = alloca %"class.std::__1::__libcpp_compressed_pair_imp.7"*, align 8
  %76 = alloca %"class.std::__1::__compressed_pair.6"*, align 8
  %77 = alloca %"class.std::__1::__hash_table"*, align 8
  %78 = alloca %"class.std::__1::__libcpp_compressed_pair_imp.9"*, align 8
  %79 = alloca %"class.std::__1::__compressed_pair.8"*, align 8
  %80 = alloca %"class.std::__1::__hash_table"*, align 8
  %81 = alloca i64, align 8
  %82 = alloca %"class.std::__1::__libcpp_compressed_pair_imp.7"*, align 8
  %83 = alloca %"class.std::__1::__compressed_pair.6"*, align 8
  %84 = alloca %"class.std::__1::__hash_table"*, align 8
  %85 = alloca %"class.std::__1::__libcpp_compressed_pair_imp.9"*, align 8
  %86 = alloca %"class.std::__1::__compressed_pair.8"*, align 8
  %87 = alloca %"class.std::__1::__hash_table"*, align 8
  %88 = alloca %"class.std::__1::__libcpp_compressed_pair_imp.9"*, align 8
  %89 = alloca %"class.std::__1::__compressed_pair.8"*, align 8
  %90 = alloca %"class.std::__1::__hash_table"*, align 8
  %91 = alloca float, align 4
  %92 = alloca %"struct.std::__1::__less"*, align 8
  %93 = alloca i64*, align 8
  %94 = alloca i64*, align 8
  %95 = alloca %"struct.std::__1::__less", align 1
  %96 = alloca i64*, align 8
  %97 = alloca i64*, align 8
  %98 = alloca i64*, align 8
  %99 = alloca i64*, align 8
  %100 = alloca %"struct.std::__1::__less", align 1
  %101 = alloca i64, align 8
  %102 = alloca i64, align 8
  %103 = alloca %"class.std::__1::__libcpp_compressed_pair_imp.1"*, align 8
  %104 = alloca %"class.std::__1::__compressed_pair.0"*, align 8
  %105 = alloca %"class.std::__1::__bucket_list_deallocator"*, align 8
  %106 = alloca %"class.std::__1::__libcpp_compressed_pair_imp"*, align 8
  %107 = alloca %"class.std::__1::__compressed_pair"*, align 8
  %108 = alloca %"class.std::__1::unique_ptr"*, align 8
  %109 = alloca %"class.std::__1::__hash_table"*, align 8
  %110 = alloca i64, align 8
  %111 = alloca i64, align 8
  %112 = alloca %"struct.std::__1::__hash_node_base"*, align 8
  %113 = alloca %"class.std::__1::__libcpp_compressed_pair_imp"*, align 8
  %114 = alloca %"class.std::__1::__compressed_pair"*, align 8
  %115 = alloca %"class.std::__1::unique_ptr"*, align 8
  %116 = alloca i64, align 8
  %117 = alloca %"class.std::__1::__libcpp_compressed_pair_imp.134"*, align 8
  %118 = alloca %"class.std::__1::__compressed_pair.133"*, align 8
  %119 = alloca %"class.std::__1::__libcpp_compressed_pair_imp.134"*, align 8
  %120 = alloca %"class.std::__1::__compressed_pair.133"*, align 8
  %121 = alloca i8*, align 8
  %122 = alloca %"class.std::__1::allocator.4"*, align 8
  %123 = alloca %"struct.std::__1::__hash_node"*, align 8
  %124 = alloca i64, align 8
  %125 = alloca %"class.std::__1::allocator.4"*, align 8
  %126 = alloca %"struct.std::__1::__hash_node"*, align 8
  %127 = alloca i64, align 8
  %128 = alloca %"class.std::__1::allocator.4"*, align 8
  %129 = alloca %"struct.std::__1::pair"*, align 8
  %130 = alloca %"class.std::__1::allocator.4"*, align 8
  %131 = alloca %"struct.std::__1::pair"*, align 8
  %132 = alloca %"struct.std::__1::integral_constant", align 1
  %133 = alloca %"struct.std::__1::__has_destroy", align 1
  %134 = alloca %"struct.std::__1::pair"*, align 8
  %135 = alloca %"union.std::__1::__hash_value_type"*, align 8
  %136 = alloca %"class.std::__1::__hash_node_destructor"*, align 8
  %137 = alloca %"struct.std::__1::__hash_node"*, align 8
  %138 = alloca %"class.std::__1::__libcpp_compressed_pair_imp.134"*, align 8
  %139 = alloca %"class.std::__1::__compressed_pair.133"*, align 8
  %140 = alloca %"class.std::__1::unique_ptr.132"*, align 8
  %141 = alloca %"struct.std::__1::__hash_node"*, align 8
  %142 = alloca %"struct.std::__1::__hash_node"*, align 8
  %143 = alloca %"class.std::__1::unique_ptr.132"*, align 8
  %144 = alloca %"class.std::__1::unique_ptr.132"*, align 8
  %145 = alloca %"class.std::__1::__libcpp_compressed_pair_imp"*, align 8
  %146 = alloca %"class.std::__1::__compressed_pair"*, align 8
  %147 = alloca %"class.std::__1::unique_ptr"*, align 8
  %148 = alloca i64, align 8
  %149 = alloca %"class.std::__1::__libcpp_compressed_pair_imp.3"*, align 8
  %150 = alloca %"class.std::__1::__compressed_pair.2"*, align 8
  %151 = alloca %"struct.std::__1::__hash_node_base"*, align 8
  %152 = alloca %"struct.std::__1::__hash_node_base"*, align 8
  %153 = alloca %"struct.std::__1::__hash_node_base"*, align 8
  %154 = alloca %"class.std::__1::__libcpp_compressed_pair_imp.134"*, align 8
  %155 = alloca %"class.std::__1::__compressed_pair.133"*, align 8
  %156 = alloca %"class.std::__1::unique_ptr.132"*, align 8
  %157 = alloca %"class.std::__1::__libcpp_compressed_pair_imp.134"*, align 8
  %158 = alloca %"class.std::__1::__compressed_pair.133"*, align 8
  %159 = alloca %"class.std::__1::unique_ptr.132"*, align 8
  %160 = alloca %"struct.std::__1::__hash_node_base"*, align 8
  %161 = alloca %"struct.std::__1::__hash_node_base"*, align 8
  %162 = alloca %"struct.std::__1::__hash_node_base"*, align 8
  %163 = alloca %"class.std::__1::__libcpp_compressed_pair_imp"*, align 8
  %164 = alloca %"class.std::__1::__compressed_pair"*, align 8
  %165 = alloca %"class.std::__1::unique_ptr"*, align 8
  %166 = alloca i64, align 8
  %167 = alloca %"class.std::__1::__libcpp_compressed_pair_imp.134"*, align 8
  %168 = alloca %"class.std::__1::__compressed_pair.133"*, align 8
  %169 = alloca %"class.std::__1::unique_ptr.132"*, align 8
  %170 = alloca %"class.std::__1::__libcpp_compressed_pair_imp.134"*, align 8
  %171 = alloca %"class.std::__1::__compressed_pair.133"*, align 8
  %172 = alloca %"class.std::__1::unique_ptr.132"*, align 8
  %173 = alloca %"struct.std::__1::__hash_node_base"*, align 8
  %174 = alloca %"struct.std::__1::__hash_node_base"*, align 8
  %175 = alloca %"struct.std::__1::__hash_node_base"*, align 8
  %176 = alloca %"class.std::__1::__libcpp_compressed_pair_imp.134"*, align 8
  %177 = alloca %"class.std::__1::__compressed_pair.133"*, align 8
  %178 = alloca %"class.std::__1::unique_ptr.132"*, align 8
  %179 = alloca %"struct.std::__1::__hash_node_base"*, align 8
  %180 = alloca i64, align 8
  %181 = alloca i64, align 8
  %182 = alloca %"class.std::__1::__libcpp_compressed_pair_imp"*, align 8
  %183 = alloca %"class.std::__1::__compressed_pair"*, align 8
  %184 = alloca %"class.std::__1::unique_ptr"*, align 8
  %185 = alloca i64, align 8
  %186 = alloca %"class.std::__1::__libcpp_compressed_pair_imp.134"*, align 8
  %187 = alloca %"class.std::__1::__compressed_pair.133"*, align 8
  %188 = alloca %"class.std::__1::unique_ptr.132"*, align 8
  %189 = alloca %"class.std::__1::__libcpp_compressed_pair_imp.134"*, align 8
  %190 = alloca %"class.std::__1::__compressed_pair.133"*, align 8
  %191 = alloca %"class.std::__1::unique_ptr.132"*, align 8
  %192 = alloca %"class.std::__1::__libcpp_compressed_pair_imp.134"*, align 8
  %193 = alloca %"class.std::__1::__compressed_pair.133"*, align 8
  %194 = alloca %"class.std::__1::__libcpp_compressed_pair_imp.134"*, align 8
  %195 = alloca %"class.std::__1::__compressed_pair.133"*, align 8
  %196 = alloca %"class.std::__1::unique_ptr.132"*, align 8
  %197 = alloca %"struct.std::__1::__hash_node"*, align 8
  %198 = alloca %"class.std::__1::__libcpp_compressed_pair_imp.7"*, align 8
  %199 = alloca %"class.std::__1::__compressed_pair.6"*, align 8
  %200 = alloca %"class.std::__1::__hash_table"*, align 8
  %201 = alloca i64, align 8
  %202 = alloca i64, align 8
  %203 = alloca %"class.std::__1::__libcpp_compressed_pair_imp.1"*, align 8
  %204 = alloca %"class.std::__1::__compressed_pair.0"*, align 8
  %205 = alloca %"class.std::__1::__bucket_list_deallocator"*, align 8
  %206 = alloca %"class.std::__1::__libcpp_compressed_pair_imp"*, align 8
  %207 = alloca %"class.std::__1::__compressed_pair"*, align 8
  %208 = alloca %"class.std::__1::unique_ptr"*, align 8
  %209 = alloca %"class.std::__1::__hash_table"*, align 8
  %210 = alloca %"class.std::__1::__unordered_map_hasher"*, align 8
  %211 = alloca %"class.std::__1::basic_string"*, align 8
  %212 = alloca %"class.std::__1::__libcpp_compressed_pair_imp.134"*, align 8
  %213 = alloca %"class.std::__1::__compressed_pair.133"*, align 8
  %214 = alloca %"class.std::__1::__libcpp_compressed_pair_imp.134"*, align 8
  %215 = alloca %"class.std::__1::__compressed_pair.133"*, align 8
  %216 = alloca i8*, align 8
  %217 = alloca %"class.std::__1::allocator.4"*, align 8
  %218 = alloca %"struct.std::__1::__hash_node"*, align 8
  %219 = alloca i64, align 8
  %220 = alloca %"class.std::__1::allocator.4"*, align 8
  %221 = alloca %"struct.std::__1::__hash_node"*, align 8
  %222 = alloca i64, align 8
  %223 = alloca %"class.std::__1::allocator.4"*, align 8
  %224 = alloca %"struct.std::__1::pair"*, align 8
  %225 = alloca %"class.std::__1::allocator.4"*, align 8
  %226 = alloca %"struct.std::__1::pair"*, align 8
  %227 = alloca %"struct.std::__1::integral_constant", align 1
  %228 = alloca %"struct.std::__1::__has_destroy", align 1
  %229 = alloca %"struct.std::__1::pair"*, align 8
  %230 = alloca %"union.std::__1::__hash_value_type"*, align 8
  %231 = alloca %"class.std::__1::__hash_node_destructor"*, align 8
  %232 = alloca %"struct.std::__1::__hash_node"*, align 8
  %233 = alloca %"class.std::__1::__libcpp_compressed_pair_imp.134"*, align 8
  %234 = alloca %"class.std::__1::__compressed_pair.133"*, align 8
  %235 = alloca %"class.std::__1::unique_ptr.132"*, align 8
  %236 = alloca %"struct.std::__1::__hash_node"*, align 8
  %237 = alloca %"struct.std::__1::__hash_node"*, align 8
  %238 = alloca %"class.std::__1::unique_ptr.132"*, align 8
  %239 = alloca %"class.std::__1::unique_ptr.132"*, align 8
  %240 = alloca %"class.std::__1::__hash_iterator"*, align 8
  %241 = alloca %"struct.std::__1::__hash_node_base"*, align 8
  %242 = alloca %"class.std::__1::__hash_iterator"*, align 8
  %243 = alloca %"struct.std::__1::__hash_node_base"*, align 8
  %244 = alloca i8*, align 8
  %245 = alloca %"class.std::__1::__hash_iterator"*, align 8
  %246 = alloca %"struct.std::__1::pair.130"*, align 8
  %247 = alloca %"class.std::__1::__hash_iterator"*, align 8
  %248 = alloca i8*, align 8
  %249 = alloca %"struct.std::__1::pair.130"*, align 8
  %250 = alloca %"class.std::__1::__hash_iterator"*, align 8
  %251 = alloca i8*, align 8
  %252 = alloca %"class.std::__1::__libcpp_compressed_pair_imp.7"*, align 8
  %253 = alloca %"class.std::__1::__compressed_pair.6"*, align 8
  %254 = alloca %"class.std::__1::__hash_table"*, align 8
  %255 = alloca %"struct.std::__1::pair.130", align 8
  %256 = alloca %"class.std::__1::__hash_table"*, align 8
  %257 = alloca %"class.std::__1::basic_string"*, align 8
  %258 = alloca %"struct.std::__1::piecewise_construct_t"*, align 8
  %259 = alloca %"class.std::__1::tuple"*, align 8
  %260 = alloca %"class.std::__1::tuple.131"*, align 8
  %261 = alloca i64, align 8
  %262 = alloca i64, align 8
  %263 = alloca i8, align 1
  %264 = alloca %"struct.std::__1::__hash_node_base"*, align 8
  %265 = alloca i64, align 8
  %266 = alloca %"class.std::__1::unique_ptr.132", align 8
  %267 = alloca i64, align 8
  %268 = alloca i8*
  %269 = alloca i32
  %270 = alloca i64, align 8
  %271 = alloca %"struct.std::__1::__hash_node_base"*, align 8
  %272 = alloca %"class.std::__1::__hash_iterator", align 8
  %273 = alloca %"union.std::__1::__hash_value_type"*, align 8
  %274 = alloca %"union.std::__1::__hash_value_type"*, align 8
  %275 = alloca %"struct.std::__1::__hash_node_base"*, align 8
  %276 = alloca %"struct.std::__1::__hash_node_base"*, align 8
  %277 = alloca %"struct.std::__1::__hash_node_base"*, align 8
  %278 = alloca %"class.std::__1::__hash_iterator"*, align 8
  %279 = alloca %"class.std::__1::basic_string"*, align 8
  %280 = alloca %"class.std::__1::__tuple_leaf"*, align 8
  %281 = alloca %"class.std::__1::basic_string"*, align 8
  %282 = alloca %"class.std::__1::basic_string"*, align 8
  %283 = alloca %"struct.std::__1::__tuple_indices", align 1
  %284 = alloca %"struct.std::__1::__tuple_types", align 1
  %285 = alloca %"struct.std::__1::__tuple_indices.136", align 1
  %286 = alloca %"struct.std::__1::__tuple_types.137", align 1
  %287 = alloca %"struct.std::__1::__tuple_impl"*, align 8
  %288 = alloca %"class.std::__1::basic_string"*, align 8
  %289 = alloca %"struct.std::__1::__tuple_indices", align 1
  %290 = alloca %"struct.std::__1::__tuple_types", align 1
  %291 = alloca %"struct.std::__1::__tuple_indices.136", align 1
  %292 = alloca %"struct.std::__1::__tuple_types.137", align 1
  %293 = alloca %"struct.std::__1::__tuple_impl"*, align 8
  %294 = alloca %"class.std::__1::basic_string"*, align 8
  %295 = alloca %"class.std::__1::tuple"*, align 8
  %296 = alloca %"class.std::__1::basic_string"*, align 8
  %297 = alloca %"struct.std::__1::__tuple_indices", align 1
  %298 = alloca %"struct.std::__1::__tuple_types", align 1
  %299 = alloca %"struct.std::__1::__tuple_indices.136", align 1
  %300 = alloca %"struct.std::__1::__tuple_types.137", align 1
  %301 = alloca %"class.std::__1::tuple"*, align 8
  %302 = alloca %"class.std::__1::basic_string"*, align 8
  %303 = alloca %"class.std::__1::basic_string"*, align 8
  %304 = alloca %"class.std::__1::tuple", align 8
  %305 = alloca %"class.std::__1::basic_string"*, align 8
  %306 = alloca %"class.std::__1::unordered_map"*, align 8
  %307 = alloca %"class.std::__1::basic_string"*, align 8
  %308 = alloca %"class.std::__1::tuple", align 8
  %309 = alloca %"class.std::__1::tuple.131", align 1
  %310 = alloca %"class.std::__1::tuple.131", align 1
  %311 = alloca %"struct.std::__1::pair.130", align 8
  store %"class.std::__1::unordered_map"* %0, %"class.std::__1::unordered_map"** %306, align 8
  store %"class.std::__1::basic_string"* %1, %"class.std::__1::basic_string"** %307, align 8
  %312 = load %"class.std::__1::unordered_map"*, %"class.std::__1::unordered_map"** %306, align 8
  %313 = getelementptr inbounds %"class.std::__1::unordered_map", %"class.std::__1::unordered_map"* %312, i32 0, i32 0
  %314 = load %"class.std::__1::basic_string"*, %"class.std::__1::basic_string"** %307, align 8
  %315 = load %"class.std::__1::basic_string"*, %"class.std::__1::basic_string"** %307, align 8
  store %"class.std::__1::basic_string"* %315, %"class.std::__1::basic_string"** %305, align 8
  %316 = load %"class.std::__1::basic_string"*, %"class.std::__1::basic_string"** %305, align 8
  store %"class.std::__1::basic_string"* %316, %"class.std::__1::basic_string"** %303, align 8
  %317 = load %"class.std::__1::basic_string"*, %"class.std::__1::basic_string"** %303, align 8
  store %"class.std::__1::tuple"* %304, %"class.std::__1::tuple"** %301, align 8
  store %"class.std::__1::basic_string"* %317, %"class.std::__1::basic_string"** %302, align 8
  %318 = load %"class.std::__1::tuple"*, %"class.std::__1::tuple"** %301, align 8
  %319 = load %"class.std::__1::basic_string"*, %"class.std::__1::basic_string"** %302, align 8
  store %"class.std::__1::tuple"* %318, %"class.std::__1::tuple"** %295, align 8
  store %"class.std::__1::basic_string"* %319, %"class.std::__1::basic_string"** %296, align 8
  %320 = load %"class.std::__1::tuple"*, %"class.std::__1::tuple"** %295, align 8
  %321 = getelementptr inbounds %"class.std::__1::tuple", %"class.std::__1::tuple"* %320, i32 0, i32 0
  %322 = load %"class.std::__1::basic_string"*, %"class.std::__1::basic_string"** %296, align 8
  store %"struct.std::__1::__tuple_impl"* %321, %"struct.std::__1::__tuple_impl"** %293, align 8
  store %"class.std::__1::basic_string"* %322, %"class.std::__1::basic_string"** %294, align 8
  %323 = load %"struct.std::__1::__tuple_impl"*, %"struct.std::__1::__tuple_impl"** %293, align 8
  %324 = load %"class.std::__1::basic_string"*, %"class.std::__1::basic_string"** %294, align 8
  store %"struct.std::__1::__tuple_impl"* %323, %"struct.std::__1::__tuple_impl"** %287, align 8
  store %"class.std::__1::basic_string"* %324, %"class.std::__1::basic_string"** %288, align 8
  %325 = load %"struct.std::__1::__tuple_impl"*, %"struct.std::__1::__tuple_impl"** %287, align 8
  %326 = bitcast %"struct.std::__1::__tuple_impl"* %325 to %"class.std::__1::__tuple_leaf"*
  %327 = load %"class.std::__1::basic_string"*, %"class.std::__1::basic_string"** %288, align 8
  store %"class.std::__1::basic_string"* %327, %"class.std::__1::basic_string"** %282, align 8
  %328 = load %"class.std::__1::basic_string"*, %"class.std::__1::basic_string"** %282, align 8
  store %"class.std::__1::__tuple_leaf"* %326, %"class.std::__1::__tuple_leaf"** %280, align 8
  store %"class.std::__1::basic_string"* %328, %"class.std::__1::basic_string"** %281, align 8
  %329 = load %"class.std::__1::__tuple_leaf"*, %"class.std::__1::__tuple_leaf"** %280, align 8
  %330 = getelementptr inbounds %"class.std::__1::__tuple_leaf", %"class.std::__1::__tuple_leaf"* %329, i32 0, i32 0
  %331 = load %"class.std::__1::basic_string"*, %"class.std::__1::basic_string"** %281, align 8
  store %"class.std::__1::basic_string"* %331, %"class.std::__1::basic_string"** %279, align 8
  %332 = load %"class.std::__1::basic_string"*, %"class.std::__1::basic_string"** %279, align 8
  store %"class.std::__1::basic_string"* %332, %"class.std::__1::basic_string"** %330, align 8
  %333 = getelementptr inbounds %"class.std::__1::tuple", %"class.std::__1::tuple"* %304, i32 0, i32 0
  %334 = getelementptr inbounds %"struct.std::__1::__tuple_impl", %"struct.std::__1::__tuple_impl"* %333, i32 0, i32 0
  %335 = getelementptr inbounds %"class.std::__1::__tuple_leaf", %"class.std::__1::__tuple_leaf"* %334, i32 0, i32 0
  %336 = load %"class.std::__1::basic_string"*, %"class.std::__1::basic_string"** %335, align 8
  %337 = getelementptr inbounds %"class.std::__1::tuple", %"class.std::__1::tuple"* %308, i32 0, i32 0
  %338 = getelementptr inbounds %"struct.std::__1::__tuple_impl", %"struct.std::__1::__tuple_impl"* %337, i32 0, i32 0
  %339 = getelementptr inbounds %"class.std::__1::__tuple_leaf", %"class.std::__1::__tuple_leaf"* %338, i32 0, i32 0
  store %"class.std::__1::basic_string"* %336, %"class.std::__1::basic_string"** %339, align 8
  store %"class.std::__1::tuple.131"* %5, %"class.std::__1::tuple.131"** %4, align 8
  %340 = load %"class.std::__1::tuple.131"*, %"class.std::__1::tuple.131"** %4, align 8
  store %"class.std::__1::tuple.131"* %340, %"class.std::__1::tuple.131"** %3, align 8
  %341 = load %"class.std::__1::tuple.131"*, %"class.std::__1::tuple.131"** %3, align 8
  store %"class.std::__1::__hash_table"* %313, %"class.std::__1::__hash_table"** %256, align 8
  store %"class.std::__1::basic_string"* %314, %"class.std::__1::basic_string"** %257, align 8
  store %"struct.std::__1::piecewise_construct_t"* @_ZNSt3__1L19piecewise_constructE, %"struct.std::__1::piecewise_construct_t"** %258, align 8
  store %"class.std::__1::tuple"* %308, %"class.std::__1::tuple"** %259, align 8
  store %"class.std::__1::tuple.131"* %309, %"class.std::__1::tuple.131"** %260, align 8
  %342 = load %"class.std::__1::__hash_table"*, %"class.std::__1::__hash_table"** %256, align 8
  store %"class.std::__1::__hash_table"* %342, %"class.std::__1::__hash_table"** %254, align 8
  %343 = load %"class.std::__1::__hash_table"*, %"class.std::__1::__hash_table"** %254, align 8
  %344 = getelementptr inbounds %"class.std::__1::__hash_table", %"class.std::__1::__hash_table"* %343, i32 0, i32 2
  store %"class.std::__1::__compressed_pair.6"* %344, %"class.std::__1::__compressed_pair.6"** %253, align 8
  %345 = load %"class.std::__1::__compressed_pair.6"*, %"class.std::__1::__compressed_pair.6"** %253, align 8
  %346 = bitcast %"class.std::__1::__compressed_pair.6"* %345 to %"class.std::__1::__libcpp_compressed_pair_imp.7"*
  store %"class.std::__1::__libcpp_compressed_pair_imp.7"* %346, %"class.std::__1::__libcpp_compressed_pair_imp.7"** %252, align 8
  %347 = load %"class.std::__1::__libcpp_compressed_pair_imp.7"*, %"class.std::__1::__libcpp_compressed_pair_imp.7"** %252, align 8
  %348 = bitcast %"class.std::__1::__libcpp_compressed_pair_imp.7"* %347 to %"class.std::__1::__unordered_map_hasher"*
  %349 = load %"class.std::__1::basic_string"*, %"class.std::__1::basic_string"** %257, align 8
  store %"class.std::__1::__unordered_map_hasher"* %348, %"class.std::__1::__unordered_map_hasher"** %210, align 8
  store %"class.std::__1::basic_string"* %349, %"class.std::__1::basic_string"** %211, align 8
  %350 = load %"class.std::__1::__unordered_map_hasher"*, %"class.std::__1::__unordered_map_hasher"** %210, align 8
  %351 = bitcast %"class.std::__1::__unordered_map_hasher"* %350 to %"struct.std::__1::hash"*
  %352 = load %"class.std::__1::basic_string"*, %"class.std::__1::basic_string"** %211, align 8
  %353 = call i64 @_ZNKSt3__14hashINS_12basic_stringIcNS_11char_traitsIcEENS_9allocatorIcEEEEEclERKS6_(%"struct.std::__1::hash"* %351, %"class.std::__1::basic_string"* dereferenceable(24) %352) #2
  store i64 %353, i64* %261, align 8
  store %"class.std::__1::__hash_table"* %342, %"class.std::__1::__hash_table"** %209, align 8
  %354 = load %"class.std::__1::__hash_table"*, %"class.std::__1::__hash_table"** %209, align 8
  %355 = getelementptr inbounds %"class.std::__1::__hash_table", %"class.std::__1::__hash_table"* %354, i32 0, i32 0
  store %"class.std::__1::unique_ptr"* %355, %"class.std::__1::unique_ptr"** %208, align 8
  %356 = load %"class.std::__1::unique_ptr"*, %"class.std::__1::unique_ptr"** %208, align 8
  %357 = getelementptr inbounds %"class.std::__1::unique_ptr", %"class.std::__1::unique_ptr"* %356, i32 0, i32 0
  store %"class.std::__1::__compressed_pair"* %357, %"class.std::__1::__compressed_pair"** %207, align 8
  %358 = load %"class.std::__1::__compressed_pair"*, %"class.std::__1::__compressed_pair"** %207, align 8
  %359 = bitcast %"class.std::__1::__compressed_pair"* %358 to %"class.std::__1::__libcpp_compressed_pair_imp"*
  store %"class.std::__1::__libcpp_compressed_pair_imp"* %359, %"class.std::__1::__libcpp_compressed_pair_imp"** %206, align 8
  %360 = load %"class.std::__1::__libcpp_compressed_pair_imp"*, %"class.std::__1::__libcpp_compressed_pair_imp"** %206, align 8
  %361 = getelementptr inbounds %"class.std::__1::__libcpp_compressed_pair_imp", %"class.std::__1::__libcpp_compressed_pair_imp"* %360, i32 0, i32 1
  store %"class.std::__1::__bucket_list_deallocator"* %361, %"class.std::__1::__bucket_list_deallocator"** %205, align 8
  %362 = load %"class.std::__1::__bucket_list_deallocator"*, %"class.std::__1::__bucket_list_deallocator"** %205, align 8
  %363 = getelementptr inbounds %"class.std::__1::__bucket_list_deallocator", %"class.std::__1::__bucket_list_deallocator"* %362, i32 0, i32 0
  store %"class.std::__1::__compressed_pair.0"* %363, %"class.std::__1::__compressed_pair.0"** %204, align 8
  %364 = load %"class.std::__1::__compressed_pair.0"*, %"class.std::__1::__compressed_pair.0"** %204, align 8
  %365 = bitcast %"class.std::__1::__compressed_pair.0"* %364 to %"class.std::__1::__libcpp_compressed_pair_imp.1"*
  store %"class.std::__1::__libcpp_compressed_pair_imp.1"* %365, %"class.std::__1::__libcpp_compressed_pair_imp.1"** %203, align 8
  %366 = load %"class.std::__1::__libcpp_compressed_pair_imp.1"*, %"class.std::__1::__libcpp_compressed_pair_imp.1"** %203, align 8
