; ModuleID = '/Users/Jonas/CLionProjects/HackerRank/XtremeJonasScript/src/AST/Visitor/CodeGen/Internal/CGInternal.cpp'
source_filename = "/Users/Jonas/CLionProjects/HackerRank/XtremeJonasScript/src/AST/Visitor/CodeGen/Internal/CGInternal.cpp"
target datalayout = "e-m:o-i64:64-f80:128-n8:16:32:64-S128"
target triple = "x86_64-apple-macosx10.12.0"

%"class.llvm::LLVMContext" = type { %"class.llvm::LLVMContextImpl"* }
%"class.llvm::LLVMContextImpl" = type opaque
%"class.std::__1::unique_ptr.209" = type { %"class.std::__1::__compressed_pair.210" }
%"class.std::__1::__compressed_pair.210" = type { %"class.std::__1::__libcpp_compressed_pair_imp.211" }
%"class.std::__1::__libcpp_compressed_pair_imp.211" = type { %"class.llvm::Module"* }
%"class.llvm::Module" = type opaque
%"class.llvm::IRBuilder" = type <{ %"class.llvm::IRBuilderBase", %"class.llvm::ConstantFolder", [7 x i8] }>
%"class.llvm::IRBuilderBase" = type { %"class.llvm::DebugLoc", %"class.llvm::BasicBlock"*, %"class.llvm::ilist_iterator", %"class.llvm::LLVMContext"*, %"class.llvm::MDNode"*, %"class.llvm::FastMathFlags", %"class.llvm::ArrayRef.217" }
%"class.llvm::DebugLoc" = type { %"class.llvm::TypedTrackingMDRef" }
%"class.llvm::TypedTrackingMDRef" = type { %"class.llvm::TrackingMDRef" }
%"class.llvm::TrackingMDRef" = type { %"class.llvm::Metadata"* }
%"class.llvm::Metadata" = type { i8, i8, i16, i32 }
%"class.llvm::BasicBlock" = type { %"class.llvm::Value", %"class.llvm::ilist_node_with_parent", %"class.llvm::SymbolTableList.20", %"class.llvm::Function"* }
%"class.llvm::Value" = type { i32 (...)**, %"class.llvm::Type"*, %"class.llvm::Use"*, i8, i8, i16, i32 }
%"class.llvm::Type" = type { %"class.llvm::LLVMContext"*, i32, i32, %"class.llvm::Type"** }
%"class.llvm::Use" = type { %"class.llvm::Value"*, %"class.llvm::Use"*, %"class.llvm::PointerIntPair" }
%"class.llvm::PointerIntPair" = type { i64 }
%"class.llvm::ilist_node_with_parent" = type { %"class.llvm::ilist_node.19" }
%"class.llvm::ilist_node.19" = type { %"class.llvm::ilist_node_impl.0" }
%"class.llvm::ilist_node_impl.0" = type { %"class.llvm::ilist_node_base" }
%"class.llvm::ilist_node_base" = type { %"class.llvm::ilist_node_base"*, %"class.llvm::ilist_node_base"* }
%"class.llvm::SymbolTableList.20" = type { %"class.llvm::iplist_impl.21" }
%"class.llvm::iplist_impl.21" = type { %"class.llvm::simple_ilist.24" }
%"class.llvm::simple_ilist.24" = type { %"class.llvm::ilist_sentinel.26" }
%"class.llvm::ilist_sentinel.26" = type { %"class.llvm::ilist_node_impl.27" }
%"class.llvm::ilist_node_impl.27" = type { %"class.llvm::ilist_node_base" }
%"class.llvm::Function" = type { %"class.llvm::GlobalObject", %"class.llvm::ilist_node", %"class.llvm::SymbolTableList", %"class.llvm::SymbolTableList.1", %"class.std::__1::unique_ptr", %"class.llvm::AttributeSet" }
%"class.llvm::GlobalObject" = type { %"class.llvm::GlobalValue", %"class.llvm::Comdat"* }
%"class.llvm::GlobalValue" = type { %"class.llvm::Constant", %"class.llvm::Type"*, i32, i32, %"class.llvm::Module"* }
%"class.llvm::Constant" = type { %"class.llvm::User" }
%"class.llvm::User" = type { %"class.llvm::Value" }
%"class.llvm::Comdat" = type opaque
%"class.llvm::ilist_node" = type { %"class.llvm::ilist_node_impl" }
%"class.llvm::ilist_node_impl" = type { %"class.llvm::ilist_node_base" }
%"class.llvm::SymbolTableList" = type { %"class.llvm::iplist_impl" }
%"class.llvm::iplist_impl" = type { %"class.llvm::simple_ilist" }
%"class.llvm::simple_ilist" = type { %"class.llvm::ilist_sentinel" }
%"class.llvm::ilist_sentinel" = type { %"class.llvm::ilist_node_impl.0" }
%"class.llvm::SymbolTableList.1" = type { %"class.llvm::iplist_impl.2" }
%"class.llvm::iplist_impl.2" = type { %"class.llvm::simple_ilist.5" }
%"class.llvm::simple_ilist.5" = type { %"class.llvm::ilist_sentinel.7" }
%"class.llvm::ilist_sentinel.7" = type { %"class.llvm::ilist_node_impl.8" }
%"class.llvm::ilist_node_impl.8" = type { %"class.llvm::ilist_node_base" }
%"class.std::__1::unique_ptr" = type { %"class.std::__1::__compressed_pair" }
%"class.std::__1::__compressed_pair" = type { %"class.std::__1::__libcpp_compressed_pair_imp" }
%"class.std::__1::__libcpp_compressed_pair_imp" = type { %"class.llvm::ValueSymbolTable"* }
%"class.llvm::ValueSymbolTable" = type opaque
%"class.llvm::AttributeSet" = type { %"class.llvm::AttributeSetImpl"* }
%"class.llvm::AttributeSetImpl" = type opaque
%"class.llvm::ilist_iterator" = type { %"class.llvm::ilist_node_impl.27"* }
%"class.llvm::MDNode" = type { %"class.llvm::Metadata", i32, i32, %"class.llvm::ContextAndReplaceableUses" }
%"class.llvm::ContextAndReplaceableUses" = type { %"class.llvm::PointerUnion" }
%"class.llvm::PointerUnion" = type { %"class.llvm::PointerIntPair.216" }
%"class.llvm::PointerIntPair.216" = type { i64 }
%"class.llvm::FastMathFlags" = type { i32 }
%"class.llvm::ArrayRef.217" = type { %"class.llvm::OperandBundleDefT"*, i64 }
%"class.llvm::OperandBundleDefT" = type { %"class.std::__1::basic_string", %"class.std::__1::vector.218" }
%"class.std::__1::basic_string" = type { %"class.std::__1::__compressed_pair.163" }
%"class.std::__1::__compressed_pair.163" = type { %"class.std::__1::__libcpp_compressed_pair_imp.164" }
%"class.std::__1::__libcpp_compressed_pair_imp.164" = type { %"struct.std::__1::basic_string<char, std::__1::char_traits<char>, std::__1::allocator<char> >::__rep" }
%"struct.std::__1::basic_string<char, std::__1::char_traits<char>, std::__1::allocator<char> >::__rep" = type { %union.anon.167 }
%union.anon.167 = type { %"struct.std::__1::basic_string<char, std::__1::char_traits<char>, std::__1::allocator<char> >::__long" }
%"struct.std::__1::basic_string<char, std::__1::char_traits<char>, std::__1::allocator<char> >::__long" = type { i64, i64, i8* }
%"class.std::__1::vector.218" = type { %"class.std::__1::__vector_base.219" }
%"class.std::__1::__vector_base.219" = type { %"class.llvm::Value"**, %"class.llvm::Value"**, %"class.std::__1::__compressed_pair.220" }
%"class.std::__1::__compressed_pair.220" = type { %"class.std::__1::__libcpp_compressed_pair_imp.221" }
%"class.std::__1::__libcpp_compressed_pair_imp.221" = type { %"class.llvm::Value"** }
%"class.llvm::ConstantFolder" = type { i8 }
%"class.std::__1::unordered_map.139" = type { %"class.std::__1::__hash_table.140" }
%"class.std::__1::__hash_table.140" = type <{ %"class.std::__1::unique_ptr.141", %"class.std::__1::__compressed_pair.150", %"class.std::__1::__compressed_pair.154", %"class.std::__1::__compressed_pair.157", [4 x i8] }>
%"class.std::__1::unique_ptr.141" = type { %"class.std::__1::__compressed_pair.142" }
%"class.std::__1::__compressed_pair.142" = type { %"class.std::__1::__libcpp_compressed_pair_imp.143" }
%"class.std::__1::__libcpp_compressed_pair_imp.143" = type { %"struct.std::__1::__hash_node_base.144"**, %"class.std::__1::__bucket_list_deallocator.145" }
%"struct.std::__1::__hash_node_base.144" = type { %"struct.std::__1::__hash_node_base.144"* }
%"class.std::__1::__bucket_list_deallocator.145" = type { %"class.std::__1::__compressed_pair.146" }
%"class.std::__1::__compressed_pair.146" = type { %"class.std::__1::__libcpp_compressed_pair_imp.147" }
%"class.std::__1::__libcpp_compressed_pair_imp.147" = type { i64 }
%"class.std::__1::__compressed_pair.150" = type { %"class.std::__1::__libcpp_compressed_pair_imp.151" }
%"class.std::__1::__libcpp_compressed_pair_imp.151" = type { %"struct.std::__1::__hash_node_base.144" }
%"class.std::__1::__compressed_pair.154" = type { %"class.std::__1::__libcpp_compressed_pair_imp.155" }
%"class.std::__1::__libcpp_compressed_pair_imp.155" = type { i64 }
%"class.std::__1::__compressed_pair.157" = type { %"class.std::__1::__libcpp_compressed_pair_imp.158" }
%"class.std::__1::__libcpp_compressed_pair_imp.158" = type { float }
%"struct.std::__1::piecewise_construct_t" = type { i8 }
%class.InternalClass = type { %class.CodeGenVisitor*, i8, %"class.llvm::StructType"*, %"class.std::__1::basic_string", %"class.std::__1::unordered_map.173", %"class.std::__1::map" }
%"class.llvm::StructType" = type { %"class.llvm::CompositeType", i8* }
%"class.llvm::CompositeType" = type { %"class.llvm::Type" }
%"class.std::__1::unordered_map.173" = type { %"class.std::__1::__hash_table.174" }
%"class.std::__1::__hash_table.174" = type <{ %"class.std::__1::unique_ptr.175", %"class.std::__1::__compressed_pair.184", %"class.std::__1::__compressed_pair.188", %"class.std::__1::__compressed_pair.191", [4 x i8] }>
%"class.std::__1::unique_ptr.175" = type { %"class.std::__1::__compressed_pair.176" }
%"class.std::__1::__compressed_pair.176" = type { %"class.std::__1::__libcpp_compressed_pair_imp.177" }
%"class.std::__1::__libcpp_compressed_pair_imp.177" = type { %"struct.std::__1::__hash_node_base.178"**, %"class.std::__1::__bucket_list_deallocator.179" }
%"struct.std::__1::__hash_node_base.178" = type { %"struct.std::__1::__hash_node_base.178"* }
%"class.std::__1::__bucket_list_deallocator.179" = type { %"class.std::__1::__compressed_pair.180" }
%"class.std::__1::__compressed_pair.180" = type { %"class.std::__1::__libcpp_compressed_pair_imp.181" }
%"class.std::__1::__libcpp_compressed_pair_imp.181" = type { i64 }
%"class.std::__1::__compressed_pair.184" = type { %"class.std::__1::__libcpp_compressed_pair_imp.185" }
%"class.std::__1::__libcpp_compressed_pair_imp.185" = type { %"struct.std::__1::__hash_node_base.178" }
%"class.std::__1::__compressed_pair.188" = type { %"class.std::__1::__libcpp_compressed_pair_imp.189" }
%"class.std::__1::__libcpp_compressed_pair_imp.189" = type { i64 }
%"class.std::__1::__compressed_pair.191" = type { %"class.std::__1::__libcpp_compressed_pair_imp.192" }
%"class.std::__1::__libcpp_compressed_pair_imp.192" = type { float }
%"class.std::__1::map" = type { %"class.std::__1::__tree" }
%"class.std::__1::__tree" = type { %"class.std::__1::__tree_end_node"*, %"class.std::__1::__compressed_pair.195", %"class.std::__1::__compressed_pair.199" }
%"class.std::__1::__tree_end_node" = type { %"class.std::__1::__tree_node_base"* }
%"class.std::__1::__tree_node_base" = type <{ %"class.std::__1::__tree_end_node", %"class.std::__1::__tree_node_base"*, %"class.std::__1::__tree_end_node"*, i8, [7 x i8] }>
%"class.std::__1::__compressed_pair.195" = type { %"class.std::__1::__libcpp_compressed_pair_imp.196" }
%"class.std::__1::__libcpp_compressed_pair_imp.196" = type { %"class.std::__1::__tree_end_node" }
%"class.std::__1::__compressed_pair.199" = type { %"class.std::__1::__libcpp_compressed_pair_imp.200" }
%"class.std::__1::__libcpp_compressed_pair_imp.200" = type { i64 }
%class.CodeGenVisitor = type { i32 (...)**, %"class.std::__1::vector", %"class.std::__1::vector.11", %"class.std::__1::vector.17", %"class.std::__1::vector.17", %"class.std::__1::unordered_map", %"class.std::__1::unordered_map.47", i8, [7 x i8], %"class.std::__1::unordered_map.69", %"class.std::__1::unordered_map.95", %"class.std::__1::unordered_map.117", %"class.std::__1::unordered_map.117", %"class.llvm::ConstantInt"*, %"class.llvm::ConstantInt"*, %"class.llvm::ConstantInt"*, %"class.llvm::ConstantInt"*, %"class.std::__1::unordered_map.139", %"class.std::__1::vector.161" }
%"class.std::__1::vector" = type { %"class.std::__1::__vector_base" }
%"class.std::__1::__vector_base" = type { %"class.llvm::Function"**, %"class.llvm::Function"**, %"class.std::__1::__compressed_pair.9" }
%"class.std::__1::__compressed_pair.9" = type { %"class.std::__1::__libcpp_compressed_pair_imp.10" }
%"class.std::__1::__libcpp_compressed_pair_imp.10" = type { %"class.llvm::Function"** }
%"class.std::__1::vector.11" = type { %"class.std::__1::__vector_base.12" }
%"class.std::__1::__vector_base.12" = type { %struct.CGValue**, %struct.CGValue**, %"class.std::__1::__compressed_pair.13" }
%struct.CGValue = type { %"class.llvm::Value"*, i8, i64, i8, i8, i8, i32 }
%"class.std::__1::__compressed_pair.13" = type { %"class.std::__1::__libcpp_compressed_pair_imp.14" }
%"class.std::__1::__libcpp_compressed_pair_imp.14" = type { %struct.CGValue** }
%"class.std::__1::vector.17" = type { %"class.std::__1::__vector_base.18" }
%"class.std::__1::__vector_base.18" = type { %"class.llvm::BasicBlock"**, %"class.llvm::BasicBlock"**, %"class.std::__1::__compressed_pair.28" }
%"class.std::__1::__compressed_pair.28" = type { %"class.std::__1::__libcpp_compressed_pair_imp.29" }
%"class.std::__1::__libcpp_compressed_pair_imp.29" = type { %"class.llvm::BasicBlock"** }
%"class.std::__1::unordered_map" = type { %"class.std::__1::__hash_table" }
%"class.std::__1::__hash_table" = type <{ %"class.std::__1::unique_ptr.32", %"class.std::__1::__compressed_pair.39", %"class.std::__1::__compressed_pair.43", %"class.std::__1::__compressed_pair.45", [4 x i8] }>
%"class.std::__1::unique_ptr.32" = type { %"class.std::__1::__compressed_pair.33" }
%"class.std::__1::__compressed_pair.33" = type { %"class.std::__1::__libcpp_compressed_pair_imp.34" }
%"class.std::__1::__libcpp_compressed_pair_imp.34" = type { %"struct.std::__1::__hash_node_base"**, %"class.std::__1::__bucket_list_deallocator" }
%"struct.std::__1::__hash_node_base" = type { %"struct.std::__1::__hash_node_base"* }
%"class.std::__1::__bucket_list_deallocator" = type { %"class.std::__1::__compressed_pair.35" }
%"class.std::__1::__compressed_pair.35" = type { %"class.std::__1::__libcpp_compressed_pair_imp.36" }
%"class.std::__1::__libcpp_compressed_pair_imp.36" = type { i64 }
%"class.std::__1::__compressed_pair.39" = type { %"class.std::__1::__libcpp_compressed_pair_imp.40" }
%"class.std::__1::__libcpp_compressed_pair_imp.40" = type { %"struct.std::__1::__hash_node_base" }
%"class.std::__1::__compressed_pair.43" = type { %"class.std::__1::__libcpp_compressed_pair_imp.44" }
%"class.std::__1::__libcpp_compressed_pair_imp.44" = type { i64 }
%"class.std::__1::__compressed_pair.45" = type { %"class.std::__1::__libcpp_compressed_pair_imp.46" }
%"class.std::__1::__libcpp_compressed_pair_imp.46" = type { float }
%"class.std::__1::unordered_map.47" = type { %"class.std::__1::__hash_table.48" }
%"class.std::__1::__hash_table.48" = type <{ %"class.std::__1::unique_ptr.49", %"class.std::__1::__compressed_pair.58", %"class.std::__1::__compressed_pair.62", %"class.std::__1::__compressed_pair.65", [4 x i8] }>
%"class.std::__1::unique_ptr.49" = type { %"class.std::__1::__compressed_pair.50" }
%"class.std::__1::__compressed_pair.50" = type { %"class.std::__1::__libcpp_compressed_pair_imp.51" }
%"class.std::__1::__libcpp_compressed_pair_imp.51" = type { %"struct.std::__1::__hash_node_base.52"**, %"class.std::__1::__bucket_list_deallocator.53" }
%"struct.std::__1::__hash_node_base.52" = type { %"struct.std::__1::__hash_node_base.52"* }
%"class.std::__1::__bucket_list_deallocator.53" = type { %"class.std::__1::__compressed_pair.54" }
%"class.std::__1::__compressed_pair.54" = type { %"class.std::__1::__libcpp_compressed_pair_imp.55" }
%"class.std::__1::__libcpp_compressed_pair_imp.55" = type { i64 }
%"class.std::__1::__compressed_pair.58" = type { %"class.std::__1::__libcpp_compressed_pair_imp.59" }
%"class.std::__1::__libcpp_compressed_pair_imp.59" = type { %"struct.std::__1::__hash_node_base.52" }
%"class.std::__1::__compressed_pair.62" = type { %"class.std::__1::__libcpp_compressed_pair_imp.63" }
%"class.std::__1::__libcpp_compressed_pair_imp.63" = type { i64 }
%"class.std::__1::__compressed_pair.65" = type { %"class.std::__1::__libcpp_compressed_pair_imp.66" }
%"class.std::__1::__libcpp_compressed_pair_imp.66" = type { float }
%"class.std::__1::unordered_map.69" = type { %"class.std::__1::__hash_table.70" }
%"class.std::__1::__hash_table.70" = type <{ %"class.std::__1::unique_ptr.71", %"class.std::__1::__compressed_pair.80", %"class.std::__1::__compressed_pair.84", %"class.std::__1::__compressed_pair.89", [4 x i8] }>
%"class.std::__1::unique_ptr.71" = type { %"class.std::__1::__compressed_pair.72" }
%"class.std::__1::__compressed_pair.72" = type { %"class.std::__1::__libcpp_compressed_pair_imp.73" }
%"class.std::__1::__libcpp_compressed_pair_imp.73" = type { %"struct.std::__1::__hash_node_base.74"**, %"class.std::__1::__bucket_list_deallocator.75" }
%"struct.std::__1::__hash_node_base.74" = type { %"struct.std::__1::__hash_node_base.74"* }
%"class.std::__1::__bucket_list_deallocator.75" = type { %"class.std::__1::__compressed_pair.76" }
%"class.std::__1::__compressed_pair.76" = type { %"class.std::__1::__libcpp_compressed_pair_imp.77" }
%"class.std::__1::__libcpp_compressed_pair_imp.77" = type { i64 }
%"class.std::__1::__compressed_pair.80" = type { %"class.std::__1::__libcpp_compressed_pair_imp.81" }
%"class.std::__1::__libcpp_compressed_pair_imp.81" = type { %"struct.std::__1::__hash_node_base.74" }
%"class.std::__1::__compressed_pair.84" = type { %"class.std::__1::__libcpp_compressed_pair_imp.85" }
%"class.std::__1::__libcpp_compressed_pair_imp.85" = type { i64 }
%"class.std::__1::__compressed_pair.89" = type { %"class.std::__1::__libcpp_compressed_pair_imp.90" }
%"class.std::__1::__libcpp_compressed_pair_imp.90" = type { float }
%"class.std::__1::unordered_map.95" = type { %"class.std::__1::__hash_table.96" }
%"class.std::__1::__hash_table.96" = type <{ %"class.std::__1::unique_ptr.97", %"class.std::__1::__compressed_pair.106", %"class.std::__1::__compressed_pair.110", %"class.std::__1::__compressed_pair.113", [4 x i8] }>
%"class.std::__1::unique_ptr.97" = type { %"class.std::__1::__compressed_pair.98" }
%"class.std::__1::__compressed_pair.98" = type { %"class.std::__1::__libcpp_compressed_pair_imp.99" }
%"class.std::__1::__libcpp_compressed_pair_imp.99" = type { %"struct.std::__1::__hash_node_base.100"**, %"class.std::__1::__bucket_list_deallocator.101" }
%"struct.std::__1::__hash_node_base.100" = type { %"struct.std::__1::__hash_node_base.100"* }
%"class.std::__1::__bucket_list_deallocator.101" = type { %"class.std::__1::__compressed_pair.102" }
%"class.std::__1::__compressed_pair.102" = type { %"class.std::__1::__libcpp_compressed_pair_imp.103" }
%"class.std::__1::__libcpp_compressed_pair_imp.103" = type { i64 }
%"class.std::__1::__compressed_pair.106" = type { %"class.std::__1::__libcpp_compressed_pair_imp.107" }
%"class.std::__1::__libcpp_compressed_pair_imp.107" = type { %"struct.std::__1::__hash_node_base.100" }
%"class.std::__1::__compressed_pair.110" = type { %"class.std::__1::__libcpp_compressed_pair_imp.111" }
%"class.std::__1::__libcpp_compressed_pair_imp.111" = type { i64 }
%"class.std::__1::__compressed_pair.113" = type { %"class.std::__1::__libcpp_compressed_pair_imp.114" }
%"class.std::__1::__libcpp_compressed_pair_imp.114" = type { float }
%"class.std::__1::unordered_map.117" = type { %"class.std::__1::__hash_table.118" }
%"class.std::__1::__hash_table.118" = type <{ %"class.std::__1::unique_ptr.119", %"class.std::__1::__compressed_pair.128", %"class.std::__1::__compressed_pair.132", %"class.std::__1::__compressed_pair.135", [4 x i8] }>
%"class.std::__1::unique_ptr.119" = type { %"class.std::__1::__compressed_pair.120" }
%"class.std::__1::__compressed_pair.120" = type { %"class.std::__1::__libcpp_compressed_pair_imp.121" }
%"class.std::__1::__libcpp_compressed_pair_imp.121" = type { %"struct.std::__1::__hash_node_base.122"**, %"class.std::__1::__bucket_list_deallocator.123" }
%"struct.std::__1::__hash_node_base.122" = type { %"struct.std::__1::__hash_node_base.122"* }
%"class.std::__1::__bucket_list_deallocator.123" = type { %"class.std::__1::__compressed_pair.124" }
%"class.std::__1::__compressed_pair.124" = type { %"class.std::__1::__libcpp_compressed_pair_imp.125" }
%"class.std::__1::__libcpp_compressed_pair_imp.125" = type { i64 }
%"class.std::__1::__compressed_pair.128" = type { %"class.std::__1::__libcpp_compressed_pair_imp.129" }
%"class.std::__1::__libcpp_compressed_pair_imp.129" = type { %"struct.std::__1::__hash_node_base.122" }
%"class.std::__1::__compressed_pair.132" = type { %"class.std::__1::__libcpp_compressed_pair_imp.133" }
%"class.std::__1::__libcpp_compressed_pair_imp.133" = type { i64 }
%"class.std::__1::__compressed_pair.135" = type { %"class.std::__1::__libcpp_compressed_pair_imp.136" }
%"class.std::__1::__libcpp_compressed_pair_imp.136" = type { float }
%"class.llvm::ConstantInt" = type { %"class.llvm::ConstantData", %"class.llvm::APInt" }
%"class.llvm::ConstantData" = type { %"class.llvm::Constant" }
%"class.llvm::APInt" = type { i32, %union.anon }
%union.anon = type { i64 }
%"class.std::__1::vector.161" = type { %"class.std::__1::__vector_base.162" }
%"class.std::__1::__vector_base.162" = type { %"class.std::__1::basic_string"*, %"class.std::__1::basic_string"*, %"class.std::__1::__compressed_pair.169" }
%"class.std::__1::__compressed_pair.169" = type { %"class.std::__1::__libcpp_compressed_pair_imp.170" }
%"class.std::__1::__libcpp_compressed_pair_imp.170" = type { %"class.std::__1::basic_string"* }
%"class.std::__1::__map_value_compare" = type { i8 }
%"struct.std::__1::less" = type { i8 }
%"class.std::__1::__unordered_map_equal.193" = type { i8 }
%"class.std::__1::__unordered_map_hasher.190" = type { i8 }
%"class.std::__1::allocator.182" = type { i8 }
%"class.std::__1::allocator.186" = type { i8 }
%"struct.std::__1::hash" = type { i8 }
%"struct.std::__1::equal_to" = type { i8 }
%"struct.std::__1::pair.256" = type <{ %"class.std::__1::__tree_iterator", i8, [7 x i8] }>
%"class.std::__1::__tree_iterator" = type { %"class.std::__1::__tree_end_node"* }
%"class.std::__1::__map_iterator" = type { %"class.std::__1::__tree_iterator" }
%"struct.std::__1::pair" = type <{ %"class.std::__1::__map_iterator", i8, [7 x i8] }>
%"class.std::__1::allocator.165" = type { i8 }
%"class.std::__1::__basic_string_common" = type { i8 }
%"struct.std::__1::basic_string<char, std::__1::char_traits<char>, std::__1::allocator<char> >::__raw" = type { [3 x i64] }
%"struct.std::__1::basic_string<char, std::__1::char_traits<char>, std::__1::allocator<char> >::__short" = type { %union.anon.168, [23 x i8] }
%union.anon.168 = type { i8 }
%"union.std::__1::__value_type" = type { %"struct.std::__1::pair.207" }
%"struct.std::__1::pair.207" = type { %"class.std::__1::basic_string", %"class.llvm::Type"* }
%"class.std::__1::allocator.205" = type { i8 }
%"struct.std::__1::integral_constant" = type { i8 }
%"struct.std::__1::__has_construct.261" = type { i8 }
%"class.std::__1::__libcpp_compressed_pair_imp.204" = type { %"class.llvm::Type"** }
%"class.std::__1::__compressed_pair.203" = type { %"class.std::__1::__libcpp_compressed_pair_imp.204" }
%"class.std::__1::__vector_base.202" = type { %"class.llvm::Type"**, %"class.llvm::Type"**, %"class.std::__1::__compressed_pair.203" }
%"class.std::__1::vector.201" = type { %"class.std::__1::__vector_base.202" }
%"struct.std::__1::vector<llvm::Type *, std::__1::allocator<llvm::Type *> >::__RAII_IncreaseAnnotator" = type { i8 }
%"class.llvm::StringRef" = type { i8*, i64 }
%"class.std::__1::__vector_base_common" = type { i8 }
%"class.llvm::ArrayRef" = type { %"class.llvm::Type"**, i64 }
%"class.std::__1::__tree_node" = type { %"class.std::__1::__tree_node_base.base", %"union.std::__1::__value_type" }
%"class.std::__1::__tree_node_base.base" = type <{ %"class.std::__1::__tree_end_node", %"class.std::__1::__tree_node_base"*, %"class.std::__1::__tree_end_node"*, i8 }>
%"struct.std::__1::__split_buffer" = type { %"class.llvm::Type"**, %"class.llvm::Type"**, %"class.llvm::Type"**, %"class.std::__1::__compressed_pair.259" }
%"class.std::__1::__compressed_pair.259" = type { %"class.std::__1::__libcpp_compressed_pair_imp.260" }
%"class.std::__1::__libcpp_compressed_pair_imp.260" = type { %"class.llvm::Type"**, %"class.std::__1::allocator.205"* }
%"union.std::__1::__hash_value_type" = type { %"struct.std::__1::pair.239" }
%"struct.std::__1::pair.239" = type { %"class.std::__1::basic_string", %"class.llvm::Function"* }
%"struct.std::__1::__less" = type { i8 }
%"class.std::__1::__libcpp_compressed_pair_imp.245" = type { %"struct.std::__1::__hash_node"*, %"class.std::__1::__hash_node_destructor" }
%"struct.std::__1::__hash_node" = type { %"struct.std::__1::__hash_node_base.178", i64, %"union.std::__1::__hash_value_type" }
%"class.std::__1::__hash_node_destructor" = type <{ %"class.std::__1::allocator.186"*, i8, [7 x i8] }>
%"class.std::__1::__compressed_pair.244" = type { %"class.std::__1::__libcpp_compressed_pair_imp.245" }
%"struct.std::__1::integral_constant.237" = type { i8 }
%"struct.std::__1::__has_destroy.247" = type { i8 }
%"class.std::__1::unique_ptr.243" = type { %"class.std::__1::__compressed_pair.244" }
%"class.std::__1::__hash_iterator" = type { %"struct.std::__1::__hash_node_base.178"* }
%"struct.std::__1::pair.241" = type <{ %"class.std::__1::__hash_iterator", i8, [7 x i8] }>
%"class.std::__1::__hash_map_iterator" = type { %"class.std::__1::__hash_iterator" }
%"struct.std::__1::pair.214" = type <{ %"class.std::__1::__hash_map_iterator", i8, [7 x i8] }>
%"class.std::__1::__wrap_iter" = type { %"class.llvm::Type"** }
%"class.std::__1::__wrap_iter.208" = type { %"class.llvm::Type"** }
%"class.llvm::FunctionType" = type { %"class.llvm::Type" }
%"class.llvm::Twine" = type <{ %"union.llvm::Twine::Child", %"union.llvm::Twine::Child", i8, i8, [6 x i8] }>
%"union.llvm::Twine::Child" = type { %"class.llvm::Twine"* }
%"class.llvm::PointerType" = type { %"class.llvm::Type", %"class.llvm::Type"* }
%"struct.std::__1::__has_construct.262" = type { i8 }
%"struct.std::__1::input_iterator_tag" = type { i8 }
%"struct.std::__1::bidirectional_iterator_tag" = type { i8 }
%"class.std::__1::__wrap_iter.224" = type { %"class.llvm::Value"** }
%"class.std::__1::__wrap_iter.225" = type { %"class.llvm::Value"** }
%"class.llvm::ArrayRef.228" = type { %"class.llvm::Value"**, i64 }
%"class.llvm::CallInst" = type { %"class.llvm::Instruction", %"class.llvm::AttributeSet", %"class.llvm::FunctionType"* }
%"class.llvm::Instruction" = type { %"class.llvm::User", %"class.llvm::ilist_node_with_parent.226", %"class.llvm::BasicBlock"*, %"class.llvm::DebugLoc" }
%"class.llvm::ilist_node_with_parent.226" = type { %"class.llvm::ilist_node.227" }
%"class.llvm::ilist_node.227" = type { %"class.llvm::ilist_node_impl.27" }
%"class.std::__1::allocator.222" = type { i8 }
%"struct.std::__1::__has_construct.271" = type { i8 }
%"class.std::__1::__libcpp_compressed_pair_imp.270" = type { %"class.llvm::Value"**, %"class.std::__1::allocator.222"* }
%"class.std::__1::__compressed_pair.269" = type { %"class.std::__1::__libcpp_compressed_pair_imp.270" }
%"struct.std::__1::__split_buffer.268" = type { %"class.llvm::Value"**, %"class.llvm::Value"**, %"class.llvm::Value"**, %"class.std::__1::__compressed_pair.269" }
%"class.std::__1::move_iterator.274" = type { %"class.llvm::Value"** }
%"struct.std::__1::vector<llvm::Value *, std::__1::allocator<llvm::Value *> >::__RAII_IncreaseAnnotator" = type { i8 }
%"class.std::__1::tuple.276" = type { i8 }
%"class.std::__1::__tuple_leaf" = type { %"class.std::__1::basic_string"* }
%"struct.std::__1::__tuple_indices" = type { i8 }
%"struct.std::__1::__tuple_types" = type { i8 }
%"struct.std::__1::__tuple_indices.278" = type { i8 }
%"struct.std::__1::__tuple_types.279" = type { i8 }
%"struct.std::__1::__tuple_impl" = type { %"class.std::__1::__tuple_leaf" }
%"class.std::__1::tuple" = type { %"struct.std::__1::__tuple_impl" }
%"class.std::initializer_list" = type { %"class.llvm::Type"**, i64 }
%"class.llvm::ilist_iterator.229" = type { %"class.llvm::ilist_node_impl.8"* }
%"class.llvm::Argument" = type { %"class.llvm::Value", %"class.llvm::ilist_node.230", %"class.llvm::Function"* }
%"class.llvm::ilist_node.230" = type { %"class.llvm::ilist_node_impl.8" }
%"class.llvm::StoreInst" = type { %"class.llvm::Instruction" }
%"class.llvm::ReturnInst" = type { %"class.llvm::TerminatorInst" }
%"class.llvm::TerminatorInst" = type { %"class.llvm::Instruction" }
%"class.llvm::GlobalVariable" = type <{ %"class.llvm::GlobalObject", %"class.llvm::ilist_node.231", i8, [7 x i8] }>
%"class.llvm::ilist_node.231" = type { %"class.llvm::ilist_node_impl.232" }
%"class.llvm::ilist_node_impl.232" = type { %"class.llvm::ilist_node_base" }
%"class.std::__1::__libcpp_compressed_pair_imp.284" = type { %"struct.std::__1::__hash_node.285"*, %"class.std::__1::__hash_node_destructor.289" }
%"struct.std::__1::__hash_node.285" = type { %"struct.std::__1::__hash_node_base.144", i64, %"union.std::__1::__hash_value_type.286" }
%"union.std::__1::__hash_value_type.286" = type { %"struct.std::__1::pair.287" }
%"struct.std::__1::pair.287" = type { %"class.std::__1::basic_string", %struct.CGValue }
%"class.std::__1::__hash_node_destructor.289" = type <{ %"class.std::__1::allocator.152"*, i8, [7 x i8] }>
%"class.std::__1::allocator.152" = type { i8 }
%"class.std::__1::__compressed_pair.283" = type { %"class.std::__1::__libcpp_compressed_pair_imp.284" }
%"class.std::__1::unique_ptr.282" = type { %"class.std::__1::__compressed_pair.283" }
%"struct.std::__1::__has_destroy.292" = type { i8 }
%"struct.std::__1::pair.280" = type <{ %"class.std::__1::__hash_iterator.235", i8, [7 x i8] }>
%"class.std::__1::__hash_iterator.235" = type { %"struct.std::__1::__hash_node_base.144"* }
%"class.std::__1::__hash_map_iterator.234" = type { %"class.std::__1::__hash_iterator.235" }
%"struct.std::__1::pair.233" = type <{ %"class.std::__1::__hash_map_iterator.234", i8, [7 x i8] }>
%"class.llvm::IntegerType" = type { %"class.llvm::Type" }
%"struct.std::__1::__has_destroy" = type { i8 }
%"class.std::__1::__tree_const_iterator" = type { %"class.std::__1::__tree_end_node"* }
%"class.std::__1::__map_const_iterator" = type { %"class.std::__1::__tree_const_iterator" }
%"class.std::__1::__hash_const_iterator" = type { %"struct.std::__1::__hash_node_base.178"* }
%"class.std::__1::__hash_map_const_iterator" = type { %"class.std::__1::__hash_const_iterator" }
%"struct.std::__1::__has_select_on_container_copy_construction" = type { i8 }
%"struct.std::__1::__has_select_on_container_copy_construction.238" = type { i8 }
%"struct.std::__1::__has_construct" = type { i8 }
%"struct.std::__1::__murmur2_or_cityhash" = type { i8 }
%"struct.std::__1::pair.246" = type { i64, i64 }
%"class.std::__1::allocator.197" = type { i8 }
%"struct.std::__1::__has_select_on_container_copy_construction.248" = type { i8 }
%"class.std::__1::__libcpp_compressed_pair_imp.252" = type { %"class.std::__1::__tree_node"*, %"class.std::__1::__tree_node_destructor" }
%"class.std::__1::__tree_node_destructor" = type <{ %"class.std::__1::allocator.197"*, i8, [7 x i8] }>
%"class.std::__1::__compressed_pair.251" = type { %"class.std::__1::__libcpp_compressed_pair_imp.252" }
%"struct.std::__1::__has_destroy.254" = type { i8 }
%"class.std::__1::unique_ptr.250" = type { %"class.std::__1::__compressed_pair.251" }
%"struct.std::__1::__has_construct.253" = type { i8 }
%"struct.llvm::ilist_detail::SpecificNodeAccess.25" = type { i8 }
%"class.llvm::ilist_iterator.255" = type { %"class.llvm::ilist_node_impl.0"* }
%"struct.llvm::ilist_detail::SpecificNodeAccess" = type { i8 }
%"struct.llvm::ilist_detail::SpecificNodeAccess.6" = type { i8 }
%"struct.std::__1::__has_construct.258" = type { i8 }
%"class.std::__1::__split_buffer_common" = type { i8 }
%"struct.std::__1::__has_max_size" = type { i8 }
%"class.std::__1::move_iterator" = type { %"class.llvm::Type"** }
%"struct.std::__1::__has_construct.263" = type { i8 }
%"class.llvm::GetElementPtrInst" = type { %"class.llvm::Instruction", %"class.llvm::Type"*, %"class.llvm::Type"* }
%"class.llvm::IRBuilderDefaultInserter" = type { i8 }
%"class.llvm::Optional" = type { %"struct.llvm::AlignedCharArrayUnion.264", i8, [3 x i8] }
%"struct.llvm::AlignedCharArrayUnion.264" = type { %"struct.llvm::AlignedCharArray.265" }
%"struct.llvm::AlignedCharArray.265" = type { [4 x i8] }
%"class.llvm::SymbolTableListTraits.22" = type { i8 }
%"class.llvm::PointerUnion.266" = type { %"class.llvm::PointerIntPair.267" }
%"class.llvm::PointerIntPair.267" = type { i64 }
%"class.llvm::VectorType" = type { %"class.llvm::SequentialType" }
%"class.llvm::SequentialType" = type { %"class.llvm::CompositeType", %"class.llvm::Type"*, i64 }
%"struct.std::__1::__has_construct.272" = type { i8 }
%"struct.std::__1::__has_max_size.273" = type { i8 }
%"struct.std::__1::__has_destroy.275" = type { i8 }
%"struct.std::__1::__has_construct.277" = type { i8 }
%"class.llvm::OperandBundleUser" = type { i8 }
%"struct.std::__1::__has_construct.291" = type { i8 }
%"class.std::__1::__unordered_map_hasher.156" = type { i8 }
%"class.std::__1::__unordered_map_equal.159" = type { i8 }
%"class.std::__1::allocator.148" = type { i8 }

@_ZN4llvm24DisableABIBreakingChecksE = external global i32, align 4
@_ZN4llvm30VerifyDisableABIBreakingChecksE = weak hidden global i32* @_ZN4llvm24DisableABIBreakingChecksE, align 8
@.str = private unnamed_addr constant [4 x i8] c"!st\00", align 1
@_ZN14CodeGenVisitor7ContextE = external global %"class.llvm::LLVMContext", align 8
@.str.1 = private unnamed_addr constant [7 x i8] c"class.\00", align 1
@.str.2 = private unnamed_addr constant [2 x i8] c".\00", align 1
@_ZN14CodeGenVisitor6ModuleE = external global %"class.std::__1::unique_ptr.209", align 8
@.str.3 = private unnamed_addr constant [1 x i8] zeroinitializer, align 1
@_ZN14CodeGenVisitor7BuilderE = external global %"class.llvm::IRBuilder", align 8
@.str.4 = private unnamed_addr constant [8 x i8] c"XString\00", align 1
@.str.5 = private unnamed_addr constant [6 x i8] c"__str\00", align 1
@.str.6 = private unnamed_addr constant [10 x i8] c"construct\00", align 1
@_ZN14CodeGenVisitor13MutableValuesE = external global %"class.std::__1::unordered_map.139", align 8
@.str.7 = private unnamed_addr constant [14 x i8] c"class.Int.Max\00", align 1
@.str.8 = private unnamed_addr constant [15 x i8] c"Invalid twine!\00", align 1
@__func__._ZN4llvm5TwineC2ERKNSt3__112basic_stringIcNS1_11char_traitsIcEENS1_9allocatorIcEEEE = private unnamed_addr constant [6 x i8] c"Twine\00", align 1
@.str.9 = private unnamed_addr constant [56 x i8] c"/usr/local/Cellar/llvm/4.0.0_1/include/llvm/ADT/Twine.h\00", align 1
@.str.10 = private unnamed_addr constant [30 x i8] c"isValid() && \22Invalid twine!\22\00", align 1
@__func__._ZNK4llvm14ilist_iteratorINS_12ilist_detail12node_optionsINS_10BasicBlockELb0ELb0EvEELb0ELb0EEdeEv = private unnamed_addr constant [10 x i8] c"operator*\00", align 1
@.str.11 = private unnamed_addr constant [65 x i8] c"/usr/local/Cellar/llvm/4.0.0_1/include/llvm/ADT/ilist_iterator.h\00", align 1
@.str.12 = private unnamed_addr constant [28 x i8] c"!NodePtr->isKnownSentinel()\00", align 1
@.str.13 = private unnamed_addr constant [29 x i8] c"isa<> used on a null pointer\00", align 1
@__func__._ZN4llvm11isa_impl_clINS_8ConstantEPKNS_5ValueEE4doitES4_ = private unnamed_addr constant [5 x i8] c"doit\00", align 1
@.str.14 = private unnamed_addr constant [62 x i8] c"/usr/local/Cellar/llvm/4.0.0_1/include/llvm/Support/Casting.h\00", align 1
@.str.15 = private unnamed_addr constant [38 x i8] c"Val && \22isa<> used on a null pointer\22\00", align 1
@.str.16 = private unnamed_addr constant [42 x i8] c"cast<Ty>() argument of incompatible type!\00", align 1
@__func__._ZN4llvm4castINS_8ConstantENS_5ValueEEENS_10cast_rettyIT_PT0_E8ret_typeES6_ = private unnamed_addr constant [5 x i8] c"cast\00", align 1
@.str.17 = private unnamed_addr constant [59 x i8] c"isa<X>(Val) && \22cast<Ty>() argument of incompatible type!\22\00", align 1
@.str.18 = private unnamed_addr constant [59 x i8] c"/usr/local/Cellar/llvm/4.0.0_1/include/llvm/ADT/Optional.h\00", align 1
@.str.19 = private unnamed_addr constant [7 x i8] c"hasVal\00", align 1
@__func__._ZN4llvm8OptionalIjE10getPointerEv = private unnamed_addr constant [11 x i8] c"getPointer\00", align 1
@.str.20 = private unnamed_addr constant [25 x i8] c"Expected values to match\00", align 1
@__func__._ZN4llvm13TrackingMDRef7retrackERS0_ = private unnamed_addr constant [8 x i8] c"retrack\00", align 1
@.str.21 = private unnamed_addr constant [63 x i8] c"/usr/local/Cellar/llvm/4.0.0_1/include/llvm/IR/TrackingMDRef.h\00", align 1
@.str.22 = private unnamed_addr constant [41 x i8] c"MD == X.MD && \22Expected values to match\22\00", align 1
@.str.23 = private unnamed_addr constant [28 x i8] c"Integer too large for field\00", align 1
@__func__._ZN4llvm18PointerIntPairInfoIPvLj1ENS_22PointerUnionUIntTraitsIPNS_15MetadataAsValueEPNS_8MetadataEEEE9updateIntEll = private unnamed_addr constant [10 x i8] c"updateInt\00", align 1
@.str.24 = private unnamed_addr constant [65 x i8] c"/usr/local/Cellar/llvm/4.0.0_1/include/llvm/ADT/PointerIntPair.h\00", align 1
@.str.25 = private unnamed_addr constant [59 x i8] c"(IntWord & ~IntMask) == 0 && \22Integer too large for field\22\00", align 1
@.str.26 = private unnamed_addr constant [36 x i8] c"Pointer is not sufficiently aligned\00", align 1
@__func__._ZN4llvm18PointerIntPairInfoIPvLj1ENS_22PointerUnionUIntTraitsIPNS_15MetadataAsValueEPNS_8MetadataEEEE13updatePointerElS1_ = private unnamed_addr constant [14 x i8] c"updatePointer\00", align 1
@.str.27 = private unnamed_addr constant [74 x i8] c"(PtrWord & ~PointerBitMask) == 0 && \22Pointer is not sufficiently aligned\22\00", align 1
@__func__._ZN4llvm17GetElementPtrInst6CreateEPNS_4TypeEPNS_5ValueENS_8ArrayRefIS4_EERKNS_5TwineEPNS_11InstructionE = private unnamed_addr constant [7 x i8] c"Create\00", align 1
@.str.28 = private unnamed_addr constant [62 x i8] c"/usr/local/Cellar/llvm/4.0.0_1/include/llvm/IR/Instructions.h\00", align 1
@.str.29 = private unnamed_addr constant [84 x i8] c"PointeeType == cast<PointerType>(Ptr->getType()->getScalarType())->getElementType()\00", align 1
@_ZTVN4llvm17GetElementPtrInstE = external unnamed_addr constant [5 x i8*]
@__func__._ZN4llvm17GetElementPtrInstC2EPNS_4TypeEPNS_5ValueENS_8ArrayRefIS4_EEjRKNS_5TwineEPNS_11InstructionE = private unnamed_addr constant [18 x i8] c"GetElementPtrInst\00", align 1
@.str.30 = private unnamed_addr constant [85 x i8] c"ResultElementType == cast<PointerType>(getType()->getScalarType())->getElementType()\00", align 1
@.str.31 = private unnamed_addr constant [44 x i8] c"Invalid GetElementPtrInst indices for type!\00", align 1
@__func__._ZN4llvm12checkGEPTypeEPNS_4TypeE = private unnamed_addr constant [13 x i8] c"checkGEPType\00", align 1
@.str.32 = private unnamed_addr constant [52 x i8] c"Ty && \22Invalid GetElementPtrInst indices for type!\22\00", align 1
@.str.33 = private unnamed_addr constant [20 x i8] c"Constructor throws?\00", align 1
@.str.34 = private unnamed_addr constant [54 x i8] c"/usr/local/Cellar/llvm/4.0.0_1/include/llvm/IR/User.h\00", align 1
@_ZNSt3__1L19piecewise_constructE = internal constant %"struct.std::__1::piecewise_construct_t" undef, align 1
@_ZTVN4llvm8CallInstE = external unnamed_addr constant [5 x i8*]

; Function Attrs: ssp uwtable
define void @_ZN13InternalClassC2ER14CodeGenVisitorNSt3__112basic_stringIcNS2_11char_traitsIcEENS2_9allocatorIcEEEE(%class.InternalClass*, %class.CodeGenVisitor* dereferenceable(448), %"class.std::__1::basic_string"*) unnamed_addr #0 align 2 personality i32 (...)* @__gxx_personality_v0 {
  %4 = alloca %"class.std::__1::__map_value_compare"*, align 8
  %5 = alloca %"struct.std::__1::less", align 1
  %6 = alloca %"class.std::__1::__map_value_compare"*, align 8
  %7 = alloca %"class.std::__1::map"*, align 8
  %8 = alloca %"class.std::__1::__map_value_compare", align 1
  %9 = alloca %"struct.std::__1::less", align 1
  %10 = alloca %"class.std::__1::map"*, align 8
  %11 = alloca float*, align 8
  %12 = alloca %"class.std::__1::__unordered_map_equal.193"*, align 8
  %13 = alloca %"class.std::__1::__libcpp_compressed_pair_imp.192"*, align 8
  %14 = alloca float, align 4
  %15 = alloca float*, align 8
  %16 = alloca %"class.std::__1::__compressed_pair.191"*, align 8
  %17 = alloca float, align 4
  %18 = alloca %"class.std::__1::__compressed_pair.191"*, align 8
  %19 = alloca float, align 4
  %20 = alloca i64*, align 8
  %21 = alloca %"class.std::__1::__unordered_map_hasher.190"*, align 8
  %22 = alloca %"class.std::__1::__libcpp_compressed_pair_imp.189"*, align 8
  %23 = alloca i64, align 8
  %24 = alloca i64*, align 8
  %25 = alloca %"class.std::__1::__compressed_pair.188"*, align 8
  %26 = alloca i64, align 8
  %27 = alloca %"class.std::__1::__compressed_pair.188"*, align 8
  %28 = alloca i64, align 8
  %29 = alloca %"class.std::__1::__libcpp_compressed_pair_imp.177"*, align 8
  %30 = alloca %"class.std::__1::__compressed_pair.176"*, align 8
  %31 = alloca %"class.std::__1::__libcpp_compressed_pair_imp.177"*, align 8
  %32 = alloca %"class.std::__1::__compressed_pair.176"*, align 8
  %33 = alloca %"class.std::__1::__libcpp_compressed_pair_imp.181"*, align 8
  %34 = alloca %"class.std::__1::__compressed_pair.180"*, align 8
  %35 = alloca %"class.std::__1::__bucket_list_deallocator.179"*, align 8
  %36 = alloca i8*, align 8
  %37 = alloca %"class.std::__1::allocator.182"*, align 8
  %38 = alloca %"struct.std::__1::__hash_node_base.178"**, align 8
  %39 = alloca i64, align 8
  %40 = alloca %"class.std::__1::allocator.182"*, align 8
  %41 = alloca %"struct.std::__1::__hash_node_base.178"**, align 8
  %42 = alloca i64, align 8
  %43 = alloca %"class.std::__1::__libcpp_compressed_pair_imp.181"*, align 8
  %44 = alloca %"class.std::__1::__compressed_pair.180"*, align 8
  %45 = alloca %"class.std::__1::__bucket_list_deallocator.179"*, align 8
  %46 = alloca %"class.std::__1::__bucket_list_deallocator.179"*, align 8
  %47 = alloca %"struct.std::__1::__hash_node_base.178"**, align 8
  %48 = alloca %"class.std::__1::__libcpp_compressed_pair_imp.177"*, align 8
  %49 = alloca %"class.std::__1::__compressed_pair.176"*, align 8
  %50 = alloca %"class.std::__1::unique_ptr.175"*, align 8
  %51 = alloca %"struct.std::__1::__hash_node_base.178"**, align 8
  %52 = alloca %"class.std::__1::unique_ptr.175"*, align 8
  %53 = alloca %"class.std::__1::unique_ptr.175"*, align 8
  %54 = alloca %"struct.std::__1::__hash_node_base.178"*, align 8
  %55 = alloca %"struct.std::__1::__hash_node_base.178"*, align 8
  %56 = alloca %"class.std::__1::allocator.186"*, align 8
  %57 = alloca %"class.std::__1::__libcpp_compressed_pair_imp.185"*, align 8
  %58 = alloca %"class.std::__1::__compressed_pair.184"*, align 8
  %59 = alloca %"class.std::__1::__compressed_pair.184"*, align 8
  %60 = alloca i64*, align 8
  %61 = alloca %"class.std::__1::allocator.182"*, align 8
  %62 = alloca %"class.std::__1::__libcpp_compressed_pair_imp.181"*, align 8
  %63 = alloca i64, align 8
  %64 = alloca i64*, align 8
  %65 = alloca %"class.std::__1::__compressed_pair.180"*, align 8
  %66 = alloca i64, align 8
  %67 = alloca %"class.std::__1::__compressed_pair.180"*, align 8
  %68 = alloca i64, align 8
  %69 = alloca %"class.std::__1::__bucket_list_deallocator.179"*, align 8
  %70 = alloca %"class.std::__1::__bucket_list_deallocator.179"*, align 8
  %71 = alloca %"struct.std::__1::__hash_node_base.178"***, align 8
  %72 = alloca %"class.std::__1::__libcpp_compressed_pair_imp.177"*, align 8
  %73 = alloca %"struct.std::__1::__hash_node_base.178"**, align 8
  %74 = alloca %"struct.std::__1::__hash_node_base.178"***, align 8
  %75 = alloca %"class.std::__1::__compressed_pair.176"*, align 8
  %76 = alloca %"struct.std::__1::__hash_node_base.178"**, align 8
  %77 = alloca %"class.std::__1::__compressed_pair.176"*, align 8
  %78 = alloca %"struct.std::__1::__hash_node_base.178"**, align 8
  %79 = alloca %"class.std::__1::unique_ptr.175"*, align 8
  %80 = alloca %"class.std::__1::unique_ptr.175"*, align 8
  %81 = alloca %"class.std::__1::__hash_table.174"*, align 8
  %82 = alloca i8*
  %83 = alloca i32
  %84 = alloca %"class.std::__1::__hash_table.174"*, align 8
  %85 = alloca %"class.std::__1::unordered_map.173"*, align 8
  %86 = alloca %"class.std::__1::unordered_map.173"*, align 8
  %87 = alloca %class.InternalClass*, align 8
  %88 = alloca %class.CodeGenVisitor*, align 8
  store %class.InternalClass* %0, %class.InternalClass** %87, align 8
  store %class.CodeGenVisitor* %1, %class.CodeGenVisitor** %88, align 8
  %89 = load %class.InternalClass*, %class.InternalClass** %87, align 8
  %90 = getelementptr inbounds %class.InternalClass, %class.InternalClass* %89, i32 0, i32 0
  %91 = load %class.CodeGenVisitor*, %class.CodeGenVisitor** %88, align 8
  store %class.CodeGenVisitor* %91, %class.CodeGenVisitor** %90, align 8
  %92 = getelementptr inbounds %class.InternalClass, %class.InternalClass* %89, i32 0, i32 1
  store i8 0, i8* %92, align 8
  %93 = getelementptr inbounds %class.InternalClass, %class.InternalClass* %89, i32 0, i32 3
  call void @_ZNSt3__112basic_stringIcNS_11char_traitsIcEENS_9allocatorIcEEEC1ERKS5_(%"class.std::__1::basic_string"* %93, %"class.std::__1::basic_string"* dereferenceable(24) %2)
  %94 = getelementptr inbounds %class.InternalClass, %class.InternalClass* %89, i32 0, i32 4
  store %"class.std::__1::unordered_map.173"* %94, %"class.std::__1::unordered_map.173"** %86, align 8
  %95 = load %"class.std::__1::unordered_map.173"*, %"class.std::__1::unordered_map.173"** %86, align 8
  store %"class.std::__1::unordered_map.173"* %95, %"class.std::__1::unordered_map.173"** %85, align 8
  %96 = load %"class.std::__1::unordered_map.173"*, %"class.std::__1::unordered_map.173"** %85, align 8
  %97 = getelementptr inbounds %"class.std::__1::unordered_map.173", %"class.std::__1::unordered_map.173"* %96, i32 0, i32 0
  store %"class.std::__1::__hash_table.174"* %97, %"class.std::__1::__hash_table.174"** %84, align 8
  %98 = load %"class.std::__1::__hash_table.174"*, %"class.std::__1::__hash_table.174"** %84, align 8
  store %"class.std::__1::__hash_table.174"* %98, %"class.std::__1::__hash_table.174"** %81, align 8
  %99 = load %"class.std::__1::__hash_table.174"*, %"class.std::__1::__hash_table.174"** %81, align 8
  %100 = getelementptr inbounds %"class.std::__1::__hash_table.174", %"class.std::__1::__hash_table.174"* %99, i32 0, i32 0
  store %"class.std::__1::unique_ptr.175"* %100, %"class.std::__1::unique_ptr.175"** %80, align 8
  %101 = load %"class.std::__1::unique_ptr.175"*, %"class.std::__1::unique_ptr.175"** %80, align 8
  store %"class.std::__1::unique_ptr.175"* %101, %"class.std::__1::unique_ptr.175"** %79, align 8
  %102 = load %"class.std::__1::unique_ptr.175"*, %"class.std::__1::unique_ptr.175"** %79, align 8
  %103 = getelementptr inbounds %"class.std::__1::unique_ptr.175", %"class.std::__1::unique_ptr.175"* %102, i32 0, i32 0
  store %"class.std::__1::__compressed_pair.176"* %103, %"class.std::__1::__compressed_pair.176"** %77, align 8
  store %"struct.std::__1::__hash_node_base.178"** null, %"struct.std::__1::__hash_node_base.178"*** %78, align 8
  %104 = load %"class.std::__1::__compressed_pair.176"*, %"class.std::__1::__compressed_pair.176"** %77, align 8
  %105 = load %"struct.std::__1::__hash_node_base.178"**, %"struct.std::__1::__hash_node_base.178"*** %78, align 8
  store %"class.std::__1::__compressed_pair.176"* %104, %"class.std::__1::__compressed_pair.176"** %75, align 8
  store %"struct.std::__1::__hash_node_base.178"** %105, %"struct.std::__1::__hash_node_base.178"*** %76, align 8
  %106 = load %"class.std::__1::__compressed_pair.176"*, %"class.std::__1::__compressed_pair.176"** %75, align 8
  %107 = bitcast %"class.std::__1::__compressed_pair.176"* %106 to %"class.std::__1::__libcpp_compressed_pair_imp.177"*
  store %"struct.std::__1::__hash_node_base.178"*** %76, %"struct.std::__1::__hash_node_base.178"**** %74, align 8
  %108 = load %"struct.std::__1::__hash_node_base.178"***, %"struct.std::__1::__hash_node_base.178"**** %74, align 8
  %109 = load %"struct.std::__1::__hash_node_base.178"**, %"struct.std::__1::__hash_node_base.178"*** %108, align 8
  store %"class.std::__1::__libcpp_compressed_pair_imp.177"* %107, %"class.std::__1::__libcpp_compressed_pair_imp.177"** %72, align 8
  store %"struct.std::__1::__hash_node_base.178"** %109, %"struct.std::__1::__hash_node_base.178"*** %73, align 8
  %110 = load %"class.std::__1::__libcpp_compressed_pair_imp.177"*, %"class.std::__1::__libcpp_compressed_pair_imp.177"** %72, align 8
  %111 = getelementptr inbounds %"class.std::__1::__libcpp_compressed_pair_imp.177", %"class.std::__1::__libcpp_compressed_pair_imp.177"* %110, i32 0, i32 0
  store %"struct.std::__1::__hash_node_base.178"*** %73, %"struct.std::__1::__hash_node_base.178"**** %71, align 8
  %112 = load %"struct.std::__1::__hash_node_base.178"***, %"struct.std::__1::__hash_node_base.178"**** %71, align 8
  %113 = load %"struct.std::__1::__hash_node_base.178"**, %"struct.std::__1::__hash_node_base.178"*** %112, align 8
  store %"struct.std::__1::__hash_node_base.178"** %113, %"struct.std::__1::__hash_node_base.178"*** %111, align 8
  %114 = getelementptr inbounds %"class.std::__1::__libcpp_compressed_pair_imp.177", %"class.std::__1::__libcpp_compressed_pair_imp.177"* %110, i32 0, i32 1
  store %"class.std::__1::__bucket_list_deallocator.179"* %114, %"class.std::__1::__bucket_list_deallocator.179"** %70, align 8
  %115 = load %"class.std::__1::__bucket_list_deallocator.179"*, %"class.std::__1::__bucket_list_deallocator.179"** %70, align 8
  store %"class.std::__1::__bucket_list_deallocator.179"* %115, %"class.std::__1::__bucket_list_deallocator.179"** %69, align 8
  %116 = load %"class.std::__1::__bucket_list_deallocator.179"*, %"class.std::__1::__bucket_list_deallocator.179"** %69, align 8
  %117 = getelementptr inbounds %"class.std::__1::__bucket_list_deallocator.179", %"class.std::__1::__bucket_list_deallocator.179"* %116, i32 0, i32 0
  store %"class.std::__1::__compressed_pair.180"* %117, %"class.std::__1::__compressed_pair.180"** %67, align 8
  store i64 0, i64* %68, align 8
  %118 = load %"class.std::__1::__compressed_pair.180"*, %"class.std::__1::__compressed_pair.180"** %67, align 8
  %119 = load i64, i64* %68, align 8
  store %"class.std::__1::__compressed_pair.180"* %118, %"class.std::__1::__compressed_pair.180"** %65, align 8
  store i64 %119, i64* %66, align 8
  %120 = load %"class.std::__1::__compressed_pair.180"*, %"class.std::__1::__compressed_pair.180"** %65, align 8
  %121 = bitcast %"class.std::__1::__compressed_pair.180"* %120 to %"class.std::__1::__libcpp_compressed_pair_imp.181"*
  store i64* %66, i64** %64, align 8
  %122 = load i64*, i64** %64, align 8
  %123 = load i64, i64* %122, align 8
  store %"class.std::__1::__libcpp_compressed_pair_imp.181"* %121, %"class.std::__1::__libcpp_compressed_pair_imp.181"** %62, align 8
  store i64 %123, i64* %63, align 8
  %124 = load %"class.std::__1::__libcpp_compressed_pair_imp.181"*, %"class.std::__1::__libcpp_compressed_pair_imp.181"** %62, align 8
  %125 = bitcast %"class.std::__1::__libcpp_compressed_pair_imp.181"* %124 to %"class.std::__1::allocator.182"*
  store %"class.std::__1::allocator.182"* %125, %"class.std::__1::allocator.182"** %61, align 8
  %126 = load %"class.std::__1::allocator.182"*, %"class.std::__1::allocator.182"** %61, align 8
  %127 = getelementptr inbounds %"class.std::__1::__libcpp_compressed_pair_imp.181", %"class.std::__1::__libcpp_compressed_pair_imp.181"* %124, i32 0, i32 0
  store i64* %63, i64** %60, align 8
  %128 = load i64*, i64** %60, align 8
  %129 = load i64, i64* %128, align 8
  store i64 %129, i64* %127, align 8
  %130 = getelementptr inbounds %"class.std::__1::__hash_table.174", %"class.std::__1::__hash_table.174"* %99, i32 0, i32 1
  store %"class.std::__1::__compressed_pair.184"* %130, %"class.std::__1::__compressed_pair.184"** %59, align 8
  %131 = load %"class.std::__1::__compressed_pair.184"*, %"class.std::__1::__compressed_pair.184"** %59, align 8
  store %"class.std::__1::__compressed_pair.184"* %131, %"class.std::__1::__compressed_pair.184"** %58, align 8
  %132 = load %"class.std::__1::__compressed_pair.184"*, %"class.std::__1::__compressed_pair.184"** %58, align 8
  %133 = bitcast %"class.std::__1::__compressed_pair.184"* %132 to %"class.std::__1::__libcpp_compressed_pair_imp.185"*
  store %"class.std::__1::__libcpp_compressed_pair_imp.185"* %133, %"class.std::__1::__libcpp_compressed_pair_imp.185"** %57, align 8
  %134 = load %"class.std::__1::__libcpp_compressed_pair_imp.185"*, %"class.std::__1::__libcpp_compressed_pair_imp.185"** %57, align 8
  %135 = bitcast %"class.std::__1::__libcpp_compressed_pair_imp.185"* %134 to %"class.std::__1::allocator.186"*
  store %"class.std::__1::allocator.186"* %135, %"class.std::__1::allocator.186"** %56, align 8
  %136 = load %"class.std::__1::allocator.186"*, %"class.std::__1::allocator.186"** %56, align 8
  %137 = getelementptr inbounds %"class.std::__1::__libcpp_compressed_pair_imp.185", %"class.std::__1::__libcpp_compressed_pair_imp.185"* %134, i32 0, i32 0
  store %"struct.std::__1::__hash_node_base.178"* %137, %"struct.std::__1::__hash_node_base.178"** %55, align 8
  %138 = load %"struct.std::__1::__hash_node_base.178"*, %"struct.std::__1::__hash_node_base.178"** %55, align 8
  store %"struct.std::__1::__hash_node_base.178"* %138, %"struct.std::__1::__hash_node_base.178"** %54, align 8
  %139 = load %"struct.std::__1::__hash_node_base.178"*, %"struct.std::__1::__hash_node_base.178"** %54, align 8
  %140 = getelementptr inbounds %"struct.std::__1::__hash_node_base.178", %"struct.std::__1::__hash_node_base.178"* %139, i32 0, i32 0
  store %"struct.std::__1::__hash_node_base.178"* null, %"struct.std::__1::__hash_node_base.178"** %140, align 8
  %141 = getelementptr inbounds %"class.std::__1::__hash_table.174", %"class.std::__1::__hash_table.174"* %99, i32 0, i32 2
  store %"class.std::__1::__compressed_pair.188"* %141, %"class.std::__1::__compressed_pair.188"** %27, align 8
  store i64 0, i64* %28, align 8
  %142 = load %"class.std::__1::__compressed_pair.188"*, %"class.std::__1::__compressed_pair.188"** %27, align 8
  %143 = load i64, i64* %28, align 8
  store %"class.std::__1::__compressed_pair.188"* %142, %"class.std::__1::__compressed_pair.188"** %25, align 8
  store i64 %143, i64* %26, align 8
  %144 = load %"class.std::__1::__compressed_pair.188"*, %"class.std::__1::__compressed_pair.188"** %25, align 8
  %145 = bitcast %"class.std::__1::__compressed_pair.188"* %144 to %"class.std::__1::__libcpp_compressed_pair_imp.189"*
  store i64* %26, i64** %24, align 8
  %146 = load i64*, i64** %24, align 8
  %147 = load i64, i64* %146, align 8
  store %"class.std::__1::__libcpp_compressed_pair_imp.189"* %145, %"class.std::__1::__libcpp_compressed_pair_imp.189"** %22, align 8
  store i64 %147, i64* %23, align 8
  %148 = load %"class.std::__1::__libcpp_compressed_pair_imp.189"*, %"class.std::__1::__libcpp_compressed_pair_imp.189"** %22, align 8
  %149 = bitcast %"class.std::__1::__libcpp_compressed_pair_imp.189"* %148 to %"class.std::__1::__unordered_map_hasher.190"*
  store %"class.std::__1::__unordered_map_hasher.190"* %149, %"class.std::__1::__unordered_map_hasher.190"** %21, align 8
  %150 = load %"class.std::__1::__unordered_map_hasher.190"*, %"class.std::__1::__unordered_map_hasher.190"** %21, align 8
  %151 = bitcast %"class.std::__1::__unordered_map_hasher.190"* %150 to %"struct.std::__1::hash"*
  %152 = getelementptr inbounds %"class.std::__1::__libcpp_compressed_pair_imp.189", %"class.std::__1::__libcpp_compressed_pair_imp.189"* %148, i32 0, i32 0
  store i64* %23, i64** %20, align 8
  %153 = load i64*, i64** %20, align 8
  %154 = load i64, i64* %153, align 8
  store i64 %154, i64* %152, align 8
  %155 = getelementptr inbounds %"class.std::__1::__hash_table.174", %"class.std::__1::__hash_table.174"* %99, i32 0, i32 3
  store %"class.std::__1::__compressed_pair.191"* %155, %"class.std::__1::__compressed_pair.191"** %18, align 8
  store float 1.000000e+00, float* %19, align 4
  %156 = load %"class.std::__1::__compressed_pair.191"*, %"class.std::__1::__compressed_pair.191"** %18, align 8
  %157 = load float, float* %19, align 4
  store %"class.std::__1::__compressed_pair.191"* %156, %"class.std::__1::__compressed_pair.191"** %16, align 8
  store float %157, float* %17, align 4
  %158 = load %"class.std::__1::__compressed_pair.191"*, %"class.std::__1::__compressed_pair.191"** %16, align 8
  %159 = bitcast %"class.std::__1::__compressed_pair.191"* %158 to %"class.std::__1::__libcpp_compressed_pair_imp.192"*
  store float* %17, float** %15, align 8
  %160 = load float*, float** %15, align 8
  %161 = load float, float* %160, align 4
  store %"class.std::__1::__libcpp_compressed_pair_imp.192"* %159, %"class.std::__1::__libcpp_compressed_pair_imp.192"** %13, align 8
  store float %161, float* %14, align 4
  %162 = load %"class.std::__1::__libcpp_compressed_pair_imp.192"*, %"class.std::__1::__libcpp_compressed_pair_imp.192"** %13, align 8
  %163 = bitcast %"class.std::__1::__libcpp_compressed_pair_imp.192"* %162 to %"class.std::__1::__unordered_map_equal.193"*
  store %"class.std::__1::__unordered_map_equal.193"* %163, %"class.std::__1::__unordered_map_equal.193"** %12, align 8
  %164 = load %"class.std::__1::__unordered_map_equal.193"*, %"class.std::__1::__unordered_map_equal.193"** %12, align 8
  %165 = bitcast %"class.std::__1::__unordered_map_equal.193"* %164 to %"struct.std::__1::equal_to"*
  %166 = getelementptr inbounds %"class.std::__1::__libcpp_compressed_pair_imp.192", %"class.std::__1::__libcpp_compressed_pair_imp.192"* %162, i32 0, i32 0
  store float* %14, float** %11, align 8
  %167 = load float*, float** %11, align 8
  %168 = load float, float* %167, align 4
  store float %168, float* %166, align 4
  %169 = getelementptr inbounds %class.InternalClass, %class.InternalClass* %89, i32 0, i32 5
  store %"class.std::__1::map"* %169, %"class.std::__1::map"** %10, align 8
  %170 = load %"class.std::__1::map"*, %"class.std::__1::map"** %10, align 8
  store %"class.std::__1::map"* %170, %"class.std::__1::map"** %7, align 8
  %171 = load %"class.std::__1::map"*, %"class.std::__1::map"** %7, align 8
  %172 = getelementptr inbounds %"class.std::__1::map", %"class.std::__1::map"* %171, i32 0, i32 0
  store %"class.std::__1::__map_value_compare"* %8, %"class.std::__1::__map_value_compare"** %6, align 8
  %173 = load %"class.std::__1::__map_value_compare"*, %"class.std::__1::__map_value_compare"** %6, align 8
  store %"class.std::__1::__map_value_compare"* %173, %"class.std::__1::__map_value_compare"** %4, align 8
  %174 = load %"class.std::__1::__map_value_compare"*, %"class.std::__1::__map_value_compare"** %4, align 8
  %175 = bitcast %"class.std::__1::__map_value_compare"* %174 to %"struct.std::__1::less"*
  call void @_ZNSt3__16__treeINS_12__value_typeINS_12basic_stringIcNS_11char_traitsIcEENS_9allocatorIcEEEEPN4llvm4TypeEEENS_19__map_value_compareIS7_SB_NS_4lessIS7_EELb1EEENS5_ISB_EEEC1ERKSF_(%"class.std::__1::__tree"* %172, %"class.std::__1::__map_value_compare"* dereferenceable(1) %8) #14
  ret void
}

declare void @_ZNSt3__112basic_stringIcNS_11char_traitsIcEENS_9allocatorIcEEEC1ERKS5_(%"class.std::__1::basic_string"*, %"class.std::__1::basic_string"* dereferenceable(24)) unnamed_addr #1

; Function Attrs: ssp uwtable
define void @_ZN13InternalClassC1ER14CodeGenVisitorNSt3__112basic_stringIcNS2_11char_traitsIcEENS2_9allocatorIcEEEE(%class.InternalClass*, %class.CodeGenVisitor* dereferenceable(448), %"class.std::__1::basic_string"*) unnamed_addr #0 align 2 {
  %4 = alloca %class.InternalClass*, align 8
  %5 = alloca %class.CodeGenVisitor*, align 8
  store %class.InternalClass* %0, %class.InternalClass** %4, align 8
  store %class.CodeGenVisitor* %1, %class.CodeGenVisitor** %5, align 8
  %6 = load %class.InternalClass*, %class.InternalClass** %4, align 8
  %7 = load %class.CodeGenVisitor*, %class.CodeGenVisitor** %5, align 8
  call void @_ZN13InternalClassC2ER14CodeGenVisitorNSt3__112basic_stringIcNS2_11char_traitsIcEENS2_9allocatorIcEEEE(%class.InternalClass* %6, %class.CodeGenVisitor* dereferenceable(448) %7, %"class.std::__1::basic_string"* %2)
  ret void
}

; Function Attrs: ssp uwtable
define dereferenceable(112) %class.InternalClass* @_ZN13InternalClass15DeclarePropertyENSt3__112basic_stringIcNS0_11char_traitsIcEENS0_9allocatorIcEEEEPN4llvm4TypeEb(%class.InternalClass*, %"class.std::__1::basic_string"*, %"class.llvm::Type"*, i1 zeroext) #0 align 2 personality i8* bitcast (i32 (...)* @__gxx_personality_v0 to i8*) {
  %5 = alloca %"class.llvm::Type"**, align 8
  %6 = alloca %"class.llvm::Type"**, align 8
  %7 = alloca %"class.std::__1::basic_string"*, align 8
  %8 = alloca %"struct.std::__1::pair.256", align 8
  %9 = alloca %"class.std::__1::__tree"*, align 8
  %10 = alloca %"class.std::__1::basic_string"*, align 8
  %11 = alloca %"class.llvm::Type"**, align 8
  %12 = alloca %"class.std::__1::__tree_iterator", align 8
  %13 = alloca %"class.std::__1::__map_iterator"*, align 8
  %14 = alloca %"class.std::__1::__tree_iterator", align 8
  %15 = alloca %"class.std::__1::__map_iterator"*, align 8
  %16 = alloca i8*, align 8
  %17 = alloca %"class.std::__1::__tree_iterator"*, align 8
  %18 = alloca %"struct.std::__1::pair"*, align 8
  %19 = alloca %"struct.std::__1::pair.256"*, align 8
  %20 = alloca i8*, align 8
  %21 = alloca %"class.std::__1::__tree_iterator", align 8
  %22 = alloca %"struct.std::__1::pair"*, align 8
  %23 = alloca %"struct.std::__1::pair.256"*, align 8
  %24 = alloca i8*, align 8
  %25 = alloca %"class.std::__1::basic_string"*, align 8
  %26 = alloca %"struct.std::__1::pair", align 8
  %27 = alloca %"class.std::__1::map"*, align 8
  %28 = alloca %"class.std::__1::basic_string"*, align 8
  %29 = alloca %"class.llvm::Type"**, align 8
  %30 = alloca %"struct.std::__1::pair.256", align 8
  %31 = alloca %class.InternalClass*, align 8
  %32 = alloca %"class.llvm::Type"*, align 8
  %33 = alloca i8, align 1
  %34 = alloca %"class.std::__1::basic_string", align 8
  %35 = alloca i8*
  %36 = alloca i32
  %37 = alloca %"struct.std::__1::pair", align 8
  store %class.InternalClass* %0, %class.InternalClass** %31, align 8
  store %"class.llvm::Type"* %2, %"class.llvm::Type"** %32, align 8
  %38 = zext i1 %3 to i8
  store i8 %38, i8* %33, align 1
  %39 = load %class.InternalClass*, %class.InternalClass** %31, align 8
  %40 = getelementptr inbounds %class.InternalClass, %class.InternalClass* %39, i32 0, i32 5
  %41 = load i8, i8* %33, align 1
  %42 = trunc i8 %41 to i1
  br i1 %42, label %43, label %44

; <label>:43:                                     ; preds = %4
  call void @_ZNSt3__1plIcNS_11char_traitsIcEENS_9allocatorIcEEEENS_12basic_stringIT_T0_T1_EERKS9_PKS6_(%"class.std::__1::basic_string"* sret %34, %"class.std::__1::basic_string"* dereferenceable(24) %1, i8* getelementptr inbounds ([4 x i8], [4 x i8]* @.str, i32 0, i32 0))
  br label %45

; <label>:44:                                     ; preds = %4
  call void @_ZNSt3__112basic_stringIcNS_11char_traitsIcEENS_9allocatorIcEEEC1ERKS5_(%"class.std::__1::basic_string"* %34, %"class.std::__1::basic_string"* dereferenceable(24) %1)
  br label %45

; <label>:45:                                     ; preds = %44, %43
  store %"class.std::__1::map"* %40, %"class.std::__1::map"** %27, align 8
  store %"class.std::__1::basic_string"* %34, %"class.std::__1::basic_string"** %28, align 8
  store %"class.llvm::Type"** %32, %"class.llvm::Type"*** %29, align 8
  %46 = load %"class.std::__1::map"*, %"class.std::__1::map"** %27, align 8
  %47 = getelementptr inbounds %"class.std::__1::map", %"class.std::__1::map"* %46, i32 0, i32 0
  %48 = load %"class.std::__1::basic_string"*, %"class.std::__1::basic_string"** %28, align 8
  store %"class.std::__1::basic_string"* %48, %"class.std::__1::basic_string"** %25, align 8
  %49 = load %"class.std::__1::basic_string"*, %"class.std::__1::basic_string"** %25, align 8
  %50 = load %"class.llvm::Type"**, %"class.llvm::Type"*** %29, align 8
  store %"class.llvm::Type"** %50, %"class.llvm::Type"*** %5, align 8
  %51 = load %"class.llvm::Type"**, %"class.llvm::Type"*** %5, align 8
  store %"class.std::__1::__tree"* %47, %"class.std::__1::__tree"** %9, align 8
  store %"class.std::__1::basic_string"* %49, %"class.std::__1::basic_string"** %10, align 8
  store %"class.llvm::Type"** %51, %"class.llvm::Type"*** %11, align 8
  %52 = load %"class.std::__1::__tree"*, %"class.std::__1::__tree"** %9, align 8
  %53 = load %"class.std::__1::basic_string"*, %"class.std::__1::basic_string"** %10, align 8
  %54 = load %"class.std::__1::basic_string"*, %"class.std::__1::basic_string"** %10, align 8
  store %"class.std::__1::basic_string"* %54, %"class.std::__1::basic_string"** %7, align 8
  %55 = load %"class.std::__1::basic_string"*, %"class.std::__1::basic_string"** %7, align 8
  %56 = load %"class.llvm::Type"**, %"class.llvm::Type"*** %11, align 8
  store %"class.llvm::Type"** %56, %"class.llvm::Type"*** %6, align 8
  %57 = load %"class.llvm::Type"**, %"class.llvm::Type"*** %6, align 8
  %58 = invoke { %"class.std::__1::__tree_end_node"*, i8 } @_ZNSt3__16__treeINS_12__value_typeINS_12basic_stringIcNS_11char_traitsIcEENS_9allocatorIcEEEEPN4llvm4TypeEEENS_19__map_value_compareIS7_SB_NS_4lessIS7_EELb1EEENS5_ISB_EEE25__emplace_unique_key_argsIS7_JS7_RSA_EEENS_4pairINS_15__tree_iteratorISB_PNS_11__tree_nodeISB_PvEElEEbEERKT_DpOT0_(%"class.std::__1::__tree"* %52, %"class.std::__1::basic_string"* dereferenceable(24) %53, %"class.std::__1::basic_string"* dereferenceable(24) %55, %"class.llvm::Type"** dereferenceable(8) %57)
          to label %59 unwind label %108

; <label>:59:                                     ; preds = %45
  %60 = bitcast %"struct.std::__1::pair.256"* %8 to { %"class.std::__1::__tree_end_node"*, i8 }*
  %61 = getelementptr inbounds { %"class.std::__1::__tree_end_node"*, i8 }, { %"class.std::__1::__tree_end_node"*, i8 }* %60, i32 0, i32 0
  %62 = extractvalue { %"class.std::__1::__tree_end_node"*, i8 } %58, 0
  store %"class.std::__1::__tree_end_node"* %62, %"class.std::__1::__tree_end_node"** %61, align 8
  %63 = getelementptr inbounds { %"class.std::__1::__tree_end_node"*, i8 }, { %"class.std::__1::__tree_end_node"*, i8 }* %60, i32 0, i32 1
  %64 = extractvalue { %"class.std::__1::__tree_end_node"*, i8 } %58, 1
  store i8 %64, i8* %63, align 8
  %65 = bitcast %"struct.std::__1::pair.256"* %8 to { %"class.std::__1::__tree_end_node"*, i8 }*
  %66 = load { %"class.std::__1::__tree_end_node"*, i8 }, { %"class.std::__1::__tree_end_node"*, i8 }* %65, align 8
  %67 = bitcast %"struct.std::__1::pair.256"* %30 to { %"class.std::__1::__tree_end_node"*, i8 }*
  %68 = getelementptr inbounds { %"class.std::__1::__tree_end_node"*, i8 }, { %"class.std::__1::__tree_end_node"*, i8 }* %67, i32 0, i32 0
  %69 = extractvalue { %"class.std::__1::__tree_end_node"*, i8 } %66, 0
  store %"class.std::__1::__tree_end_node"* %69, %"class.std::__1::__tree_end_node"** %68, align 8
  %70 = getelementptr inbounds { %"class.std::__1::__tree_end_node"*, i8 }, { %"class.std::__1::__tree_end_node"*, i8 }* %67, i32 0, i32 1
  %71 = extractvalue { %"class.std::__1::__tree_end_node"*, i8 } %66, 1
  store i8 %71, i8* %70, align 8
  store %"struct.std::__1::pair"* %26, %"struct.std::__1::pair"** %22, align 8
  store %"struct.std::__1::pair.256"* %30, %"struct.std::__1::pair.256"** %23, align 8
  store i8* null, i8** %24, align 8
  %72 = load %"struct.std::__1::pair"*, %"struct.std::__1::pair"** %22, align 8
  %73 = load %"struct.std::__1::pair.256"*, %"struct.std::__1::pair.256"** %23, align 8
  %74 = load i8*, i8** %24, align 8
  store %"struct.std::__1::pair"* %72, %"struct.std::__1::pair"** %18, align 8
  store %"struct.std::__1::pair.256"* %73, %"struct.std::__1::pair.256"** %19, align 8
  store i8* %74, i8** %20, align 8
  %75 = load %"struct.std::__1::pair"*, %"struct.std::__1::pair"** %18, align 8
  %76 = getelementptr inbounds %"struct.std::__1::pair", %"struct.std::__1::pair"* %75, i32 0, i32 0
  %77 = load %"struct.std::__1::pair.256"*, %"struct.std::__1::pair.256"** %19, align 8
  %78 = getelementptr inbounds %"struct.std::__1::pair.256", %"struct.std::__1::pair.256"* %77, i32 0, i32 0
  store %"class.std::__1::__tree_iterator"* %78, %"class.std::__1::__tree_iterator"** %17, align 8
  %79 = load %"class.std::__1::__tree_iterator"*, %"class.std::__1::__tree_iterator"** %17, align 8
  %80 = bitcast %"class.std::__1::__tree_iterator"* %21 to i8*
  %81 = bitcast %"class.std::__1::__tree_iterator"* %79 to i8*
  call void @llvm.memcpy.p0i8.p0i8.i64(i8* %80, i8* %81, i64 8, i32 8, i1 false) #14
  %82 = getelementptr inbounds %"class.std::__1::__tree_iterator", %"class.std::__1::__tree_iterator"* %21, i32 0, i32 0
  %83 = load %"class.std::__1::__tree_end_node"*, %"class.std::__1::__tree_end_node"** %82, align 8
  %84 = getelementptr inbounds %"class.std::__1::__tree_iterator", %"class.std::__1::__tree_iterator"* %14, i32 0, i32 0
  store %"class.std::__1::__tree_end_node"* %83, %"class.std::__1::__tree_end_node"** %84, align 8
  store %"class.std::__1::__map_iterator"* %76, %"class.std::__1::__map_iterator"** %15, align 8
  %85 = load %"class.std::__1::__map_iterator"*, %"class.std::__1::__map_iterator"** %15, align 8
  %86 = getelementptr inbounds %"class.std::__1::__tree_iterator", %"class.std::__1::__tree_iterator"* %14, i32 0, i32 0
  %87 = load %"class.std::__1::__tree_end_node"*, %"class.std::__1::__tree_end_node"** %86, align 8
  %88 = getelementptr inbounds %"class.std::__1::__tree_iterator", %"class.std::__1::__tree_iterator"* %12, i32 0, i32 0
  store %"class.std::__1::__tree_end_node"* %87, %"class.std::__1::__tree_end_node"** %88, align 8
  store %"class.std::__1::__map_iterator"* %85, %"class.std::__1::__map_iterator"** %13, align 8
  %89 = load %"class.std::__1::__map_iterator"*, %"class.std::__1::__map_iterator"** %13, align 8
  %90 = getelementptr inbounds %"class.std::__1::__map_iterator", %"class.std::__1::__map_iterator"* %89, i32 0, i32 0
  %91 = bitcast %"class.std::__1::__tree_iterator"* %90 to i8*
  %92 = bitcast %"class.std::__1::__tree_iterator"* %12 to i8*
  call void @llvm.memcpy.p0i8.p0i8.i64(i8* %91, i8* %92, i64 8, i32 8, i1 false) #14
  %93 = getelementptr inbounds %"struct.std::__1::pair", %"struct.std::__1::pair"* %75, i32 0, i32 1
  %94 = load %"struct.std::__1::pair.256"*, %"struct.std::__1::pair.256"** %19, align 8
  %95 = getelementptr inbounds %"struct.std::__1::pair.256", %"struct.std::__1::pair.256"* %94, i32 0, i32 1
  store i8* %95, i8** %16, align 8
  %96 = load i8*, i8** %16, align 8
  %97 = load i8, i8* %96, align 1
  %98 = trunc i8 %97 to i1
  %99 = zext i1 %98 to i8
  store i8 %99, i8* %93, align 8
  %100 = bitcast %"struct.std::__1::pair"* %26 to { %"class.std::__1::__tree_end_node"*, i8 }*
  %101 = load { %"class.std::__1::__tree_end_node"*, i8 }, { %"class.std::__1::__tree_end_node"*, i8 }* %100, align 8
  br label %102

; <label>:102:                                    ; preds = %59
  %103 = bitcast %"struct.std::__1::pair"* %37 to { %"class.std::__1::__tree_end_node"*, i8 }*
  %104 = getelementptr inbounds { %"class.std::__1::__tree_end_node"*, i8 }, { %"class.std::__1::__tree_end_node"*, i8 }* %103, i32 0, i32 0
  %105 = extractvalue { %"class.std::__1::__tree_end_node"*, i8 } %101, 0
  store %"class.std::__1::__tree_end_node"* %105, %"class.std::__1::__tree_end_node"** %104, align 8
  %106 = getelementptr inbounds { %"class.std::__1::__tree_end_node"*, i8 }, { %"class.std::__1::__tree_end_node"*, i8 }* %103, i32 0, i32 1
  %107 = extractvalue { %"class.std::__1::__tree_end_node"*, i8 } %101, 1
  store i8 %107, i8* %106, align 8
  call void @_ZNSt3__112basic_stringIcNS_11char_traitsIcEENS_9allocatorIcEEED1Ev(%"class.std::__1::basic_string"* %34) #14
  ret %class.InternalClass* %39

; <label>:108:                                    ; preds = %45
  %109 = landingpad { i8*, i32 }
          cleanup
  %110 = extractvalue { i8*, i32 } %109, 0
  store i8* %110, i8** %35, align 8
  %111 = extractvalue { i8*, i32 } %109, 1
  store i32 %111, i32* %36, align 4
  call void @_ZNSt3__112basic_stringIcNS_11char_traitsIcEENS_9allocatorIcEEED1Ev(%"class.std::__1::basic_string"* %34) #14
  br label %112

; <label>:112:                                    ; preds = %108
  %113 = load i8*, i8** %35, align 8
  %114 = load i32, i32* %36, align 4
  %115 = insertvalue { i8*, i32 } undef, i8* %113, 0
  %116 = insertvalue { i8*, i32 } %115, i32 %114, 1
  resume { i8*, i32 } %116
}

; Function Attrs: ssp uwtable
define linkonce_odr void @_ZNSt3__1plIcNS_11char_traitsIcEENS_9allocatorIcEEEENS_12basic_stringIT_T0_T1_EERKS9_PKS6_(%"class.std::__1::basic_string"* noalias sret, %"class.std::__1::basic_string"* dereferenceable(24), i8*) #0 personality i8* bitcast (i32 (...)* @__gxx_personality_v0 to i8*) {
  %4 = alloca %"class.std::__1::__libcpp_compressed_pair_imp.164"*, align 8
  %5 = alloca %"class.std::__1::__compressed_pair.163"*, align 8
  %6 = alloca %"class.std::__1::basic_string"*, align 8
  %7 = alloca %"class.std::__1::__libcpp_compressed_pair_imp.164"*, align 8
  %8 = alloca %"class.std::__1::__compressed_pair.163"*, align 8
  %9 = alloca %"class.std::__1::basic_string"*, align 8
  %10 = alloca %"class.std::__1::__libcpp_compressed_pair_imp.164"*, align 8
  %11 = alloca %"class.std::__1::__compressed_pair.163"*, align 8
  %12 = alloca %"class.std::__1::basic_string"*, align 8
  %13 = alloca %"class.std::__1::basic_string"*, align 8
  %14 = alloca %"class.std::__1::__libcpp_compressed_pair_imp.164"*, align 8
  %15 = alloca %"class.std::__1::__compressed_pair.163"*, align 8
  %16 = alloca %"class.std::__1::basic_string"*, align 8
  %17 = alloca [3 x i64]*, align 8
  %18 = alloca i32, align 4
  %19 = alloca %"class.std::__1::allocator.165"*, align 8
  %20 = alloca %"class.std::__1::allocator.165", align 1
  %21 = alloca %"class.std::__1::__libcpp_compressed_pair_imp.164"*, align 8
  %22 = alloca %"class.std::__1::allocator.165"*, align 8
  %23 = alloca %"class.std::__1::allocator.165", align 1
  %24 = alloca %"class.std::__1::__compressed_pair.163"*, align 8
  %25 = alloca %"class.std::__1::allocator.165", align 1
  %26 = alloca %"class.std::__1::allocator.165", align 1
  %27 = alloca %"class.std::__1::__compressed_pair.163"*, align 8
  %28 = alloca %"class.std::__1::basic_string"*, align 8
  %29 = alloca %"class.std::__1::allocator.165"*, align 8
  %30 = alloca %"class.std::__1::allocator.165", align 1
  %31 = alloca %"class.std::__1::basic_string"*, align 8
  %32 = alloca %"class.std::__1::allocator.165"*, align 8
  %33 = alloca i8*, align 8
  %34 = alloca %"class.std::__1::__libcpp_compressed_pair_imp.164"*, align 8
  %35 = alloca %"class.std::__1::__compressed_pair.163"*, align 8
  %36 = alloca %"class.std::__1::basic_string"*, align 8
  %37 = alloca i8*, align 8
  %38 = alloca i8*, align 8
  %39 = alloca %"class.std::__1::__libcpp_compressed_pair_imp.164"*, align 8
  %40 = alloca %"class.std::__1::__compressed_pair.163"*, align 8
  %41 = alloca %"class.std::__1::basic_string"*, align 8
  %42 = alloca %"class.std::__1::__libcpp_compressed_pair_imp.164"*, align 8
  %43 = alloca %"class.std::__1::__compressed_pair.163"*, align 8
  %44 = alloca %"class.std::__1::basic_string"*, align 8
  %45 = alloca %"class.std::__1::basic_string"*, align 8
  %46 = alloca %"class.std::__1::basic_string"*, align 8
  %47 = alloca %"class.std::__1::__libcpp_compressed_pair_imp.164"*, align 8
  %48 = alloca %"class.std::__1::__compressed_pair.163"*, align 8
  %49 = alloca %"class.std::__1::basic_string"*, align 8
  %50 = alloca %"class.std::__1::allocator.165", align 1
  %51 = alloca %"class.std::__1::basic_string"*, align 8
  %52 = alloca %"class.std::__1::basic_string"*, align 8
  %53 = alloca i8*, align 8
  %54 = alloca i1, align 1
  %55 = alloca %"class.std::__1::allocator.165", align 1
  %56 = alloca %"class.std::__1::allocator.165", align 1
  %57 = alloca i64, align 8
  %58 = alloca i64, align 8
  %59 = alloca i8*
  %60 = alloca i32
  store %"class.std::__1::basic_string"* %1, %"class.std::__1::basic_string"** %52, align 8
  store i8* %2, i8** %53, align 8
  store i1 false, i1* %54, align 1
  %61 = load %"class.std::__1::basic_string"*, %"class.std::__1::basic_string"** %52, align 8
  store %"class.std::__1::basic_string"* %61, %"class.std::__1::basic_string"** %51, align 8
  %62 = load %"class.std::__1::basic_string"*, %"class.std::__1::basic_string"** %51, align 8
  store %"class.std::__1::basic_string"* %62, %"class.std::__1::basic_string"** %49, align 8
  %63 = load %"class.std::__1::basic_string"*, %"class.std::__1::basic_string"** %49, align 8
  %64 = getelementptr inbounds %"class.std::__1::basic_string", %"class.std::__1::basic_string"* %63, i32 0, i32 0
  store %"class.std::__1::__compressed_pair.163"* %64, %"class.std::__1::__compressed_pair.163"** %48, align 8
  %65 = load %"class.std::__1::__compressed_pair.163"*, %"class.std::__1::__compressed_pair.163"** %48, align 8
  %66 = bitcast %"class.std::__1::__compressed_pair.163"* %65 to %"class.std::__1::__libcpp_compressed_pair_imp.164"*
  store %"class.std::__1::__libcpp_compressed_pair_imp.164"* %66, %"class.std::__1::__libcpp_compressed_pair_imp.164"** %47, align 8
  %67 = load %"class.std::__1::__libcpp_compressed_pair_imp.164"*, %"class.std::__1::__libcpp_compressed_pair_imp.164"** %47, align 8
  %68 = bitcast %"class.std::__1::__libcpp_compressed_pair_imp.164"* %67 to %"class.std::__1::allocator.165"*
  store %"class.std::__1::basic_string"* %0, %"class.std::__1::basic_string"** %31, align 8
  store %"class.std::__1::allocator.165"* %55, %"class.std::__1::allocator.165"** %32, align 8
  %69 = load %"class.std::__1::basic_string"*, %"class.std::__1::basic_string"** %31, align 8
  %70 = load %"class.std::__1::allocator.165"*, %"class.std::__1::allocator.165"** %32, align 8
  store %"class.std::__1::basic_string"* %69, %"class.std::__1::basic_string"** %28, align 8
  store %"class.std::__1::allocator.165"* %70, %"class.std::__1::allocator.165"** %29, align 8
  %71 = load %"class.std::__1::basic_string"*, %"class.std::__1::basic_string"** %28, align 8
  %72 = bitcast %"class.std::__1::basic_string"* %71 to %"class.std::__1::__basic_string_common"*
  %73 = getelementptr inbounds %"class.std::__1::basic_string", %"class.std::__1::basic_string"* %71, i32 0, i32 0
  %74 = load %"class.std::__1::allocator.165"*, %"class.std::__1::allocator.165"** %29, align 8
  store %"class.std::__1::__compressed_pair.163"* %73, %"class.std::__1::__compressed_pair.163"** %27, align 8
  %75 = load %"class.std::__1::__compressed_pair.163"*, %"class.std::__1::__compressed_pair.163"** %27, align 8
  store %"class.std::__1::__compressed_pair.163"* %75, %"class.std::__1::__compressed_pair.163"** %24, align 8
  %76 = load %"class.std::__1::__compressed_pair.163"*, %"class.std::__1::__compressed_pair.163"** %24, align 8
  %77 = bitcast %"class.std::__1::__compressed_pair.163"* %76 to %"class.std::__1::__libcpp_compressed_pair_imp.164"*
  store %"class.std::__1::allocator.165"* %23, %"class.std::__1::allocator.165"** %22, align 8
  %78 = load %"class.std::__1::allocator.165"*, %"class.std::__1::allocator.165"** %22, align 8
  store %"class.std::__1::__libcpp_compressed_pair_imp.164"* %77, %"class.std::__1::__libcpp_compressed_pair_imp.164"** %21, align 8
  %79 = load %"class.std::__1::__libcpp_compressed_pair_imp.164"*, %"class.std::__1::__libcpp_compressed_pair_imp.164"** %21, align 8
  %80 = bitcast %"class.std::__1::__libcpp_compressed_pair_imp.164"* %79 to %"class.std::__1::allocator.165"*
  store %"class.std::__1::allocator.165"* %20, %"class.std::__1::allocator.165"** %19, align 8
  %81 = load %"class.std::__1::allocator.165"*, %"class.std::__1::allocator.165"** %19, align 8
  %82 = getelementptr inbounds %"class.std::__1::__libcpp_compressed_pair_imp.164", %"class.std::__1::__libcpp_compressed_pair_imp.164"* %79, i32 0, i32 0
  %83 = bitcast %"struct.std::__1::basic_string<char, std::__1::char_traits<char>, std::__1::allocator<char> >::__rep"* %82 to i8*
  call void @llvm.memset.p0i8.i64(i8* %83, i8 0, i64 24, i32 8, i1 false) #14
  store %"class.std::__1::basic_string"* %71, %"class.std::__1::basic_string"** %16, align 8
  %84 = load %"class.std::__1::basic_string"*, %"class.std::__1::basic_string"** %16, align 8
  %85 = getelementptr inbounds %"class.std::__1::basic_string", %"class.std::__1::basic_string"* %84, i32 0, i32 0
  store %"class.std::__1::__compressed_pair.163"* %85, %"class.std::__1::__compressed_pair.163"** %15, align 8
  %86 = load %"class.std::__1::__compressed_pair.163"*, %"class.std::__1::__compressed_pair.163"** %15, align 8
  %87 = bitcast %"class.std::__1::__compressed_pair.163"* %86 to %"class.std::__1::__libcpp_compressed_pair_imp.164"*
  store %"class.std::__1::__libcpp_compressed_pair_imp.164"* %87, %"class.std::__1::__libcpp_compressed_pair_imp.164"** %14, align 8
  %88 = load %"class.std::__1::__libcpp_compressed_pair_imp.164"*, %"class.std::__1::__libcpp_compressed_pair_imp.164"** %14, align 8
  %89 = getelementptr inbounds %"class.std::__1::__libcpp_compressed_pair_imp.164", %"class.std::__1::__libcpp_compressed_pair_imp.164"* %88, i32 0, i32 0
  %90 = getelementptr inbounds %"struct.std::__1::basic_string<char, std::__1::char_traits<char>, std::__1::allocator<char> >::__rep", %"struct.std::__1::basic_string<char, std::__1::char_traits<char>, std::__1::allocator<char> >::__rep"* %89, i32 0, i32 0
  %91 = bitcast %union.anon.167* %90 to %"struct.std::__1::basic_string<char, std::__1::char_traits<char>, std::__1::allocator<char> >::__raw"*
  %92 = getelementptr inbounds %"struct.std::__1::basic_string<char, std::__1::char_traits<char>, std::__1::allocator<char> >::__raw", %"struct.std::__1::basic_string<char, std::__1::char_traits<char>, std::__1::allocator<char> >::__raw"* %91, i32 0, i32 0
  store [3 x i64]* %92, [3 x i64]** %17, align 8
  store i32 0, i32* %18, align 4
  br label %93

; <label>:93:                                     ; preds = %96, %3
  %94 = load i32, i32* %18, align 4
  %95 = icmp ult i32 %94, 3
  br i1 %95, label %96, label %103

; <label>:96:                                     ; preds = %93
  %97 = load i32, i32* %18, align 4
  %98 = zext i32 %97 to i64
  %99 = load [3 x i64]*, [3 x i64]** %17, align 8
  %100 = getelementptr inbounds [3 x i64], [3 x i64]* %99, i64 0, i64 %98
  store i64 0, i64* %100, align 8
  %101 = load i32, i32* %18, align 4
  %102 = add i32 %101, 1
  store i32 %102, i32* %18, align 4
  br label %93

; <label>:103:                                    ; preds = %93
  %104 = load %"class.std::__1::basic_string"*, %"class.std::__1::basic_string"** %52, align 8
  store %"class.std::__1::basic_string"* %104, %"class.std::__1::basic_string"** %13, align 8
  %105 = load %"class.std::__1::basic_string"*, %"class.std::__1::basic_string"** %13, align 8
  store %"class.std::__1::basic_string"* %105, %"class.std::__1::basic_string"** %12, align 8
  %106 = load %"class.std::__1::basic_string"*, %"class.std::__1::basic_string"** %12, align 8
  %107 = getelementptr inbounds %"class.std::__1::basic_string", %"class.std::__1::basic_string"* %106, i32 0, i32 0
  store %"class.std::__1::__compressed_pair.163"* %107, %"class.std::__1::__compressed_pair.163"** %11, align 8
  %108 = load %"class.std::__1::__compressed_pair.163"*, %"class.std::__1::__compressed_pair.163"** %11, align 8
  %109 = bitcast %"class.std::__1::__compressed_pair.163"* %108 to %"class.std::__1::__libcpp_compressed_pair_imp.164"*
  store %"class.std::__1::__libcpp_compressed_pair_imp.164"* %109, %"class.std::__1::__libcpp_compressed_pair_imp.164"** %10, align 8
  %110 = load %"class.std::__1::__libcpp_compressed_pair_imp.164"*, %"class.std::__1::__libcpp_compressed_pair_imp.164"** %10, align 8
  %111 = getelementptr inbounds %"class.std::__1::__libcpp_compressed_pair_imp.164", %"class.std::__1::__libcpp_compressed_pair_imp.164"* %110, i32 0, i32 0
  %112 = getelementptr inbounds %"struct.std::__1::basic_string<char, std::__1::char_traits<char>, std::__1::allocator<char> >::__rep", %"struct.std::__1::basic_string<char, std::__1::char_traits<char>, std::__1::allocator<char> >::__rep"* %111, i32 0, i32 0
  %113 = bitcast %union.anon.167* %112 to %"struct.std::__1::basic_string<char, std::__1::char_traits<char>, std::__1::allocator<char> >::__short"*
  %114 = getelementptr inbounds %"struct.std::__1::basic_string<char, std::__1::char_traits<char>, std::__1::allocator<char> >::__short", %"struct.std::__1::basic_string<char, std::__1::char_traits<char>, std::__1::allocator<char> >::__short"* %113, i32 0, i32 0
  %115 = bitcast %union.anon.168* %114 to i8*
  %116 = load i8, i8* %115, align 8
  %117 = zext i8 %116 to i32
  %118 = and i32 %117, 1
  %119 = icmp ne i32 %118, 0
  br i1 %119, label %120, label %131

; <label>:120:                                    ; preds = %103
  store %"class.std::__1::basic_string"* %105, %"class.std::__1::basic_string"** %6, align 8
  %121 = load %"class.std::__1::basic_string"*, %"class.std::__1::basic_string"** %6, align 8
  %122 = getelementptr inbounds %"class.std::__1::basic_string", %"class.std::__1::basic_string"* %121, i32 0, i32 0
  store %"class.std::__1::__compressed_pair.163"* %122, %"class.std::__1::__compressed_pair.163"** %5, align 8
  %123 = load %"class.std::__1::__compressed_pair.163"*, %"class.std::__1::__compressed_pair.163"** %5, align 8
  %124 = bitcast %"class.std::__1::__compressed_pair.163"* %123 to %"class.std::__1::__libcpp_compressed_pair_imp.164"*
  store %"class.std::__1::__libcpp_compressed_pair_imp.164"* %124, %"class.std::__1::__libcpp_compressed_pair_imp.164"** %4, align 8
  %125 = load %"class.std::__1::__libcpp_compressed_pair_imp.164"*, %"class.std::__1::__libcpp_compressed_pair_imp.164"** %4, align 8
  %126 = getelementptr inbounds %"class.std::__1::__libcpp_compressed_pair_imp.164", %"class.std::__1::__libcpp_compressed_pair_imp.164"* %125, i32 0, i32 0
  %127 = getelementptr inbounds %"struct.std::__1::basic_string<char, std::__1::char_traits<char>, std::__1::allocator<char> >::__rep", %"struct.std::__1::basic_string<char, std::__1::char_traits<char>, std::__1::allocator<char> >::__rep"* %126, i32 0, i32 0
  %128 = bitcast %union.anon.167* %127 to %"struct.std::__1::basic_string<char, std::__1::char_traits<char>, std::__1::allocator<char> >::__long"*
  %129 = getelementptr inbounds %"struct.std::__1::basic_string<char, std::__1::char_traits<char>, std::__1::allocator<char> >::__long", %"struct.std::__1::basic_string<char, std::__1::char_traits<char>, std::__1::allocator<char> >::__long"* %128, i32 0, i32 1
  %130 = load i64, i64* %129, align 8
  br label %146

; <label>:131:                                    ; preds = %103
  store %"class.std::__1::basic_string"* %105, %"class.std::__1::basic_string"** %9, align 8
  %132 = load %"class.std::__1::basic_string"*, %"class.std::__1::basic_string"** %9, align 8
  %133 = getelementptr inbounds %"class.std::__1::basic_string", %"class.std::__1::basic_string"* %132, i32 0, i32 0
  store %"class.std::__1::__compressed_pair.163"* %133, %"class.std::__1::__compressed_pair.163"** %8, align 8
  %134 = load %"class.std::__1::__compressed_pair.163"*, %"class.std::__1::__compressed_pair.163"** %8, align 8
  %135 = bitcast %"class.std::__1::__compressed_pair.163"* %134 to %"class.std::__1::__libcpp_compressed_pair_imp.164"*
  store %"class.std::__1::__libcpp_compressed_pair_imp.164"* %135, %"class.std::__1::__libcpp_compressed_pair_imp.164"** %7, align 8
  %136 = load %"class.std::__1::__libcpp_compressed_pair_imp.164"*, %"class.std::__1::__libcpp_compressed_pair_imp.164"** %7, align 8
  %137 = getelementptr inbounds %"class.std::__1::__libcpp_compressed_pair_imp.164", %"class.std::__1::__libcpp_compressed_pair_imp.164"* %136, i32 0, i32 0
  %138 = getelementptr inbounds %"struct.std::__1::basic_string<char, std::__1::char_traits<char>, std::__1::allocator<char> >::__rep", %"struct.std::__1::basic_string<char, std::__1::char_traits<char>, std::__1::allocator<char> >::__rep"* %137, i32 0, i32 0
  %139 = bitcast %union.anon.167* %138 to %"struct.std::__1::basic_string<char, std::__1::char_traits<char>, std::__1::allocator<char> >::__short"*
  %140 = getelementptr inbounds %"struct.std::__1::basic_string<char, std::__1::char_traits<char>, std::__1::allocator<char> >::__short", %"struct.std::__1::basic_string<char, std::__1::char_traits<char>, std::__1::allocator<char> >::__short"* %139, i32 0, i32 0
  %141 = bitcast %union.anon.168* %140 to i8*
  %142 = load i8, i8* %141, align 8
  %143 = zext i8 %142 to i32
  %144 = ashr i32 %143, 1
  %145 = sext i32 %144 to i64
  br label %146

; <label>:146:                                    ; preds = %120, %131
  %147 = phi i64 [ %130, %120 ], [ %145, %131 ]
  store i64 %147, i64* %57, align 8
  %148 = load i8*, i8** %53, align 8
  %149 = invoke i64 @_ZNSt3__111char_traitsIcE6lengthEPKc(i8* %148)
          to label %150 unwind label %205

; <label>:150:                                    ; preds = %146
  store i64 %149, i64* %58, align 8
  %151 = load %"class.std::__1::basic_string"*, %"class.std::__1::basic_string"** %52, align 8
  store %"class.std::__1::basic_string"* %151, %"class.std::__1::basic_string"** %46, align 8
  %152 = load %"class.std::__1::basic_string"*, %"class.std::__1::basic_string"** %46, align 8
  store %"class.std::__1::basic_string"* %152, %"class.std::__1::basic_string"** %45, align 8
  %153 = load %"class.std::__1::basic_string"*, %"class.std::__1::basic_string"** %45, align 8
  store %"class.std::__1::basic_string"* %153, %"class.std::__1::basic_string"** %44, align 8
  %154 = load %"class.std::__1::basic_string"*, %"class.std::__1::basic_string"** %44, align 8
  %155 = getelementptr inbounds %"class.std::__1::basic_string", %"class.std::__1::basic_string"* %154, i32 0, i32 0
  store %"class.std::__1::__compressed_pair.163"* %155, %"class.std::__1::__compressed_pair.163"** %43, align 8
  %156 = load %"class.std::__1::__compressed_pair.163"*, %"class.std::__1::__compressed_pair.163"** %43, align 8
  %157 = bitcast %"class.std::__1::__compressed_pair.163"* %156 to %"class.std::__1::__libcpp_compressed_pair_imp.164"*
  store %"class.std::__1::__libcpp_compressed_pair_imp.164"* %157, %"class.std::__1::__libcpp_compressed_pair_imp.164"** %42, align 8
  %158 = load %"class.std::__1::__libcpp_compressed_pair_imp.164"*, %"class.std::__1::__libcpp_compressed_pair_imp.164"** %42, align 8
  %159 = getelementptr inbounds %"class.std::__1::__libcpp_compressed_pair_imp.164", %"class.std::__1::__libcpp_compressed_pair_imp.164"* %158, i32 0, i32 0
  %160 = getelementptr inbounds %"struct.std::__1::basic_string<char, std::__1::char_traits<char>, std::__1::allocator<char> >::__rep", %"struct.std::__1::basic_string<char, std::__1::char_traits<char>, std::__1::allocator<char> >::__rep"* %159, i32 0, i32 0
  %161 = bitcast %union.anon.167* %160 to %"struct.std::__1::basic_string<char, std::__1::char_traits<char>, std::__1::allocator<char> >::__short"*
  %162 = getelementptr inbounds %"struct.std::__1::basic_string<char, std::__1::char_traits<char>, std::__1::allocator<char> >::__short", %"struct.std::__1::basic_string<char, std::__1::char_traits<char>, std::__1::allocator<char> >::__short"* %161, i32 0, i32 0
  %163 = bitcast %union.anon.168* %162 to i8*
  %164 = load i8, i8* %163, align 8
  %165 = zext i8 %164 to i32
  %166 = and i32 %165, 1
  %167 = icmp ne i32 %166, 0
  br i1 %167, label %168, label %179

; <label>:168:                                    ; preds = %150
  store %"class.std::__1::basic_string"* %153, %"class.std::__1::basic_string"** %36, align 8
  %169 = load %"class.std::__1::basic_string"*, %"class.std::__1::basic_string"** %36, align 8
  %170 = getelementptr inbounds %"class.std::__1::basic_string", %"class.std::__1::basic_string"* %169, i32 0, i32 0
  store %"class.std::__1::__compressed_pair.163"* %170, %"class.std::__1::__compressed_pair.163"** %35, align 8
  %171 = load %"class.std::__1::__compressed_pair.163"*, %"class.std::__1::__compressed_pair.163"** %35, align 8
  %172 = bitcast %"class.std::__1::__compressed_pair.163"* %171 to %"class.std::__1::__libcpp_compressed_pair_imp.164"*
  store %"class.std::__1::__libcpp_compressed_pair_imp.164"* %172, %"class.std::__1::__libcpp_compressed_pair_imp.164"** %34, align 8
  %173 = load %"class.std::__1::__libcpp_compressed_pair_imp.164"*, %"class.std::__1::__libcpp_compressed_pair_imp.164"** %34, align 8
  %174 = getelementptr inbounds %"class.std::__1::__libcpp_compressed_pair_imp.164", %"class.std::__1::__libcpp_compressed_pair_imp.164"* %173, i32 0, i32 0
  %175 = getelementptr inbounds %"struct.std::__1::basic_string<char, std::__1::char_traits<char>, std::__1::allocator<char> >::__rep", %"struct.std::__1::basic_string<char, std::__1::char_traits<char>, std::__1::allocator<char> >::__rep"* %174, i32 0, i32 0
  %176 = bitcast %union.anon.167* %175 to %"struct.std::__1::basic_string<char, std::__1::char_traits<char>, std::__1::allocator<char> >::__long"*
  %177 = getelementptr inbounds %"struct.std::__1::basic_string<char, std::__1::char_traits<char>, std::__1::allocator<char> >::__long", %"struct.std::__1::basic_string<char, std::__1::char_traits<char>, std::__1::allocator<char> >::__long"* %176, i32 0, i32 2
  %178 = load i8*, i8** %177, align 8
  br label %192

; <label>:179:                                    ; preds = %150
  store %"class.std::__1::basic_string"* %153, %"class.std::__1::basic_string"** %41, align 8
  %180 = load %"class.std::__1::basic_string"*, %"class.std::__1::basic_string"** %41, align 8
  %181 = getelementptr inbounds %"class.std::__1::basic_string", %"class.std::__1::basic_string"* %180, i32 0, i32 0
  store %"class.std::__1::__compressed_pair.163"* %181, %"class.std::__1::__compressed_pair.163"** %40, align 8
  %182 = load %"class.std::__1::__compressed_pair.163"*, %"class.std::__1::__compressed_pair.163"** %40, align 8
  %183 = bitcast %"class.std::__1::__compressed_pair.163"* %182 to %"class.std::__1::__libcpp_compressed_pair_imp.164"*
  store %"class.std::__1::__libcpp_compressed_pair_imp.164"* %183, %"class.std::__1::__libcpp_compressed_pair_imp.164"** %39, align 8
  %184 = load %"class.std::__1::__libcpp_compressed_pair_imp.164"*, %"class.std::__1::__libcpp_compressed_pair_imp.164"** %39, align 8
  %185 = getelementptr inbounds %"class.std::__1::__libcpp_compressed_pair_imp.164", %"class.std::__1::__libcpp_compressed_pair_imp.164"* %184, i32 0, i32 0
  %186 = getelementptr inbounds %"struct.std::__1::basic_string<char, std::__1::char_traits<char>, std::__1::allocator<char> >::__rep", %"struct.std::__1::basic_string<char, std::__1::char_traits<char>, std::__1::allocator<char> >::__rep"* %185, i32 0, i32 0
  %187 = bitcast %union.anon.167* %186 to %"struct.std::__1::basic_string<char, std::__1::char_traits<char>, std::__1::allocator<char> >::__short"*
  %188 = getelementptr inbounds %"struct.std::__1::basic_string<char, std::__1::char_traits<char>, std::__1::allocator<char> >::__short", %"struct.std::__1::basic_string<char, std::__1::char_traits<char>, std::__1::allocator<char> >::__short"* %187, i32 0, i32 1
  %189 = getelementptr inbounds [23 x i8], [23 x i8]* %188, i64 0, i64 0
  store i8* %189, i8** %38, align 8
  %190 = load i8*, i8** %38, align 8
  store i8* %190, i8** %37, align 8
  %191 = load i8*, i8** %37, align 8
  br label %192

; <label>:192:                                    ; preds = %168, %179
  %193 = phi i8* [ %178, %168 ], [ %191, %179 ]
  store i8* %193, i8** %33, align 8
  %194 = load i8*, i8** %33, align 8
  %195 = load i64, i64* %57, align 8
  %196 = load i64, i64* %57, align 8
  %197 = load i64, i64* %58, align 8
  %198 = add i64 %196, %197
  invoke void @_ZNSt3__112basic_stringIcNS_11char_traitsIcEENS_9allocatorIcEEE6__initEPKcmm(%"class.std::__1::basic_string"* %0, i8* %194, i64 %195, i64 %198)
          to label %199 unwind label %205

; <label>:199:                                    ; preds = %192
  %200 = load i8*, i8** %53, align 8
  %201 = load i64, i64* %58, align 8
  %202 = invoke dereferenceable(24) %"class.std::__1::basic_string"* @_ZNSt3__112basic_stringIcNS_11char_traitsIcEENS_9allocatorIcEEE6appendEPKcm(%"class.std::__1::basic_string"* %0, i8* %200, i64 %201)
          to label %203 unwind label %205

; <label>:203:                                    ; preds = %199
  store i1 true, i1* %54, align 1
  %204 = load i1, i1* %54, align 1
  br i1 %204, label %210, label %209

; <label>:205:                                    ; preds = %199, %192, %146
  %206 = landingpad { i8*, i32 }
          cleanup
  %207 = extractvalue { i8*, i32 } %206, 0
  store i8* %207, i8** %59, align 8
  %208 = extractvalue { i8*, i32 } %206, 1
  store i32 %208, i32* %60, align 4
  call void @_ZNSt3__112basic_stringIcNS_11char_traitsIcEENS_9allocatorIcEEED1Ev(%"class.std::__1::basic_string"* %0) #14
  br label %211

; <label>:209:                                    ; preds = %203
  call void @_ZNSt3__112basic_stringIcNS_11char_traitsIcEENS_9allocatorIcEEED1Ev(%"class.std::__1::basic_string"* %0) #14
  br label %210

; <label>:210:                                    ; preds = %209, %203
  ret void

; <label>:211:                                    ; preds = %205
  %212 = load i8*, i8** %59, align 8
  %213 = load i32, i32* %60, align 4
  %214 = insertvalue { i8*, i32 } undef, i8* %212, 0
  %215 = insertvalue { i8*, i32 } %214, i32 %213, 1
  resume { i8*, i32 } %215
}

declare i32 @__gxx_personality_v0(...)

; Function Attrs: nounwind
declare void @_ZNSt3__112basic_stringIcNS_11char_traitsIcEENS_9allocatorIcEEED1Ev(%"class.std::__1::basic_string"*) unnamed_addr #2

; Function Attrs: ssp uwtable
define dereferenceable(112) %class.InternalClass* @_ZN13InternalClass3GetEv(%class.InternalClass*) #0 align 2 personality i8* bitcast (i32 (...)* @__gxx_personality_v0 to i8*) {
  %2 = alloca %"union.std::__1::__value_type"*, align 8
  %3 = alloca %"union.std::__1::__value_type"*, align 8
  %4 = alloca %"class.std::__1::__tree_iterator"*, align 8
  %5 = alloca %"class.std::__1::__tree_iterator"*, align 8
  %6 = alloca %"class.std::__1::__map_iterator"*, align 8
  %7 = alloca %"class.llvm::Type"**, align 8
  %8 = alloca %"class.std::__1::allocator.205"*, align 8
  %9 = alloca %"class.llvm::Type"**, align 8
  %10 = alloca %"class.llvm::Type"**, align 8
  %11 = alloca %"class.llvm::Type"**, align 8
  %12 = alloca %"struct.std::__1::integral_constant", align 1
  %13 = alloca %"class.std::__1::allocator.205"*, align 8
  %14 = alloca %"class.llvm::Type"**, align 8
  %15 = alloca %"class.llvm::Type"**, align 8
  %16 = alloca %"class.llvm::Type"**, align 8
  %17 = alloca %"class.std::__1::allocator.205"*, align 8
  %18 = alloca %"class.llvm::Type"**, align 8
  %19 = alloca %"class.llvm::Type"**, align 8
  %20 = alloca %"struct.std::__1::integral_constant", align 1
  %21 = alloca %"struct.std::__1::__has_construct.261", align 1
  %22 = alloca %"class.llvm::Type"**, align 8
  %23 = alloca %"class.std::__1::__libcpp_compressed_pair_imp.204"*, align 8
  %24 = alloca %"class.std::__1::__compressed_pair.203"*, align 8
  %25 = alloca %"class.std::__1::__vector_base.202"*, align 8
  %26 = alloca %"class.std::__1::__libcpp_compressed_pair_imp.204"*, align 8
  %27 = alloca %"class.std::__1::__compressed_pair.203"*, align 8
  %28 = alloca %"class.std::__1::__vector_base.202"*, align 8
  %29 = alloca %"class.std::__1::vector.201"*, align 8
  %30 = alloca %"class.llvm::Type"**, align 8
  %31 = alloca %"struct.std::__1::vector<llvm::Type *, std::__1::allocator<llvm::Type *> >::__RAII_IncreaseAnnotator", align 1
  %32 = alloca %"class.std::__1::__tree_node_base"*, align 8
  %33 = alloca %"class.std::__1::__tree_node_base"*, align 8
  %34 = alloca %"class.std::__1::__tree_node_base"*, align 8
  %35 = alloca %"class.std::__1::__tree_end_node"*, align 8
  %36 = alloca %"class.std::__1::__tree_node_base"*, align 8
  %37 = alloca %"class.std::__1::__tree_iterator"*, align 8
  %38 = alloca %"class.std::__1::__map_iterator"*, align 8
  %39 = alloca %"class.std::__1::__tree_iterator"*, align 8
  %40 = alloca %"class.std::__1::__tree_iterator"*, align 8
  %41 = alloca %"class.std::__1::__tree_iterator"*, align 8
  %42 = alloca %"class.std::__1::__tree_iterator"*, align 8
  %43 = alloca %"class.std::__1::__map_iterator"*, align 8
  %44 = alloca %"class.std::__1::__map_iterator"*, align 8
  %45 = alloca %"class.std::__1::__tree_iterator", align 8
  %46 = alloca %"class.std::__1::__map_iterator"*, align 8
  %47 = alloca %"class.std::__1::__tree_iterator", align 8
  %48 = alloca %"class.std::__1::__map_iterator"*, align 8
  %49 = alloca %"class.std::__1::__tree_iterator"*, align 8
  %50 = alloca %"class.std::__1::__tree_end_node"*, align 8
  %51 = alloca %"class.std::__1::__tree_iterator"*, align 8
  %52 = alloca %"class.std::__1::__tree_end_node"*, align 8
  %53 = alloca %"class.std::__1::__tree_end_node"*, align 8
  %54 = alloca %"class.std::__1::__tree_end_node"*, align 8
  %55 = alloca %"class.std::__1::__libcpp_compressed_pair_imp.196"*, align 8
  %56 = alloca %"class.std::__1::__compressed_pair.195"*, align 8
  %57 = alloca %"class.std::__1::__tree"*, align 8
  %58 = alloca %"class.std::__1::__tree_iterator", align 8
  %59 = alloca %"class.std::__1::__tree"*, align 8
  %60 = alloca %"class.std::__1::__map_iterator", align 8
  %61 = alloca %"class.std::__1::map"*, align 8
  %62 = alloca %"class.std::__1::__tree_iterator", align 8
  %63 = alloca %"class.std::__1::__libcpp_compressed_pair_imp.164"*, align 8
  %64 = alloca %"class.std::__1::__compressed_pair.163"*, align 8
  %65 = alloca %"class.std::__1::basic_string"*, align 8
  %66 = alloca %"class.std::__1::__libcpp_compressed_pair_imp.164"*, align 8
  %67 = alloca %"class.std::__1::__compressed_pair.163"*, align 8
  %68 = alloca %"class.std::__1::basic_string"*, align 8
  %69 = alloca %"class.std::__1::__libcpp_compressed_pair_imp.164"*, align 8
  %70 = alloca %"class.std::__1::__compressed_pair.163"*, align 8
  %71 = alloca %"class.std::__1::basic_string"*, align 8
  %72 = alloca %"class.std::__1::basic_string"*, align 8
  %73 = alloca %"class.std::__1::basic_string"*, align 8
  %74 = alloca i8*, align 8
  %75 = alloca %"class.std::__1::__libcpp_compressed_pair_imp.164"*, align 8
  %76 = alloca %"class.std::__1::__compressed_pair.163"*, align 8
  %77 = alloca %"class.std::__1::basic_string"*, align 8
  %78 = alloca i8*, align 8
  %79 = alloca i8*, align 8
  %80 = alloca %"class.std::__1::__libcpp_compressed_pair_imp.164"*, align 8
  %81 = alloca %"class.std::__1::__compressed_pair.163"*, align 8
  %82 = alloca %"class.std::__1::basic_string"*, align 8
  %83 = alloca %"class.std::__1::__libcpp_compressed_pair_imp.164"*, align 8
  %84 = alloca %"class.std::__1::__compressed_pair.163"*, align 8
  %85 = alloca %"class.std::__1::basic_string"*, align 8
  %86 = alloca %"class.std::__1::basic_string"*, align 8
  %87 = alloca %"class.std::__1::basic_string"*, align 8
  %88 = alloca %"class.llvm::StringRef"*, align 8
  %89 = alloca %"class.std::__1::basic_string"*, align 8
  %90 = alloca %"class.llvm::StringRef"*, align 8
  %91 = alloca %"class.std::__1::basic_string"*, align 8
  %92 = alloca %"class.std::__1::__tree_iterator", align 8
  %93 = alloca %"class.std::__1::__map_iterator"*, align 8
  %94 = alloca %"class.std::__1::__tree_iterator", align 8
  %95 = alloca %"class.std::__1::__map_iterator"*, align 8
  %96 = alloca %"class.std::__1::__tree_iterator"*, align 8
  %97 = alloca %"class.std::__1::__tree_end_node"*, align 8
  %98 = alloca %"class.std::__1::__tree_iterator"*, align 8
  %99 = alloca %"class.std::__1::__tree_end_node"*, align 8
  %100 = alloca %"class.std::__1::__tree"*, align 8
  %101 = alloca %"class.std::__1::__tree_iterator", align 8
  %102 = alloca %"class.std::__1::__tree"*, align 8
  %103 = alloca %"class.std::__1::__map_iterator", align 8
  %104 = alloca %"class.std::__1::map"*, align 8
  %105 = alloca %"class.std::__1::__tree_iterator", align 8
  %106 = alloca %"class.std::__1::__libcpp_compressed_pair_imp.200"*, align 8
  %107 = alloca %"class.std::__1::__compressed_pair.199"*, align 8
  %108 = alloca %"class.std::__1::__tree"*, align 8
  %109 = alloca %"class.std::__1::map"*, align 8
  %110 = alloca %"class.llvm::Type"***, align 8
  %111 = alloca %"class.std::__1::allocator.205"*, align 8
  %112 = alloca %"class.std::__1::__libcpp_compressed_pair_imp.204"*, align 8
  %113 = alloca %"class.llvm::Type"**, align 8
  %114 = alloca %"class.llvm::Type"***, align 8
  %115 = alloca %"class.std::__1::__compressed_pair.203"*, align 8
  %116 = alloca %"class.llvm::Type"**, align 8
  %117 = alloca %"class.std::__1::__compressed_pair.203"*, align 8
  %118 = alloca %"class.llvm::Type"**, align 8
  %119 = alloca %"class.std::__1::__vector_base_common"*, align 8
  %120 = alloca %"class.std::__1::__vector_base.202"*, align 8
  %121 = alloca %"class.std::__1::vector.201"*, align 8
  %122 = alloca %"class.std::__1::vector.201"*, align 8
  %123 = alloca %class.InternalClass*, align 8
  %124 = alloca %"class.std::__1::vector.201", align 8
  %125 = alloca i8*
  %126 = alloca i32
  %127 = alloca %"class.std::__1::map"*, align 8
  %128 = alloca %"class.std::__1::__map_iterator", align 8
  %129 = alloca %"class.std::__1::__map_iterator", align 8
  %130 = alloca %"struct.std::__1::pair.207"*, align 8
  %131 = alloca %"class.llvm::ArrayRef", align 8
  %132 = alloca %"class.llvm::StringRef", align 8
  %133 = alloca %"class.std::__1::basic_string", align 8
  store %class.InternalClass* %0, %class.InternalClass** %123, align 8
  %134 = load %class.InternalClass*, %class.InternalClass** %123, align 8
  %135 = getelementptr inbounds %class.InternalClass, %class.InternalClass* %134, i32 0, i32 1
  store i8 1, i8* %135, align 8
  store %"class.std::__1::vector.201"* %124, %"class.std::__1::vector.201"** %122, align 8
  %136 = load %"class.std::__1::vector.201"*, %"class.std::__1::vector.201"** %122, align 8
  store %"class.std::__1::vector.201"* %136, %"class.std::__1::vector.201"** %121, align 8
  %137 = load %"class.std::__1::vector.201"*, %"class.std::__1::vector.201"** %121, align 8
  %138 = bitcast %"class.std::__1::vector.201"* %137 to %"class.std::__1::__vector_base.202"*
  store %"class.std::__1::__vector_base.202"* %138, %"class.std::__1::__vector_base.202"** %120, align 8
  %139 = load %"class.std::__1::__vector_base.202"*, %"class.std::__1::__vector_base.202"** %120, align 8
  %140 = bitcast %"class.std::__1::__vector_base.202"* %139 to %"class.std::__1::__vector_base_common"*
  store %"class.std::__1::__vector_base_common"* %140, %"class.std::__1::__vector_base_common"** %119, align 8
  %141 = load %"class.std::__1::__vector_base_common"*, %"class.std::__1::__vector_base_common"** %119, align 8
  %142 = getelementptr inbounds %"class.std::__1::__vector_base.202", %"class.std::__1::__vector_base.202"* %139, i32 0, i32 0
  store %"class.llvm::Type"** null, %"class.llvm::Type"*** %142, align 8
  %143 = getelementptr inbounds %"class.std::__1::__vector_base.202", %"class.std::__1::__vector_base.202"* %139, i32 0, i32 1
  store %"class.llvm::Type"** null, %"class.llvm::Type"*** %143, align 8
  %144 = getelementptr inbounds %"class.std::__1::__vector_base.202", %"class.std::__1::__vector_base.202"* %139, i32 0, i32 2
  store %"class.std::__1::__compressed_pair.203"* %144, %"class.std::__1::__compressed_pair.203"** %117, align 8
  store %"class.llvm::Type"** null, %"class.llvm::Type"*** %118, align 8
  %145 = load %"class.std::__1::__compressed_pair.203"*, %"class.std::__1::__compressed_pair.203"** %117, align 8
  %146 = load %"class.llvm::Type"**, %"class.llvm::Type"*** %118, align 8
  store %"class.std::__1::__compressed_pair.203"* %145, %"class.std::__1::__compressed_pair.203"** %115, align 8
  store %"class.llvm::Type"** %146, %"class.llvm::Type"*** %116, align 8
  %147 = load %"class.std::__1::__compressed_pair.203"*, %"class.std::__1::__compressed_pair.203"** %115, align 8
  %148 = bitcast %"class.std::__1::__compressed_pair.203"* %147 to %"class.std::__1::__libcpp_compressed_pair_imp.204"*
  store %"class.llvm::Type"*** %116, %"class.llvm::Type"**** %114, align 8
  %149 = load %"class.llvm::Type"***, %"class.llvm::Type"**** %114, align 8
  %150 = load %"class.llvm::Type"**, %"class.llvm::Type"*** %149, align 8
  store %"class.std::__1::__libcpp_compressed_pair_imp.204"* %148, %"class.std::__1::__libcpp_compressed_pair_imp.204"** %112, align 8
  store %"class.llvm::Type"** %150, %"class.llvm::Type"*** %113, align 8
  %151 = load %"class.std::__1::__libcpp_compressed_pair_imp.204"*, %"class.std::__1::__libcpp_compressed_pair_imp.204"** %112, align 8
  %152 = bitcast %"class.std::__1::__libcpp_compressed_pair_imp.204"* %151 to %"class.std::__1::allocator.205"*
  store %"class.std::__1::allocator.205"* %152, %"class.std::__1::allocator.205"** %111, align 8
  %153 = load %"class.std::__1::allocator.205"*, %"class.std::__1::allocator.205"** %111, align 8
  %154 = getelementptr inbounds %"class.std::__1::__libcpp_compressed_pair_imp.204", %"class.std::__1::__libcpp_compressed_pair_imp.204"* %151, i32 0, i32 0
  store %"class.llvm::Type"*** %113, %"class.llvm::Type"**** %110, align 8
  %155 = load %"class.llvm::Type"***, %"class.llvm::Type"**** %110, align 8
  %156 = load %"class.llvm::Type"**, %"class.llvm::Type"*** %155, align 8
  store %"class.llvm::Type"** %156, %"class.llvm::Type"*** %154, align 8
  %157 = getelementptr inbounds %class.InternalClass, %class.InternalClass* %134, i32 0, i32 5
  store %"class.std::__1::map"* %157, %"class.std::__1::map"** %109, align 8
  %158 = load %"class.std::__1::map"*, %"class.std::__1::map"** %109, align 8
  %159 = getelementptr inbounds %"class.std::__1::map", %"class.std::__1::map"* %158, i32 0, i32 0
  store %"class.std::__1::__tree"* %159, %"class.std::__1::__tree"** %108, align 8
  %160 = load %"class.std::__1::__tree"*, %"class.std::__1::__tree"** %108, align 8
  %161 = getelementptr inbounds %"class.std::__1::__tree", %"class.std::__1::__tree"* %160, i32 0, i32 2
  store %"class.std::__1::__compressed_pair.199"* %161, %"class.std::__1::__compressed_pair.199"** %107, align 8
  %162 = load %"class.std::__1::__compressed_pair.199"*, %"class.std::__1::__compressed_pair.199"** %107, align 8
  %163 = bitcast %"class.std::__1::__compressed_pair.199"* %162 to %"class.std::__1::__libcpp_compressed_pair_imp.200"*
  store %"class.std::__1::__libcpp_compressed_pair_imp.200"* %163, %"class.std::__1::__libcpp_compressed_pair_imp.200"** %106, align 8
  %164 = load %"class.std::__1::__libcpp_compressed_pair_imp.200"*, %"class.std::__1::__libcpp_compressed_pair_imp.200"** %106, align 8
  %165 = getelementptr inbounds %"class.std::__1::__libcpp_compressed_pair_imp.200", %"class.std::__1::__libcpp_compressed_pair_imp.200"* %164, i32 0, i32 0
  %166 = load i64, i64* %165, align 8
  invoke void @_ZNSt3__16vectorIPN4llvm4TypeENS_9allocatorIS3_EEE7reserveEm(%"class.std::__1::vector.201"* %124, i64 %166)
          to label %167 unwind label %374

; <label>:167:                                    ; preds = %1
  %168 = getelementptr inbounds %class.InternalClass, %class.InternalClass* %134, i32 0, i32 5
  store %"class.std::__1::map"* %168, %"class.std::__1::map"** %127, align 8
  %169 = load %"class.std::__1::map"*, %"class.std::__1::map"** %127, align 8
  store %"class.std::__1::map"* %169, %"class.std::__1::map"** %104, align 8
  %170 = load %"class.std::__1::map"*, %"class.std::__1::map"** %104, align 8
  %171 = getelementptr inbounds %"class.std::__1::map", %"class.std::__1::map"* %170, i32 0, i32 0
  store %"class.std::__1::__tree"* %171, %"class.std::__1::__tree"** %102, align 8
  %172 = load %"class.std::__1::__tree"*, %"class.std::__1::__tree"** %102, align 8
  store %"class.std::__1::__tree"* %172, %"class.std::__1::__tree"** %100, align 8
  %173 = load %"class.std::__1::__tree"*, %"class.std::__1::__tree"** %100, align 8
  %174 = getelementptr inbounds %"class.std::__1::__tree", %"class.std::__1::__tree"* %173, i32 0, i32 0
  %175 = load %"class.std::__1::__tree_end_node"*, %"class.std::__1::__tree_end_node"** %174, align 8
  store %"class.std::__1::__tree_iterator"* %101, %"class.std::__1::__tree_iterator"** %98, align 8
  store %"class.std::__1::__tree_end_node"* %175, %"class.std::__1::__tree_end_node"** %99, align 8
  %176 = load %"class.std::__1::__tree_iterator"*, %"class.std::__1::__tree_iterator"** %98, align 8
  %177 = load %"class.std::__1::__tree_end_node"*, %"class.std::__1::__tree_end_node"** %99, align 8
  store %"class.std::__1::__tree_iterator"* %176, %"class.std::__1::__tree_iterator"** %96, align 8
  store %"class.std::__1::__tree_end_node"* %177, %"class.std::__1::__tree_end_node"** %97, align 8
  %178 = load %"class.std::__1::__tree_iterator"*, %"class.std::__1::__tree_iterator"** %96, align 8
  %179 = getelementptr inbounds %"class.std::__1::__tree_iterator", %"class.std::__1::__tree_iterator"* %178, i32 0, i32 0
  %180 = load %"class.std::__1::__tree_end_node"*, %"class.std::__1::__tree_end_node"** %97, align 8
  store %"class.std::__1::__tree_end_node"* %180, %"class.std::__1::__tree_end_node"** %179, align 8
  %181 = getelementptr inbounds %"class.std::__1::__tree_iterator", %"class.std::__1::__tree_iterator"* %101, i32 0, i32 0
  %182 = load %"class.std::__1::__tree_end_node"*, %"class.std::__1::__tree_end_node"** %181, align 8
  %183 = getelementptr inbounds %"class.std::__1::__tree_iterator", %"class.std::__1::__tree_iterator"* %105, i32 0, i32 0
  store %"class.std::__1::__tree_end_node"* %182, %"class.std::__1::__tree_end_node"** %183, align 8
  %184 = getelementptr inbounds %"class.std::__1::__tree_iterator", %"class.std::__1::__tree_iterator"* %105, i32 0, i32 0
  %185 = load %"class.std::__1::__tree_end_node"*, %"class.std::__1::__tree_end_node"** %184, align 8
  %186 = getelementptr inbounds %"class.std::__1::__tree_iterator", %"class.std::__1::__tree_iterator"* %94, i32 0, i32 0
  store %"class.std::__1::__tree_end_node"* %185, %"class.std::__1::__tree_end_node"** %186, align 8
  store %"class.std::__1::__map_iterator"* %103, %"class.std::__1::__map_iterator"** %95, align 8
  %187 = load %"class.std::__1::__map_iterator"*, %"class.std::__1::__map_iterator"** %95, align 8
  %188 = getelementptr inbounds %"class.std::__1::__tree_iterator", %"class.std::__1::__tree_iterator"* %94, i32 0, i32 0
  %189 = load %"class.std::__1::__tree_end_node"*, %"class.std::__1::__tree_end_node"** %188, align 8
  %190 = getelementptr inbounds %"class.std::__1::__tree_iterator", %"class.std::__1::__tree_iterator"* %92, i32 0, i32 0
  store %"class.std::__1::__tree_end_node"* %189, %"class.std::__1::__tree_end_node"** %190, align 8
  store %"class.std::__1::__map_iterator"* %187, %"class.std::__1::__map_iterator"** %93, align 8
  %191 = load %"class.std::__1::__map_iterator"*, %"class.std::__1::__map_iterator"** %93, align 8
  %192 = getelementptr inbounds %"class.std::__1::__map_iterator", %"class.std::__1::__map_iterator"* %191, i32 0, i32 0
  %193 = bitcast %"class.std::__1::__tree_iterator"* %192 to i8*
  %194 = bitcast %"class.std::__1::__tree_iterator"* %92 to i8*
  call void @llvm.memcpy.p0i8.p0i8.i64(i8* %193, i8* %194, i64 8, i32 8, i1 false) #14
  %195 = getelementptr inbounds %"class.std::__1::__map_iterator", %"class.std::__1::__map_iterator"* %103, i32 0, i32 0
  %196 = getelementptr inbounds %"class.std::__1::__tree_iterator", %"class.std::__1::__tree_iterator"* %195, i32 0, i32 0
  %197 = load %"class.std::__1::__tree_end_node"*, %"class.std::__1::__tree_end_node"** %196, align 8
  %198 = getelementptr inbounds %"class.std::__1::__map_iterator", %"class.std::__1::__map_iterator"* %128, i32 0, i32 0
  %199 = getelementptr inbounds %"class.std::__1::__tree_iterator", %"class.std::__1::__tree_iterator"* %198, i32 0, i32 0
  store %"class.std::__1::__tree_end_node"* %197, %"class.std::__1::__tree_end_node"** %199, align 8
  %200 = load %"class.std::__1::map"*, %"class.std::__1::map"** %127, align 8
  store %"class.std::__1::map"* %200, %"class.std::__1::map"** %61, align 8
  %201 = load %"class.std::__1::map"*, %"class.std::__1::map"** %61, align 8
  %202 = getelementptr inbounds %"class.std::__1::map", %"class.std::__1::map"* %201, i32 0, i32 0
  store %"class.std::__1::__tree"* %202, %"class.std::__1::__tree"** %59, align 8
  %203 = load %"class.std::__1::__tree"*, %"class.std::__1::__tree"** %59, align 8
  store %"class.std::__1::__tree"* %203, %"class.std::__1::__tree"** %57, align 8
  %204 = load %"class.std::__1::__tree"*, %"class.std::__1::__tree"** %57, align 8
  %205 = getelementptr inbounds %"class.std::__1::__tree", %"class.std::__1::__tree"* %204, i32 0, i32 1
  store %"class.std::__1::__compressed_pair.195"* %205, %"class.std::__1::__compressed_pair.195"** %56, align 8
  %206 = load %"class.std::__1::__compressed_pair.195"*, %"class.std::__1::__compressed_pair.195"** %56, align 8
  %207 = bitcast %"class.std::__1::__compressed_pair.195"* %206 to %"class.std::__1::__libcpp_compressed_pair_imp.196"*
  store %"class.std::__1::__libcpp_compressed_pair_imp.196"* %207, %"class.std::__1::__libcpp_compressed_pair_imp.196"** %55, align 8
  %208 = load %"class.std::__1::__libcpp_compressed_pair_imp.196"*, %"class.std::__1::__libcpp_compressed_pair_imp.196"** %55, align 8
  %209 = getelementptr inbounds %"class.std::__1::__libcpp_compressed_pair_imp.196", %"class.std::__1::__libcpp_compressed_pair_imp.196"* %208, i32 0, i32 0
  store %"class.std::__1::__tree_end_node"* %209, %"class.std::__1::__tree_end_node"** %54, align 8
  %210 = load %"class.std::__1::__tree_end_node"*, %"class.std::__1::__tree_end_node"** %54, align 8
  store %"class.std::__1::__tree_end_node"* %210, %"class.std::__1::__tree_end_node"** %53, align 8
  %211 = load %"class.std::__1::__tree_end_node"*, %"class.std::__1::__tree_end_node"** %53, align 8
  %212 = bitcast %"class.std::__1::__tree_end_node"* %211 to i8*
  store %"class.std::__1::__tree_iterator"* %58, %"class.std::__1::__tree_iterator"** %51, align 8
  store %"class.std::__1::__tree_end_node"* %211, %"class.std::__1::__tree_end_node"** %52, align 8
  %213 = load %"class.std::__1::__tree_iterator"*, %"class.std::__1::__tree_iterator"** %51, align 8
  %214 = load %"class.std::__1::__tree_end_node"*, %"class.std::__1::__tree_end_node"** %52, align 8
  store %"class.std::__1::__tree_iterator"* %213, %"class.std::__1::__tree_iterator"** %49, align 8
  store %"class.std::__1::__tree_end_node"* %214, %"class.std::__1::__tree_end_node"** %50, align 8
  %215 = load %"class.std::__1::__tree_iterator"*, %"class.std::__1::__tree_iterator"** %49, align 8
  %216 = getelementptr inbounds %"class.std::__1::__tree_iterator", %"class.std::__1::__tree_iterator"* %215, i32 0, i32 0
  %217 = load %"class.std::__1::__tree_end_node"*, %"class.std::__1::__tree_end_node"** %50, align 8
  store %"class.std::__1::__tree_end_node"* %217, %"class.std::__1::__tree_end_node"** %216, align 8
  %218 = getelementptr inbounds %"class.std::__1::__tree_iterator", %"class.std::__1::__tree_iterator"* %58, i32 0, i32 0
  %219 = load %"class.std::__1::__tree_end_node"*, %"class.std::__1::__tree_end_node"** %218, align 8
  %220 = getelementptr inbounds %"class.std::__1::__tree_iterator", %"class.std::__1::__tree_iterator"* %62, i32 0, i32 0
  store %"class.std::__1::__tree_end_node"* %219, %"class.std::__1::__tree_end_node"** %220, align 8
  %221 = getelementptr inbounds %"class.std::__1::__tree_iterator", %"class.std::__1::__tree_iterator"* %62, i32 0, i32 0
  %222 = load %"class.std::__1::__tree_end_node"*, %"class.std::__1::__tree_end_node"** %221, align 8
  %223 = getelementptr inbounds %"class.std::__1::__tree_iterator", %"class.std::__1::__tree_iterator"* %47, i32 0, i32 0
  store %"class.std::__1::__tree_end_node"* %222, %"class.std::__1::__tree_end_node"** %223, align 8
  store %"class.std::__1::__map_iterator"* %60, %"class.std::__1::__map_iterator"** %48, align 8
  %224 = load %"class.std::__1::__map_iterator"*, %"class.std::__1::__map_iterator"** %48, align 8
  %225 = getelementptr inbounds %"class.std::__1::__tree_iterator", %"class.std::__1::__tree_iterator"* %47, i32 0, i32 0
  %226 = load %"class.std::__1::__tree_end_node"*, %"class.std::__1::__tree_end_node"** %225, align 8
  %227 = getelementptr inbounds %"class.std::__1::__tree_iterator", %"class.std::__1::__tree_iterator"* %45, i32 0, i32 0
  store %"class.std::__1::__tree_end_node"* %226, %"class.std::__1::__tree_end_node"** %227, align 8
  store %"class.std::__1::__map_iterator"* %224, %"class.std::__1::__map_iterator"** %46, align 8
  %228 = load %"class.std::__1::__map_iterator"*, %"class.std::__1::__map_iterator"** %46, align 8
  %229 = getelementptr inbounds %"class.std::__1::__map_iterator", %"class.std::__1::__map_iterator"* %228, i32 0, i32 0
  %230 = bitcast %"class.std::__1::__tree_iterator"* %229 to i8*
  %231 = bitcast %"class.std::__1::__tree_iterator"* %45 to i8*
  call void @llvm.memcpy.p0i8.p0i8.i64(i8* %230, i8* %231, i64 8, i32 8, i1 false) #14
  %232 = getelementptr inbounds %"class.std::__1::__map_iterator", %"class.std::__1::__map_iterator"* %60, i32 0, i32 0
  %233 = getelementptr inbounds %"class.std::__1::__tree_iterator", %"class.std::__1::__tree_iterator"* %232, i32 0, i32 0
  %234 = load %"class.std::__1::__tree_end_node"*, %"class.std::__1::__tree_end_node"** %233, align 8
  %235 = getelementptr inbounds %"class.std::__1::__map_iterator", %"class.std::__1::__map_iterator"* %129, i32 0, i32 0
  %236 = getelementptr inbounds %"class.std::__1::__tree_iterator", %"class.std::__1::__tree_iterator"* %235, i32 0, i32 0
  store %"class.std::__1::__tree_end_node"* %234, %"class.std::__1::__tree_end_node"** %236, align 8
  br label %237

; <label>:237:                                    ; preds = %373, %167
  store %"class.std::__1::__map_iterator"* %128, %"class.std::__1::__map_iterator"** %43, align 8
  store %"class.std::__1::__map_iterator"* %129, %"class.std::__1::__map_iterator"** %44, align 8
  %238 = load %"class.std::__1::__map_iterator"*, %"class.std::__1::__map_iterator"** %43, align 8
  %239 = getelementptr inbounds %"class.std::__1::__map_iterator", %"class.std::__1::__map_iterator"* %238, i32 0, i32 0
  %240 = load %"class.std::__1::__map_iterator"*, %"class.std::__1::__map_iterator"** %44, align 8
  %241 = getelementptr inbounds %"class.std::__1::__map_iterator", %"class.std::__1::__map_iterator"* %240, i32 0, i32 0
  store %"class.std::__1::__tree_iterator"* %239, %"class.std::__1::__tree_iterator"** %41, align 8
  store %"class.std::__1::__tree_iterator"* %241, %"class.std::__1::__tree_iterator"** %42, align 8
  %242 = load %"class.std::__1::__tree_iterator"*, %"class.std::__1::__tree_iterator"** %41, align 8
  %243 = load %"class.std::__1::__tree_iterator"*, %"class.std::__1::__tree_iterator"** %42, align 8
  store %"class.std::__1::__tree_iterator"* %242, %"class.std::__1::__tree_iterator"** %39, align 8
  store %"class.std::__1::__tree_iterator"* %243, %"class.std::__1::__tree_iterator"** %40, align 8
  %244 = load %"class.std::__1::__tree_iterator"*, %"class.std::__1::__tree_iterator"** %39, align 8
  %245 = getelementptr inbounds %"class.std::__1::__tree_iterator", %"class.std::__1::__tree_iterator"* %244, i32 0, i32 0
  %246 = load %"class.std::__1::__tree_end_node"*, %"class.std::__1::__tree_end_node"** %245, align 8
  %247 = load %"class.std::__1::__tree_iterator"*, %"class.std::__1::__tree_iterator"** %40, align 8
  %248 = getelementptr inbounds %"class.std::__1::__tree_iterator", %"class.std::__1::__tree_iterator"* %247, i32 0, i32 0
  %249 = load %"class.std::__1::__tree_end_node"*, %"class.std::__1::__tree_end_node"** %248, align 8
  %250 = icmp eq %"class.std::__1::__tree_end_node"* %246, %249
  %251 = xor i1 %250, true
  br label %252

; <label>:252:                                    ; preds = %237
  br i1 %251, label %253, label %378

; <label>:253:                                    ; preds = %252
  store %"class.std::__1::__map_iterator"* %128, %"class.std::__1::__map_iterator"** %6, align 8
  %254 = load %"class.std::__1::__map_iterator"*, %"class.std::__1::__map_iterator"** %6, align 8
  %255 = getelementptr inbounds %"class.std::__1::__map_iterator", %"class.std::__1::__map_iterator"* %254, i32 0, i32 0
  store %"class.std::__1::__tree_iterator"* %255, %"class.std::__1::__tree_iterator"** %5, align 8
  %256 = load %"class.std::__1::__tree_iterator"*, %"class.std::__1::__tree_iterator"** %5, align 8
  store %"class.std::__1::__tree_iterator"* %256, %"class.std::__1::__tree_iterator"** %4, align 8
  %257 = load %"class.std::__1::__tree_iterator"*, %"class.std::__1::__tree_iterator"** %4, align 8
  %258 = getelementptr inbounds %"class.std::__1::__tree_iterator", %"class.std::__1::__tree_iterator"* %257, i32 0, i32 0
  %259 = load %"class.std::__1::__tree_end_node"*, %"class.std::__1::__tree_end_node"** %258, align 8
  %260 = bitcast %"class.std::__1::__tree_end_node"* %259 to %"class.std::__1::__tree_node"*
  %261 = getelementptr inbounds %"class.std::__1::__tree_node", %"class.std::__1::__tree_node"* %260, i32 0, i32 1
  store %"union.std::__1::__value_type"* %261, %"union.std::__1::__value_type"** %3, align 8
  %262 = load %"union.std::__1::__value_type"*, %"union.std::__1::__value_type"** %3, align 8
  store %"union.std::__1::__value_type"* %262, %"union.std::__1::__value_type"** %2, align 8
  %263 = load %"union.std::__1::__value_type"*, %"union.std::__1::__value_type"** %2, align 8
  %264 = bitcast %"union.std::__1::__value_type"* %263 to i8*
  %265 = bitcast %"union.std::__1::__value_type"* %263 to %"struct.std::__1::pair.207"*
  br label %266

; <label>:266:                                    ; preds = %253
  store %"struct.std::__1::pair.207"* %265, %"struct.std::__1::pair.207"** %130, align 8
  %267 = load %"struct.std::__1::pair.207"*, %"struct.std::__1::pair.207"** %130, align 8
  %268 = getelementptr inbounds %"struct.std::__1::pair.207", %"struct.std::__1::pair.207"* %267, i32 0, i32 1
  store %"class.std::__1::vector.201"* %124, %"class.std::__1::vector.201"** %29, align 8
  store %"class.llvm::Type"** %268, %"class.llvm::Type"*** %30, align 8
  %269 = load %"class.std::__1::vector.201"*, %"class.std::__1::vector.201"** %29, align 8
  %270 = bitcast %"class.std::__1::vector.201"* %269 to %"class.std::__1::__vector_base.202"*
  %271 = getelementptr inbounds %"class.std::__1::__vector_base.202", %"class.std::__1::__vector_base.202"* %270, i32 0, i32 1
  %272 = load %"class.llvm::Type"**, %"class.llvm::Type"*** %271, align 8
  %273 = bitcast %"class.std::__1::vector.201"* %269 to %"class.std::__1::__vector_base.202"*
  store %"class.std::__1::__vector_base.202"* %273, %"class.std::__1::__vector_base.202"** %28, align 8
  %274 = load %"class.std::__1::__vector_base.202"*, %"class.std::__1::__vector_base.202"** %28, align 8
  %275 = getelementptr inbounds %"class.std::__1::__vector_base.202", %"class.std::__1::__vector_base.202"* %274, i32 0, i32 2
  store %"class.std::__1::__compressed_pair.203"* %275, %"class.std::__1::__compressed_pair.203"** %27, align 8
  %276 = load %"class.std::__1::__compressed_pair.203"*, %"class.std::__1::__compressed_pair.203"** %27, align 8
  %277 = bitcast %"class.std::__1::__compressed_pair.203"* %276 to %"class.std::__1::__libcpp_compressed_pair_imp.204"*
  store %"class.std::__1::__libcpp_compressed_pair_imp.204"* %277, %"class.std::__1::__libcpp_compressed_pair_imp.204"** %26, align 8
  %278 = load %"class.std::__1::__libcpp_compressed_pair_imp.204"*, %"class.std::__1::__libcpp_compressed_pair_imp.204"** %26, align 8
  %279 = getelementptr inbounds %"class.std::__1::__libcpp_compressed_pair_imp.204", %"class.std::__1::__libcpp_compressed_pair_imp.204"* %278, i32 0, i32 0
  %280 = load %"class.llvm::Type"**, %"class.llvm::Type"*** %279, align 8
  %281 = icmp ne %"class.llvm::Type"** %272, %280
  br i1 %281, label %282, label %315

; <label>:282:                                    ; preds = %266
  invoke void @_ZNSt3__16vectorIPN4llvm4TypeENS_9allocatorIS3_EEE24__RAII_IncreaseAnnotatorC1ERKS6_m(%"struct.std::__1::vector<llvm::Type *, std::__1::allocator<llvm::Type *> >::__RAII_IncreaseAnnotator"* %31, %"class.std::__1::vector.201"* dereferenceable(24) %269, i64 1)
          to label %283 unwind label %374

; <label>:283:                                    ; preds = %282
  %284 = bitcast %"class.std::__1::vector.201"* %269 to %"class.std::__1::__vector_base.202"*
  store %"class.std::__1::__vector_base.202"* %284, %"class.std::__1::__vector_base.202"** %25, align 8
  %285 = load %"class.std::__1::__vector_base.202"*, %"class.std::__1::__vector_base.202"** %25, align 8
  %286 = getelementptr inbounds %"class.std::__1::__vector_base.202", %"class.std::__1::__vector_base.202"* %285, i32 0, i32 2
  store %"class.std::__1::__compressed_pair.203"* %286, %"class.std::__1::__compressed_pair.203"** %24, align 8
  %287 = load %"class.std::__1::__compressed_pair.203"*, %"class.std::__1::__compressed_pair.203"** %24, align 8
  %288 = bitcast %"class.std::__1::__compressed_pair.203"* %287 to %"class.std::__1::__libcpp_compressed_pair_imp.204"*
  store %"class.std::__1::__libcpp_compressed_pair_imp.204"* %288, %"class.std::__1::__libcpp_compressed_pair_imp.204"** %23, align 8
  %289 = load %"class.std::__1::__libcpp_compressed_pair_imp.204"*, %"class.std::__1::__libcpp_compressed_pair_imp.204"** %23, align 8
  %290 = bitcast %"class.std::__1::__libcpp_compressed_pair_imp.204"* %289 to %"class.std::__1::allocator.205"*
  %291 = bitcast %"class.std::__1::vector.201"* %269 to %"class.std::__1::__vector_base.202"*
  %292 = getelementptr inbounds %"class.std::__1::__vector_base.202", %"class.std::__1::__vector_base.202"* %291, i32 0, i32 1
  %293 = load %"class.llvm::Type"**, %"class.llvm::Type"*** %292, align 8
  store %"class.llvm::Type"** %293, %"class.llvm::Type"*** %22, align 8
  %294 = load %"class.llvm::Type"**, %"class.llvm::Type"*** %22, align 8
  %295 = load %"class.llvm::Type"**, %"class.llvm::Type"*** %30, align 8
  store %"class.std::__1::allocator.205"* %290, %"class.std::__1::allocator.205"** %17, align 8
  store %"class.llvm::Type"** %294, %"class.llvm::Type"*** %18, align 8
  store %"class.llvm::Type"** %295, %"class.llvm::Type"*** %19, align 8
  %296 = bitcast %"struct.std::__1::__has_construct.261"* %21 to %"struct.std::__1::integral_constant"*
  %297 = load %"class.std::__1::allocator.205"*, %"class.std::__1::allocator.205"** %17, align 8
  %298 = load %"class.llvm::Type"**, %"class.llvm::Type"*** %18, align 8
  %299 = load %"class.llvm::Type"**, %"class.llvm::Type"*** %19, align 8
  store %"class.llvm::Type"** %299, %"class.llvm::Type"*** %16, align 8
  %300 = load %"class.llvm::Type"**, %"class.llvm::Type"*** %16, align 8
  store %"class.std::__1::allocator.205"* %297, %"class.std::__1::allocator.205"** %13, align 8
  store %"class.llvm::Type"** %298, %"class.llvm::Type"*** %14, align 8
  store %"class.llvm::Type"** %300, %"class.llvm::Type"*** %15, align 8
  %301 = load %"class.std::__1::allocator.205"*, %"class.std::__1::allocator.205"** %13, align 8
  %302 = load %"class.llvm::Type"**, %"class.llvm::Type"*** %14, align 8
  %303 = load %"class.llvm::Type"**, %"class.llvm::Type"*** %15, align 8
  store %"class.llvm::Type"** %303, %"class.llvm::Type"*** %11, align 8
  %304 = load %"class.llvm::Type"**, %"class.llvm::Type"*** %11, align 8
  store %"class.std::__1::allocator.205"* %301, %"class.std::__1::allocator.205"** %8, align 8
  store %"class.llvm::Type"** %302, %"class.llvm::Type"*** %9, align 8
  store %"class.llvm::Type"** %304, %"class.llvm::Type"*** %10, align 8
  %305 = load %"class.std::__1::allocator.205"*, %"class.std::__1::allocator.205"** %8, align 8
  %306 = load %"class.llvm::Type"**, %"class.llvm::Type"*** %9, align 8
  %307 = bitcast %"class.llvm::Type"** %306 to i8*
  %308 = load %"class.llvm::Type"**, %"class.llvm::Type"*** %10, align 8
  store %"class.llvm::Type"** %308, %"class.llvm::Type"*** %7, align 8
  %309 = load %"class.llvm::Type"**, %"class.llvm::Type"*** %7, align 8
  %310 = load %"class.llvm::Type"*, %"class.llvm::Type"** %309, align 8
  store %"class.llvm::Type"* %310, %"class.llvm::Type"** %306, align 8
  call void @_ZNSt3__16vectorIPN4llvm4TypeENS_9allocatorIS3_EEE24__RAII_IncreaseAnnotator6__doneEv(%"struct.std::__1::vector<llvm::Type *, std::__1::allocator<llvm::Type *> >::__RAII_IncreaseAnnotator"* %31)
  %311 = bitcast %"class.std::__1::vector.201"* %269 to %"class.std::__1::__vector_base.202"*
  %312 = getelementptr inbounds %"class.std::__1::__vector_base.202", %"class.std::__1::__vector_base.202"* %311, i32 0, i32 1
  %313 = load %"class.llvm::Type"**, %"class.llvm::Type"*** %312, align 8
  %314 = getelementptr inbounds %"class.llvm::Type"*, %"class.llvm::Type"** %313, i32 1
  store %"class.llvm::Type"** %314, %"class.llvm::Type"*** %312, align 8
  br label %318

; <label>:315:                                    ; preds = %266
  %316 = load %"class.llvm::Type"**, %"class.llvm::Type"*** %30, align 8
  invoke void @_ZNSt3__16vectorIPN4llvm4TypeENS_9allocatorIS3_EEE21__push_back_slow_pathIRKS3_EEvOT_(%"class.std::__1::vector.201"* %269, %"class.llvm::Type"** dereferenceable(8) %316)
          to label %317 unwind label %374

; <label>:317:                                    ; preds = %315
  br label %318

; <label>:318:                                    ; preds = %283, %317
  br label %319

; <label>:319:                                    ; preds = %318
  br label %320

; <label>:320:                                    ; preds = %319
  store %"class.std::__1::__map_iterator"* %128, %"class.std::__1::__map_iterator"** %38, align 8
  %321 = load %"class.std::__1::__map_iterator"*, %"class.std::__1::__map_iterator"** %38, align 8
  %322 = getelementptr inbounds %"class.std::__1::__map_iterator", %"class.std::__1::__map_iterator"* %321, i32 0, i32 0
  store %"class.std::__1::__tree_iterator"* %322, %"class.std::__1::__tree_iterator"** %37, align 8
  %323 = load %"class.std::__1::__tree_iterator"*, %"class.std::__1::__tree_iterator"** %37, align 8
  %324 = getelementptr inbounds %"class.std::__1::__tree_iterator", %"class.std::__1::__tree_iterator"* %323, i32 0, i32 0
  %325 = load %"class.std::__1::__tree_end_node"*, %"class.std::__1::__tree_end_node"** %324, align 8
  %326 = bitcast %"class.std::__1::__tree_end_node"* %325 to %"class.std::__1::__tree_node_base"*
  store %"class.std::__1::__tree_node_base"* %326, %"class.std::__1::__tree_node_base"** %36, align 8
  %327 = load %"class.std::__1::__tree_node_base"*, %"class.std::__1::__tree_node_base"** %36, align 8
  %328 = getelementptr inbounds %"class.std::__1::__tree_node_base", %"class.std::__1::__tree_node_base"* %327, i32 0, i32 1
  %329 = load %"class.std::__1::__tree_node_base"*, %"class.std::__1::__tree_node_base"** %328, align 8
  %330 = icmp ne %"class.std::__1::__tree_node_base"* %329, null
  br i1 %330, label %331, label %349

; <label>:331:                                    ; preds = %320
  %332 = load %"class.std::__1::__tree_node_base"*, %"class.std::__1::__tree_node_base"** %36, align 8
  %333 = getelementptr inbounds %"class.std::__1::__tree_node_base", %"class.std::__1::__tree_node_base"* %332, i32 0, i32 1
  %334 = load %"class.std::__1::__tree_node_base"*, %"class.std::__1::__tree_node_base"** %333, align 8
  store %"class.std::__1::__tree_node_base"* %334, %"class.std::__1::__tree_node_base"** %34, align 8
  br label %335

; <label>:335:                                    ; preds = %341, %331
  %336 = load %"class.std::__1::__tree_node_base"*, %"class.std::__1::__tree_node_base"** %34, align 8
  %337 = bitcast %"class.std::__1::__tree_node_base"* %336 to %"class.std::__1::__tree_end_node"*
  %338 = getelementptr inbounds %"class.std::__1::__tree_end_node", %"class.std::__1::__tree_end_node"* %337, i32 0, i32 0
  %339 = load %"class.std::__1::__tree_node_base"*, %"class.std::__1::__tree_node_base"** %338, align 8
  %340 = icmp ne %"class.std::__1::__tree_node_base"* %339, null
  br i1 %340, label %341, label %346

; <label>:341:                                    ; preds = %335
  %342 = load %"class.std::__1::__tree_node_base"*, %"class.std::__1::__tree_node_base"** %34, align 8
  %343 = bitcast %"class.std::__1::__tree_node_base"* %342 to %"class.std::__1::__tree_end_node"*
  %344 = getelementptr inbounds %"class.std::__1::__tree_end_node", %"class.std::__1::__tree_end_node"* %343, i32 0, i32 0
  %345 = load %"class.std::__1::__tree_node_base"*, %"class.std::__1::__tree_node_base"** %344, align 8
  store %"class.std::__1::__tree_node_base"* %345, %"class.std::__1::__tree_node_base"** %34, align 8
  br label %335

; <label>:346:                                    ; preds = %335
  %347 = load %"class.std::__1::__tree_node_base"*, %"class.std::__1::__tree_node_base"** %34, align 8
  %348 = bitcast %"class.std::__1::__tree_node_base"* %347 to %"class.std::__1::__tree_end_node"*
  store %"class.std::__1::__tree_end_node"* %348, %"class.std::__1::__tree_end_node"** %35, align 8
  br label %370

; <label>:349:                                    ; preds = %320
  br label %350

; <label>:350:                                    ; preds = %360, %349
  %351 = load %"class.std::__1::__tree_node_base"*, %"class.std::__1::__tree_node_base"** %36, align 8
  store %"class.std::__1::__tree_node_base"* %351, %"class.std::__1::__tree_node_base"** %33, align 8
  %352 = load %"class.std::__1::__tree_node_base"*, %"class.std::__1::__tree_node_base"** %33, align 8
  %353 = load %"class.std::__1::__tree_node_base"*, %"class.std::__1::__tree_node_base"** %33, align 8
  %354 = getelementptr inbounds %"class.std::__1::__tree_node_base", %"class.std::__1::__tree_node_base"* %353, i32 0, i32 2
  %355 = load %"class.std::__1::__tree_end_node"*, %"class.std::__1::__tree_end_node"** %354, align 8
  %356 = getelementptr inbounds %"class.std::__1::__tree_end_node", %"class.std::__1::__tree_end_node"* %355, i32 0, i32 0
  %357 = load %"class.std::__1::__tree_node_base"*, %"class.std::__1::__tree_node_base"** %356, align 8
  %358 = icmp eq %"class.std::__1::__tree_node_base"* %352, %357
  %359 = xor i1 %358, true
  br i1 %359, label %360, label %366

; <label>:360:                                    ; preds = %350
  %361 = load %"class.std::__1::__tree_node_base"*, %"class.std::__1::__tree_node_base"** %36, align 8
  store %"class.std::__1::__tree_node_base"* %361, %"class.std::__1::__tree_node_base"** %32, align 8
  %362 = load %"class.std::__1::__tree_node_base"*, %"class.std::__1::__tree_node_base"** %32, align 8
  %363 = getelementptr inbounds %"class.std::__1::__tree_node_base", %"class.std::__1::__tree_node_base"* %362, i32 0, i32 2
  %364 = load %"class.std::__1::__tree_end_node"*, %"class.std::__1::__tree_end_node"** %363, align 8
  %365 = bitcast %"class.std::__1::__tree_end_node"* %364 to %"class.std::__1::__tree_node_base"*
  store %"class.std::__1::__tree_node_base"* %365, %"class.std::__1::__tree_node_base"** %36, align 8
  br label %350

; <label>:366:                                    ; preds = %350
  %367 = load %"class.std::__1::__tree_node_base"*, %"class.std::__1::__tree_node_base"** %36, align 8
  %368 = getelementptr inbounds %"class.std::__1::__tree_node_base", %"class.std::__1::__tree_node_base"* %367, i32 0, i32 2
  %369 = load %"class.std::__1::__tree_end_node"*, %"class.std::__1::__tree_end_node"** %368, align 8
  store %"class.std::__1::__tree_end_node"* %369, %"class.std::__1::__tree_end_node"** %35, align 8
  br label %370

; <label>:370:                                    ; preds = %346, %366
  %371 = load %"class.std::__1::__tree_end_node"*, %"class.std::__1::__tree_end_node"** %35, align 8
  %372 = getelementptr inbounds %"class.std::__1::__tree_iterator", %"class.std::__1::__tree_iterator"* %323, i32 0, i32 0
  store %"class.std::__1::__tree_end_node"* %371, %"class.std::__1::__tree_end_node"** %372, align 8
  br label %373

; <label>:373:                                    ; preds = %370
  br label %237

; <label>:374:                                    ; preds = %315, %282, %379, %378, %1
  %375 = landingpad { i8*, i32 }
          cleanup
  %376 = extractvalue { i8*, i32 } %375, 0
  store i8* %376, i8** %125, align 8
  %377 = extractvalue { i8*, i32 } %375, 1
  store i32 %377, i32* %126, align 4
  br label %494

; <label>:378:                                    ; preds = %252
  invoke void @_ZN4llvm8ArrayRefIPNS_4TypeEEC1INSt3__19allocatorIS2_EEEERKNS5_6vectorIS2_T_EE(%"class.llvm::ArrayRef"* %131, %"class.std::__1::vector.201"* dereferenceable(24) %124)
          to label %379 unwind label %374

; <label>:379:                                    ; preds = %378
  %380 = getelementptr inbounds %class.InternalClass, %class.InternalClass* %134, i32 0, i32 3
  invoke void @_ZNSt3__1plIcNS_11char_traitsIcEENS_9allocatorIcEEEENS_12basic_stringIT_T0_T1_EEPKS6_RKS9_(%"class.std::__1::basic_string"* sret %133, i8* getelementptr inbounds ([7 x i8], [7 x i8]* @.str.1, i32 0, i32 0), %"class.std::__1::basic_string"* dereferenceable(24) %380)
          to label %381 unwind label %374

; <label>:381:                                    ; preds = %379
  store %"class.llvm::StringRef"* %132, %"class.llvm::StringRef"** %90, align 8
  store %"class.std::__1::basic_string"* %133, %"class.std::__1::basic_string"** %91, align 8
  %382 = load %"class.llvm::StringRef"*, %"class.llvm::StringRef"** %90, align 8
  %383 = load %"class.std::__1::basic_string"*, %"class.std::__1::basic_string"** %91, align 8
  store %"class.llvm::StringRef"* %382, %"class.llvm::StringRef"** %88, align 8
  store %"class.std::__1::basic_string"* %383, %"class.std::__1::basic_string"** %89, align 8
  %384 = load %"class.llvm::StringRef"*, %"class.llvm::StringRef"** %88, align 8
  %385 = getelementptr inbounds %"class.llvm::StringRef", %"class.llvm::StringRef"* %384, i32 0, i32 0
  %386 = load %"class.std::__1::basic_string"*, %"class.std::__1::basic_string"** %89, align 8
  store %"class.std::__1::basic_string"* %386, %"class.std::__1::basic_string"** %87, align 8
  %387 = load %"class.std::__1::basic_string"*, %"class.std::__1::basic_string"** %87, align 8
  store %"class.std::__1::basic_string"* %387, %"class.std::__1::basic_string"** %86, align 8
  %388 = load %"class.std::__1::basic_string"*, %"class.std::__1::basic_string"** %86, align 8
  store %"class.std::__1::basic_string"* %388, %"class.std::__1::basic_string"** %85, align 8
  %389 = load %"class.std::__1::basic_string"*, %"class.std::__1::basic_string"** %85, align 8
  %390 = getelementptr inbounds %"class.std::__1::basic_string", %"class.std::__1::basic_string"* %389, i32 0, i32 0
  store %"class.std::__1::__compressed_pair.163"* %390, %"class.std::__1::__compressed_pair.163"** %84, align 8
  %391 = load %"class.std::__1::__compressed_pair.163"*, %"class.std::__1::__compressed_pair.163"** %84, align 8
  %392 = bitcast %"class.std::__1::__compressed_pair.163"* %391 to %"class.std::__1::__libcpp_compressed_pair_imp.164"*
  store %"class.std::__1::__libcpp_compressed_pair_imp.164"* %392, %"class.std::__1::__libcpp_compressed_pair_imp.164"** %83, align 8
  %393 = load %"class.std::__1::__libcpp_compressed_pair_imp.164"*, %"class.std::__1::__libcpp_compressed_pair_imp.164"** %83, align 8
  %394 = getelementptr inbounds %"class.std::__1::__libcpp_compressed_pair_imp.164", %"class.std::__1::__libcpp_compressed_pair_imp.164"* %393, i32 0, i32 0
  %395 = getelementptr inbounds %"struct.std::__1::basic_string<char, std::__1::char_traits<char>, std::__1::allocator<char> >::__rep", %"struct.std::__1::basic_string<char, std::__1::char_traits<char>, std::__1::allocator<char> >::__rep"* %394, i32 0, i32 0
  %396 = bitcast %union.anon.167* %395 to %"struct.std::__1::basic_string<char, std::__1::char_traits<char>, std::__1::allocator<char> >::__short"*
  %397 = getelementptr inbounds %"struct.std::__1::basic_string<char, std::__1::char_traits<char>, std::__1::allocator<char> >::__short", %"struct.std::__1::basic_string<char, std::__1::char_traits<char>, std::__1::allocator<char> >::__short"* %396, i32 0, i32 0
  %398 = bitcast %union.anon.168* %397 to i8*
  %399 = load i8, i8* %398, align 8
  %400 = zext i8 %399 to i32
  %401 = and i32 %400, 1
  %402 = icmp ne i32 %401, 0
  br i1 %402, label %403, label %414

; <label>:403:                                    ; preds = %381
  store %"class.std::__1::basic_string"* %388, %"class.std::__1::basic_string"** %77, align 8
  %404 = load %"class.std::__1::basic_string"*, %"class.std::__1::basic_string"** %77, align 8
  %405 = getelementptr inbounds %"class.std::__1::basic_string", %"class.std::__1::basic_string"* %404, i32 0, i32 0
  store %"class.std::__1::__compressed_pair.163"* %405, %"class.std::__1::__compressed_pair.163"** %76, align 8
  %406 = load %"class.std::__1::__compressed_pair.163"*, %"class.std::__1::__compressed_pair.163"** %76, align 8
  %407 = bitcast %"class.std::__1::__compressed_pair.163"* %406 to %"class.std::__1::__libcpp_compressed_pair_imp.164"*
  store %"class.std::__1::__libcpp_compressed_pair_imp.164"* %407, %"class.std::__1::__libcpp_compressed_pair_imp.164"** %75, align 8
  %408 = load %"class.std::__1::__libcpp_compressed_pair_imp.164"*, %"class.std::__1::__libcpp_compressed_pair_imp.164"** %75, align 8
  %409 = getelementptr inbounds %"class.std::__1::__libcpp_compressed_pair_imp.164", %"class.std::__1::__libcpp_compressed_pair_imp.164"* %408, i32 0, i32 0
  %410 = getelementptr inbounds %"struct.std::__1::basic_string<char, std::__1::char_traits<char>, std::__1::allocator<char> >::__rep", %"struct.std::__1::basic_string<char, std::__1::char_traits<char>, std::__1::allocator<char> >::__rep"* %409, i32 0, i32 0
  %411 = bitcast %union.anon.167* %410 to %"struct.std::__1::basic_string<char, std::__1::char_traits<char>, std::__1::allocator<char> >::__long"*
  %412 = getelementptr inbounds %"struct.std::__1::basic_string<char, std::__1::char_traits<char>, std::__1::allocator<char> >::__long", %"struct.std::__1::basic_string<char, std::__1::char_traits<char>, std::__1::allocator<char> >::__long"* %411, i32 0, i32 2
  %413 = load i8*, i8** %412, align 8
  br label %427

; <label>:414:                                    ; preds = %381
  store %"class.std::__1::basic_string"* %388, %"class.std::__1::basic_string"** %82, align 8
  %415 = load %"class.std::__1::basic_string"*, %"class.std::__1::basic_string"** %82, align 8
  %416 = getelementptr inbounds %"class.std::__1::basic_string", %"class.std::__1::basic_string"* %415, i32 0, i32 0
  store %"class.std::__1::__compressed_pair.163"* %416, %"class.std::__1::__compressed_pair.163"** %81, align 8
  %417 = load %"class.std::__1::__compressed_pair.163"*, %"class.std::__1::__compressed_pair.163"** %81, align 8
  %418 = bitcast %"class.std::__1::__compressed_pair.163"* %417 to %"class.std::__1::__libcpp_compressed_pair_imp.164"*
  store %"class.std::__1::__libcpp_compressed_pair_imp.164"* %418, %"class.std::__1::__libcpp_compressed_pair_imp.164"** %80, align 8
  %419 = load %"class.std::__1::__libcpp_compressed_pair_imp.164"*, %"class.std::__1::__libcpp_compressed_pair_imp.164"** %80, align 8
  %420 = getelementptr inbounds %"class.std::__1::__libcpp_compressed_pair_imp.164", %"class.std::__1::__libcpp_compressed_pair_imp.164"* %419, i32 0, i32 0
  %421 = getelementptr inbounds %"struct.std::__1::basic_string<char, std::__1::char_traits<char>, std::__1::allocator<char> >::__rep", %"struct.std::__1::basic_string<char, std::__1::char_traits<char>, std::__1::allocator<char> >::__rep"* %420, i32 0, i32 0
  %422 = bitcast %union.anon.167* %421 to %"struct.std::__1::basic_string<char, std::__1::char_traits<char>, std::__1::allocator<char> >::__short"*
  %423 = getelementptr inbounds %"struct.std::__1::basic_string<char, std::__1::char_traits<char>, std::__1::allocator<char> >::__short", %"struct.std::__1::basic_string<char, std::__1::char_traits<char>, std::__1::allocator<char> >::__short"* %422, i32 0, i32 1
  %424 = getelementptr inbounds [23 x i8], [23 x i8]* %423, i64 0, i64 0
  store i8* %424, i8** %79, align 8
  %425 = load i8*, i8** %79, align 8
  store i8* %425, i8** %78, align 8
  %426 = load i8*, i8** %78, align 8
  br label %427

; <label>:427:                                    ; preds = %414, %403
  %428 = phi i8* [ %413, %403 ], [ %426, %414 ]
  store i8* %428, i8** %74, align 8
  %429 = load i8*, i8** %74, align 8
  store i8* %429, i8** %385, align 8
  %430 = getelementptr inbounds %"class.llvm::StringRef", %"class.llvm::StringRef"* %384, i32 0, i32 1
  %431 = load %"class.std::__1::basic_string"*, %"class.std::__1::basic_string"** %89, align 8
  store %"class.std::__1::basic_string"* %431, %"class.std::__1::basic_string"** %73, align 8
  %432 = load %"class.std::__1::basic_string"*, %"class.std::__1::basic_string"** %73, align 8
  store %"class.std::__1::basic_string"* %432, %"class.std::__1::basic_string"** %72, align 8
  %433 = load %"class.std::__1::basic_string"*, %"class.std::__1::basic_string"** %72, align 8
  store %"class.std::__1::basic_string"* %433, %"class.std::__1::basic_string"** %71, align 8
  %434 = load %"class.std::__1::basic_string"*, %"class.std::__1::basic_string"** %71, align 8
  %435 = getelementptr inbounds %"class.std::__1::basic_string", %"class.std::__1::basic_string"* %434, i32 0, i32 0
  store %"class.std::__1::__compressed_pair.163"* %435, %"class.std::__1::__compressed_pair.163"** %70, align 8
  %436 = load %"class.std::__1::__compressed_pair.163"*, %"class.std::__1::__compressed_pair.163"** %70, align 8
  %437 = bitcast %"class.std::__1::__compressed_pair.163"* %436 to %"class.std::__1::__libcpp_compressed_pair_imp.164"*
  store %"class.std::__1::__libcpp_compressed_pair_imp.164"* %437, %"class.std::__1::__libcpp_compressed_pair_imp.164"** %69, align 8
  %438 = load %"class.std::__1::__libcpp_compressed_pair_imp.164"*, %"class.std::__1::__libcpp_compressed_pair_imp.164"** %69, align 8
  %439 = getelementptr inbounds %"class.std::__1::__libcpp_compressed_pair_imp.164", %"class.std::__1::__libcpp_compressed_pair_imp.164"* %438, i32 0, i32 0
  %440 = getelementptr inbounds %"struct.std::__1::basic_string<char, std::__1::char_traits<char>, std::__1::allocator<char> >::__rep", %"struct.std::__1::basic_string<char, std::__1::char_traits<char>, std::__1::allocator<char> >::__rep"* %439, i32 0, i32 0
  %441 = bitcast %union.anon.167* %440 to %"struct.std::__1::basic_string<char, std::__1::char_traits<char>, std::__1::allocator<char> >::__short"*
  %442 = getelementptr inbounds %"struct.std::__1::basic_string<char, std::__1::char_traits<char>, std::__1::allocator<char> >::__short", %"struct.std::__1::basic_string<char, std::__1::char_traits<char>, std::__1::allocator<char> >::__short"* %441, i32 0, i32 0
  %443 = bitcast %union.anon.168* %442 to i8*
  %444 = load i8, i8* %443, align 8
  %445 = zext i8 %444 to i32
  %446 = and i32 %445, 1
  %447 = icmp ne i32 %446, 0
  br i1 %447, label %448, label %459

; <label>:448:                                    ; preds = %427
  store %"class.std::__1::basic_string"* %433, %"class.std::__1::basic_string"** %65, align 8
  %449 = load %"class.std::__1::basic_string"*, %"class.std::__1::basic_string"** %65, align 8
  %450 = getelementptr inbounds %"class.std::__1::basic_string", %"class.std::__1::basic_string"* %449, i32 0, i32 0
  store %"class.std::__1::__compressed_pair.163"* %450, %"class.std::__1::__compressed_pair.163"** %64, align 8
  %451 = load %"class.std::__1::__compressed_pair.163"*, %"class.std::__1::__compressed_pair.163"** %64, align 8
  %452 = bitcast %"class.std::__1::__compressed_pair.163"* %451 to %"class.std::__1::__libcpp_compressed_pair_imp.164"*
  store %"class.std::__1::__libcpp_compressed_pair_imp.164"* %452, %"class.std::__1::__libcpp_compressed_pair_imp.164"** %63, align 8
  %453 = load %"class.std::__1::__libcpp_compressed_pair_imp.164"*, %"class.std::__1::__libcpp_compressed_pair_imp.164"** %63, align 8
  %454 = getelementptr inbounds %"class.std::__1::__libcpp_compressed_pair_imp.164", %"class.std::__1::__libcpp_compressed_pair_imp.164"* %453, i32 0, i32 0
  %455 = getelementptr inbounds %"struct.std::__1::basic_string<char, std::__1::char_traits<char>, std::__1::allocator<char> >::__rep", %"struct.std::__1::basic_string<char, std::__1::char_traits<char>, std::__1::allocator<char> >::__rep"* %454, i32 0, i32 0
  %456 = bitcast %union.anon.167* %455 to %"struct.std::__1::basic_string<char, std::__1::char_traits<char>, std::__1::allocator<char> >::__long"*
  %457 = getelementptr inbounds %"struct.std::__1::basic_string<char, std::__1::char_traits<char>, std::__1::allocator<char> >::__long", %"struct.std::__1::basic_string<char, std::__1::char_traits<char>, std::__1::allocator<char> >::__long"* %456, i32 0, i32 1
  %458 = load i64, i64* %457, align 8
  br label %474

; <label>:459:                                    ; preds = %427
  store %"class.std::__1::basic_string"* %433, %"class.std::__1::basic_string"** %68, align 8
  %460 = load %"class.std::__1::basic_string"*, %"class.std::__1::basic_string"** %68, align 8
  %461 = getelementptr inbounds %"class.std::__1::basic_string", %"class.std::__1::basic_string"* %460, i32 0, i32 0
  store %"class.std::__1::__compressed_pair.163"* %461, %"class.std::__1::__compressed_pair.163"** %67, align 8
  %462 = load %"class.std::__1::__compressed_pair.163"*, %"class.std::__1::__compressed_pair.163"** %67, align 8
  %463 = bitcast %"class.std::__1::__compressed_pair.163"* %462 to %"class.std::__1::__libcpp_compressed_pair_imp.164"*
  store %"class.std::__1::__libcpp_compressed_pair_imp.164"* %463, %"class.std::__1::__libcpp_compressed_pair_imp.164"** %66, align 8
  %464 = load %"class.std::__1::__libcpp_compressed_pair_imp.164"*, %"class.std::__1::__libcpp_compressed_pair_imp.164"** %66, align 8
  %465 = getelementptr inbounds %"class.std::__1::__libcpp_compressed_pair_imp.164", %"class.std::__1::__libcpp_compressed_pair_imp.164"* %464, i32 0, i32 0
  %466 = getelementptr inbounds %"struct.std::__1::basic_string<char, std::__1::char_traits<char>, std::__1::allocator<char> >::__rep", %"struct.std::__1::basic_string<char, std::__1::char_traits<char>, std::__1::allocator<char> >::__rep"* %465, i32 0, i32 0
  %467 = bitcast %union.anon.167* %466 to %"struct.std::__1::basic_string<char, std::__1::char_traits<char>, std::__1::allocator<char> >::__short"*
  %468 = getelementptr inbounds %"struct.std::__1::basic_string<char, std::__1::char_traits<char>, std::__1::allocator<char> >::__short", %"struct.std::__1::basic_string<char, std::__1::char_traits<char>, std::__1::allocator<char> >::__short"* %467, i32 0, i32 0
  %469 = bitcast %union.anon.168* %468 to i8*
  %470 = load i8, i8* %469, align 8
  %471 = zext i8 %470 to i32
  %472 = ashr i32 %471, 1
  %473 = sext i32 %472 to i64
  br label %474

; <label>:474:                                    ; preds = %448, %459
  %475 = phi i64 [ %458, %448 ], [ %473, %459 ]
  store i64 %475, i64* %430, align 8
  br label %476

; <label>:476:                                    ; preds = %474
  %477 = bitcast %"class.llvm::ArrayRef"* %131 to { %"class.llvm::Type"**, i64 }*
  %478 = getelementptr inbounds { %"class.llvm::Type"**, i64 }, { %"class.llvm::Type"**, i64 }* %477, i32 0, i32 0
  %479 = load %"class.llvm::Type"**, %"class.llvm::Type"*** %478, align 8
  %480 = getelementptr inbounds { %"class.llvm::Type"**, i64 }, { %"class.llvm::Type"**, i64 }* %477, i32 0, i32 1
  %481 = load i64, i64* %480, align 8
  %482 = bitcast %"class.llvm::StringRef"* %132 to { i8*, i64 }*
  %483 = getelementptr inbounds { i8*, i64 }, { i8*, i64 }* %482, i32 0, i32 0
  %484 = load i8*, i8** %483, align 8
  %485 = getelementptr inbounds { i8*, i64 }, { i8*, i64 }* %482, i32 0, i32 1
  %486 = load i64, i64* %485, align 8
  %487 = invoke %"class.llvm::StructType"* @_ZN4llvm10StructType6createERNS_11LLVMContextENS_8ArrayRefIPNS_4TypeEEENS_9StringRefEb(%"class.llvm::LLVMContext"* dereferenceable(8) @_ZN14CodeGenVisitor7ContextE, %"class.llvm::Type"** %479, i64 %481, i8* %484, i64 %486, i1 zeroext false)
          to label %488 unwind label %490

; <label>:488:                                    ; preds = %476
  %489 = getelementptr inbounds %class.InternalClass, %class.InternalClass* %134, i32 0, i32 2
  store %"class.llvm::StructType"* %487, %"class.llvm::StructType"** %489, align 8
  call void @_ZNSt3__112basic_stringIcNS_11char_traitsIcEENS_9allocatorIcEEED1Ev(%"class.std::__1::basic_string"* %133) #14
  call void @_ZNSt3__16vectorIPN4llvm4TypeENS_9allocatorIS3_EEED1Ev(%"class.std::__1::vector.201"* %124) #14
  ret %class.InternalClass* %134

; <label>:490:                                    ; preds = %476
  %491 = landingpad { i8*, i32 }
          cleanup
  %492 = extractvalue { i8*, i32 } %491, 0
  store i8* %492, i8** %125, align 8
  %493 = extractvalue { i8*, i32 } %491, 1
  store i32 %493, i32* %126, align 4
  call void @_ZNSt3__112basic_stringIcNS_11char_traitsIcEENS_9allocatorIcEEED1Ev(%"class.std::__1::basic_string"* %133) #14
  br label %494

; <label>:494:                                    ; preds = %490, %374
  call void @_ZNSt3__16vectorIPN4llvm4TypeENS_9allocatorIS3_EEED1Ev(%"class.std::__1::vector.201"* %124) #14
  br label %495

; <label>:495:                                    ; preds = %494
  %496 = load i8*, i8** %125, align 8
  %497 = load i32, i32* %126, align 4
  %498 = insertvalue { i8*, i32 } undef, i8* %496, 0
  %499 = insertvalue { i8*, i32 } %498, i32 %497, 1
  resume { i8*, i32 } %499
}

; Function Attrs: ssp uwtable
define linkonce_odr void @_ZNSt3__16vectorIPN4llvm4TypeENS_9allocatorIS3_EEE7reserveEm(%"class.std::__1::vector.201"*, i64) #0 align 2 personality i8* bitcast (i32 (...)* @__gxx_personality_v0 to i8*) {
  %3 = alloca %"class.std::__1::vector.201"*, align 8
  %4 = alloca %"class.std::__1::__libcpp_compressed_pair_imp.204"*, align 8
  %5 = alloca %"class.std::__1::__compressed_pair.203"*, align 8
  %6 = alloca %"class.std::__1::__vector_base.202"*, align 8
  %7 = alloca %"class.std::__1::__libcpp_compressed_pair_imp.204"*, align 8
  %8 = alloca %"class.std::__1::__compressed_pair.203"*, align 8
  %9 = alloca %"class.std::__1::__vector_base.202"*, align 8
  %10 = alloca %"class.std::__1::__vector_base.202"*, align 8
  %11 = alloca %"class.std::__1::vector.201"*, align 8
  %12 = alloca %"class.std::__1::vector.201"*, align 8
  %13 = alloca i64, align 8
  %14 = alloca %"class.std::__1::allocator.205"*, align 8
  %15 = alloca %"struct.std::__1::__split_buffer", align 8
  %16 = alloca i8*
  %17 = alloca i32
  store %"class.std::__1::vector.201"* %0, %"class.std::__1::vector.201"** %12, align 8
  store i64 %1, i64* %13, align 8
  %18 = load %"class.std::__1::vector.201"*, %"class.std::__1::vector.201"** %12, align 8
  %19 = load i64, i64* %13, align 8
  store %"class.std::__1::vector.201"* %18, %"class.std::__1::vector.201"** %11, align 8
  %20 = load %"class.std::__1::vector.201"*, %"class.std::__1::vector.201"** %11, align 8
  %21 = bitcast %"class.std::__1::vector.201"* %20 to %"class.std::__1::__vector_base.202"*
  store %"class.std::__1::__vector_base.202"* %21, %"class.std::__1::__vector_base.202"** %10, align 8
  %22 = load %"class.std::__1::__vector_base.202"*, %"class.std::__1::__vector_base.202"** %10, align 8
  store %"class.std::__1::__vector_base.202"* %22, %"class.std::__1::__vector_base.202"** %9, align 8
  %23 = load %"class.std::__1::__vector_base.202"*, %"class.std::__1::__vector_base.202"** %9, align 8
  %24 = getelementptr inbounds %"class.std::__1::__vector_base.202", %"class.std::__1::__vector_base.202"* %23, i32 0, i32 2
  store %"class.std::__1::__compressed_pair.203"* %24, %"class.std::__1::__compressed_pair.203"** %8, align 8
  %25 = load %"class.std::__1::__compressed_pair.203"*, %"class.std::__1::__compressed_pair.203"** %8, align 8
  %26 = bitcast %"class.std::__1::__compressed_pair.203"* %25 to %"class.std::__1::__libcpp_compressed_pair_imp.204"*
  store %"class.std::__1::__libcpp_compressed_pair_imp.204"* %26, %"class.std::__1::__libcpp_compressed_pair_imp.204"** %7, align 8
  %27 = load %"class.std::__1::__libcpp_compressed_pair_imp.204"*, %"class.std::__1::__libcpp_compressed_pair_imp.204"** %7, align 8
  %28 = getelementptr inbounds %"class.std::__1::__libcpp_compressed_pair_imp.204", %"class.std::__1::__libcpp_compressed_pair_imp.204"* %27, i32 0, i32 0
  %29 = load %"class.llvm::Type"**, %"class.llvm::Type"*** %28, align 8
  %30 = getelementptr inbounds %"class.std::__1::__vector_base.202", %"class.std::__1::__vector_base.202"* %22, i32 0, i32 0
  %31 = load %"class.llvm::Type"**, %"class.llvm::Type"*** %30, align 8
  %32 = ptrtoint %"class.llvm::Type"** %29 to i64
  %33 = ptrtoint %"class.llvm::Type"** %31 to i64
  %34 = sub i64 %32, %33
  %35 = sdiv exact i64 %34, 8
  %36 = icmp ugt i64 %19, %35
  br i1 %36, label %37, label %63

; <label>:37:                                     ; preds = %2
  %38 = bitcast %"class.std::__1::vector.201"* %18 to %"class.std::__1::__vector_base.202"*
  store %"class.std::__1::__vector_base.202"* %38, %"class.std::__1::__vector_base.202"** %6, align 8
  %39 = load %"class.std::__1::__vector_base.202"*, %"class.std::__1::__vector_base.202"** %6, align 8
  %40 = getelementptr inbounds %"class.std::__1::__vector_base.202", %"class.std::__1::__vector_base.202"* %39, i32 0, i32 2
  store %"class.std::__1::__compressed_pair.203"* %40, %"class.std::__1::__compressed_pair.203"** %5, align 8
  %41 = load %"class.std::__1::__compressed_pair.203"*, %"class.std::__1::__compressed_pair.203"** %5, align 8
  %42 = bitcast %"class.std::__1::__compressed_pair.203"* %41 to %"class.std::__1::__libcpp_compressed_pair_imp.204"*
  store %"class.std::__1::__libcpp_compressed_pair_imp.204"* %42, %"class.std::__1::__libcpp_compressed_pair_imp.204"** %4, align 8
  %43 = load %"class.std::__1::__libcpp_compressed_pair_imp.204"*, %"class.std::__1::__libcpp_compressed_pair_imp.204"** %4, align 8
  %44 = bitcast %"class.std::__1::__libcpp_compressed_pair_imp.204"* %43 to %"class.std::__1::allocator.205"*
  store %"class.std::__1::allocator.205"* %44, %"class.std::__1::allocator.205"** %14, align 8
  %45 = load i64, i64* %13, align 8
  store %"class.std::__1::vector.201"* %18, %"class.std::__1::vector.201"** %3, align 8
  %46 = load %"class.std::__1::vector.201"*, %"class.std::__1::vector.201"** %3, align 8
  %47 = bitcast %"class.std::__1::vector.201"* %46 to %"class.std::__1::__vector_base.202"*
  %48 = getelementptr inbounds %"class.std::__1::__vector_base.202", %"class.std::__1::__vector_base.202"* %47, i32 0, i32 1
  %49 = load %"class.llvm::Type"**, %"class.llvm::Type"*** %48, align 8
  %50 = bitcast %"class.std::__1::vector.201"* %46 to %"class.std::__1::__vector_base.202"*
  %51 = getelementptr inbounds %"class.std::__1::__vector_base.202", %"class.std::__1::__vector_base.202"* %50, i32 0, i32 0
  %52 = load %"class.llvm::Type"**, %"class.llvm::Type"*** %51, align 8
  %53 = ptrtoint %"class.llvm::Type"** %49 to i64
  %54 = ptrtoint %"class.llvm::Type"** %52 to i64
  %55 = sub i64 %53, %54
  %56 = sdiv exact i64 %55, 8
  %57 = load %"class.std::__1::allocator.205"*, %"class.std::__1::allocator.205"** %14, align 8
  call void @_ZNSt3__114__split_bufferIPN4llvm4TypeERNS_9allocatorIS3_EEEC1EmmS6_(%"struct.std::__1::__split_buffer"* %15, i64 %45, i64 %56, %"class.std::__1::allocator.205"* dereferenceable(1) %57)
  invoke void @_ZNSt3__16vectorIPN4llvm4TypeENS_9allocatorIS3_EEE26__swap_out_circular_bufferERNS_14__split_bufferIS3_RS5_EE(%"class.std::__1::vector.201"* %18, %"struct.std::__1::__split_buffer"* dereferenceable(40) %15)
          to label %58 unwind label %59

; <label>:58:                                     ; preds = %37
  call void @_ZNSt3__114__split_bufferIPN4llvm4TypeERNS_9allocatorIS3_EEED1Ev(%"struct.std::__1::__split_buffer"* %15) #14
  br label %63

; <label>:59:                                     ; preds = %37
  %60 = landingpad { i8*, i32 }
          cleanup
  %61 = extractvalue { i8*, i32 } %60, 0
  store i8* %61, i8** %16, align 8
  %62 = extractvalue { i8*, i32 } %60, 1
  store i32 %62, i32* %17, align 4
  call void @_ZNSt3__114__split_bufferIPN4llvm4TypeERNS_9allocatorIS3_EEED1Ev(%"struct.std::__1::__split_buffer"* %15) #14
  br label %64

; <label>:63:                                     ; preds = %58, %2
  ret void

; <label>:64:                                     ; preds = %59
  %65 = load i8*, i8** %16, align 8
  %66 = load i32, i32* %17, align 4
  %67 = insertvalue { i8*, i32 } undef, i8* %65, 0
  %68 = insertvalue { i8*, i32 } %67, i32 %66, 1
  resume { i8*, i32 } %68
}

declare %"class.llvm::StructType"* @_ZN4llvm10StructType6createERNS_11LLVMContextENS_8ArrayRefIPNS_4TypeEEENS_9StringRefEb(%"class.llvm::LLVMContext"* dereferenceable(8), %"class.llvm::Type"**, i64, i8*, i64, i1 zeroext) #1

; Function Attrs: ssp uwtable
define linkonce_odr void @_ZN4llvm8ArrayRefIPNS_4TypeEEC1INSt3__19allocatorIS2_EEEERKNS5_6vectorIS2_T_EE(%"class.llvm::ArrayRef"*, %"class.std::__1::vector.201"* dereferenceable(24)) unnamed_addr #0 align 2 {
  %3 = alloca %"class.llvm::ArrayRef"*, align 8
  %4 = alloca %"class.std::__1::vector.201"*, align 8
  store %"class.llvm::ArrayRef"* %0, %"class.llvm::ArrayRef"** %3, align 8
  store %"class.std::__1::vector.201"* %1, %"class.std::__1::vector.201"** %4, align 8
  %5 = load %"class.llvm::ArrayRef"*, %"class.llvm::ArrayRef"** %3, align 8
  %6 = load %"class.std::__1::vector.201"*, %"class.std::__1::vector.201"** %4, align 8
  call void @_ZN4llvm8ArrayRefIPNS_4TypeEEC2INSt3__19allocatorIS2_EEEERKNS5_6vectorIS2_T_EE(%"class.llvm::ArrayRef"* %5, %"class.std::__1::vector.201"* dereferenceable(24) %6)
  ret void
}

; Function Attrs: ssp uwtable
define linkonce_odr void @_ZNSt3__1plIcNS_11char_traitsIcEENS_9allocatorIcEEEENS_12basic_stringIT_T0_T1_EEPKS6_RKS9_(%"class.std::__1::basic_string"* noalias sret, i8*, %"class.std::__1::basic_string"* dereferenceable(24)) #0 personality i8* bitcast (i32 (...)* @__gxx_personality_v0 to i8*) {
  %4 = alloca %"class.std::__1::__libcpp_compressed_pair_imp.164"*, align 8
  %5 = alloca %"class.std::__1::__compressed_pair.163"*, align 8
  %6 = alloca %"class.std::__1::basic_string"*, align 8
  %7 = alloca [3 x i64]*, align 8
  %8 = alloca i32, align 4
  %9 = alloca %"class.std::__1::allocator.165"*, align 8
  %10 = alloca %"class.std::__1::allocator.165", align 1
  %11 = alloca %"class.std::__1::__libcpp_compressed_pair_imp.164"*, align 8
  %12 = alloca %"class.std::__1::allocator.165"*, align 8
  %13 = alloca %"class.std::__1::allocator.165", align 1
  %14 = alloca %"class.std::__1::__compressed_pair.163"*, align 8
  %15 = alloca %"class.std::__1::allocator.165", align 1
  %16 = alloca %"class.std::__1::allocator.165", align 1
  %17 = alloca %"class.std::__1::__compressed_pair.163"*, align 8
  %18 = alloca %"class.std::__1::basic_string"*, align 8
  %19 = alloca %"class.std::__1::allocator.165"*, align 8
  %20 = alloca %"class.std::__1::allocator.165", align 1
  %21 = alloca %"class.std::__1::basic_string"*, align 8
  %22 = alloca %"class.std::__1::allocator.165"*, align 8
  %23 = alloca %"class.std::__1::__libcpp_compressed_pair_imp.164"*, align 8
  %24 = alloca %"class.std::__1::__compressed_pair.163"*, align 8
  %25 = alloca %"class.std::__1::basic_string"*, align 8
  %26 = alloca %"class.std::__1::__libcpp_compressed_pair_imp.164"*, align 8
  %27 = alloca %"class.std::__1::__compressed_pair.163"*, align 8
  %28 = alloca %"class.std::__1::basic_string"*, align 8
  %29 = alloca %"class.std::__1::__libcpp_compressed_pair_imp.164"*, align 8
  %30 = alloca %"class.std::__1::__compressed_pair.163"*, align 8
  %31 = alloca %"class.std::__1::basic_string"*, align 8
  %32 = alloca %"class.std::__1::basic_string"*, align 8
  %33 = alloca i8*, align 8
  %34 = alloca %"class.std::__1::__libcpp_compressed_pair_imp.164"*, align 8
  %35 = alloca %"class.std::__1::__compressed_pair.163"*, align 8
  %36 = alloca %"class.std::__1::basic_string"*, align 8
  %37 = alloca i8*, align 8
  %38 = alloca i8*, align 8
  %39 = alloca %"class.std::__1::__libcpp_compressed_pair_imp.164"*, align 8
  %40 = alloca %"class.std::__1::__compressed_pair.163"*, align 8
  %41 = alloca %"class.std::__1::basic_string"*, align 8
  %42 = alloca %"class.std::__1::__libcpp_compressed_pair_imp.164"*, align 8
  %43 = alloca %"class.std::__1::__compressed_pair.163"*, align 8
  %44 = alloca %"class.std::__1::basic_string"*, align 8
  %45 = alloca %"class.std::__1::basic_string"*, align 8
  %46 = alloca %"class.std::__1::basic_string"*, align 8
  %47 = alloca %"class.std::__1::__libcpp_compressed_pair_imp.164"*, align 8
  %48 = alloca %"class.std::__1::__compressed_pair.163"*, align 8
  %49 = alloca %"class.std::__1::basic_string"*, align 8
  %50 = alloca %"class.std::__1::allocator.165", align 1
  %51 = alloca %"class.std::__1::basic_string"*, align 8
  %52 = alloca i8*, align 8
  %53 = alloca %"class.std::__1::basic_string"*, align 8
  %54 = alloca i1, align 1
  %55 = alloca %"class.std::__1::allocator.165", align 1
  %56 = alloca %"class.std::__1::allocator.165", align 1
  %57 = alloca i64, align 8
  %58 = alloca i8*
  %59 = alloca i32
  %60 = alloca i64, align 8
  store i8* %1, i8** %52, align 8
  store %"class.std::__1::basic_string"* %2, %"class.std::__1::basic_string"** %53, align 8
  store i1 false, i1* %54, align 1
  %61 = load %"class.std::__1::basic_string"*, %"class.std::__1::basic_string"** %53, align 8
  store %"class.std::__1::basic_string"* %61, %"class.std::__1::basic_string"** %51, align 8
  %62 = load %"class.std::__1::basic_string"*, %"class.std::__1::basic_string"** %51, align 8
  store %"class.std::__1::basic_string"* %62, %"class.std::__1::basic_string"** %49, align 8
  %63 = load %"class.std::__1::basic_string"*, %"class.std::__1::basic_string"** %49, align 8
  %64 = getelementptr inbounds %"class.std::__1::basic_string", %"class.std::__1::basic_string"* %63, i32 0, i32 0
  store %"class.std::__1::__compressed_pair.163"* %64, %"class.std::__1::__compressed_pair.163"** %48, align 8
  %65 = load %"class.std::__1::__compressed_pair.163"*, %"class.std::__1::__compressed_pair.163"** %48, align 8
  %66 = bitcast %"class.std::__1::__compressed_pair.163"* %65 to %"class.std::__1::__libcpp_compressed_pair_imp.164"*
  store %"class.std::__1::__libcpp_compressed_pair_imp.164"* %66, %"class.std::__1::__libcpp_compressed_pair_imp.164"** %47, align 8
  %67 = load %"class.std::__1::__libcpp_compressed_pair_imp.164"*, %"class.std::__1::__libcpp_compressed_pair_imp.164"** %47, align 8
  %68 = bitcast %"class.std::__1::__libcpp_compressed_pair_imp.164"* %67 to %"class.std::__1::allocator.165"*
  store %"class.std::__1::basic_string"* %0, %"class.std::__1::basic_string"** %21, align 8
  store %"class.std::__1::allocator.165"* %55, %"class.std::__1::allocator.165"** %22, align 8
  %69 = load %"class.std::__1::basic_string"*, %"class.std::__1::basic_string"** %21, align 8
  %70 = load %"class.std::__1::allocator.165"*, %"class.std::__1::allocator.165"** %22, align 8
  store %"class.std::__1::basic_string"* %69, %"class.std::__1::basic_string"** %18, align 8
  store %"class.std::__1::allocator.165"* %70, %"class.std::__1::allocator.165"** %19, align 8
  %71 = load %"class.std::__1::basic_string"*, %"class.std::__1::basic_string"** %18, align 8
  %72 = bitcast %"class.std::__1::basic_string"* %71 to %"class.std::__1::__basic_string_common"*
  %73 = getelementptr inbounds %"class.std::__1::basic_string", %"class.std::__1::basic_string"* %71, i32 0, i32 0
  %74 = load %"class.std::__1::allocator.165"*, %"class.std::__1::allocator.165"** %19, align 8
  store %"class.std::__1::__compressed_pair.163"* %73, %"class.std::__1::__compressed_pair.163"** %17, align 8
  %75 = load %"class.std::__1::__compressed_pair.163"*, %"class.std::__1::__compressed_pair.163"** %17, align 8
  store %"class.std::__1::__compressed_pair.163"* %75, %"class.std::__1::__compressed_pair.163"** %14, align 8
  %76 = load %"class.std::__1::__compressed_pair.163"*, %"class.std::__1::__compressed_pair.163"** %14, align 8
  %77 = bitcast %"class.std::__1::__compressed_pair.163"* %76 to %"class.std::__1::__libcpp_compressed_pair_imp.164"*
  store %"class.std::__1::allocator.165"* %13, %"class.std::__1::allocator.165"** %12, align 8
  %78 = load %"class.std::__1::allocator.165"*, %"class.std::__1::allocator.165"** %12, align 8
  store %"class.std::__1::__libcpp_compressed_pair_imp.164"* %77, %"class.std::__1::__libcpp_compressed_pair_imp.164"** %11, align 8
  %79 = load %"class.std::__1::__libcpp_compressed_pair_imp.164"*, %"class.std::__1::__libcpp_compressed_pair_imp.164"** %11, align 8
  %80 = bitcast %"class.std::__1::__libcpp_compressed_pair_imp.164"* %79 to %"class.std::__1::allocator.165"*
  store %"class.std::__1::allocator.165"* %10, %"class.std::__1::allocator.165"** %9, align 8
  %81 = load %"class.std::__1::allocator.165"*, %"class.std::__1::allocator.165"** %9, align 8
  %82 = getelementptr inbounds %"class.std::__1::__libcpp_compressed_pair_imp.164", %"class.std::__1::__libcpp_compressed_pair_imp.164"* %79, i32 0, i32 0
  %83 = bitcast %"struct.std::__1::basic_string<char, std::__1::char_traits<char>, std::__1::allocator<char> >::__rep"* %82 to i8*
  call void @llvm.memset.p0i8.i64(i8* %83, i8 0, i64 24, i32 8, i1 false) #14
  store %"class.std::__1::basic_string"* %71, %"class.std::__1::basic_string"** %6, align 8
  %84 = load %"class.std::__1::basic_string"*, %"class.std::__1::basic_string"** %6, align 8
  %85 = getelementptr inbounds %"class.std::__1::basic_string", %"class.std::__1::basic_string"* %84, i32 0, i32 0
  store %"class.std::__1::__compressed_pair.163"* %85, %"class.std::__1::__compressed_pair.163"** %5, align 8
  %86 = load %"class.std::__1::__compressed_pair.163"*, %"class.std::__1::__compressed_pair.163"** %5, align 8
  %87 = bitcast %"class.std::__1::__compressed_pair.163"* %86 to %"class.std::__1::__libcpp_compressed_pair_imp.164"*
  store %"class.std::__1::__libcpp_compressed_pair_imp.164"* %87, %"class.std::__1::__libcpp_compressed_pair_imp.164"** %4, align 8
  %88 = load %"class.std::__1::__libcpp_compressed_pair_imp.164"*, %"class.std::__1::__libcpp_compressed_pair_imp.164"** %4, align 8
  %89 = getelementptr inbounds %"class.std::__1::__libcpp_compressed_pair_imp.164", %"class.std::__1::__libcpp_compressed_pair_imp.164"* %88, i32 0, i32 0
  %90 = getelementptr inbounds %"struct.std::__1::basic_string<char, std::__1::char_traits<char>, std::__1::allocator<char> >::__rep", %"struct.std::__1::basic_string<char, std::__1::char_traits<char>, std::__1::allocator<char> >::__rep"* %89, i32 0, i32 0
  %91 = bitcast %union.anon.167* %90 to %"struct.std::__1::basic_string<char, std::__1::char_traits<char>, std::__1::allocator<char> >::__raw"*
  %92 = getelementptr inbounds %"struct.std::__1::basic_string<char, std::__1::char_traits<char>, std::__1::allocator<char> >::__raw", %"struct.std::__1::basic_string<char, std::__1::char_traits<char>, std::__1::allocator<char> >::__raw"* %91, i32 0, i32 0
  store [3 x i64]* %92, [3 x i64]** %7, align 8
  store i32 0, i32* %8, align 4
  br label %93

; <label>:93:                                     ; preds = %96, %3
  %94 = load i32, i32* %8, align 4
  %95 = icmp ult i32 %94, 3
  br i1 %95, label %96, label %103

; <label>:96:                                     ; preds = %93
  %97 = load i32, i32* %8, align 4
  %98 = zext i32 %97 to i64
  %99 = load [3 x i64]*, [3 x i64]** %7, align 8
  %100 = getelementptr inbounds [3 x i64], [3 x i64]* %99, i64 0, i64 %98
  store i64 0, i64* %100, align 8
  %101 = load i32, i32* %8, align 4
  %102 = add i32 %101, 1
  store i32 %102, i32* %8, align 4
  br label %93

; <label>:103:                                    ; preds = %93
  %104 = load i8*, i8** %52, align 8
  %105 = invoke i64 @_ZNSt3__111char_traitsIcE6lengthEPKc(i8* %104)
          to label %106 unwind label %205

; <label>:106:                                    ; preds = %103
  store i64 %105, i64* %57, align 8
  %107 = load %"class.std::__1::basic_string"*, %"class.std::__1::basic_string"** %53, align 8
  store %"class.std::__1::basic_string"* %107, %"class.std::__1::basic_string"** %32, align 8
  %108 = load %"class.std::__1::basic_string"*, %"class.std::__1::basic_string"** %32, align 8
  store %"class.std::__1::basic_string"* %108, %"class.std::__1::basic_string"** %31, align 8
  %109 = load %"class.std::__1::basic_string"*, %"class.std::__1::basic_string"** %31, align 8
  %110 = getelementptr inbounds %"class.std::__1::basic_string", %"class.std::__1::basic_string"* %109, i32 0, i32 0
  store %"class.std::__1::__compressed_pair.163"* %110, %"class.std::__1::__compressed_pair.163"** %30, align 8
  %111 = load %"class.std::__1::__compressed_pair.163"*, %"class.std::__1::__compressed_pair.163"** %30, align 8
  %112 = bitcast %"class.std::__1::__compressed_pair.163"* %111 to %"class.std::__1::__libcpp_compressed_pair_imp.164"*
  store %"class.std::__1::__libcpp_compressed_pair_imp.164"* %112, %"class.std::__1::__libcpp_compressed_pair_imp.164"** %29, align 8
  %113 = load %"class.std::__1::__libcpp_compressed_pair_imp.164"*, %"class.std::__1::__libcpp_compressed_pair_imp.164"** %29, align 8
  %114 = getelementptr inbounds %"class.std::__1::__libcpp_compressed_pair_imp.164", %"class.std::__1::__libcpp_compressed_pair_imp.164"* %113, i32 0, i32 0
  %115 = getelementptr inbounds %"struct.std::__1::basic_string<char, std::__1::char_traits<char>, std::__1::allocator<char> >::__rep", %"struct.std::__1::basic_string<char, std::__1::char_traits<char>, std::__1::allocator<char> >::__rep"* %114, i32 0, i32 0
  %116 = bitcast %union.anon.167* %115 to %"struct.std::__1::basic_string<char, std::__1::char_traits<char>, std::__1::allocator<char> >::__short"*
  %117 = getelementptr inbounds %"struct.std::__1::basic_string<char, std::__1::char_traits<char>, std::__1::allocator<char> >::__short", %"struct.std::__1::basic_string<char, std::__1::char_traits<char>, std::__1::allocator<char> >::__short"* %116, i32 0, i32 0
  %118 = bitcast %union.anon.168* %117 to i8*
  %119 = load i8, i8* %118, align 8
  %120 = zext i8 %119 to i32
  %121 = and i32 %120, 1
  %122 = icmp ne i32 %121, 0
  br i1 %122, label %123, label %134

; <label>:123:                                    ; preds = %106
  store %"class.std::__1::basic_string"* %108, %"class.std::__1::basic_string"** %25, align 8
  %124 = load %"class.std::__1::basic_string"*, %"class.std::__1::basic_string"** %25, align 8
  %125 = getelementptr inbounds %"class.std::__1::basic_string", %"class.std::__1::basic_string"* %124, i32 0, i32 0
  store %"class.std::__1::__compressed_pair.163"* %125, %"class.std::__1::__compressed_pair.163"** %24, align 8
  %126 = load %"class.std::__1::__compressed_pair.163"*, %"class.std::__1::__compressed_pair.163"** %24, align 8
  %127 = bitcast %"class.std::__1::__compressed_pair.163"* %126 to %"class.std::__1::__libcpp_compressed_pair_imp.164"*
  store %"class.std::__1::__libcpp_compressed_pair_imp.164"* %127, %"class.std::__1::__libcpp_compressed_pair_imp.164"** %23, align 8
  %128 = load %"class.std::__1::__libcpp_compressed_pair_imp.164"*, %"class.std::__1::__libcpp_compressed_pair_imp.164"** %23, align 8
  %129 = getelementptr inbounds %"class.std::__1::__libcpp_compressed_pair_imp.164", %"class.std::__1::__libcpp_compressed_pair_imp.164"* %128, i32 0, i32 0
  %130 = getelementptr inbounds %"struct.std::__1::basic_string<char, std::__1::char_traits<char>, std::__1::allocator<char> >::__rep", %"struct.std::__1::basic_string<char, std::__1::char_traits<char>, std::__1::allocator<char> >::__rep"* %129, i32 0, i32 0
  %131 = bitcast %union.anon.167* %130 to %"struct.std::__1::basic_string<char, std::__1::char_traits<char>, std::__1::allocator<char> >::__long"*
  %132 = getelementptr inbounds %"struct.std::__1::basic_string<char, std::__1::char_traits<char>, std::__1::allocator<char> >::__long", %"struct.std::__1::basic_string<char, std::__1::char_traits<char>, std::__1::allocator<char> >::__long"* %131, i32 0, i32 1
  %133 = load i64, i64* %132, align 8
  br label %149

; <label>:134:                                    ; preds = %106
  store %"class.std::__1::basic_string"* %108, %"class.std::__1::basic_string"** %28, align 8
  %135 = load %"class.std::__1::basic_string"*, %"class.std::__1::basic_string"** %28, align 8
  %136 = getelementptr inbounds %"class.std::__1::basic_string", %"class.std::__1::basic_string"* %135, i32 0, i32 0
  store %"class.std::__1::__compressed_pair.163"* %136, %"class.std::__1::__compressed_pair.163"** %27, align 8
  %137 = load %"class.std::__1::__compressed_pair.163"*, %"class.std::__1::__compressed_pair.163"** %27, align 8
  %138 = bitcast %"class.std::__1::__compressed_pair.163"* %137 to %"class.std::__1::__libcpp_compressed_pair_imp.164"*
  store %"class.std::__1::__libcpp_compressed_pair_imp.164"* %138, %"class.std::__1::__libcpp_compressed_pair_imp.164"** %26, align 8
  %139 = load %"class.std::__1::__libcpp_compressed_pair_imp.164"*, %"class.std::__1::__libcpp_compressed_pair_imp.164"** %26, align 8
  %140 = getelementptr inbounds %"class.std::__1::__libcpp_compressed_pair_imp.164", %"class.std::__1::__libcpp_compressed_pair_imp.164"* %139, i32 0, i32 0
  %141 = getelementptr inbounds %"struct.std::__1::basic_string<char, std::__1::char_traits<char>, std::__1::allocator<char> >::__rep", %"struct.std::__1::basic_string<char, std::__1::char_traits<char>, std::__1::allocator<char> >::__rep"* %140, i32 0, i32 0
  %142 = bitcast %union.anon.167* %141 to %"struct.std::__1::basic_string<char, std::__1::char_traits<char>, std::__1::allocator<char> >::__short"*
  %143 = getelementptr inbounds %"struct.std::__1::basic_string<char, std::__1::char_traits<char>, std::__1::allocator<char> >::__short", %"struct.std::__1::basic_string<char, std::__1::char_traits<char>, std::__1::allocator<char> >::__short"* %142, i32 0, i32 0
  %144 = bitcast %union.anon.168* %143 to i8*
  %145 = load i8, i8* %144, align 8
  %146 = zext i8 %145 to i32
  %147 = ashr i32 %146, 1
  %148 = sext i32 %147 to i64
  br label %149

; <label>:149:                                    ; preds = %123, %134
  %150 = phi i64 [ %133, %123 ], [ %148, %134 ]
  store i64 %150, i64* %60, align 8
  %151 = load i8*, i8** %52, align 8
  %152 = load i64, i64* %57, align 8
  %153 = load i64, i64* %57, align 8
  %154 = load i64, i64* %60, align 8
  %155 = add i64 %153, %154
  invoke void @_ZNSt3__112basic_stringIcNS_11char_traitsIcEENS_9allocatorIcEEE6__initEPKcmm(%"class.std::__1::basic_string"* %0, i8* %151, i64 %152, i64 %155)
          to label %156 unwind label %205

; <label>:156:                                    ; preds = %149
  %157 = load %"class.std::__1::basic_string"*, %"class.std::__1::basic_string"** %53, align 8
  store %"class.std::__1::basic_string"* %157, %"class.std::__1::basic_string"** %46, align 8
  %158 = load %"class.std::__1::basic_string"*, %"class.std::__1::basic_string"** %46, align 8
  store %"class.std::__1::basic_string"* %158, %"class.std::__1::basic_string"** %45, align 8
  %159 = load %"class.std::__1::basic_string"*, %"class.std::__1::basic_string"** %45, align 8
  store %"class.std::__1::basic_string"* %159, %"class.std::__1::basic_string"** %44, align 8
  %160 = load %"class.std::__1::basic_string"*, %"class.std::__1::basic_string"** %44, align 8
  %161 = getelementptr inbounds %"class.std::__1::basic_string", %"class.std::__1::basic_string"* %160, i32 0, i32 0
  store %"class.std::__1::__compressed_pair.163"* %161, %"class.std::__1::__compressed_pair.163"** %43, align 8
  %162 = load %"class.std::__1::__compressed_pair.163"*, %"class.std::__1::__compressed_pair.163"** %43, align 8
  %163 = bitcast %"class.std::__1::__compressed_pair.163"* %162 to %"class.std::__1::__libcpp_compressed_pair_imp.164"*
  store %"class.std::__1::__libcpp_compressed_pair_imp.164"* %163, %"class.std::__1::__libcpp_compressed_pair_imp.164"** %42, align 8
  %164 = load %"class.std::__1::__libcpp_compressed_pair_imp.164"*, %"class.std::__1::__libcpp_compressed_pair_imp.164"** %42, align 8
  %165 = getelementptr inbounds %"class.std::__1::__libcpp_compressed_pair_imp.164", %"class.std::__1::__libcpp_compressed_pair_imp.164"* %164, i32 0, i32 0
  %166 = getelementptr inbounds %"struct.std::__1::basic_string<char, std::__1::char_traits<char>, std::__1::allocator<char> >::__rep", %"struct.std::__1::basic_string<char, std::__1::char_traits<char>, std::__1::allocator<char> >::__rep"* %165, i32 0, i32 0
  %167 = bitcast %union.anon.167* %166 to %"struct.std::__1::basic_string<char, std::__1::char_traits<char>, std::__1::allocator<char> >::__short"*
  %168 = getelementptr inbounds %"struct.std::__1::basic_string<char, std::__1::char_traits<char>, std::__1::allocator<char> >::__short", %"struct.std::__1::basic_string<char, std::__1::char_traits<char>, std::__1::allocator<char> >::__short"* %167, i32 0, i32 0
  %169 = bitcast %union.anon.168* %168 to i8*
  %170 = load i8, i8* %169, align 8
  %171 = zext i8 %170 to i32
  %172 = and i32 %171, 1
  %173 = icmp ne i32 %172, 0
  br i1 %173, label %174, label %185

; <label>:174:                                    ; preds = %156
  store %"class.std::__1::basic_string"* %159, %"class.std::__1::basic_string"** %36, align 8
  %175 = load %"class.std::__1::basic_string"*, %"class.std::__1::basic_string"** %36, align 8
  %176 = getelementptr inbounds %"class.std::__1::basic_string", %"class.std::__1::basic_string"* %175, i32 0, i32 0
  store %"class.std::__1::__compressed_pair.163"* %176, %"class.std::__1::__compressed_pair.163"** %35, align 8
  %177 = load %"class.std::__1::__compressed_pair.163"*, %"class.std::__1::__compressed_pair.163"** %35, align 8
  %178 = bitcast %"class.std::__1::__compressed_pair.163"* %177 to %"class.std::__1::__libcpp_compressed_pair_imp.164"*
  store %"class.std::__1::__libcpp_compressed_pair_imp.164"* %178, %"class.std::__1::__libcpp_compressed_pair_imp.164"** %34, align 8
  %179 = load %"class.std::__1::__libcpp_compressed_pair_imp.164"*, %"class.std::__1::__libcpp_compressed_pair_imp.164"** %34, align 8
  %180 = getelementptr inbounds %"class.std::__1::__libcpp_compressed_pair_imp.164", %"class.std::__1::__libcpp_compressed_pair_imp.164"* %179, i32 0, i32 0
  %181 = getelementptr inbounds %"struct.std::__1::basic_string<char, std::__1::char_traits<char>, std::__1::allocator<char> >::__rep", %"struct.std::__1::basic_string<char, std::__1::char_traits<char>, std::__1::allocator<char> >::__rep"* %180, i32 0, i32 0
  %182 = bitcast %union.anon.167* %181 to %"struct.std::__1::basic_string<char, std::__1::char_traits<char>, std::__1::allocator<char> >::__long"*
  %183 = getelementptr inbounds %"struct.std::__1::basic_string<char, std::__1::char_traits<char>, std::__1::allocator<char> >::__long", %"struct.std::__1::basic_string<char, std::__1::char_traits<char>, std::__1::allocator<char> >::__long"* %182, i32 0, i32 2
  %184 = load i8*, i8** %183, align 8
  br label %198

; <label>:185:                                    ; preds = %156
  store %"class.std::__1::basic_string"* %159, %"class.std::__1::basic_string"** %41, align 8
  %186 = load %"class.std::__1::basic_string"*, %"class.std::__1::basic_string"** %41, align 8
  %187 = getelementptr inbounds %"class.std::__1::basic_string", %"class.std::__1::basic_string"* %186, i32 0, i32 0
  store %"class.std::__1::__compressed_pair.163"* %187, %"class.std::__1::__compressed_pair.163"** %40, align 8
  %188 = load %"class.std::__1::__compressed_pair.163"*, %"class.std::__1::__compressed_pair.163"** %40, align 8
  %189 = bitcast %"class.std::__1::__compressed_pair.163"* %188 to %"class.std::__1::__libcpp_compressed_pair_imp.164"*
  store %"class.std::__1::__libcpp_compressed_pair_imp.164"* %189, %"class.std::__1::__libcpp_compressed_pair_imp.164"** %39, align 8
  %190 = load %"class.std::__1::__libcpp_compressed_pair_imp.164"*, %"class.std::__1::__libcpp_compressed_pair_imp.164"** %39, align 8
  %191 = getelementptr inbounds %"class.std::__1::__libcpp_compressed_pair_imp.164", %"class.std::__1::__libcpp_compressed_pair_imp.164"* %190, i32 0, i32 0
  %192 = getelementptr inbounds %"struct.std::__1::basic_string<char, std::__1::char_traits<char>, std::__1::allocator<char> >::__rep", %"struct.std::__1::basic_string<char, std::__1::char_traits<char>, std::__1::allocator<char> >::__rep"* %191, i32 0, i32 0
  %193 = bitcast %union.anon.167* %192 to %"struct.std::__1::basic_string<char, std::__1::char_traits<char>, std::__1::allocator<char> >::__short"*
  %194 = getelementptr inbounds %"struct.std::__1::basic_string<char, std::__1::char_traits<char>, std::__1::allocator<char> >::__short", %"struct.std::__1::basic_string<char, std::__1::char_traits<char>, std::__1::allocator<char> >::__short"* %193, i32 0, i32 1
  %195 = getelementptr inbounds [23 x i8], [23 x i8]* %194, i64 0, i64 0
  store i8* %195, i8** %38, align 8
  %196 = load i8*, i8** %38, align 8
  store i8* %196, i8** %37, align 8
  %197 = load i8*, i8** %37, align 8
  br label %198

; <label>:198:                                    ; preds = %174, %185
  %199 = phi i8* [ %184, %174 ], [ %197, %185 ]
  store i8* %199, i8** %33, align 8
  %200 = load i8*, i8** %33, align 8
  %201 = load i64, i64* %60, align 8
  %202 = invoke dereferenceable(24) %"class.std::__1::basic_string"* @_ZNSt3__112basic_stringIcNS_11char_traitsIcEENS_9allocatorIcEEE6appendEPKcm(%"class.std::__1::basic_string"* %0, i8* %200, i64 %201)
          to label %203 unwind label %205

; <label>:203:                                    ; preds = %198
  store i1 true, i1* %54, align 1
  %204 = load i1, i1* %54, align 1
  br i1 %204, label %210, label %209

; <label>:205:                                    ; preds = %198, %149, %103
  %206 = landingpad { i8*, i32 }
          cleanup
  %207 = extractvalue { i8*, i32 } %206, 0
  store i8* %207, i8** %58, align 8
  %208 = extractvalue { i8*, i32 } %206, 1
  store i32 %208, i32* %59, align 4
  call void @_ZNSt3__112basic_stringIcNS_11char_traitsIcEENS_9allocatorIcEEED1Ev(%"class.std::__1::basic_string"* %0) #14
  br label %211

; <label>:209:                                    ; preds = %203
  call void @_ZNSt3__112basic_stringIcNS_11char_traitsIcEENS_9allocatorIcEEED1Ev(%"class.std::__1::basic_string"* %0) #14
  br label %210

; <label>:210:                                    ; preds = %209, %203
  ret void

; <label>:211:                                    ; preds = %205
  %212 = load i8*, i8** %58, align 8
  %213 = load i32, i32* %59, align 4
  %214 = insertvalue { i8*, i32 } undef, i8* %212, 0
  %215 = insertvalue { i8*, i32 } %214, i32 %213, 1
  resume { i8*, i32 } %215
}

; Function Attrs: inlinehint nounwind ssp uwtable
define linkonce_odr void @_ZNSt3__16vectorIPN4llvm4TypeENS_9allocatorIS3_EEED1Ev(%"class.std::__1::vector.201"*) unnamed_addr #3 align 2 {
  %2 = alloca %"class.std::__1::vector.201"*, align 8
  store %"class.std::__1::vector.201"* %0, %"class.std::__1::vector.201"** %2, align 8
  %3 = load %"class.std::__1::vector.201"*, %"class.std::__1::vector.201"** %2, align 8
  call void @_ZNSt3__16vectorIPN4llvm4TypeENS_9allocatorIS3_EEED2Ev(%"class.std::__1::vector.201"* %3) #14
  ret void
}

; Function Attrs: ssp uwtable
define %"class.llvm::Function"* @_ZN13InternalClass13DeclareMethodENSt3__112basic_stringIcNS0_11char_traitsIcEENS0_9allocatorIcEEEEPN4llvm4TypeENS0_6vectorIS9_NS4_IS9_EEEEbb(%class.InternalClass*, %"class.std::__1::basic_string"*, %"class.llvm::Type"*, %"class.std::__1::vector.201"*, i1 zeroext, i1 zeroext) #0 align 2 personality i8* bitcast (i32 (...)* @__gxx_personality_v0 to i8*) {
  %7 = alloca %"class.llvm::Function"**, align 8
  %8 = alloca %"class.llvm::Function"**, align 8
  %9 = alloca i8*, align 8
  %10 = alloca %"class.std::__1::__libcpp_compressed_pair_imp.164"*, align 8
  %11 = alloca %"class.std::__1::__compressed_pair.163"*, align 8
  %12 = alloca %"class.std::__1::basic_string"*, align 8
  %13 = alloca i8*, align 8
  %14 = alloca i8*, align 8
  %15 = alloca %"class.std::__1::__libcpp_compressed_pair_imp.164"*, align 8
  %16 = alloca %"class.std::__1::__compressed_pair.163"*, align 8
  %17 = alloca %"class.std::__1::basic_string"*, align 8
  %18 = alloca %"class.std::__1::__libcpp_compressed_pair_imp.164"*, align 8
  %19 = alloca %"class.std::__1::__compressed_pair.163"*, align 8
  %20 = alloca %"class.std::__1::basic_string"*, align 8
  %21 = alloca %"class.std::__1::basic_string"*, align 8
  %22 = alloca %"class.std::__1::basic_string"*, align 8
  %23 = alloca %"class.std::__1::__libcpp_compressed_pair_imp.164"*, align 8
  %24 = alloca %"class.std::__1::__compressed_pair.163"*, align 8
  %25 = alloca %"class.std::__1::basic_string"*, align 8
  %26 = alloca i8*, align 8
  %27 = alloca %"class.std::__1::__libcpp_compressed_pair_imp.164"*, align 8
  %28 = alloca %"class.std::__1::__compressed_pair.163"*, align 8
  %29 = alloca %"class.std::__1::basic_string"*, align 8
  %30 = alloca i8*, align 8
  %31 = alloca i8*, align 8
  %32 = alloca %"class.std::__1::__libcpp_compressed_pair_imp.164"*, align 8
  %33 = alloca %"class.std::__1::__compressed_pair.163"*, align 8
  %34 = alloca %"class.std::__1::basic_string"*, align 8
  %35 = alloca %"class.std::__1::__libcpp_compressed_pair_imp.164"*, align 8
  %36 = alloca %"class.std::__1::__compressed_pair.163"*, align 8
  %37 = alloca %"class.std::__1::basic_string"*, align 8
  %38 = alloca %"class.std::__1::basic_string"*, align 8
  %39 = alloca %"class.std::__1::basic_string"*, align 8
  %40 = alloca %"class.std::__1::__libcpp_compressed_pair_imp.164"*, align 8
  %41 = alloca %"class.std::__1::__compressed_pair.163"*, align 8
  %42 = alloca %"class.std::__1::basic_string"*, align 8
  %43 = alloca %"class.std::__1::__libcpp_compressed_pair_imp.164"*, align 8
  %44 = alloca %"class.std::__1::__compressed_pair.163"*, align 8
  %45 = alloca %"class.std::__1::basic_string"*, align 8
  %46 = alloca %"class.std::__1::__libcpp_compressed_pair_imp.164"*, align 8
  %47 = alloca %"class.std::__1::__compressed_pair.163"*, align 8
  %48 = alloca %"class.std::__1::basic_string"*, align 8
  %49 = alloca %"class.std::__1::basic_string"*, align 8
  %50 = alloca %"class.std::__1::__libcpp_compressed_pair_imp.164"*, align 8
  %51 = alloca %"class.std::__1::__compressed_pair.163"*, align 8
  %52 = alloca %"class.std::__1::basic_string"*, align 8
  %53 = alloca %"class.std::__1::__libcpp_compressed_pair_imp.164"*, align 8
  %54 = alloca %"class.std::__1::__compressed_pair.163"*, align 8
  %55 = alloca %"class.std::__1::basic_string"*, align 8
  %56 = alloca %"class.std::__1::__libcpp_compressed_pair_imp.164"*, align 8
  %57 = alloca %"class.std::__1::__compressed_pair.163"*, align 8
  %58 = alloca %"class.std::__1::basic_string"*, align 8
  %59 = alloca %"class.std::__1::basic_string"*, align 8
  %60 = alloca i1, align 1
  %61 = alloca %"class.std::__1::basic_string"*, align 8
  %62 = alloca %"class.std::__1::basic_string"*, align 8
  %63 = alloca i64, align 8
  %64 = alloca i8*, align 8
  %65 = alloca i8*, align 8
  %66 = alloca %"struct.std::__1::equal_to"*, align 8
  %67 = alloca %"class.std::__1::basic_string"*, align 8
  %68 = alloca %"class.std::__1::basic_string"*, align 8
  %69 = alloca %"class.std::__1::__unordered_map_equal.193"*, align 8
  %70 = alloca %"union.std::__1::__hash_value_type"*, align 8
  %71 = alloca %"class.std::__1::basic_string"*, align 8
  %72 = alloca %"class.std::__1::basic_string"*, align 8
  %73 = alloca %"class.llvm::Function"**, align 8
  %74 = alloca %"struct.std::__1::__hash_node_base.178"*, align 8
  %75 = alloca %"struct.std::__1::__hash_node_base.178"*, align 8
  %76 = alloca %"struct.std::__1::__hash_node_base.178"*, align 8
  %77 = alloca %"class.std::__1::__libcpp_compressed_pair_imp.189"*, align 8
  %78 = alloca %"class.std::__1::__compressed_pair.188"*, align 8
  %79 = alloca %"class.std::__1::__hash_table.174"*, align 8
  %80 = alloca %"class.std::__1::__libcpp_compressed_pair_imp.192"*, align 8
  %81 = alloca %"class.std::__1::__compressed_pair.191"*, align 8
  %82 = alloca %"class.std::__1::__hash_table.174"*, align 8
  %83 = alloca i64, align 8
  %84 = alloca %"class.std::__1::__libcpp_compressed_pair_imp.189"*, align 8
  %85 = alloca %"class.std::__1::__compressed_pair.188"*, align 8
  %86 = alloca %"class.std::__1::__hash_table.174"*, align 8
  %87 = alloca %"class.std::__1::__libcpp_compressed_pair_imp.192"*, align 8
  %88 = alloca %"class.std::__1::__compressed_pair.191"*, align 8
  %89 = alloca %"class.std::__1::__hash_table.174"*, align 8
  %90 = alloca %"class.std::__1::__libcpp_compressed_pair_imp.192"*, align 8
  %91 = alloca %"class.std::__1::__compressed_pair.191"*, align 8
  %92 = alloca %"class.std::__1::__hash_table.174"*, align 8
  %93 = alloca float, align 4
  %94 = alloca %"struct.std::__1::__less"*, align 8
  %95 = alloca i64*, align 8
  %96 = alloca i64*, align 8
  %97 = alloca %"struct.std::__1::__less", align 1
  %98 = alloca i64*, align 8
  %99 = alloca i64*, align 8
  %100 = alloca i64*, align 8
  %101 = alloca i64*, align 8
  %102 = alloca %"struct.std::__1::__less", align 1
  %103 = alloca i64, align 8
  %104 = alloca i64, align 8
  %105 = alloca %"class.std::__1::__libcpp_compressed_pair_imp.181"*, align 8
  %106 = alloca %"class.std::__1::__compressed_pair.180"*, align 8
  %107 = alloca %"class.std::__1::__bucket_list_deallocator.179"*, align 8
  %108 = alloca %"class.std::__1::__libcpp_compressed_pair_imp.177"*, align 8
  %109 = alloca %"class.std::__1::__compressed_pair.176"*, align 8
  %110 = alloca %"class.std::__1::unique_ptr.175"*, align 8
  %111 = alloca %"class.std::__1::__hash_table.174"*, align 8
  %112 = alloca i64, align 8
  %113 = alloca i64, align 8
  %114 = alloca %"struct.std::__1::__hash_node_base.178"*, align 8
  %115 = alloca %"class.std::__1::__libcpp_compressed_pair_imp.177"*, align 8
  %116 = alloca %"class.std::__1::__compressed_pair.176"*, align 8
  %117 = alloca %"class.std::__1::unique_ptr.175"*, align 8
  %118 = alloca i64, align 8
  %119 = alloca %"class.std::__1::__libcpp_compressed_pair_imp.245"*, align 8
  %120 = alloca %"class.std::__1::__compressed_pair.244"*, align 8
  %121 = alloca %"class.std::__1::__libcpp_compressed_pair_imp.245"*, align 8
  %122 = alloca %"class.std::__1::__compressed_pair.244"*, align 8
  %123 = alloca i8*, align 8
  %124 = alloca %"class.std::__1::allocator.186"*, align 8
  %125 = alloca %"struct.std::__1::__hash_node"*, align 8
  %126 = alloca i64, align 8
  %127 = alloca %"class.std::__1::allocator.186"*, align 8
  %128 = alloca %"struct.std::__1::__hash_node"*, align 8
  %129 = alloca i64, align 8
  %130 = alloca %"class.std::__1::allocator.186"*, align 8
  %131 = alloca %"struct.std::__1::pair.239"*, align 8
  %132 = alloca %"class.std::__1::allocator.186"*, align 8
  %133 = alloca %"struct.std::__1::pair.239"*, align 8
  %134 = alloca %"struct.std::__1::integral_constant.237", align 1
  %135 = alloca %"struct.std::__1::__has_destroy.247", align 1
  %136 = alloca %"struct.std::__1::pair.239"*, align 8
  %137 = alloca %"union.std::__1::__hash_value_type"*, align 8
  %138 = alloca %"class.std::__1::__hash_node_destructor"*, align 8
  %139 = alloca %"struct.std::__1::__hash_node"*, align 8
  %140 = alloca %"class.std::__1::__libcpp_compressed_pair_imp.245"*, align 8
  %141 = alloca %"class.std::__1::__compressed_pair.244"*, align 8
  %142 = alloca %"class.std::__1::unique_ptr.243"*, align 8
  %143 = alloca %"struct.std::__1::__hash_node"*, align 8
  %144 = alloca %"struct.std::__1::__hash_node"*, align 8
  %145 = alloca %"class.std::__1::unique_ptr.243"*, align 8
  %146 = alloca %"class.std::__1::unique_ptr.243"*, align 8
  %147 = alloca %"class.std::__1::__libcpp_compressed_pair_imp.177"*, align 8
  %148 = alloca %"class.std::__1::__compressed_pair.176"*, align 8
  %149 = alloca %"class.std::__1::unique_ptr.175"*, align 8
  %150 = alloca i64, align 8
  %151 = alloca %"class.std::__1::__libcpp_compressed_pair_imp.185"*, align 8
  %152 = alloca %"class.std::__1::__compressed_pair.184"*, align 8
  %153 = alloca %"struct.std::__1::__hash_node_base.178"*, align 8
  %154 = alloca %"struct.std::__1::__hash_node_base.178"*, align 8
  %155 = alloca %"struct.std::__1::__hash_node_base.178"*, align 8
  %156 = alloca %"class.std::__1::__libcpp_compressed_pair_imp.245"*, align 8
  %157 = alloca %"class.std::__1::__compressed_pair.244"*, align 8
  %158 = alloca %"class.std::__1::unique_ptr.243"*, align 8
  %159 = alloca %"class.std::__1::__libcpp_compressed_pair_imp.245"*, align 8
  %160 = alloca %"class.std::__1::__compressed_pair.244"*, align 8
  %161 = alloca %"class.std::__1::unique_ptr.243"*, align 8
  %162 = alloca %"struct.std::__1::__hash_node_base.178"*, align 8
  %163 = alloca %"struct.std::__1::__hash_node_base.178"*, align 8
  %164 = alloca %"struct.std::__1::__hash_node_base.178"*, align 8
  %165 = alloca %"class.std::__1::__libcpp_compressed_pair_imp.177"*, align 8
  %166 = alloca %"class.std::__1::__compressed_pair.176"*, align 8
  %167 = alloca %"class.std::__1::unique_ptr.175"*, align 8
  %168 = alloca i64, align 8
  %169 = alloca %"class.std::__1::__libcpp_compressed_pair_imp.245"*, align 8
  %170 = alloca %"class.std::__1::__compressed_pair.244"*, align 8
  %171 = alloca %"class.std::__1::unique_ptr.243"*, align 8
  %172 = alloca %"class.std::__1::__libcpp_compressed_pair_imp.245"*, align 8
  %173 = alloca %"class.std::__1::__compressed_pair.244"*, align 8
  %174 = alloca %"class.std::__1::unique_ptr.243"*, align 8
  %175 = alloca %"struct.std::__1::__hash_node_base.178"*, align 8
  %176 = alloca %"struct.std::__1::__hash_node_base.178"*, align 8
  %177 = alloca %"struct.std::__1::__hash_node_base.178"*, align 8
  %178 = alloca %"class.std::__1::__libcpp_compressed_pair_imp.245"*, align 8
  %179 = alloca %"class.std::__1::__compressed_pair.244"*, align 8
  %180 = alloca %"class.std::__1::unique_ptr.243"*, align 8
  %181 = alloca %"struct.std::__1::__hash_node_base.178"*, align 8
  %182 = alloca i64, align 8
  %183 = alloca i64, align 8
  %184 = alloca %"class.std::__1::__libcpp_compressed_pair_imp.177"*, align 8
  %185 = alloca %"class.std::__1::__compressed_pair.176"*, align 8
  %186 = alloca %"class.std::__1::unique_ptr.175"*, align 8
  %187 = alloca i64, align 8
  %188 = alloca %"class.std::__1::__libcpp_compressed_pair_imp.245"*, align 8
  %189 = alloca %"class.std::__1::__compressed_pair.244"*, align 8
  %190 = alloca %"class.std::__1::unique_ptr.243"*, align 8
  %191 = alloca %"class.std::__1::__libcpp_compressed_pair_imp.245"*, align 8
  %192 = alloca %"class.std::__1::__compressed_pair.244"*, align 8
  %193 = alloca %"class.std::__1::unique_ptr.243"*, align 8
  %194 = alloca %"class.std::__1::__libcpp_compressed_pair_imp.245"*, align 8
  %195 = alloca %"class.std::__1::__compressed_pair.244"*, align 8
  %196 = alloca %"class.std::__1::__libcpp_compressed_pair_imp.245"*, align 8
  %197 = alloca %"class.std::__1::__compressed_pair.244"*, align 8
  %198 = alloca %"class.std::__1::unique_ptr.243"*, align 8
  %199 = alloca %"struct.std::__1::__hash_node"*, align 8
  %200 = alloca %"class.std::__1::__libcpp_compressed_pair_imp.189"*, align 8
  %201 = alloca %"class.std::__1::__compressed_pair.188"*, align 8
  %202 = alloca %"class.std::__1::__hash_table.174"*, align 8
  %203 = alloca i64, align 8
  %204 = alloca i64, align 8
  %205 = alloca %"class.std::__1::__libcpp_compressed_pair_imp.181"*, align 8
  %206 = alloca %"class.std::__1::__compressed_pair.180"*, align 8
  %207 = alloca %"class.std::__1::__bucket_list_deallocator.179"*, align 8
  %208 = alloca %"class.std::__1::__libcpp_compressed_pair_imp.177"*, align 8
  %209 = alloca %"class.std::__1::__compressed_pair.176"*, align 8
  %210 = alloca %"class.std::__1::unique_ptr.175"*, align 8
  %211 = alloca %"class.std::__1::__hash_table.174"*, align 8
  %212 = alloca %"class.std::__1::__unordered_map_hasher.190"*, align 8
  %213 = alloca %"class.std::__1::basic_string"*, align 8
  %214 = alloca %"class.std::__1::__libcpp_compressed_pair_imp.245"*, align 8
  %215 = alloca %"class.std::__1::__compressed_pair.244"*, align 8
  %216 = alloca %"class.std::__1::__libcpp_compressed_pair_imp.245"*, align 8
  %217 = alloca %"class.std::__1::__compressed_pair.244"*, align 8
  %218 = alloca i8*, align 8
  %219 = alloca %"class.std::__1::allocator.186"*, align 8
  %220 = alloca %"struct.std::__1::__hash_node"*, align 8
  %221 = alloca i64, align 8
  %222 = alloca %"class.std::__1::allocator.186"*, align 8
  %223 = alloca %"struct.std::__1::__hash_node"*, align 8
  %224 = alloca i64, align 8
  %225 = alloca %"class.std::__1::allocator.186"*, align 8
  %226 = alloca %"struct.std::__1::pair.239"*, align 8
  %227 = alloca %"class.std::__1::allocator.186"*, align 8
  %228 = alloca %"struct.std::__1::pair.239"*, align 8
  %229 = alloca %"struct.std::__1::integral_constant.237", align 1
  %230 = alloca %"struct.std::__1::__has_destroy.247", align 1
  %231 = alloca %"struct.std::__1::pair.239"*, align 8
  %232 = alloca %"union.std::__1::__hash_value_type"*, align 8
  %233 = alloca %"class.std::__1::__hash_node_destructor"*, align 8
  %234 = alloca %"struct.std::__1::__hash_node"*, align 8
  %235 = alloca %"class.std::__1::__libcpp_compressed_pair_imp.245"*, align 8
  %236 = alloca %"class.std::__1::__compressed_pair.244"*, align 8
  %237 = alloca %"class.std::__1::unique_ptr.243"*, align 8
  %238 = alloca %"struct.std::__1::__hash_node"*, align 8
  %239 = alloca %"struct.std::__1::__hash_node"*, align 8
  %240 = alloca %"class.std::__1::unique_ptr.243"*, align 8
  %241 = alloca %"class.std::__1::unique_ptr.243"*, align 8
  %242 = alloca %"class.std::__1::__hash_iterator"*, align 8
  %243 = alloca %"struct.std::__1::__hash_node_base.178"*, align 8
  %244 = alloca %"class.std::__1::__hash_iterator"*, align 8
  %245 = alloca %"struct.std::__1::__hash_node_base.178"*, align 8
  %246 = alloca i8*, align 8
  %247 = alloca %"class.std::__1::__hash_iterator"*, align 8
  %248 = alloca %"struct.std::__1::pair.241"*, align 8
  %249 = alloca %"class.std::__1::__hash_iterator"*, align 8
  %250 = alloca i8*, align 8
  %251 = alloca %"struct.std::__1::pair.241"*, align 8
  %252 = alloca %"class.std::__1::__hash_iterator"*, align 8
  %253 = alloca i8*, align 8
  %254 = alloca %"class.std::__1::__libcpp_compressed_pair_imp.189"*, align 8
  %255 = alloca %"class.std::__1::__compressed_pair.188"*, align 8
  %256 = alloca %"class.std::__1::__hash_table.174"*, align 8
  %257 = alloca %"struct.std::__1::pair.241", align 8
  %258 = alloca %"class.std::__1::__hash_table.174"*, align 8
  %259 = alloca %"class.std::__1::basic_string"*, align 8
  %260 = alloca %"class.std::__1::basic_string"*, align 8
  %261 = alloca %"class.llvm::Function"**, align 8
  %262 = alloca i64, align 8
  %263 = alloca i64, align 8
  %264 = alloca i8, align 1
  %265 = alloca %"struct.std::__1::__hash_node_base.178"*, align 8
  %266 = alloca i64, align 8
  %267 = alloca %"class.std::__1::unique_ptr.243", align 8
  %268 = alloca i64, align 8
  %269 = alloca i8*
  %270 = alloca i32
  %271 = alloca i64, align 8
  %272 = alloca %"struct.std::__1::__hash_node_base.178"*, align 8
  %273 = alloca %"class.std::__1::__hash_iterator", align 8
  %274 = alloca %"class.std::__1::basic_string"*, align 8
  %275 = alloca %"struct.std::__1::pair.241", align 8
  %276 = alloca %"class.std::__1::__hash_table.174"*, align 8
  %277 = alloca %"class.std::__1::basic_string"*, align 8
  %278 = alloca %"class.llvm::Function"**, align 8
  %279 = alloca %"class.std::__1::__hash_iterator", align 8
  %280 = alloca %"class.std::__1::__hash_map_iterator"*, align 8
  %281 = alloca %"class.std::__1::__hash_iterator", align 8
  %282 = alloca %"class.std::__1::__hash_map_iterator"*, align 8
  %283 = alloca i8*, align 8
  %284 = alloca %"class.std::__1::__hash_iterator"*, align 8
  %285 = alloca %"struct.std::__1::pair.214"*, align 8
  %286 = alloca %"struct.std::__1::pair.241"*, align 8
  %287 = alloca i8*, align 8
  %288 = alloca %"class.std::__1::__hash_iterator", align 8
  %289 = alloca %"struct.std::__1::pair.214"*, align 8
  %290 = alloca %"struct.std::__1::pair.241"*, align 8
  %291 = alloca i8*, align 8
  %292 = alloca %"class.std::__1::basic_string"*, align 8
  %293 = alloca %"struct.std::__1::pair.214", align 8
  %294 = alloca %"class.std::__1::unordered_map.173"*, align 8
  %295 = alloca %"class.std::__1::basic_string"*, align 8
  %296 = alloca %"class.llvm::Function"**, align 8
  %297 = alloca %"struct.std::__1::pair.241", align 8
  %298 = alloca %"class.std::__1::__libcpp_compressed_pair_imp.211"*, align 8
  %299 = alloca %"class.std::__1::__compressed_pair.210"*, align 8
  %300 = alloca %"class.std::__1::unique_ptr.209"*, align 8
  %301 = alloca %"class.std::__1::__libcpp_compressed_pair_imp.164"*, align 8
  %302 = alloca %"class.std::__1::__compressed_pair.163"*, align 8
  %303 = alloca %"class.std::__1::basic_string"*, align 8
  %304 = alloca [3 x i64]*, align 8
  %305 = alloca i32, align 4
  %306 = alloca %"class.std::__1::__compressed_pair.163"*, align 8
  %307 = alloca %"class.std::__1::basic_string"*, align 8
  %308 = alloca %"class.std::__1::basic_string"*, align 8
  %309 = alloca %"class.std::__1::basic_string"*, align 8
  %310 = alloca %"class.std::__1::basic_string"*, align 8
  %311 = alloca %"class.std::__1::basic_string"*, align 8
  %312 = alloca %"class.std::__1::__libcpp_compressed_pair_imp.164"*, align 8
  %313 = alloca %"class.std::__1::__compressed_pair.163"*, align 8
  %314 = alloca %"class.std::__1::basic_string"*, align 8
  %315 = alloca %"class.std::__1::__libcpp_compressed_pair_imp.164"*, align 8
  %316 = alloca %"class.std::__1::__compressed_pair.163"*, align 8
  %317 = alloca %"class.std::__1::basic_string"*, align 8
  %318 = alloca %"class.std::__1::__libcpp_compressed_pair_imp.164"*, align 8
  %319 = alloca %"class.std::__1::__compressed_pair.163"*, align 8
  %320 = alloca %"class.std::__1::basic_string"*, align 8
  %321 = alloca %"class.std::__1::basic_string"*, align 8
  %322 = alloca i8*, align 8
  %323 = alloca %"class.std::__1::__libcpp_compressed_pair_imp.164"*, align 8
  %324 = alloca %"class.std::__1::__compressed_pair.163"*, align 8
  %325 = alloca %"class.std::__1::basic_string"*, align 8
  %326 = alloca i8*, align 8
  %327 = alloca i8*, align 8
  %328 = alloca %"class.std::__1::__libcpp_compressed_pair_imp.164"*, align 8
  %329 = alloca %"class.std::__1::__compressed_pair.163"*, align 8
  %330 = alloca %"class.std::__1::basic_string"*, align 8
  %331 = alloca %"class.std::__1::__libcpp_compressed_pair_imp.164"*, align 8
  %332 = alloca %"class.std::__1::__compressed_pair.163"*, align 8
  %333 = alloca %"class.std::__1::basic_string"*, align 8
  %334 = alloca %"class.std::__1::basic_string"*, align 8
  %335 = alloca %"class.std::__1::basic_string"*, align 8
  %336 = alloca %"class.std::__1::basic_string"*, align 8
  %337 = alloca %"class.std::__1::basic_string"*, align 8
  %338 = alloca %"class.std::__1::basic_string"*, align 8
  %339 = alloca %"class.std::__1::basic_string"*, align 8
  %340 = alloca %"class.std::__1::__wrap_iter"*, align 8
  %341 = alloca %"class.std::__1::__wrap_iter.208"*, align 8
  %342 = alloca %"class.std::__1::__wrap_iter"*, align 8
  %343 = alloca i8*, align 8
  %344 = alloca %"class.std::__1::__wrap_iter.208"*, align 8
  %345 = alloca %"class.std::__1::__wrap_iter"*, align 8
  %346 = alloca i8*, align 8
  %347 = alloca %"class.std::__1::__wrap_iter"*, align 8
  %348 = alloca %"class.llvm::Type"**, align 8
  %349 = alloca %"class.std::__1::__wrap_iter"*, align 8
  %350 = alloca %"class.llvm::Type"**, align 8
  %351 = alloca %"class.std::__1::__wrap_iter", align 8
  %352 = alloca %"class.std::__1::vector.201"*, align 8
  %353 = alloca %"class.llvm::Type"**, align 8
  %354 = alloca %"class.std::__1::__wrap_iter", align 8
  %355 = alloca %"class.std::__1::vector.201"*, align 8
  %356 = alloca %class.InternalClass*, align 8
  %357 = alloca %"class.llvm::Type"*, align 8
  %358 = alloca i8, align 1
  %359 = alloca i8, align 1
  %360 = alloca %"class.std::__1::__wrap_iter.208", align 8
  %361 = alloca %"class.std::__1::__wrap_iter", align 8
  %362 = alloca %"class.llvm::Type"*, align 8
  %363 = alloca %"class.std::__1::__wrap_iter", align 8
  %364 = alloca %"class.llvm::FunctionType"*, align 8
  %365 = alloca %"class.llvm::ArrayRef", align 8
  %366 = alloca %"class.llvm::Function"*, align 8
  %367 = alloca %"class.llvm::Twine", align 8
  %368 = alloca %"class.std::__1::basic_string", align 8
  %369 = alloca %"class.std::__1::basic_string", align 8
  %370 = alloca i8*
  %371 = alloca i32
  %372 = alloca %"struct.std::__1::pair.214", align 8
  %373 = alloca %"class.llvm::Twine", align 8
  store %class.InternalClass* %0, %class.InternalClass** %356, align 8
  store %"class.llvm::Type"* %2, %"class.llvm::Type"** %357, align 8
  %374 = zext i1 %4 to i8
  store i8 %374, i8* %358, align 1
  %375 = zext i1 %5 to i8
  store i8 %375, i8* %359, align 1
  %376 = load %class.InternalClass*, %class.InternalClass** %356, align 8
  store %"class.std::__1::vector.201"* %3, %"class.std::__1::vector.201"** %355, align 8
  %377 = load %"class.std::__1::vector.201"*, %"class.std::__1::vector.201"** %355, align 8
  %378 = bitcast %"class.std::__1::vector.201"* %377 to %"class.std::__1::__vector_base.202"*
  %379 = getelementptr inbounds %"class.std::__1::__vector_base.202", %"class.std::__1::__vector_base.202"* %378, i32 0, i32 0
  %380 = load %"class.llvm::Type"**, %"class.llvm::Type"*** %379, align 8
  store %"class.std::__1::vector.201"* %377, %"class.std::__1::vector.201"** %352, align 8
  store %"class.llvm::Type"** %380, %"class.llvm::Type"*** %353, align 8
  %381 = load %"class.std::__1::vector.201"*, %"class.std::__1::vector.201"** %352, align 8
  %382 = load %"class.llvm::Type"**, %"class.llvm::Type"*** %353, align 8
  store %"class.std::__1::__wrap_iter"* %351, %"class.std::__1::__wrap_iter"** %349, align 8
  store %"class.llvm::Type"** %382, %"class.llvm::Type"*** %350, align 8
  %383 = load %"class.std::__1::__wrap_iter"*, %"class.std::__1::__wrap_iter"** %349, align 8
  %384 = load %"class.llvm::Type"**, %"class.llvm::Type"*** %350, align 8
  store %"class.std::__1::__wrap_iter"* %383, %"class.std::__1::__wrap_iter"** %347, align 8
  store %"class.llvm::Type"** %384, %"class.llvm::Type"*** %348, align 8
  %385 = load %"class.std::__1::__wrap_iter"*, %"class.std::__1::__wrap_iter"** %347, align 8
  %386 = getelementptr inbounds %"class.std::__1::__wrap_iter", %"class.std::__1::__wrap_iter"* %385, i32 0, i32 0
  %387 = load %"class.llvm::Type"**, %"class.llvm::Type"*** %348, align 8
  store %"class.llvm::Type"** %387, %"class.llvm::Type"*** %386, align 8
  %388 = getelementptr inbounds %"class.std::__1::__wrap_iter", %"class.std::__1::__wrap_iter"* %351, i32 0, i32 0
  %389 = load %"class.llvm::Type"**, %"class.llvm::Type"*** %388, align 8
  %390 = getelementptr inbounds %"class.std::__1::__wrap_iter", %"class.std::__1::__wrap_iter"* %354, i32 0, i32 0
  store %"class.llvm::Type"** %389, %"class.llvm::Type"*** %390, align 8
  %391 = getelementptr inbounds %"class.std::__1::__wrap_iter", %"class.std::__1::__wrap_iter"* %354, i32 0, i32 0
  %392 = load %"class.llvm::Type"**, %"class.llvm::Type"*** %391, align 8
  %393 = getelementptr inbounds %"class.std::__1::__wrap_iter", %"class.std::__1::__wrap_iter"* %361, i32 0, i32 0
  store %"class.llvm::Type"** %392, %"class.llvm::Type"*** %393, align 8
  store %"class.std::__1::__wrap_iter.208"* %360, %"class.std::__1::__wrap_iter.208"** %344, align 8
  store %"class.std::__1::__wrap_iter"* %361, %"class.std::__1::__wrap_iter"** %345, align 8
  store i8* null, i8** %346, align 8
  %394 = load %"class.std::__1::__wrap_iter.208"*, %"class.std::__1::__wrap_iter.208"** %344, align 8
  %395 = load %"class.std::__1::__wrap_iter"*, %"class.std::__1::__wrap_iter"** %345, align 8
  %396 = load i8*, i8** %346, align 8
  store %"class.std::__1::__wrap_iter.208"* %394, %"class.std::__1::__wrap_iter.208"** %341, align 8
  store %"class.std::__1::__wrap_iter"* %395, %"class.std::__1::__wrap_iter"** %342, align 8
  store i8* %396, i8** %343, align 8
  %397 = load %"class.std::__1::__wrap_iter.208"*, %"class.std::__1::__wrap_iter.208"** %341, align 8
  %398 = getelementptr inbounds %"class.std::__1::__wrap_iter.208", %"class.std::__1::__wrap_iter.208"* %397, i32 0, i32 0
  %399 = load %"class.std::__1::__wrap_iter"*, %"class.std::__1::__wrap_iter"** %342, align 8
  store %"class.std::__1::__wrap_iter"* %399, %"class.std::__1::__wrap_iter"** %340, align 8
  %400 = load %"class.std::__1::__wrap_iter"*, %"class.std::__1::__wrap_iter"** %340, align 8
  %401 = getelementptr inbounds %"class.std::__1::__wrap_iter", %"class.std::__1::__wrap_iter"* %400, i32 0, i32 0
  %402 = load %"class.llvm::Type"**, %"class.llvm::Type"*** %401, align 8
  store %"class.llvm::Type"** %402, %"class.llvm::Type"*** %398, align 8
  %403 = getelementptr inbounds %class.InternalClass, %class.InternalClass* %376, i32 0, i32 2
  %404 = load %"class.llvm::StructType"*, %"class.llvm::StructType"** %403, align 8
  %405 = bitcast %"class.llvm::StructType"* %404 to %"class.llvm::Type"*
  %406 = call %"class.llvm::PointerType"* @_ZNK4llvm4Type12getPointerToEj(%"class.llvm::Type"* %405, i32 0)
  %407 = bitcast %"class.llvm::PointerType"* %406 to %"class.llvm::Type"*
  store %"class.llvm::Type"* %407, %"class.llvm::Type"** %362, align 8
  %408 = getelementptr inbounds %"class.std::__1::__wrap_iter.208", %"class.std::__1::__wrap_iter.208"* %360, i32 0, i32 0
  %409 = load %"class.llvm::Type"**, %"class.llvm::Type"*** %408, align 8
  %410 = call %"class.llvm::Type"** @_ZNSt3__16vectorIPN4llvm4TypeENS_9allocatorIS3_EEE6insertENS_11__wrap_iterIPKS3_EEOS3_(%"class.std::__1::vector.201"* %3, %"class.llvm::Type"** %409, %"class.llvm::Type"** dereferenceable(8) %362)
  %411 = getelementptr inbounds %"class.std::__1::__wrap_iter", %"class.std::__1::__wrap_iter"* %363, i32 0, i32 0
  store %"class.llvm::Type"** %410, %"class.llvm::Type"*** %411, align 8
  %412 = load %"class.llvm::Type"*, %"class.llvm::Type"** %357, align 8
  call void @_ZN4llvm8ArrayRefIPNS_4TypeEEC1INSt3__19allocatorIS2_EEEERKNS5_6vectorIS2_T_EE(%"class.llvm::ArrayRef"* %365, %"class.std::__1::vector.201"* dereferenceable(24) %3)
  %413 = load i8, i8* %359, align 1
  %414 = trunc i8 %413 to i1
  %415 = bitcast %"class.llvm::ArrayRef"* %365 to { %"class.llvm::Type"**, i64 }*
  %416 = getelementptr inbounds { %"class.llvm::Type"**, i64 }, { %"class.llvm::Type"**, i64 }* %415, i32 0, i32 0
  %417 = load %"class.llvm::Type"**, %"class.llvm::Type"*** %416, align 8
  %418 = getelementptr inbounds { %"class.llvm::Type"**, i64 }, { %"class.llvm::Type"**, i64 }* %415, i32 0, i32 1
  %419 = load i64, i64* %418, align 8
  %420 = call %"class.llvm::FunctionType"* @_ZN4llvm12FunctionType3getEPNS_4TypeENS_8ArrayRefIS2_EEb(%"class.llvm::Type"* %412, %"class.llvm::Type"** %417, i64 %419, i1 zeroext %414)
  store %"class.llvm::FunctionType"* %420, %"class.llvm::FunctionType"** %364, align 8
  %421 = load %"class.llvm::FunctionType"*, %"class.llvm::FunctionType"** %364, align 8
  %422 = getelementptr inbounds %class.InternalClass, %class.InternalClass* %376, i32 0, i32 3
  call void @_ZNSt3__1plIcNS_11char_traitsIcEENS_9allocatorIcEEEENS_12basic_stringIT_T0_T1_EERKS9_PKS6_(%"class.std::__1::basic_string"* sret %369, %"class.std::__1::basic_string"* dereferenceable(24) %422, i8* getelementptr inbounds ([2 x i8], [2 x i8]* @.str.2, i32 0, i32 0))
  store %"class.std::__1::basic_string"* %369, %"class.std::__1::basic_string"** %338, align 8, !noalias !2
  store %"class.std::__1::basic_string"* %1, %"class.std::__1::basic_string"** %339, align 8, !noalias !2
  %423 = load %"class.std::__1::basic_string"*, %"class.std::__1::basic_string"** %338, align 8, !noalias !2
  %424 = load %"class.std::__1::basic_string"*, %"class.std::__1::basic_string"** %339, align 8, !noalias !2
  store %"class.std::__1::basic_string"* %423, %"class.std::__1::basic_string"** %336, align 8, !noalias !2
  store %"class.std::__1::basic_string"* %424, %"class.std::__1::basic_string"** %337, align 8, !noalias !2
  %425 = load %"class.std::__1::basic_string"*, %"class.std::__1::basic_string"** %336, align 8, !noalias !2
  %426 = load %"class.std::__1::basic_string"*, %"class.std::__1::basic_string"** %337, align 8, !noalias !2
  store %"class.std::__1::basic_string"* %426, %"class.std::__1::basic_string"** %335, align 8, !noalias !2
  %427 = load %"class.std::__1::basic_string"*, %"class.std::__1::basic_string"** %335, align 8, !noalias !2
  store %"class.std::__1::basic_string"* %427, %"class.std::__1::basic_string"** %334, align 8, !noalias !2
  %428 = load %"class.std::__1::basic_string"*, %"class.std::__1::basic_string"** %334, align 8, !noalias !2
  store %"class.std::__1::basic_string"* %428, %"class.std::__1::basic_string"** %333, align 8, !noalias !2
  %429 = load %"class.std::__1::basic_string"*, %"class.std::__1::basic_string"** %333, align 8, !noalias !2
  %430 = getelementptr inbounds %"class.std::__1::basic_string", %"class.std::__1::basic_string"* %429, i32 0, i32 0
  store %"class.std::__1::__compressed_pair.163"* %430, %"class.std::__1::__compressed_pair.163"** %332, align 8, !noalias !2
  %431 = load %"class.std::__1::__compressed_pair.163"*, %"class.std::__1::__compressed_pair.163"** %332, align 8, !noalias !2
  %432 = bitcast %"class.std::__1::__compressed_pair.163"* %431 to %"class.std::__1::__libcpp_compressed_pair_imp.164"*
  store %"class.std::__1::__libcpp_compressed_pair_imp.164"* %432, %"class.std::__1::__libcpp_compressed_pair_imp.164"** %331, align 8, !noalias !2
  %433 = load %"class.std::__1::__libcpp_compressed_pair_imp.164"*, %"class.std::__1::__libcpp_compressed_pair_imp.164"** %331, align 8, !noalias !2
  %434 = getelementptr inbounds %"class.std::__1::__libcpp_compressed_pair_imp.164", %"class.std::__1::__libcpp_compressed_pair_imp.164"* %433, i32 0, i32 0
  %435 = getelementptr inbounds %"struct.std::__1::basic_string<char, std::__1::char_traits<char>, std::__1::allocator<char> >::__rep", %"struct.std::__1::basic_string<char, std::__1::char_traits<char>, std::__1::allocator<char> >::__rep"* %434, i32 0, i32 0
  %436 = bitcast %union.anon.167* %435 to %"struct.std::__1::basic_string<char, std::__1::char_traits<char>, std::__1::allocator<char> >::__short"*
  %437 = getelementptr inbounds %"struct.std::__1::basic_string<char, std::__1::char_traits<char>, std::__1::allocator<char> >::__short", %"struct.std::__1::basic_string<char, std::__1::char_traits<char>, std::__1::allocator<char> >::__short"* %436, i32 0, i32 0
  %438 = bitcast %union.anon.168* %437 to i8*
  %439 = load i8, i8* %438, align 8, !noalias !2
  %440 = zext i8 %439 to i32
  %441 = and i32 %440, 1
  %442 = icmp ne i32 %441, 0
  br i1 %442, label %443, label %454

; <label>:443:                                    ; preds = %6
  store %"class.std::__1::basic_string"* %428, %"class.std::__1::basic_string"** %325, align 8, !noalias !2
  %444 = load %"class.std::__1::basic_string"*, %"class.std::__1::basic_string"** %325, align 8, !noalias !2
  %445 = getelementptr inbounds %"class.std::__1::basic_string", %"class.std::__1::basic_string"* %444, i32 0, i32 0
  store %"class.std::__1::__compressed_pair.163"* %445, %"class.std::__1::__compressed_pair.163"** %324, align 8, !noalias !2
  %446 = load %"class.std::__1::__compressed_pair.163"*, %"class.std::__1::__compressed_pair.163"** %324, align 8, !noalias !2
  %447 = bitcast %"class.std::__1::__compressed_pair.163"* %446 to %"class.std::__1::__libcpp_compressed_pair_imp.164"*
  store %"class.std::__1::__libcpp_compressed_pair_imp.164"* %447, %"class.std::__1::__libcpp_compressed_pair_imp.164"** %323, align 8, !noalias !2
  %448 = load %"class.std::__1::__libcpp_compressed_pair_imp.164"*, %"class.std::__1::__libcpp_compressed_pair_imp.164"** %323, align 8, !noalias !2
  %449 = getelementptr inbounds %"class.std::__1::__libcpp_compressed_pair_imp.164", %"class.std::__1::__libcpp_compressed_pair_imp.164"* %448, i32 0, i32 0
  %450 = getelementptr inbounds %"struct.std::__1::basic_string<char, std::__1::char_traits<char>, std::__1::allocator<char> >::__rep", %"struct.std::__1::basic_string<char, std::__1::char_traits<char>, std::__1::allocator<char> >::__rep"* %449, i32 0, i32 0
  %451 = bitcast %union.anon.167* %450 to %"struct.std::__1::basic_string<char, std::__1::char_traits<char>, std::__1::allocator<char> >::__long"*
  %452 = getelementptr inbounds %"struct.std::__1::basic_string<char, std::__1::char_traits<char>, std::__1::allocator<char> >::__long", %"struct.std::__1::basic_string<char, std::__1::char_traits<char>, std::__1::allocator<char> >::__long"* %451, i32 0, i32 2
  %453 = load i8*, i8** %452, align 8
  br label %467

; <label>:454:                                    ; preds = %6
  store %"class.std::__1::basic_string"* %428, %"class.std::__1::basic_string"** %330, align 8, !noalias !2
  %455 = load %"class.std::__1::basic_string"*, %"class.std::__1::basic_string"** %330, align 8, !noalias !2
  %456 = getelementptr inbounds %"class.std::__1::basic_string", %"class.std::__1::basic_string"* %455, i32 0, i32 0
  store %"class.std::__1::__compressed_pair.163"* %456, %"class.std::__1::__compressed_pair.163"** %329, align 8, !noalias !2
  %457 = load %"class.std::__1::__compressed_pair.163"*, %"class.std::__1::__compressed_pair.163"** %329, align 8, !noalias !2
  %458 = bitcast %"class.std::__1::__compressed_pair.163"* %457 to %"class.std::__1::__libcpp_compressed_pair_imp.164"*
  store %"class.std::__1::__libcpp_compressed_pair_imp.164"* %458, %"class.std::__1::__libcpp_compressed_pair_imp.164"** %328, align 8, !noalias !2
  %459 = load %"class.std::__1::__libcpp_compressed_pair_imp.164"*, %"class.std::__1::__libcpp_compressed_pair_imp.164"** %328, align 8, !noalias !2
  %460 = getelementptr inbounds %"class.std::__1::__libcpp_compressed_pair_imp.164", %"class.std::__1::__libcpp_compressed_pair_imp.164"* %459, i32 0, i32 0
  %461 = getelementptr inbounds %"struct.std::__1::basic_string<char, std::__1::char_traits<char>, std::__1::allocator<char> >::__rep", %"struct.std::__1::basic_string<char, std::__1::char_traits<char>, std::__1::allocator<char> >::__rep"* %460, i32 0, i32 0
  %462 = bitcast %union.anon.167* %461 to %"struct.std::__1::basic_string<char, std::__1::char_traits<char>, std::__1::allocator<char> >::__short"*
  %463 = getelementptr inbounds %"struct.std::__1::basic_string<char, std::__1::char_traits<char>, std::__1::allocator<char> >::__short", %"struct.std::__1::basic_string<char, std::__1::char_traits<char>, std::__1::allocator<char> >::__short"* %462, i32 0, i32 1
  %464 = getelementptr inbounds [23 x i8], [23 x i8]* %463, i64 0, i64 0
  store i8* %464, i8** %327, align 8, !noalias !2
  %465 = load i8*, i8** %327, align 8, !noalias !2
  store i8* %465, i8** %326, align 8, !noalias !2
  %466 = load i8*, i8** %326, align 8, !noalias !2
  br label %467

; <label>:467:                                    ; preds = %454, %443
  %468 = phi i8* [ %453, %443 ], [ %466, %454 ]
  store i8* %468, i8** %322, align 8, !noalias !2
  %469 = load i8*, i8** %322, align 8, !noalias !2
  %470 = load %"class.std::__1::basic_string"*, %"class.std::__1::basic_string"** %337, align 8, !noalias !2
  store %"class.std::__1::basic_string"* %470, %"class.std::__1::basic_string"** %321, align 8, !noalias !2
  %471 = load %"class.std::__1::basic_string"*, %"class.std::__1::basic_string"** %321, align 8, !noalias !2
  store %"class.std::__1::basic_string"* %471, %"class.std::__1::basic_string"** %320, align 8, !noalias !2
  %472 = load %"class.std::__1::basic_string"*, %"class.std::__1::basic_string"** %320, align 8, !noalias !2
  %473 = getelementptr inbounds %"class.std::__1::basic_string", %"class.std::__1::basic_string"* %472, i32 0, i32 0
  store %"class.std::__1::__compressed_pair.163"* %473, %"class.std::__1::__compressed_pair.163"** %319, align 8, !noalias !2
  %474 = load %"class.std::__1::__compressed_pair.163"*, %"class.std::__1::__compressed_pair.163"** %319, align 8, !noalias !2
  %475 = bitcast %"class.std::__1::__compressed_pair.163"* %474 to %"class.std::__1::__libcpp_compressed_pair_imp.164"*
  store %"class.std::__1::__libcpp_compressed_pair_imp.164"* %475, %"class.std::__1::__libcpp_compressed_pair_imp.164"** %318, align 8, !noalias !2
  %476 = load %"class.std::__1::__libcpp_compressed_pair_imp.164"*, %"class.std::__1::__libcpp_compressed_pair_imp.164"** %318, align 8, !noalias !2
  %477 = getelementptr inbounds %"class.std::__1::__libcpp_compressed_pair_imp.164", %"class.std::__1::__libcpp_compressed_pair_imp.164"* %476, i32 0, i32 0
  %478 = getelementptr inbounds %"struct.std::__1::basic_string<char, std::__1::char_traits<char>, std::__1::allocator<char> >::__rep", %"struct.std::__1::basic_string<char, std::__1::char_traits<char>, std::__1::allocator<char> >::__rep"* %477, i32 0, i32 0
  %479 = bitcast %union.anon.167* %478 to %"struct.std::__1::basic_string<char, std::__1::char_traits<char>, std::__1::allocator<char> >::__short"*
  %480 = getelementptr inbounds %"struct.std::__1::basic_string<char, std::__1::char_traits<char>, std::__1::allocator<char> >::__short", %"struct.std::__1::basic_string<char, std::__1::char_traits<char>, std::__1::allocator<char> >::__short"* %479, i32 0, i32 0
  %481 = bitcast %union.anon.168* %480 to i8*
  %482 = load i8, i8* %481, align 8, !noalias !2
  %483 = zext i8 %482 to i32
  %484 = and i32 %483, 1
  %485 = icmp ne i32 %484, 0
  br i1 %485, label %486, label %497

; <label>:486:                                    ; preds = %467
  store %"class.std::__1::basic_string"* %471, %"class.std::__1::basic_string"** %314, align 8, !noalias !2
  %487 = load %"class.std::__1::basic_string"*, %"class.std::__1::basic_string"** %314, align 8, !noalias !2
  %488 = getelementptr inbounds %"class.std::__1::basic_string", %"class.std::__1::basic_string"* %487, i32 0, i32 0
  store %"class.std::__1::__compressed_pair.163"* %488, %"class.std::__1::__compressed_pair.163"** %313, align 8, !noalias !2
  %489 = load %"class.std::__1::__compressed_pair.163"*, %"class.std::__1::__compressed_pair.163"** %313, align 8, !noalias !2
  %490 = bitcast %"class.std::__1::__compressed_pair.163"* %489 to %"class.std::__1::__libcpp_compressed_pair_imp.164"*
  store %"class.std::__1::__libcpp_compressed_pair_imp.164"* %490, %"class.std::__1::__libcpp_compressed_pair_imp.164"** %312, align 8, !noalias !2
  %491 = load %"class.std::__1::__libcpp_compressed_pair_imp.164"*, %"class.std::__1::__libcpp_compressed_pair_imp.164"** %312, align 8, !noalias !2
  %492 = getelementptr inbounds %"class.std::__1::__libcpp_compressed_pair_imp.164", %"class.std::__1::__libcpp_compressed_pair_imp.164"* %491, i32 0, i32 0
  %493 = getelementptr inbounds %"struct.std::__1::basic_string<char, std::__1::char_traits<char>, std::__1::allocator<char> >::__rep", %"struct.std::__1::basic_string<char, std::__1::char_traits<char>, std::__1::allocator<char> >::__rep"* %492, i32 0, i32 0
  %494 = bitcast %union.anon.167* %493 to %"struct.std::__1::basic_string<char, std::__1::char_traits<char>, std::__1::allocator<char> >::__long"*
  %495 = getelementptr inbounds %"struct.std::__1::basic_string<char, std::__1::char_traits<char>, std::__1::allocator<char> >::__long", %"struct.std::__1::basic_string<char, std::__1::char_traits<char>, std::__1::allocator<char> >::__long"* %494, i32 0, i32 1
  %496 = load i64, i64* %495, align 8
  br label %512

; <label>:497:                                    ; preds = %467
  store %"class.std::__1::basic_string"* %471, %"class.std::__1::basic_string"** %317, align 8, !noalias !2
  %498 = load %"class.std::__1::basic_string"*, %"class.std::__1::basic_string"** %317, align 8, !noalias !2
  %499 = getelementptr inbounds %"class.std::__1::basic_string", %"class.std::__1::basic_string"* %498, i32 0, i32 0
  store %"class.std::__1::__compressed_pair.163"* %499, %"class.std::__1::__compressed_pair.163"** %316, align 8, !noalias !2
  %500 = load %"class.std::__1::__compressed_pair.163"*, %"class.std::__1::__compressed_pair.163"** %316, align 8, !noalias !2
  %501 = bitcast %"class.std::__1::__compressed_pair.163"* %500 to %"class.std::__1::__libcpp_compressed_pair_imp.164"*
  store %"class.std::__1::__libcpp_compressed_pair_imp.164"* %501, %"class.std::__1::__libcpp_compressed_pair_imp.164"** %315, align 8, !noalias !2
  %502 = load %"class.std::__1::__libcpp_compressed_pair_imp.164"*, %"class.std::__1::__libcpp_compressed_pair_imp.164"** %315, align 8, !noalias !2
  %503 = getelementptr inbounds %"class.std::__1::__libcpp_compressed_pair_imp.164", %"class.std::__1::__libcpp_compressed_pair_imp.164"* %502, i32 0, i32 0
  %504 = getelementptr inbounds %"struct.std::__1::basic_string<char, std::__1::char_traits<char>, std::__1::allocator<char> >::__rep", %"struct.std::__1::basic_string<char, std::__1::char_traits<char>, std::__1::allocator<char> >::__rep"* %503, i32 0, i32 0
  %505 = bitcast %union.anon.167* %504 to %"struct.std::__1::basic_string<char, std::__1::char_traits<char>, std::__1::allocator<char> >::__short"*
  %506 = getelementptr inbounds %"struct.std::__1::basic_string<char, std::__1::char_traits<char>, std::__1::allocator<char> >::__short", %"struct.std::__1::basic_string<char, std::__1::char_traits<char>, std::__1::allocator<char> >::__short"* %505, i32 0, i32 0
  %507 = bitcast %union.anon.168* %506 to i8*
  %508 = load i8, i8* %507, align 8
  %509 = zext i8 %508 to i32
  %510 = ashr i32 %509, 1
  %511 = sext i32 %510 to i64
  br label %512

; <label>:512:                                    ; preds = %497, %486
  %513 = phi i64 [ %496, %486 ], [ %511, %497 ]
  %514 = invoke dereferenceable(24) %"class.std::__1::basic_string"* @_ZNSt3__112basic_stringIcNS_11char_traitsIcEENS_9allocatorIcEEE6appendEPKcm(%"class.std::__1::basic_string"* %425, i8* %469, i64 %513)
          to label %515 unwind label %1452

; <label>:515:                                    ; preds = %512
  store %"class.std::__1::basic_string"* %514, %"class.std::__1::basic_string"** %311, align 8, !noalias !2
  %516 = load %"class.std::__1::basic_string"*, %"class.std::__1::basic_string"** %311, align 8, !noalias !2
  store %"class.std::__1::basic_string"* %368, %"class.std::__1::basic_string"** %309, align 8, !noalias !2
  store %"class.std::__1::basic_string"* %516, %"class.std::__1::basic_string"** %310, align 8, !noalias !2
  %517 = load %"class.std::__1::basic_string"*, %"class.std::__1::basic_string"** %309, align 8, !noalias !2
  %518 = load %"class.std::__1::basic_string"*, %"class.std::__1::basic_string"** %310, align 8, !noalias !2
  store %"class.std::__1::basic_string"* %517, %"class.std::__1::basic_string"** %307, align 8, !noalias !2
  store %"class.std::__1::basic_string"* %518, %"class.std::__1::basic_string"** %308, align 8, !noalias !2
  %519 = load %"class.std::__1::basic_string"*, %"class.std::__1::basic_string"** %307, align 8, !noalias !2
  %520 = bitcast %"class.std::__1::basic_string"* %519 to %"class.std::__1::__basic_string_common"*
  %521 = getelementptr inbounds %"class.std::__1::basic_string", %"class.std::__1::basic_string"* %519, i32 0, i32 0
  %522 = load %"class.std::__1::basic_string"*, %"class.std::__1::basic_string"** %308, align 8, !noalias !2
  %523 = getelementptr inbounds %"class.std::__1::basic_string", %"class.std::__1::basic_string"* %522, i32 0, i32 0
  store %"class.std::__1::__compressed_pair.163"* %523, %"class.std::__1::__compressed_pair.163"** %306, align 8, !noalias !2
  %524 = load %"class.std::__1::__compressed_pair.163"*, %"class.std::__1::__compressed_pair.163"** %306, align 8, !noalias !2
  %525 = bitcast %"class.std::__1::__compressed_pair.163"* %521 to i8*
  %526 = bitcast %"class.std::__1::__compressed_pair.163"* %524 to i8*
  call void @llvm.memcpy.p0i8.p0i8.i64(i8* %525, i8* %526, i64 24, i32 8, i1 false) #14
  %527 = load %"class.std::__1::basic_string"*, %"class.std::__1::basic_string"** %308, align 8, !noalias !2
  store %"class.std::__1::basic_string"* %527, %"class.std::__1::basic_string"** %303, align 8, !noalias !2
  %528 = load %"class.std::__1::basic_string"*, %"class.std::__1::basic_string"** %303, align 8, !noalias !2
  %529 = getelementptr inbounds %"class.std::__1::basic_string", %"class.std::__1::basic_string"* %528, i32 0, i32 0
  store %"class.std::__1::__compressed_pair.163"* %529, %"class.std::__1::__compressed_pair.163"** %302, align 8, !noalias !2
  %530 = load %"class.std::__1::__compressed_pair.163"*, %"class.std::__1::__compressed_pair.163"** %302, align 8, !noalias !2
  %531 = bitcast %"class.std::__1::__compressed_pair.163"* %530 to %"class.std::__1::__libcpp_compressed_pair_imp.164"*
  store %"class.std::__1::__libcpp_compressed_pair_imp.164"* %531, %"class.std::__1::__libcpp_compressed_pair_imp.164"** %301, align 8, !noalias !2
  %532 = load %"class.std::__1::__libcpp_compressed_pair_imp.164"*, %"class.std::__1::__libcpp_compressed_pair_imp.164"** %301, align 8, !noalias !2
  %533 = getelementptr inbounds %"class.std::__1::__libcpp_compressed_pair_imp.164", %"class.std::__1::__libcpp_compressed_pair_imp.164"* %532, i32 0, i32 0
  %534 = getelementptr inbounds %"struct.std::__1::basic_string<char, std::__1::char_traits<char>, std::__1::allocator<char> >::__rep", %"struct.std::__1::basic_string<char, std::__1::char_traits<char>, std::__1::allocator<char> >::__rep"* %533, i32 0, i32 0
  %535 = bitcast %union.anon.167* %534 to %"struct.std::__1::basic_string<char, std::__1::char_traits<char>, std::__1::allocator<char> >::__raw"*
  %536 = getelementptr inbounds %"struct.std::__1::basic_string<char, std::__1::char_traits<char>, std::__1::allocator<char> >::__raw", %"struct.std::__1::basic_string<char, std::__1::char_traits<char>, std::__1::allocator<char> >::__raw"* %535, i32 0, i32 0
  store [3 x i64]* %536, [3 x i64]** %304, align 8, !noalias !2
  store i32 0, i32* %305, align 4, !noalias !2
  br label %537

; <label>:537:                                    ; preds = %540, %515
  %538 = load i32, i32* %305, align 4, !noalias !2
  %539 = icmp ult i32 %538, 3
  br i1 %539, label %540, label %547

; <label>:540:                                    ; preds = %537
  %541 = load i32, i32* %305, align 4, !noalias !2
  %542 = zext i32 %541 to i64
  %543 = load [3 x i64]*, [3 x i64]** %304, align 8, !noalias !2
  %544 = getelementptr inbounds [3 x i64], [3 x i64]* %543, i64 0, i64 %542
  store i64 0, i64* %544, align 8
  %545 = load i32, i32* %305, align 4, !noalias !2
  %546 = add i32 %545, 1
  store i32 %546, i32* %305, align 4, !noalias !2
  br label %537

; <label>:547:                                    ; preds = %537
  br label %548

; <label>:548:                                    ; preds = %547
  invoke void @_ZN4llvm5TwineC1ERKNSt3__112basic_stringIcNS1_11char_traitsIcEENS1_9allocatorIcEEEE(%"class.llvm::Twine"* %367, %"class.std::__1::basic_string"* dereferenceable(24) %368)
          to label %549 unwind label %1456

; <label>:549:                                    ; preds = %548
  %550 = getelementptr inbounds %class.InternalClass, %class.InternalClass* %376, i32 0, i32 0
  %551 = load %class.CodeGenVisitor*, %class.CodeGenVisitor** %550, align 8
  store %"class.std::__1::unique_ptr.209"* @_ZN14CodeGenVisitor6ModuleE, %"class.std::__1::unique_ptr.209"** %300, align 8
  %552 = load %"class.std::__1::unique_ptr.209"*, %"class.std::__1::unique_ptr.209"** %300, align 8
  %553 = getelementptr inbounds %"class.std::__1::unique_ptr.209", %"class.std::__1::unique_ptr.209"* %552, i32 0, i32 0
  store %"class.std::__1::__compressed_pair.210"* %553, %"class.std::__1::__compressed_pair.210"** %299, align 8
  %554 = load %"class.std::__1::__compressed_pair.210"*, %"class.std::__1::__compressed_pair.210"** %299, align 8
  %555 = bitcast %"class.std::__1::__compressed_pair.210"* %554 to %"class.std::__1::__libcpp_compressed_pair_imp.211"*
  store %"class.std::__1::__libcpp_compressed_pair_imp.211"* %555, %"class.std::__1::__libcpp_compressed_pair_imp.211"** %298, align 8
  %556 = load %"class.std::__1::__libcpp_compressed_pair_imp.211"*, %"class.std::__1::__libcpp_compressed_pair_imp.211"** %298, align 8
  %557 = getelementptr inbounds %"class.std::__1::__libcpp_compressed_pair_imp.211", %"class.std::__1::__libcpp_compressed_pair_imp.211"* %556, i32 0, i32 0
  %558 = load %"class.llvm::Module"*, %"class.llvm::Module"** %557, align 8
  %559 = invoke %"class.llvm::Function"* @_ZN4llvm8Function6CreateEPNS_12FunctionTypeENS_11GlobalValue12LinkageTypesERKNS_5TwineEPNS_6ModuleE(%"class.llvm::FunctionType"* %421, i32 0, %"class.llvm::Twine"* dereferenceable(24) %367, %"class.llvm::Module"* %558)
          to label %560 unwind label %1456

; <label>:560:                                    ; preds = %549
  call void @_ZNSt3__112basic_stringIcNS_11char_traitsIcEENS_9allocatorIcEEED1Ev(%"class.std::__1::basic_string"* %368) #14
  call void @_ZNSt3__112basic_stringIcNS_11char_traitsIcEENS_9allocatorIcEEED1Ev(%"class.std::__1::basic_string"* %369) #14
  store %"class.llvm::Function"* %559, %"class.llvm::Function"** %366, align 8
  %561 = getelementptr inbounds %class.InternalClass, %class.InternalClass* %376, i32 0, i32 4
  store %"class.std::__1::unordered_map.173"* %561, %"class.std::__1::unordered_map.173"** %294, align 8
  store %"class.std::__1::basic_string"* %1, %"class.std::__1::basic_string"** %295, align 8
  store %"class.llvm::Function"** %366, %"class.llvm::Function"*** %296, align 8
  %562 = load %"class.std::__1::unordered_map.173"*, %"class.std::__1::unordered_map.173"** %294, align 8
  %563 = getelementptr inbounds %"class.std::__1::unordered_map.173", %"class.std::__1::unordered_map.173"* %562, i32 0, i32 0
  %564 = load %"class.std::__1::basic_string"*, %"class.std::__1::basic_string"** %295, align 8
  store %"class.std::__1::basic_string"* %564, %"class.std::__1::basic_string"** %292, align 8
  %565 = load %"class.std::__1::basic_string"*, %"class.std::__1::basic_string"** %292, align 8
  %566 = load %"class.llvm::Function"**, %"class.llvm::Function"*** %296, align 8
  store %"class.llvm::Function"** %566, %"class.llvm::Function"*** %7, align 8
  %567 = load %"class.llvm::Function"**, %"class.llvm::Function"*** %7, align 8
  store %"class.std::__1::__hash_table.174"* %563, %"class.std::__1::__hash_table.174"** %276, align 8
  store %"class.std::__1::basic_string"* %565, %"class.std::__1::basic_string"** %277, align 8
  store %"class.llvm::Function"** %567, %"class.llvm::Function"*** %278, align 8
  %568 = load %"class.std::__1::__hash_table.174"*, %"class.std::__1::__hash_table.174"** %276, align 8
  %569 = load %"class.std::__1::basic_string"*, %"class.std::__1::basic_string"** %277, align 8
  %570 = load %"class.std::__1::basic_string"*, %"class.std::__1::basic_string"** %277, align 8
  store %"class.std::__1::basic_string"* %570, %"class.std::__1::basic_string"** %274, align 8
  %571 = load %"class.std::__1::basic_string"*, %"class.std::__1::basic_string"** %274, align 8
  %572 = load %"class.llvm::Function"**, %"class.llvm::Function"*** %278, align 8
  store %"class.llvm::Function"** %572, %"class.llvm::Function"*** %8, align 8
  %573 = load %"class.llvm::Function"**, %"class.llvm::Function"*** %8, align 8
  store %"class.std::__1::__hash_table.174"* %568, %"class.std::__1::__hash_table.174"** %258, align 8
  store %"class.std::__1::basic_string"* %569, %"class.std::__1::basic_string"** %259, align 8
  store %"class.std::__1::basic_string"* %571, %"class.std::__1::basic_string"** %260, align 8
  store %"class.llvm::Function"** %573, %"class.llvm::Function"*** %261, align 8
  %574 = load %"class.std::__1::__hash_table.174"*, %"class.std::__1::__hash_table.174"** %258, align 8
  store %"class.std::__1::__hash_table.174"* %574, %"class.std::__1::__hash_table.174"** %256, align 8
  %575 = load %"class.std::__1::__hash_table.174"*, %"class.std::__1::__hash_table.174"** %256, align 8
  %576 = getelementptr inbounds %"class.std::__1::__hash_table.174", %"class.std::__1::__hash_table.174"* %575, i32 0, i32 2
  store %"class.std::__1::__compressed_pair.188"* %576, %"class.std::__1::__compressed_pair.188"** %255, align 8
  %577 = load %"class.std::__1::__compressed_pair.188"*, %"class.std::__1::__compressed_pair.188"** %255, align 8
  %578 = bitcast %"class.std::__1::__compressed_pair.188"* %577 to %"class.std::__1::__libcpp_compressed_pair_imp.189"*
  store %"class.std::__1::__libcpp_compressed_pair_imp.189"* %578, %"class.std::__1::__libcpp_compressed_pair_imp.189"** %254, align 8
  %579 = load %"class.std::__1::__libcpp_compressed_pair_imp.189"*, %"class.std::__1::__libcpp_compressed_pair_imp.189"** %254, align 8
  %580 = bitcast %"class.std::__1::__libcpp_compressed_pair_imp.189"* %579 to %"class.std::__1::__unordered_map_hasher.190"*
  %581 = load %"class.std::__1::basic_string"*, %"class.std::__1::basic_string"** %259, align 8
  store %"class.std::__1::__unordered_map_hasher.190"* %580, %"class.std::__1::__unordered_map_hasher.190"** %212, align 8
  store %"class.std::__1::basic_string"* %581, %"class.std::__1::basic_string"** %213, align 8
  %582 = load %"class.std::__1::__unordered_map_hasher.190"*, %"class.std::__1::__unordered_map_hasher.190"** %212, align 8
  %583 = bitcast %"class.std::__1::__unordered_map_hasher.190"* %582 to %"struct.std::__1::hash"*
  %584 = load %"class.std::__1::basic_string"*, %"class.std::__1::basic_string"** %213, align 8
  %585 = call i64 @_ZNKSt3__14hashINS_12basic_stringIcNS_11char_traitsIcEENS_9allocatorIcEEEEEclERKS6_(%"struct.std::__1::hash"* %583, %"class.std::__1::basic_string"* dereferenceable(24) %584) #14
  store i64 %585, i64* %262, align 8
  store %"class.std::__1::__hash_table.174"* %574, %"class.std::__1::__hash_table.174"** %211, align 8
  %586 = load %"class.std::__1::__hash_table.174"*, %"class.std::__1::__hash_table.174"** %211, align 8
  %587 = getelementptr inbounds %"class.std::__1::__hash_table.174", %"class.std::__1::__hash_table.174"* %586, i32 0, i32 0
  store %"class.std::__1::unique_ptr.175"* %587, %"class.std::__1::unique_ptr.175"** %210, align 8
  %588 = load %"class.std::__1::unique_ptr.175"*, %"class.std::__1::unique_ptr.175"** %210, align 8
  %589 = getelementptr inbounds %"class.std::__1::unique_ptr.175", %"class.std::__1::unique_ptr.175"* %588, i32 0, i32 0
  store %"class.std::__1::__compressed_pair.176"* %589, %"class.std::__1::__compressed_pair.176"** %209, align 8
  %590 = load %"class.std::__1::__compressed_pair.176"*, %"class.std::__1::__compressed_pair.176"** %209, align 8
  %591 = bitcast %"class.std::__1::__compressed_pair.176"* %590 to %"class.std::__1::__libcpp_compressed_pair_imp.177"*
  store %"class.std::__1::__libcpp_compressed_pair_imp.177"* %591, %"class.std::__1::__libcpp_compressed_pair_imp.177"** %208, align 8
  %592 = load %"class.std::__1::__libcpp_compressed_pair_imp.177"*, %"class.std::__1::__libcpp_compressed_pair_imp.177"** %208, align 8
  %593 = getelementptr inbounds %"class.std::__1::__libcpp_compressed_pair_imp.177", %"class.std::__1::__libcpp_compressed_pair_imp.177"* %592, i32 0, i32 1
  store %"class.std::__1::__bucket_list_deallocator.179"* %593, %"class.std::__1::__bucket_list_deallocator.179"** %207, align 8
  %594 = load %"class.std::__1::__bucket_list_deallocator.179"*, %"class.std::__1::__bucket_list_deallocator.179"** %207, align 8
  %595 = getelementptr inbounds %"class.std::__1::__bucket_list_deallocator.179", %"class.std::__1::__bucket_list_deallocator.179"* %594, i32 0, i32 0
  store %"class.std::__1::__compressed_pair.180"* %595, %"class.std::__1::__compressed_pair.180"** %206, align 8
  %596 = load %"class.std::__1::__compressed_pair.180"*, %"class.std::__1::__compressed_pair.180"** %206, align 8
  %597 = bitcast %"class.std::__1::__compressed_pair.180"* %596 to %"class.std::__1::__libcpp_compressed_pair_imp.181"*
  store %"class.std::__1::__libcpp_compressed_pair_imp.181"* %597, %"class.std::__1::__libcpp_compressed_pair_imp.181"** %205, align 8
  %598 = load %"class.std::__1::__libcpp_compressed_pair_imp.181"*, %"class.std::__1::__libcpp_compressed_pair_imp.181"** %205, align 8
  %599 = getelementptr inbounds %"class.std::__1::__libcpp_compressed_pair_imp.181", %"class.std::__1::__libcpp_compressed_pair_imp.181"* %598, i32 0, i32 0
  %600 = load i64, i64* %599, align 8
  store i64 %600, i64* %263, align 8
  store i8 0, i8* %264, align 1
  %601 = load i64, i64* %263, align 8
  %602 = icmp ne i64 %601, 0
  br i1 %602, label %603, label %945

; <label>:603:                                    ; preds = %560
  %604 = load i64, i64* %262, align 8
  %605 = load i64, i64* %263, align 8
  store i64 %604, i64* %203, align 8
  store i64 %605, i64* %204, align 8
  %606 = load i64, i64* %204, align 8
  %607 = load i64, i64* %204, align 8
  %608 = sub i64 %607, 1
  %609 = and i64 %606, %608
  %610 = icmp ne i64 %609, 0
  br i1 %610, label %616, label %611

; <label>:611:                                    ; preds = %603
  %612 = load i64, i64* %203, align 8
  %613 = load i64, i64* %204, align 8
  %614 = sub i64 %613, 1
  %615 = and i64 %612, %614
  br label %628

; <label>:616:                                    ; preds = %603
  %617 = load i64, i64* %203, align 8
  %618 = load i64, i64* %204, align 8
  %619 = icmp ult i64 %617, %618
  br i1 %619, label %620, label %622

; <label>:620:                                    ; preds = %616
  %621 = load i64, i64* %203, align 8
  br label %626

; <label>:622:                                    ; preds = %616
  %623 = load i64, i64* %203, align 8
  %624 = load i64, i64* %204, align 8
  %625 = urem i64 %623, %624
  br label %626

; <label>:626:                                    ; preds = %622, %620
  %627 = phi i64 [ %621, %620 ], [ %625, %622 ]
  br label %628

; <label>:628:                                    ; preds = %626, %611
  %629 = phi i64 [ %615, %611 ], [ %627, %626 ]
  store i64 %629, i64* %266, align 8
  %630 = getelementptr inbounds %"class.std::__1::__hash_table.174", %"class.std::__1::__hash_table.174"* %574, i32 0, i32 0
  %631 = load i64, i64* %266, align 8
  store %"class.std::__1::unique_ptr.175"* %630, %"class.std::__1::unique_ptr.175"** %117, align 8
  store i64 %631, i64* %118, align 8
  %632 = load %"class.std::__1::unique_ptr.175"*, %"class.std::__1::unique_ptr.175"** %117, align 8
  %633 = load i64, i64* %118, align 8
